(dp0
(I38
S'CTG'
p1
tp2
I32
s(I49
S'TGA'
p3
tp4
I6
s(I47
S'ACA'
p5
tp6
I5
s(I18
S'GCC'
p7
tp8
I6
s(I52
S'ACT'
p9
tp10
I2
s(I62
S'CGT'
p11
tp12
I237
s(I46
S'AGC'
p13
tp14
I751
s(I19
S'AAT'
p15
tp16
I177
s(I3
S'CAG'
p17
tp18
I18
s(I8
S'CAG'
p19
tp20
I4
s(I41
S'ATC'
p21
tp22
I33
s(I64
S'GTC'
p23
tp24
I50
s(I60
S'GCG'
p25
tp26
I72
s(I18
S'ATG'
p27
tp28
I30
s(I25
S'CTC'
p29
tp30
I9
s(I49
S'GGG'
p31
tp32
I1177
s(I40
S'GTC'
p33
tp34
I5
s(I31
S'CTA'
p35
tp36
I8
s(I4
S'TGA'
p37
tp38
I2
s(I24
S'GTG'
p39
tp40
I38
s(I44
S'TGT'
p41
tp42
I37
s(I14
S'AGG'
p43
tp44
I4
s(I24
S'AGA'
p45
tp46
I6
s(I12
S'TCA'
p47
tp48
I2
s(I20
S'CCT'
p49
tp50
I204
s(I70
S'CCA'
p51
tp52
I19
s(I14
S'CTC'
p53
tp54
I33
s(I36
S'GAA'
p55
tp56
I1
s(I6
S'AAA'
p57
tp58
I20
s(I36
S'CTT'
p59
tp60
I59
s(I14
S'CGG'
p61
tp62
I9
s(I41
S'CTT'
p63
tp64
I122
s(I60
S'CAG'
p65
tp66
I46
s(I19
S'TCC'
p67
tp68
I72
s(I49
S'GCA'
p69
tp70
I1283
s(I41
S'GTT'
p71
tp72
I9
s(I39
S'CAC'
p73
tp74
I1
s(I58
S'GAC'
p75
tp76
I149
s(I44
S'CAC'
p77
tp78
I10
s(I49
S'ACA'
p79
tp80
I46
s(I67
S'CAG'
p81
tp82
I7
s(I34
S'TTA'
p83
tp84
I7
s(I65
S'CGC'
p85
tp86
I98
s(I54
S'GTA'
p87
tp88
I11
s(I15
S'TGA'
p89
tp90
I1
s(I23
S'TCG'
p91
tp92
I27
s(I11
S'ATA'
p93
tp94
I1
s(I64
S'TAT'
p95
tp96
I29
s(I72
S'TAC'
p97
tp98
I13
s(I63
S'AAA'
p99
tp100
I144
s(I22
S'AGC'
p101
tp102
I24
s(I13
S'ATC'
p103
tp104
I72
s(I3
S'TTC'
p105
tp106
I3
s(I58
S'CGA'
p107
tp108
I58
s(I13
S'TTG'
p109
tp110
I12
s(I33
S'CGC'
p111
tp112
I57
s(I53
S'ATT'
p113
tp114
I8
s(I66
S'CTC'
p115
tp116
I157
s(I73
S'TGC'
p117
tp118
I2
s(I32
S'ATG'
p119
tp120
I30
s(I53
S'ACT'
p121
tp122
I6
s(I9
S'ATG'
p123
tp124
I25
s(I11
S'CGT'
p125
tp126
I3
s(I52
S'GGA'
p127
tp128
I3
s(I46
S'TTT'
p129
tp130
I600
s(I22
S'CGA'
p131
tp132
I42
s(I8
S'CCA'
p133
tp134
I3
s(I30
S'TTT'
p135
tp136
I107
s(I65
S'CTT'
p137
tp138
I29
s(I45
S'ACC'
p139
tp140
I396
s(I61
S'CGT'
p141
tp142
I13
s(I65
S'AGC'
p143
tp144
I9
s(I52
S'TGG'
p145
tp146
I61
s(I61
S'CCT'
p147
tp148
I2
s(I3
S'GTA'
p149
tp150
I180
s(I6
S'TAT'
p151
tp152
I178
s(I67
S'GAC'
p153
tp154
I4
s(I24
S'AAC'
p155
tp156
I73
s(I29
S'TTT'
p157
tp158
I1
s(I34
S'CGT'
p159
tp160
I4
s(I68
S'TAG'
p161
tp162
I1
s(I26
S'CTT'
p163
tp164
I83
s(I51
S'AAA'
p165
tp166
I19
s(I6
S'CCC'
p167
tp168
I1
s(I33
S'ATT'
p169
tp170
I11
s(I37
S'GGC'
p171
tp172
I7
s(I67
S'CCA'
p173
tp174
I1
s(I15
S'TAG'
p175
tp176
I3
s(I17
S'AAC'
p177
tp178
I1
s(I26
S'GCG'
p179
tp180
I12
s(I19
S'TAA'
p181
tp182
I4
s(I51
S'GGT'
p183
tp184
I169
s(I49
S'TGT'
p185
tp186
I84
s(I58
S'GGA'
p187
tp188
I14
s(I24
S'ATA'
p189
tp190
I10
s(I27
S'TAA'
p191
tp192
I1
s(I70
S'GAT'
p193
tp194
I9
s(I69
S'GTG'
p195
tp196
I65
s(I42
S'CTG'
p197
tp198
I5
s(I66
S'GGA'
p199
tp200
I44
s(I35
S'AGA'
p201
tp202
I4
s(I13
S'TGT'
p203
tp204
I44
s(I8
S'GAA'
p205
tp206
I4
s(I72
S'CGA'
p207
tp208
I15
s(I75
S'GCG'
p209
tp210
I1
s(I26
S'TGT'
p211
tp212
I21
s(I13
S'CGC'
p213
tp214
I84
s(I15
S'CAA'
p215
tp216
I2
s(I47
S'GGC'
p217
tp218
I30
s(I69
S'ATA'
p219
tp220
I19
s(I12
S'ATG'
p221
tp222
I1
s(I40
S'TAC'
p223
tp224
I157
s(I31
S'CTG'
p225
tp226
I3
s(I55
S'GGC'
p227
tp228
I3
s(I49
S'CCC'
p229
tp230
I272
s(I44
S'CAT'
p231
tp232
I7
s(I49
S'GTA'
p233
tp234
I4
s(I10
S'CGG'
p235
tp236
I23
s(I35
S'TTG'
p237
tp238
I20
s(I75
S'CAT'
p239
tp240
I27
s(I5
S'GGC'
p241
tp242
I15
s(I44
S'ACT'
p243
tp244
I318
s(I32
S'TTT'
p245
tp246
I21
s(I14
S'TCT'
p247
tp248
I1
s(I11
S'GAT'
p249
tp250
I110
s(I37
S'TGA'
p251
tp252
I22
s(I26
S'TTA'
p253
tp254
I11
s(I66
S'CTA'
p255
tp256
I296
s(I40
S'AGC'
p257
tp258
I23
s(I65
S'TGC'
p259
tp260
I38
s(I58
S'AAG'
p261
tp262
I4
s(I11
S'GTT'
p263
tp264
I37
s(I71
S'GTT'
p265
tp266
I2
s(I65
S'CGT'
p267
tp268
I115
s(I36
S'GTT'
p269
tp270
I5
s(I25
S'TCT'
p271
tp272
I66
s(I19
S'GGG'
p273
tp274
I27
s(I64
S'TAA'
p275
tp276
I1
s(I30
S'ATC'
p277
tp278
I11
s(I70
S'AAC'
p279
tp280
I4
s(I72
S'CTA'
p281
tp282
I46
s(I60
S'CTC'
p283
tp284
I3
s(I35
S'GTA'
p285
tp286
I5
s(I67
S'GGA'
p287
tp288
I1889
s(I6
S'CTT'
p289
tp290
I12
s(I53
S'GTC'
p291
tp292
I6
s(I44
S'GGG'
p293
tp294
I1
s(I18
S'AAC'
p295
tp296
I30
s(I51
S'ATC'
p297
tp298
I112
s(I16
S'AGC'
p299
tp300
I69
s(I69
S'GGC'
p301
tp302
I1
s(I15
S'CAC'
p303
tp304
I1
s(I29
S'CAT'
p305
tp306
I40
s(I62
S'TAT'
p307
tp308
I196
s(I26
S'GAG'
p309
tp310
I1
s(I61
S'GGG'
p311
tp312
I2
s(I23
S'CGC'
p313
tp314
I1
s(I5
S'TCG'
p315
tp316
I1
s(I37
S'AAT'
p317
tp318
I23
s(I22
S'TGC'
p319
tp320
I82
s(I66
S'CCC'
p321
tp322
I173
s(I8
S'TGG'
p323
tp324
I18
s(I28
S'AAC'
p325
tp326
I19
s(I70
S'GTT'
p327
tp328
I2
s(I71
S'ATC'
p329
tp330
I7
s(I25
S'GGT'
p331
tp332
I9
s(I22
S'CGT'
p333
tp334
I9
s(I51
S'GCA'
p335
tp336
I49
s(I67
S'TGA'
p337
tp338
I1
s(I27
S'TCC'
p339
tp340
I1
s(I62
S'CTA'
p341
tp342
I493
s(I8
S'GGC'
p343
tp344
I18
s(I22
S'TTG'
p345
tp346
I108
s(I55
S'CGA'
p347
tp348
I6
s(I36
S'CGG'
p349
tp350
I2
s(I10
S'CAT'
p351
tp352
I50
s(I16
S'GGC'
p353
tp354
I3
s(I14
S'GGT'
p355
tp356
I48
s(I28
S'GTT'
p357
tp358
I53
s(I70
S'ACT'
p359
tp360
I1132
s(I10
S'GGA'
p361
tp362
I10
s(I31
S'TCG'
p363
tp364
I127
s(I41
S'GGG'
p365
tp366
I11
s(I21
S'AAC'
p367
tp368
I147
s(I66
S'AGA'
p369
tp370
I1
s(I29
S'TTA'
p371
tp372
I16
s(I18
S'GGA'
p373
tp374
I35
s(I52
S'ACC'
p375
tp376
I106
s(I62
S'TGT'
p377
tp378
I139
s(I17
S'TTG'
p379
tp380
I57
s(I56
S'AGG'
p381
tp382
I1
s(I40
S'CTC'
p383
tp384
I82
s(I41
S'TTT'
p385
tp386
I23
s(I9
S'CGA'
p387
tp388
I5
s(I23
S'CGA'
p389
tp390
I1
s(I10
S'AGC'
p391
tp392
I127
s(I3
S'GAA'
p393
tp394
I6
s(I14
S'TGT'
p395
tp396
I1
s(I43
S'ACT'
p397
tp398
I1
s(I67
S'ATT'
p399
tp400
I187
s(I64
S'CCT'
p401
tp402
I2
s(I18
S'TGG'
p403
tp404
I49
s(I69
S'TAC'
p405
tp406
I13
s(I25
S'GAC'
p407
tp408
I28
s(I62
S'GCG'
p409
tp410
I159
s(I51
S'TTG'
p411
tp412
I9
s(I57
S'AAA'
p413
tp414
I163
s(I53
S'AGT'
p415
tp416
I8
s(I49
S'TCC'
p417
tp418
I439
s(I64
S'CAC'
p419
tp420
I126
s(I9
S'GAC'
p421
tp422
I118
s(I61
S'GAG'
p423
tp424
I6
s(I30
S'TGC'
p425
tp426
I479
s(I44
S'GGA'
p427
tp428
I5
s(I42
S'GTT'
p429
tp430
I221
s(I13
S'CTG'
p431
tp432
I77
s(I18
S'CTA'
p433
tp434
I85
s(I64
S'TCC'
p435
tp436
I2683
s(I10
S'CCA'
p437
tp438
I4
s(I64
S'CTA'
p439
tp440
I229
s(I58
S'CAA'
p441
tp442
I78
s(I60
S'TAC'
p443
tp444
I27
s(I8
S'TAA'
p445
tp446
I19
s(I25
S'CCT'
p447
tp448
I1
s(I20
S'GCA'
p449
tp450
I47
s(I7
S'ACG'
p451
tp452
I1
s(I16
S'TAA'
p453
tp454
I3
s(I18
S'TTC'
p455
tp456
I313
s(I8
S'CTA'
p457
tp458
I54
s(I66
S'TTC'
p459
tp460
I9
s(I32
S'AGG'
p461
tp462
I36
s(I4
S'CCC'
p463
tp464
I3
s(I54
S'GAA'
p465
tp466
I36
s(I54
S'CCG'
p467
tp468
I31
s(I14
S'TCA'
p469
tp470
I38
s(I73
S'TAA'
p471
tp472
I7
s(I24
S'TTC'
p473
tp474
I1
s(I21
S'CGT'
p475
tp476
I3
s(I38
S'GAA'
p477
tp478
I6
s(I13
S'GGG'
p479
tp480
I1
s(I70
S'CAA'
p481
tp482
I9
s(I64
S'TTA'
p483
tp484
I1843
s(I9
S'TTC'
p485
tp486
I4
s(I71
S'CCT'
p487
tp488
I1
s(I25
S'TCC'
p489
tp490
I2
s(I61
S'GTG'
p491
tp492
I37
s(I64
S'TTT'
p493
tp494
I91
s(I7
S'CAT'
p495
tp496
I6
s(I76
S'GGG'
p497
tp498
I19
s(I41
S'AGG'
p499
tp500
I2
s(I20
S'AGA'
p501
tp502
I44
s(I10
S'TTT'
p503
tp504
I2
s(I52
S'ATA'
p505
tp506
I12
s(I60
S'GTT'
p507
tp508
I48
s(I31
S'TTC'
p509
tp510
I25
s(I18
S'GAC'
p511
tp512
I19
s(I70
S'TGA'
p513
tp514
I4
s(I32
S'GAA'
p515
tp516
I51
s(I54
S'TTG'
p517
tp518
I1
s(I63
S'CCC'
p519
tp520
I56
s(I31
S'GTA'
p521
tp522
I23
s(I29
S'CAA'
p523
tp524
I48
s(I69
S'CGA'
p525
tp526
I1
s(I64
S'GAC'
p527
tp528
I138
s(I34
S'GTG'
p529
tp530
I1
s(I8
S'CGG'
p531
tp532
I1
s(I45
S'AGC'
p533
tp534
I1025
s(I7
S'GCT'
p535
tp536
I123
s(I19
S'CAG'
p537
tp538
I35
s(I28
S'GGG'
p539
tp540
I91
s(I34
S'GGA'
p541
tp542
I69
s(I50
S'GTG'
p543
tp544
I14
s(I42
S'TTC'
p545
tp546
I93
s(I11
S'GGT'
p547
tp548
I134
s(I33
S'TGT'
p549
tp550
I3
s(I41
S'AAT'
p551
tp552
I51
s(I25
S'GGA'
p553
tp554
I1
s(I19
S'CGC'
p555
tp556
I142
s(I70
S'CCC'
p557
tp558
I3
s(I35
S'ACA'
p559
tp560
I285
s(I19
S'TGT'
p561
tp562
I51
s(I4
S'ATG'
p563
tp564
I7
s(I17
S'AGA'
p565
tp566
I2
s(I73
S'GGC'
p567
tp568
I1
s(I39
S'GTG'
p569
tp570
I6
s(I53
S'GGC'
p571
tp572
I19
s(I45
S'CCA'
p573
tp574
I1
s(I43
S'GTA'
p575
tp576
I41
s(I9
S'CCC'
p577
tp578
I50
s(I11
S'GCG'
p579
tp580
I556
s(I3
S'GCG'
p581
tp582
I192
s(I43
S'CTA'
p583
tp584
I1
s(I63
S'CTA'
p585
tp586
I19
s(I66
S'AGT'
p587
tp588
I1
s(I28
S'GCG'
p589
tp590
I19
s(I18
S'GGT'
p591
tp592
I139
s(I4
S'TAT'
p593
tp594
I9
s(I17
S'AGG'
p595
tp596
I1
s(I26
S'TGC'
p597
tp598
I10
s(I58
S'TTA'
p599
tp600
I1
s(I73
S'TGG'
p601
tp602
I1
s(I63
S'TTT'
p603
tp604
I77
s(I12
S'TGA'
p605
tp606
I10
s(I40
S'GTT'
p607
tp608
I4
s(I29
S'ATA'
p609
tp610
I63
s(I66
S'TCG'
p611
tp612
I2
s(I19
S'CTT'
p613
tp614
I18
s(I64
S'CCC'
p615
tp616
I2
s(I12
S'TAC'
p617
tp618
I7
s(I24
S'CTT'
p619
tp620
I4
s(I42
S'AAG'
p621
tp622
I7
s(I38
S'TCA'
p623
tp624
I17
s(I42
S'CGA'
p625
tp626
I53
s(I4
S'GAC'
p627
tp628
I1
s(I45
S'TTC'
p629
tp630
I8
s(I26
S'GTA'
p631
tp632
I74
s(I72
S'AGC'
p633
tp634
I55
s(I17
S'CGC'
p635
tp636
I6
s(I12
S'CCT'
p637
tp638
I15
s(I48
S'GGT'
p639
tp640
I25
s(I26
S'AGG'
p641
tp642
I2
s(I53
S'CAC'
p643
tp644
I142
s(I31
S'GCC'
p645
tp646
I2
s(I54
S'AAC'
p647
tp648
I2
s(I53
S'AAC'
p649
tp650
I11
s(I25
S'TAA'
p651
tp652
I2
s(I19
S'GAT'
p653
tp654
I24
s(I31
S'CGC'
p655
tp656
I24
s(I76
S'AGG'
p657
tp658
I5
s(I14
S'CCA'
p659
tp660
I2
s(I6
S'TCG'
p661
tp662
I101
s(I56
S'TTT'
p663
tp664
I307
s(I73
S'GTT'
p665
tp666
I188
s(I58
S'CAC'
p667
tp668
I5
s(I26
S'ACC'
p669
tp670
I3
s(I60
S'CCT'
p671
tp672
I44
s(I62
S'CCA'
p673
tp674
I47
s(I58
S'GCG'
p675
tp676
I3
s(I42
S'AGT'
p677
tp678
I7
s(I26
S'CGC'
p679
tp680
I1
s(I54
S'CAG'
p681
tp682
I26
s(I55
S'GAG'
p683
tp684
I64
s(I59
S'GTC'
p685
tp686
I44
s(I70
S'AGA'
p687
tp688
I2
s(I61
S'ATA'
p689
tp690
I64
s(I39
S'TTT'
p691
tp692
I7
s(I68
S'TGT'
p693
tp694
I29
s(I48
S'GCC'
p695
tp696
I14
s(I38
S'CGA'
p697
tp698
I20
s(I48
S'CCT'
p699
tp700
I1
s(I2
S'GCC'
p701
tp702
I1
s(I69
S'CAA'
p703
tp704
I98
s(I33
S'ACC'
p705
tp706
I1
s(I70
S'CAT'
p707
tp708
I6
s(I57
S'CCA'
p709
tp710
I49
s(I35
S'ATC'
p711
tp712
I142
s(I16
S'TGC'
p713
tp714
I17
s(I19
S'AAG'
p715
tp716
I33
s(I71
S'TTA'
p717
tp718
I18
s(I47
S'TCG'
p719
tp720
I668
s(I28
S'CCA'
p721
tp722
I1
s(I48
S'GTC'
p723
tp724
I3
s(I13
S'CAA'
p725
tp726
I71
s(I44
S'GAG'
p727
tp728
I7
s(I18
S'CAA'
p729
tp730
I81
s(I36
S'CAA'
p731
tp732
I374
s(I49
S'TAG'
p733
tp734
I2
s(I22
S'CTA'
p735
tp736
I36
s(I8
S'GTG'
p737
tp738
I47
s(I58
S'CTG'
p739
tp740
I1
s(I22
S'GCA'
p741
tp742
I3
s(I60
S'TTC'
p743
tp744
I172
s(I38
S'TGA'
p745
tp746
I9
s(I38
S'CCT'
p747
tp748
I8
s(I52
S'AAA'
p749
tp750
I4
s(I7
S'GCA'
p751
tp752
I61
s(I68
S'CCA'
p753
tp754
I19
s(I5
S'GTG'
p755
tp756
I111
s(I18
S'AGT'
p757
tp758
I17
s(I41
S'GTC'
p759
tp760
I19
s(I57
S'AGC'
p761
tp762
I67
s(I17
S'ACA'
p763
tp764
I4
s(I51
S'CAT'
p765
tp766
I62
s(I41
S'AAA'
p767
tp768
I6
s(I73
S'TCA'
p769
tp770
I2
s(I66
S'CAC'
p771
tp772
I905
s(I47
S'CTG'
p773
tp774
I2
s(I22
S'GTA'
p775
tp776
I65
s(I62
S'ATT'
p777
tp778
I192
s(I76
S'GGC'
p779
tp780
I29
s(I76
S'TTT'
p781
tp782
I5
s(I35
S'ATG'
p783
tp784
I137
s(I61
S'AGG'
p785
tp786
I1
s(I42
S'GAT'
p787
tp788
I18
s(I11
S'GCC'
p789
tp790
I282
s(I6
S'ACC'
p791
tp792
I75
s(I64
S'ATA'
p793
tp794
I2
s(I70
S'AGC'
p795
tp796
I2
s(I36
S'CCA'
p797
tp798
I131
s(I72
S'GGG'
p799
tp800
I282
s(I31
S'TAG'
p801
tp802
I3
s(I65
S'GCA'
p803
tp804
I199
s(I63
S'CTT'
p805
tp806
I15
s(I21
S'TAG'
p807
tp808
I5
s(I49
S'ATC'
p809
tp810
I41
s(I4
S'GGA'
p811
tp812
I2
s(I53
S'TCT'
p813
tp814
I29
s(I53
S'GCT'
p815
tp816
I14
s(I26
S'ATG'
p817
tp818
I57
s(I29
S'TAG'
p819
tp820
I7
s(I74
S'ATA'
p821
tp822
I23
s(I35
S'TCT'
p823
tp824
I116
s(I40
S'TCA'
p825
tp826
I99
s(I56
S'TTC'
p827
tp828
I14
s(I67
S'CGG'
p829
tp830
I2
s(I65
S'GTG'
p831
tp832
I60
s(I72
S'AAC'
p833
tp834
I44
s(I24
S'CTA'
p835
tp836
I84
s(I38
S'ATC'
p837
tp838
I35
s(I5
S'GAA'
p839
tp840
I1
s(I34
S'TGT'
p841
tp842
I6
s(I36
S'AAC'
p843
tp844
I23
s(I3
S'ACC'
p845
tp846
I10
s(I70
S'GCG'
p847
tp848
I704
s(I27
S'CAT'
p849
tp850
I27
s(I60
S'CGG'
p851
tp852
I218
s(I53
S'AAT'
p853
tp854
I18
s(I53
S'TGG'
p855
tp856
I45
s(I32
S'AAG'
p857
tp858
I8
s(I10
S'GAT'
p859
tp860
I17
s(I23
S'ATA'
p861
tp862
I25
s(I27
S'AGA'
p863
tp864
I151
s(I67
S'AAA'
p865
tp866
I7
s(I38
S'CAG'
p867
tp868
I137
s(I57
S'GAG'
p869
tp870
I2
s(I30
S'GCC'
p871
tp872
I157
s(I43
S'CAG'
p873
tp874
I3
s(I29
S'TGG'
p875
tp876
I70
s(I19
S'TTT'
p877
tp878
I37
s(I12
S'ACG'
p879
tp880
I20
s(I35
S'CCA'
p881
tp882
I54
s(I28
S'CTG'
p883
tp884
I59
s(I38
S'GAC'
p885
tp886
I58
s(I56
S'ACC'
p887
tp888
I1
s(I9
S'TAT'
p889
tp890
I25
s(I39
S'TGG'
p891
tp892
I1
s(I66
S'TAG'
p893
tp894
I1
s(I25
S'TGC'
p895
tp896
I12
s(I30
S'TAA'
p897
tp898
I1
s(I16
S'ACG'
p899
tp900
I17
s(I30
S'GTC'
p901
tp902
I118
s(I29
S'GGA'
p903
tp904
I37
s(I3
S'GGT'
p905
tp906
I20
s(I44
S'AAC'
p907
tp908
I3
s(I45
S'TGT'
p909
tp910
I52
s(I40
S'GAA'
p911
tp912
I244
s(I8
S'AAC'
p913
tp914
I2
s(I51
S'GAT'
p915
tp916
I9
s(I48
S'ATC'
p917
tp918
I16
s(I7
S'CGA'
p919
tp920
I1
s(I69
S'TTG'
p921
tp922
I95
s(I64
S'CAA'
p923
tp924
I1404
s(I24
S'GAA'
p925
tp926
I10
s(I40
S'AAG'
p927
tp928
I79
s(I61
S'TTA'
p929
tp930
I237
s(I51
S'CGT'
p931
tp932
I1
s(I17
S'CCC'
p933
tp934
I9
s(I61
S'GCA'
p935
tp936
I24
s(I21
S'TCA'
p937
tp938
I149
s(I75
S'CGG'
p939
tp940
I9
s(I29
S'AAG'
p941
tp942
I20
s(I46
S'TAC'
p943
tp944
I546
s(I33
S'GTT'
p945
tp946
I5
s(I32
S'TTC'
p947
tp948
I2
s(I44
S'GCC'
p949
tp950
I35
s(I54
S'TAC'
p951
tp952
I84
s(I58
S'GTT'
p953
tp954
I45
s(I29
S'CTG'
p955
tp956
I160
s(I69
S'GCG'
p957
tp958
I203
s(I11
S'CCA'
p959
tp960
I978
s(I72
S'CGC'
p961
tp962
I56
s(I34
S'GTT'
p963
tp964
I4
s(I72
S'CCC'
p965
tp966
I12
s(I69
S'GGT'
p967
tp968
I1147
s(I65
S'TTT'
p969
tp970
I22
s(I73
S'AAC'
p971
tp972
I20
s(I58
S'AGA'
p973
tp974
I8
s(I36
S'TAC'
p975
tp976
I4
s(I76
S'CCG'
p977
tp978
I1
s(I11
S'TTG'
p979
tp980
I1
s(I20
S'CCC'
p981
tp982
I114
s(I23
S'ACA'
p983
tp984
I3
s(I21
S'GTC'
p985
tp986
I4
s(I46
S'CCG'
p987
tp988
I3
s(I44
S'TGC'
p989
tp990
I1171
s(I50
S'GAG'
p991
tp992
I5
s(I63
S'GCT'
p993
tp994
I67
s(I29
S'GTC'
p995
tp996
I57
s(I35
S'GAG'
p997
tp998
I49
s(I52
S'AGC'
p999
tp1000
I22
s(I28
S'TGC'
p1001
tp1002
I43
s(I41
S'ACG'
p1003
tp1004
I40
s(I36
S'CTG'
p1005
tp1006
I1034
s(I34
S'GGG'
p1007
tp1008
I43
s(I25
S'ATT'
p1009
tp1010
I45
s(I69
S'AAT'
p1011
tp1012
I104
s(I54
S'TGC'
p1013
tp1014
I1
s(I34
S'CCC'
p1015
tp1016
I2
s(I20
S'ATG'
p1017
tp1018
I7
s(I49
S'GCT'
p1019
tp1020
I1003
s(I45
S'ATA'
p1021
tp1022
I8
s(I63
S'GTT'
p1023
tp1024
I93
s(I30
S'CAT'
p1025
tp1026
I1
s(I33
S'GAT'
p1027
tp1028
I2
s(I46
S'GGC'
p1029
tp1030
I526
s(I53
S'CCG'
p1031
tp1032
I41
s(I23
S'TCT'
p1033
tp1034
I5
s(I54
S'GGC'
p1035
tp1036
I26
s(I35
S'GCA'
p1037
tp1038
I65
s(I35
S'CTC'
p1039
tp1040
I34
s(I17
S'TCA'
p1041
tp1042
I112
s(I10
S'TAG'
p1043
tp1044
I3
s(I18
S'ATA'
p1045
tp1046
I26
s(I23
S'GCT'
p1047
tp1048
I1
s(I38
S'ACT'
p1049
tp1050
I151
s(I6
S'GAG'
p1051
tp1052
I44
s(I24
S'GTA'
p1053
tp1054
I31
s(I16
S'TTC'
p1055
tp1056
I17
s(I3
S'ACG'
p1057
tp1058
I12
s(I48
S'GAT'
p1059
tp1060
I4
s(I24
S'AGG'
p1061
tp1062
I16
s(I23
S'CCG'
p1063
tp1064
I1
s(I33
S'TGG'
p1065
tp1066
I7
s(I50
S'ACC'
p1067
tp1068
I148
s(I3
S'CGC'
p1069
tp1070
I3
s(I21
S'TCC'
p1071
tp1072
I27
s(I55
S'GCT'
p1073
tp1074
I18
s(I37
S'CTT'
p1075
tp1076
I1
s(I24
S'GCC'
p1077
tp1078
I19
s(I34
S'GAG'
p1079
tp1080
I13
s(I32
S'CCT'
p1081
tp1082
I47
s(I15
S'ATC'
p1083
tp1084
I14
s(I38
S'GTC'
p1085
tp1086
I17
s(I6
S'GTC'
p1087
tp1088
I318
s(I3
S'AAT'
p1089
tp1090
I1
s(I54
S'CTC'
p1091
tp1092
I27
s(I64
S'GGA'
p1093
tp1094
I484
s(I35
S'GGC'
p1095
tp1096
I4
s(I21
S'AGT'
p1097
tp1098
I2
s(I63
S'CGG'
p1099
tp1100
I39
s(I61
S'CGC'
p1101
tp1102
I2
s(I41
S'GAC'
p1103
tp1104
I1
s(I57
S'GTG'
p1105
tp1106
I24
s(I68
S'GGT'
p1107
tp1108
I5
s(I38
S'AAG'
p1109
tp1110
I5
s(I6
S'TAC'
p1111
tp1112
I10
s(I10
S'GTT'
p1113
tp1114
I2
s(I51
S'TCA'
p1115
tp1116
I28
s(I62
S'ACG'
p1117
tp1118
I643
s(I41
S'GTG'
p1119
tp1120
I27
s(I46
S'GCA'
p1121
tp1122
I7
s(I58
S'CGG'
p1123
tp1124
I1
s(I64
S'AAC'
p1125
tp1126
I3429
s(I48
S'AGT'
p1127
tp1128
I71
s(I55
S'AAT'
p1129
tp1130
I79
s(I11
S'TCA'
p1131
tp1132
I60
s(I37
S'AGC'
p1133
tp1134
I331
s(I57
S'GCG'
p1135
tp1136
I44
s(I65
S'AAT'
p1137
tp1138
I225
s(I41
S'TAT'
p1139
tp1140
I22
s(I33
S'ATC'
p1141
tp1142
I13
s(I57
S'ACC'
p1143
tp1144
I31
s(I40
S'TTT'
p1145
tp1146
I14
s(I43
S'TTT'
p1147
tp1148
I2
s(I20
S'TCG'
p1149
tp1150
I49
s(I62
S'GTG'
p1151
tp1152
I542
s(I69
S'CGT'
p1153
tp1154
I1
s(I16
S'ATC'
p1155
tp1156
I5
s(I72
S'CAC'
p1157
tp1158
I2
s(I59
S'GGA'
p1159
tp1160
I2
s(I71
S'CCG'
p1161
tp1162
I10
s(I43
S'TGT'
p1163
tp1164
I7
s(I27
S'ATT'
p1165
tp1166
I24
s(I70
S'GAA'
p1167
tp1168
I1
s(I9
S'TCT'
p1169
tp1170
I41
s(I47
S'AAA'
p1171
tp1172
I4
s(I69
S'GTT'
p1173
tp1174
I94
s(I5
S'TTA'
p1175
tp1176
I276
s(I13
S'TGA'
p1177
tp1178
I3
s(I29
S'ACA'
p1179
tp1180
I56
s(I37
S'CGT'
p1181
tp1182
I10
s(I39
S'CCT'
p1183
tp1184
I1
s(I33
S'GCG'
p1185
tp1186
I1
s(I47
S'CAC'
p1187
tp1188
I64
s(I64
S'TTC'
p1189
tp1190
I32
s(I52
S'CAC'
p1191
tp1192
I2
s(I37
S'TGC'
p1193
tp1194
I308
s(I9
S'AGG'
p1195
tp1196
I79
s(I75
S'CCT'
p1197
tp1198
I16
s(I20
S'GTA'
p1199
tp1200
I8
s(I38
S'TAT'
p1201
tp1202
I7
s(I40
S'TCT'
p1203
tp1204
I9
s(I35
S'AGG'
p1205
tp1206
I21
s(I41
S'TCC'
p1207
tp1208
I3
s(I15
S'GGG'
p1209
tp1210
I3
s(I56
S'TGT'
p1211
tp1212
I20
s(I16
S'TCG'
p1213
tp1214
I38
s(I35
S'AGC'
p1215
tp1216
I28
s(I31
S'CCC'
p1217
tp1218
I4
s(I61
S'TTT'
p1219
tp1220
I310
s(I63
S'GCA'
p1221
tp1222
I18
s(I53
S'TGA'
p1223
tp1224
I13
s(I13
S'AGC'
p1225
tp1226
I25
s(I45
S'TCG'
p1227
tp1228
I1536
s(I11
S'GAC'
p1229
tp1230
I1418
s(I61
S'CTT'
p1231
tp1232
I4
s(I21
S'ACC'
p1233
tp1234
I83
s(I66
S'CTT'
p1235
tp1236
I1324
s(I65
S'TGT'
p1237
tp1238
I114
s(I17
S'CTC'
p1239
tp1240
I19
s(I24
S'ATG'
p1241
tp1242
I37
s(I74
S'GCA'
p1243
tp1244
I2
s(I48
S'CAC'
p1245
tp1246
I30
s(I33
S'GAA'
p1247
tp1248
I1
s(I34
S'CAA'
p1249
tp1250
I6
s(I65
S'ACA'
p1251
tp1252
I231
s(I7
S'AAT'
p1253
tp1254
I457
s(I8
S'GAG'
p1255
tp1256
I2
s(I34
S'CAG'
p1257
tp1258
I19
s(I21
S'TTC'
p1259
tp1260
I7
s(I68
S'AGG'
p1261
tp1262
I7
s(I75
S'AAG'
p1263
tp1264
I7
s(I10
S'TTA'
p1265
tp1266
I1
s(I14
S'AAC'
p1267
tp1268
I1
s(I60
S'GCT'
p1269
tp1270
I465
s(I7
S'GAA'
p1271
tp1272
I50
s(I29
S'CCG'
p1273
tp1274
I2
s(I6
S'CTC'
p1275
tp1276
I24
s(I37
S'ACC'
p1277
tp1278
I622
s(I44
S'GTA'
p1279
tp1280
I15
s(I34
S'CGC'
p1281
tp1282
I2
s(I34
S'AGT'
p1283
tp1284
I1
s(I35
S'CGG'
p1285
tp1286
I121
s(I72
S'TCT'
p1287
tp1288
I104
s(I51
S'AAC'
p1289
tp1290
I16
s(I52
S'GTC'
p1291
tp1292
I5
s(I62
S'AGA'
p1293
tp1294
I412
s(I72
S'TCA'
p1295
tp1296
I32
s(I30
S'GTG'
p1297
tp1298
I106
s(I32
S'TTG'
p1299
tp1300
I144
s(I75
S'GAC'
p1301
tp1302
I1
s(I11
S'TGA'
p1303
tp1304
I1
s(I70
S'CTA'
p1305
tp1306
I52
s(I71
S'CTG'
p1307
tp1308
I1
s(I68
S'GTT'
p1309
tp1310
I107
s(I46
S'CGG'
p1311
tp1312
I132
s(I32
S'CCC'
p1313
tp1314
I175
s(I70
S'CGG'
p1315
tp1316
I6
s(I9
S'TTA'
p1317
tp1318
I9
s(I41
S'TGT'
p1319
tp1320
I25
s(I22
S'TCG'
p1321
tp1322
I13
s(I46
S'TCT'
p1323
tp1324
I656
s(I62
S'CAT'
p1325
tp1326
I148
s(I20
S'TTC'
p1327
tp1328
I27
s(I37
S'TAT'
p1329
tp1330
I53
s(I50
S'TGC'
p1331
tp1332
I13
s(I30
S'TTG'
p1333
tp1334
I47
s(I10
S'GTA'
p1335
tp1336
I2
s(I10
S'CAA'
p1337
tp1338
I75
s(I26
S'AGA'
p1339
tp1340
I1
s(I28
S'CAA'
p1341
tp1342
I26
s(I10
S'TCC'
p1343
tp1344
I99
s(I33
S'TCA'
p1345
tp1346
I5
s(I42
S'GAA'
p1347
tp1348
I11
s(I62
S'TGG'
p1349
tp1350
I209
s(I2
S'ACC'
p1351
tp1352
I2
s(I35
S'ACG'
p1353
tp1354
I113
s(I71
S'GCG'
p1355
tp1356
I1
s(I55
S'AGA'
p1357
tp1358
I47
s(I41
S'TTG'
p1359
tp1360
I435
s(I9
S'CGT'
p1361
tp1362
I57
s(I10
S'AGT'
p1363
tp1364
I86
s(I72
S'ATT'
p1365
tp1366
I15
s(I41
S'CTA'
p1367
tp1368
I45
s(I51
S'CTT'
p1369
tp1370
I30
s(I35
S'ATT'
p1371
tp1372
I241
s(I22
S'TAG'
p1373
tp1374
I4
s(I38
S'AGA'
p1375
tp1376
I56
s(I44
S'CGG'
p1377
tp1378
I11
s(I62
S'GCT'
p1379
tp1380
I124
s(I29
S'AAC'
p1381
tp1382
I12
s(I9
S'CTG'
p1383
tp1384
I96
s(I53
S'AGG'
p1385
tp1386
I3
s(I6
S'AGT'
p1387
tp1388
I18
s(I27
S'AAA'
p1389
tp1390
I11
s(I72
S'GTG'
p1391
tp1392
I21
s(I62
S'CTG'
p1393
tp1394
I338
s(I61
S'CCG'
p1395
tp1396
I9
s(I37
S'CCA'
p1397
tp1398
I85
s(I37
S'CGA'
p1399
tp1400
I16
s(I59
S'TCC'
p1401
tp1402
I1000
s(I68
S'GAC'
p1403
tp1404
I43
s(I16
S'GGG'
p1405
tp1406
I58
s(I12
S'CCG'
p1407
tp1408
I82
s(I39
S'GTA'
p1409
tp1410
I5
s(I67
S'AGT'
p1411
tp1412
I5
s(I11
S'TAA'
p1413
tp1414
I5
s(I48
S'TAA'
p1415
tp1416
I9
s(I59
S'GCC'
p1417
tp1418
I972
s(I26
S'CTG'
p1419
tp1420
I2
s(I19
S'CCC'
p1421
tp1422
I71
s(I61
S'AAC'
p1423
tp1424
I5
s(I6
S'CCT'
p1425
tp1426
I1
s(I6
S'CAA'
p1427
tp1428
I30
s(I45
S'GTC'
p1429
tp1430
I1193
s(I45
S'CCG'
p1431
tp1432
I1
s(I10
S'AAC'
p1433
tp1434
I6
s(I53
S'ATC'
p1435
tp1436
I11
s(I25
S'AGC'
p1437
tp1438
I19
s(I63
S'AGT'
p1439
tp1440
I155
s(I21
S'CGC'
p1441
tp1442
I3
s(I38
S'CTA'
p1443
tp1444
I26
s(I24
S'TAC'
p1445
tp1446
I22
s(I60
S'ACC'
p1447
tp1448
I4
s(I57
S'AAG'
p1449
tp1450
I38
s(I62
S'TAG'
p1451
tp1452
I3
s(I15
S'AGA'
p1453
tp1454
I2
s(I19
S'CTG'
p1455
tp1456
I38
s(I76
S'TGG'
p1457
tp1458
I2
s(I31
S'AGC'
p1459
tp1460
I59
s(I18
S'GTC'
p1461
tp1462
I143
s(I60
S'GAT'
p1463
tp1464
I251
s(I43
S'CTC'
p1465
tp1466
I1
s(I70
S'AGG'
p1467
tp1468
I4
s(I7
S'CAC'
p1469
tp1470
I5
s(I62
S'AGG'
p1471
tp1472
I246
s(I19
S'AGA'
p1473
tp1474
I5
s(I35
S'CAG'
p1475
tp1476
I3
s(I28
S'TGA'
p1477
tp1478
I7
s(I30
S'GTT'
p1479
tp1480
I96
s(I72
S'TGC'
p1481
tp1482
I16
s(I60
S'GTG'
p1483
tp1484
I344
s(I11
S'AAG'
p1485
tp1486
I39
s(I3
S'TGA'
p1487
tp1488
I1
s(I16
S'TCA'
p1489
tp1490
I36
s(I31
S'TGT'
p1491
tp1492
I106
s(I70
S'GAG'
p1493
tp1494
I1
s(I24
S'CAT'
p1495
tp1496
I3
s(I62
S'TCA'
p1497
tp1498
I145
s(I11
S'GGG'
p1499
tp1500
I114
s(I73
S'TAG'
p1501
tp1502
I5
s(I71
S'CAT'
p1503
tp1504
I1
s(I66
S'TGT'
p1505
tp1506
I19
s(I46
S'TCA'
p1507
tp1508
I8
s(I45
S'CAC'
p1509
tp1510
I52
s(I6
S'TGT'
p1511
tp1512
I5
s(I5
S'TGT'
p1513
tp1514
I353
s(I50
S'CAC'
p1515
tp1516
I2
s(I44
S'TCA'
p1517
tp1518
I14
s(I54
S'CGA'
p1519
tp1520
I7
s(I35
S'ACT'
p1521
tp1522
I90
s(I57
S'CTA'
p1523
tp1524
I16
s(I28
S'TTC'
p1525
tp1526
I8
s(I49
S'AAA'
p1527
tp1528
I127
s(I10
S'ACA'
p1529
tp1530
I8
s(I57
S'TCC'
p1531
tp1532
I22
s(I58
S'GTG'
p1533
tp1534
I22
s(I70
S'ATT'
p1535
tp1536
I11
s(I44
S'GGT'
p1537
tp1538
I50
s(I72
S'GAA'
p1539
tp1540
I7
s(I4
S'TAG'
p1541
tp1542
I1
s(I20
S'GAG'
p1543
tp1544
I51
s(I6
S'CAG'
p1545
tp1546
I69
s(I13
S'AAA'
p1547
tp1548
I321
s(I9
S'GTC'
p1549
tp1550
I181
s(I47
S'GAA'
p1551
tp1552
I4
s(I66
S'TTT'
p1553
tp1554
I3
s(I27
S'CGC'
p1555
tp1556
I18
s(I8
S'CGA'
p1557
tp1558
I2
s(I63
S'TTC'
p1559
tp1560
I108
s(I46
S'CTA'
p1561
tp1562
I48
s(I61
S'TCG'
p1563
tp1564
I4
s(I75
S'GGG'
p1565
tp1566
I42
s(I25
S'GTC'
p1567
tp1568
I36
s(I37
S'AAG'
p1569
tp1570
I120
s(I16
S'AAT'
p1571
tp1572
I39
s(I66
S'CGT'
p1573
tp1574
I2
s(I71
S'TGG'
p1575
tp1576
I6
s(I42
S'AAT'
p1577
tp1578
I136
s(I25
S'GGG'
p1579
tp1580
I31
s(I76
S'CAA'
p1581
tp1582
I4
s(I2
S'GGA'
p1583
tp1584
I4
s(I35
S'CCT'
p1585
tp1586
I161
s(I48
S'GGA'
p1587
tp1588
I11
s(I25
S'GCC'
p1589
tp1590
I2
s(I71
S'TCC'
p1591
tp1592
I4
s(I43
S'GTG'
p1593
tp1594
I172
s(I76
S'AGT'
p1595
tp1596
I5
s(I46
S'GAA'
p1597
tp1598
I5332
s(I3
S'GCA'
p1599
tp1600
I1339
s(I36
S'GCG'
p1601
tp1602
I6
s(I55
S'TCC'
p1603
tp1604
I1
s(I48
S'TGG'
p1605
tp1606
I4
s(I65
S'TCT'
p1607
tp1608
I70
s(I73
S'TGA'
p1609
tp1610
I1
s(I45
S'GTG'
p1611
tp1612
I2127
s(I36
S'TAT'
p1613
tp1614
I14
s(I12
S'TGG'
p1615
tp1616
I5
s(I61
S'AAT'
p1617
tp1618
I5
s(I14
S'TGC'
p1619
tp1620
I8
s(I69
S'GAA'
p1621
tp1622
I36
s(I42
S'ACG'
p1623
tp1624
I19
s(I44
S'TAT'
p1625
tp1626
I8
s(I66
S'TCA'
p1627
tp1628
I3
s(I51
S'TCC'
p1629
tp1630
I11
s(I39
S'TTC'
p1631
tp1632
I27
s(I20
S'GTG'
p1633
tp1634
I163
s(I22
S'TAT'
p1635
tp1636
I22
s(I37
S'TCG'
p1637
tp1638
I271
s(I42
S'CGG'
p1639
tp1640
I39
s(I75
S'GTT'
p1641
tp1642
I1
s(I41
S'TGG'
p1643
tp1644
I1
s(I26
S'GTG'
p1645
tp1646
I19
s(I18
S'CGA'
p1647
tp1648
I64
s(I28
S'TAT'
p1649
tp1650
I22
s(I23
S'GGC'
p1651
tp1652
I6
s(I9
S'TGC'
p1653
tp1654
I2270
s(I28
S'AAA'
p1655
tp1656
I8
s(I69
S'TAT'
p1657
tp1658
I23
s(I42
S'GTG'
p1659
tp1660
I2
s(I25
S'TAG'
p1661
tp1662
I7
s(I35
S'GAA'
p1663
tp1664
I7
s(I14
S'CCG'
p1665
tp1666
I2
s(I5
S'GCT'
p1667
tp1668
I4
s(I69
S'ATG'
p1669
tp1670
I32
s(I72
S'TGT'
p1671
tp1672
I4
s(I67
S'TGG'
p1673
tp1674
I8
s(I30
S'TAT'
p1675
tp1676
I37
s(I62
S'CCG'
p1677
tp1678
I17
s(I31
S'GTG'
p1679
tp1680
I3
s(I4
S'CTG'
p1681
tp1682
I35
s(I9
S'CTA'
p1683
tp1684
I73
s(I2
S'CCC'
p1685
tp1686
I1
s(I61
S'ACC'
p1687
tp1688
I1
s(I2
S'CGC'
p1689
tp1690
I1
s(I32
S'TCG'
p1691
tp1692
I53
s(I5
S'GTT'
p1693
tp1694
I21
s(I48
S'GTA'
p1695
tp1696
I13
s(I25
S'ACG'
p1697
tp1698
I59
s(I17
S'ACT'
p1699
tp1700
I113
s(I67
S'CAA'
p1701
tp1702
I68
s(I73
S'ATC'
p1703
tp1704
I1756
s(I50
S'CCC'
p1705
tp1706
I1
s(I38
S'TGT'
p1707
tp1708
I58
s(I67
S'TTC'
p1709
tp1710
I742
s(I29
S'TCA'
p1711
tp1712
I56
s(I21
S'CCG'
p1713
tp1714
I1
s(I72
S'AGA'
p1715
tp1716
I63
s(I76
S'TTA'
p1717
tp1718
I1
s(I70
S'TCT'
p1719
tp1720
I33
s(I75
S'AAT'
p1721
tp1722
I1
s(I57
S'CCG'
p1723
tp1724
I5
s(I17
S'TGG'
p1725
tp1726
I2
s(I6
S'ACT'
p1727
tp1728
I157
s(I54
S'CGT'
p1729
tp1730
I24
s(I71
S'TTG'
p1731
tp1732
I74
s(I12
S'GAC'
p1733
tp1734
I90
s(I36
S'CAG'
p1735
tp1736
I820
s(I70
S'ATA'
p1737
tp1738
I8
s(I13
S'GAG'
p1739
tp1740
I84
s(I21
S'TAT'
p1741
tp1742
I19
s(I27
S'TGG'
p1743
tp1744
I3
s(I8
S'GTA'
p1745
tp1746
I204
s(I20
S'AAG'
p1747
tp1748
I24
s(I53
S'CTC'
p1749
tp1750
I27
s(I53
S'GCC'
p1751
tp1752
I11
s(I29
S'TAT'
p1753
tp1754
I38
s(I45
S'AAC'
p1755
tp1756
I807
s(I47
S'GAT'
p1757
tp1758
I10
s(I42
S'GGA'
p1759
tp1760
I475
s(I22
S'GAT'
p1761
tp1762
I89
s(I5
S'TAC'
p1763
tp1764
I251
s(I16
S'AAC'
p1765
tp1766
I35
s(I30
S'ACA'
p1767
tp1768
I2
s(I65
S'GGC'
p1769
tp1770
I156
s(I8
S'GCC'
p1771
tp1772
I9
s(I27
S'CTA'
p1773
tp1774
I4
s(I55
S'CCA'
p1775
tp1776
I2
s(I41
S'CGA'
p1777
tp1778
I1
s(I64
S'GAA'
p1779
tp1780
I5
s(I31
S'GGC'
p1781
tp1782
I7
s(I51
S'GTC'
p1783
tp1784
I157
s(I51
S'CTC'
p1785
tp1786
I33
s(I61
S'AGA'
p1787
tp1788
I1
s(I25
S'GCT'
p1789
tp1790
I1
s(I45
S'GCC'
p1791
tp1792
I1180
s(I64
S'ATG'
p1793
tp1794
I61
s(I52
S'TTA'
p1795
tp1796
I24
s(I14
S'GCC'
p1797
tp1798
I1
s(I70
S'ACG'
p1799
tp1800
I861
s(I40
S'GCC'
p1801
tp1802
I35
s(I54
S'AAA'
p1803
tp1804
I88
s(I28
S'CGC'
p1805
tp1806
I45
s(I5
S'AGC'
p1807
tp1808
I5
s(I28
S'GCT'
p1809
tp1810
I56
s(I25
S'ACC'
p1811
tp1812
I49
s(I3
S'CTC'
p1813
tp1814
I8
s(I66
S'CAT'
p1815
tp1816
I788
s(I7
S'GGC'
p1817
tp1818
I2968
s(I73
S'TGT'
p1819
tp1820
I2
s(I4
S'TTT'
p1821
tp1822
I17
s(I25
S'CGC'
p1823
tp1824
I34
s(I65
S'CTA'
p1825
tp1826
I15
s(I67
S'GCC'
p1827
tp1828
I3220
s(I40
S'CAC'
p1829
tp1830
I127
s(I21
S'CAA'
p1831
tp1832
I5
s(I66
S'ATT'
p1833
tp1834
I8
s(I9
S'TAA'
p1835
tp1836
I2
s(I25
S'TGT'
p1837
tp1838
I135
s(I16
S'ACT'
p1839
tp1840
I19
s(I29
S'GGT'
p1841
tp1842
I60
s(I3
S'GGG'
p1843
tp1844
I2
s(I44
S'AAT'
p1845
tp1846
I12
s(I73
S'ACG'
p1847
tp1848
I14
s(I11
S'CAT'
p1849
tp1850
I7
s(I44
S'TCC'
p1851
tp1852
I1
s(I49
S'TAC'
p1853
tp1854
I1
s(I65
S'CAT'
p1855
tp1856
I231
s(I73
S'GCG'
p1857
tp1858
I18
s(I14
S'CGA'
p1859
tp1860
I1
s(I7
S'CCT'
p1861
tp1862
I1
s(I32
S'ACC'
p1863
tp1864
I30
s(I28
S'AAT'
p1865
tp1866
I51
s(I13
S'ACC'
p1867
tp1868
I19
s(I20
S'ACC'
p1869
tp1870
I10
s(I42
S'GAG'
p1871
tp1872
I6
s(I54
S'AAT'
p1873
tp1874
I45
s(I33
S'GCA'
p1875
tp1876
I1
s(I37
S'GGG'
p1877
tp1878
I22
s(I53
S'CGT'
p1879
tp1880
I20
s(I33
S'AAA'
p1881
tp1882
I47
s(I7
S'ATC'
p1883
tp1884
I119
s(I45
S'GGG'
p1885
tp1886
I429
s(I5
S'GCA'
p1887
tp1888
I2
s(I27
S'AGG'
p1889
tp1890
I2
s(I8
S'TCC'
p1891
tp1892
I2
s(I49
S'AGT'
p1893
tp1894
I104
s(I32
S'TCT'
p1895
tp1896
I66
s(I71
S'CGC'
p1897
tp1898
I3
s(I56
S'ATA'
p1899
tp1900
I27
s(I71
S'ATG'
p1901
tp1902
I259
s(I47
S'GCA'
p1903
tp1904
I51
s(I29
S'CTT'
p1905
tp1906
I23
s(I70
S'CTG'
p1907
tp1908
I93
s(I34
S'CTT'
p1909
tp1910
I1
s(I16
S'GCA'
p1911
tp1912
I30
s(I72
S'CGT'
p1913
tp1914
I59
s(I33
S'CGT'
p1915
tp1916
I24
s(I27
S'ACT'
p1917
tp1918
I24
s(I5
S'CTC'
p1919
tp1920
I82
s(I65
S'GAA'
p1921
tp1922
I754
s(I54
S'CCC'
p1923
tp1924
I120
s(I67
S'TTT'
p1925
tp1926
I359
s(I40
S'GAG'
p1927
tp1928
I1925
s(I41
S'GGA'
p1929
tp1930
I4
s(I48
S'TCA'
p1931
tp1932
I29
s(I36
S'AGG'
p1933
tp1934
I2
s(I58
S'GCA'
p1935
tp1936
I14
s(I49
S'TAT'
p1937
tp1938
I43
s(I70
S'TAA'
p1939
tp1940
I10
s(I24
S'GAG'
p1941
tp1942
I5
s(I5
S'ACC'
p1943
tp1944
I37
s(I42
S'CCG'
p1945
tp1946
I1
s(I36
S'GCC'
p1947
tp1948
I8
s(I46
S'CCT'
p1949
tp1950
I2
s(I35
S'AAT'
p1951
tp1952
I27
s(I64
S'ACA'
p1953
tp1954
I1568
s(I61
S'GCG'
p1955
tp1956
I5
s(I57
S'GGA'
p1957
tp1958
I2
s(I41
S'CAT'
p1959
tp1960
I4
s(I46
S'ATT'
p1961
tp1962
I33
s(I34
S'GGT'
p1963
tp1964
I6
s(I25
S'ATA'
p1965
tp1966
I39
s(I14
S'GTC'
p1967
tp1968
I4
s(I24
S'AAG'
p1969
tp1970
I1
s(I42
S'GGT'
p1971
tp1972
I28
s(I22
S'GAC'
p1973
tp1974
I40
s(I70
S'CTC'
p1975
tp1976
I154
s(I69
S'CTC'
p1977
tp1978
I51
s(I23
S'CAC'
p1979
tp1980
I8
s(I73
S'AGT'
p1981
tp1982
I1
s(I46
S'CAG'
p1983
tp1984
I218
s(I51
S'CAG'
p1985
tp1986
I292
s(I48
S'CGC'
p1987
tp1988
I9
s(I8
S'AGC'
p1989
tp1990
I1
s(I60
S'TCG'
p1991
tp1992
I177
s(I59
S'TAG'
p1993
tp1994
I1
s(I69
S'TTC'
p1995
tp1996
I1007
s(I35
S'GCT'
p1997
tp1998
I37
s(I48
S'ACC'
p1999
tp2000
I7
s(I40
S'GGC'
p2001
tp2002
I178
s(I23
S'GCG'
p2003
tp2004
I3
s(I76
S'CCA'
p2005
tp2006
I1
s(I8
S'ACG'
p2007
tp2008
I3
s(I18
S'TCC'
p2009
tp2010
I36
s(I3
S'ATG'
p2011
tp2012
I47
s(I54
S'TTA'
p2013
tp2014
I63
s(I37
S'TAA'
p2015
tp2016
I11
s(I8
S'GTC'
p2017
tp2018
I27
s(I72
S'GGT'
p2019
tp2020
I121
s(I62
S'GGA'
p2021
tp2022
I9
s(I54
S'TTT'
p2023
tp2024
I2
s(I51
S'ATT'
p2025
tp2026
I67
s(I39
S'GGG'
p2027
tp2028
I3
s(I61
S'GAT'
p2029
tp2030
I7
s(I25
S'GTG'
p2031
tp2032
I55
s(I11
S'CTC'
p2033
tp2034
I62
s(I21
S'TCT'
p2035
tp2036
I33
s(I61
S'CAC'
p2037
tp2038
I2
s(I41
S'CCG'
p2039
tp2040
I3
s(I36
S'CTA'
p2041
tp2042
I444
s(I55
S'AGT'
p2043
tp2044
I6
s(I55
S'GCG'
p2045
tp2046
I1
s(I41
S'CTG'
p2047
tp2048
I58
s(I6
S'AGA'
p2049
tp2050
I13
s(I25
S'CGT'
p2051
tp2052
I6
s(I63
S'ATC'
p2053
tp2054
I57
s(I67
S'AGC'
p2055
tp2056
I278
s(I56
S'GCG'
p2057
tp2058
I5
s(I68
S'TCG'
p2059
tp2060
I492
s(I30
S'GAG'
p2061
tp2062
I1
s(I55
S'GTA'
p2063
tp2064
I17
s(I30
S'CTG'
p2065
tp2066
I56
s(I38
S'AAT'
p2067
tp2068
I112
s(I69
S'AAG'
p2069
tp2070
I10
s(I66
S'ACG'
p2071
tp2072
I11
s(I14
S'CGT'
p2073
tp2074
I1
s(I31
S'GAC'
p2075
tp2076
I1
s(I6
S'GTA'
p2077
tp2078
I160
s(I53
S'TAC'
p2079
tp2080
I77
s(I56
S'GTG'
p2081
tp2082
I96
s(I27
S'GCT'
p2083
tp2084
I36
s(I60
S'CGT'
p2085
tp2086
I5
s(I47
S'ACC'
p2087
tp2088
I6
s(I41
S'CCA'
p2089
tp2090
I1
s(I15
S'GAC'
p2091
tp2092
I2
s(I75
S'CTC'
p2093
tp2094
I2
s(I17
S'TAG'
p2095
tp2096
I2
s(I65
S'AAC'
p2097
tp2098
I143
s(I16
S'CCG'
p2099
tp2100
I12
s(I62
S'TTT'
p2101
tp2102
I19
s(I15
S'ACA'
p2103
tp2104
I7
s(I13
S'GTC'
p2105
tp2106
I132
s(I23
S'TTA'
p2107
tp2108
I14
s(I24
S'GGG'
p2109
tp2110
I16
s(I37
S'CAC'
p2111
tp2112
I5
s(I42
S'CAC'
p2113
tp2114
I374
s(I57
S'GTA'
p2115
tp2116
I4
s(I60
S'AGT'
p2117
tp2118
I26
s(I15
S'CGA'
p2119
tp2120
I1
s(I65
S'CAG'
p2121
tp2122
I125
s(I9
S'TCA'
p2123
tp2124
I117
s(I66
S'GAG'
p2125
tp2126
I120
s(I32
S'GTC'
p2127
tp2128
I18
s(I57
S'GTT'
p2129
tp2130
I46
s(I39
S'CGG'
p2131
tp2132
I1
s(I39
S'CCG'
p2133
tp2134
I1
s(I73
S'TTT'
p2135
tp2136
I1
s(I52
S'GTA'
p2137
tp2138
I11
s(I46
S'AGA'
p2139
tp2140
I165
s(I72
S'TAA'
p2141
tp2142
I8
s(I75
S'CCG'
p2143
tp2144
I33
s(I38
S'TAC'
p2145
tp2146
I39
s(I59
S'AAC'
p2147
tp2148
I435
s(I34
S'TAA'
p2149
tp2150
I2
s(I63
S'TAA'
p2151
tp2152
I1
s(I8
S'ATC'
p2153
tp2154
I33
s(I43
S'TGA'
p2155
tp2156
I6
s(I64
S'ACT'
p2157
tp2158
I759
s(I15
S'TTC'
p2159
tp2160
I19
s(I71
S'TAA'
p2161
tp2162
I10
s(I2
S'GCA'
p2163
tp2164
I4
s(I10
S'ATA'
p2165
tp2166
I1
s(I45
S'CGC'
p2167
tp2168
I43
s(I15
S'GCT'
p2169
tp2170
I60
s(I63
S'CAA'
p2171
tp2172
I23
s(I8
S'CAA'
p2173
tp2174
I12
s(I68
S'CAA'
p2175
tp2176
I270
s(I15
S'TCC'
p2177
tp2178
I11
s(I25
S'ATC'
p2179
tp2180
I142
s(I6
S'GCT'
p2181
tp2182
I116
s(I57
S'ACA'
p2183
tp2184
I10
s(I18
S'ATT'
p2185
tp2186
I30
s(I49
S'TGC'
p2187
tp2188
I50
s(I27
S'TAT'
p2189
tp2190
I42
s(I18
S'GCA'
p2191
tp2192
I48
s(I28
S'ATA'
p2193
tp2194
I19
s(I21
S'GCT'
p2195
tp2196
I17
s(I65
S'AAA'
p2197
tp2198
I5
s(I32
S'TCA'
p2199
tp2200
I205
s(I7
S'AGT'
p2201
tp2202
I14
s(I28
S'TTG'
p2203
tp2204
I56
s(I26
S'CCT'
p2205
tp2206
I1
s(I59
S'TGC'
p2207
tp2208
I1
s(I13
S'CGT'
p2209
tp2210
I90
s(I60
S'GCA'
p2211
tp2212
I22
s(I25
S'CTA'
p2213
tp2214
I101
s(I24
S'AAA'
p2215
tp2216
I5
s(I76
S'CCT'
p2217
tp2218
I5
s(I24
S'GAT'
p2219
tp2220
I3
s(I21
S'GTT'
p2221
tp2222
I58
s(I11
S'ACA'
p2223
tp2224
I461
s(I38
S'GCG'
p2225
tp2226
I61
s(I15
S'GGA'
p2227
tp2228
I3
s(I12
S'TCG'
p2229
tp2230
I1
s(I54
S'ACG'
p2231
tp2232
I7
s(I53
S'ACG'
p2233
tp2234
I2
s(I9
S'GCT'
p2235
tp2236
I13
s(I2
S'TGG'
p2237
tp2238
I1
s(I45
S'TCA'
p2239
tp2240
I266
s(I19
S'TCA'
p2241
tp2242
I4
s(I49
S'GCG'
p2243
tp2244
I112
s(I5
S'TAT'
p2245
tp2246
I24
s(I39
S'CAA'
p2247
tp2248
I5
s(I44
S'CAA'
p2249
tp2250
I6
s(I49
S'ACC'
p2251
tp2252
I3
s(I74
S'GCG'
p2253
tp2254
I9
s(I40
S'ATC'
p2255
tp2256
I3
s(I43
S'GAG'
p2257
tp2258
I1
s(I65
S'CGA'
p2259
tp2260
I371
s(I62
S'CGC'
p2261
tp2262
I36
s(I54
S'GTG'
p2263
tp2264
I13
s(I19
S'GGT'
p2265
tp2266
I353
s(I61
S'TGT'
p2267
tp2268
I28
s(I31
S'GAT'
p2269
tp2270
I20
s(I36
S'ATA'
p2271
tp2272
I15
s(I62
S'GAA'
p2273
tp2274
I186
s(I44
S'AGT'
p2275
tp2276
I138
s(I40
S'CCC'
p2277
tp2278
I4
s(I9
S'GCC'
p2279
tp2280
I84
s(I10
S'TGT'
p2281
tp2282
I3
s(I13
S'TTA'
p2283
tp2284
I4
s(I48
S'ATG'
p2285
tp2286
I23
s(I35
S'CGA'
p2287
tp2288
I5
s(I27
S'GTG'
p2289
tp2290
I3
s(I33
S'CGA'
p2291
tp2292
I1
s(I49
S'GTC'
p2293
tp2294
I6
s(I48
S'GCT'
p2295
tp2296
I2
s(I69
S'TCG'
p2297
tp2298
I42
s(I9
S'ATA'
p2299
tp2300
I649
s(I52
S'GGC'
p2301
tp2302
I58
s(I48
S'AAC'
p2303
tp2304
I5
s(I15
S'TAA'
p2305
tp2306
I8
s(I22
S'CGG'
p2307
tp2308
I11
s(I8
S'CCC'
p2309
tp2310
I7
s(I7
S'TGA'
p2311
tp2312
I3
s(I55
S'TAG'
p2313
tp2314
I1
s(I32
S'CTT'
p2315
tp2316
I7
s(I19
S'GAC'
p2317
tp2318
I18
s(I68
S'GCG'
p2319
tp2320
I10
s(I28
S'TCC'
p2321
tp2322
I39
s(I4
S'TTG'
p2323
tp2324
I4
s(I28
S'CAG'
p2325
tp2326
I43
s(I72
S'CTG'
p2327
tp2328
I42
s(I75
S'TAG'
p2329
tp2330
I11
s(I62
S'TGA'
p2331
tp2332
I2
s(I63
S'TAT'
p2333
tp2334
I37
s(I30
S'CCT'
p2335
tp2336
I1
s(I23
S'ATT'
p2337
tp2338
I5
s(I64
S'GGT'
p2339
tp2340
I46
s(I12
S'GCT'
p2341
tp2342
I1
s(I58
S'TGG'
p2343
tp2344
I256
s(I66
S'AAC'
p2345
tp2346
I399
s(I71
S'TAT'
p2347
tp2348
I2
s(I52
S'TGA'
p2349
tp2350
I11
s(I21
S'TCG'
p2351
tp2352
I108
s(I12
S'TTA'
p2353
tp2354
I1
s(I7
S'TGT'
p2355
tp2356
I23
s(I72
S'GCA'
p2357
tp2358
I24
s(I29
S'ACC'
p2359
tp2360
I63
s(I12
S'AAC'
p2361
tp2362
I1
s(I69
S'CGG'
p2363
tp2364
I1
s(I36
S'GAC'
p2365
tp2366
I1
s(I3
S'GTG'
p2367
tp2368
I138
s(I74
S'TCG'
p2369
tp2370
I3
s(I19
S'TAC'
p2371
tp2372
I167
s(I18
S'CCC'
p2373
tp2374
I87
s(I44
S'GTC'
p2375
tp2376
I13
s(I58
S'GGG'
p2377
tp2378
I144
s(I53
S'AGA'
p2379
tp2380
I6
s(I27
S'TAC'
p2381
tp2382
I28
s(I9
S'GGT'
p2383
tp2384
I464
s(I66
S'GGG'
p2385
tp2386
I101
s(I72
S'GTA'
p2387
tp2388
I74
s(I64
S'CGG'
p2389
tp2390
I28
s(I65
S'AGT'
p2391
tp2392
I22
s(I37
S'CGG'
p2393
tp2394
I18
s(I55
S'TTT'
p2395
tp2396
I31
s(I13
S'CGA'
p2397
tp2398
I109
s(I24
S'GCG'
p2399
tp2400
I11
s(I53
S'GAC'
p2401
tp2402
I3
s(I6
S'TTA'
p2403
tp2404
I1
s(I36
S'ACC'
p2405
tp2406
I1552
s(I58
S'CAT'
p2407
tp2408
I14
s(I4
S'CAG'
p2409
tp2410
I3
s(I21
S'ATG'
p2411
tp2412
I3
s(I70
S'CGT'
p2413
tp2414
I2
s(I32
S'CGG'
p2415
tp2416
I41
s(I72
S'ACC'
p2417
tp2418
I5
s(I21
S'CTG'
p2419
tp2420
I57
s(I5
S'GGA'
p2421
tp2422
I5
s(I68
S'CCT'
p2423
tp2424
I12
s(I47
S'TCT'
p2425
tp2426
I91
s(I54
S'GAT'
p2427
tp2428
I29
s(I20
S'TCA'
p2429
tp2430
I44
s(I15
S'ATG'
p2431
tp2432
I71
s(I37
S'GCC'
p2433
tp2434
I263
s(I63
S'GGT'
p2435
tp2436
I48
s(I26
S'TTC'
p2437
tp2438
I8
s(I60
S'AGC'
p2439
tp2440
I4
s(I66
S'CTG'
p2441
tp2442
I768
s(I49
S'TTG'
p2443
tp2444
I1
s(I12
S'CTT'
p2445
tp2446
I3
s(I23
S'CCA'
p2447
tp2448
I2
s(I17
S'CTT'
p2449
tp2450
I74
s(I6
S'TGG'
p2451
tp2452
I75
s(I5
S'TGA'
p2453
tp2454
I76
s(I29
S'AGA'
p2455
tp2456
I1
s(I19
S'GGA'
p2457
tp2458
I63
s(I53
S'TTC'
p2459
tp2460
I20
s(I19
S'AGG'
p2461
tp2462
I1
s(I55
S'CTG'
p2463
tp2464
I67
s(I14
S'AAT'
p2465
tp2466
I6
s(I32
S'TAT'
p2467
tp2468
I1
s(I35
S'GTC'
p2469
tp2470
I57
s(I67
S'GGC'
p2471
tp2472
I677
s(I21
S'GGC'
p2473
tp2474
I38
s(I53
S'GTA'
p2475
tp2476
I3
s(I40
S'TAT'
p2477
tp2478
I1
s(I18
S'AAA'
p2479
tp2480
I42
s(I20
S'GAT'
p2481
tp2482
I13
s(I11
S'ACT'
p2483
tp2484
I227
s(I17
S'GAG'
p2485
tp2486
I1
s(I57
S'TAA'
p2487
tp2488
I1
s(I23
S'AGC'
p2489
tp2490
I4
s(I68
S'ACA'
p2491
tp2492
I20
s(I28
S'TCA'
p2493
tp2494
I65
s(I40
S'AGT'
p2495
tp2496
I6
s(I14
S'TTG'
p2497
tp2498
I2
s(I71
S'CTT'
p2499
tp2500
I16
s(I21
S'TGG'
p2501
tp2502
I8
s(I36
S'TCG'
p2503
tp2504
I33
s(I66
S'CGA'
p2505
tp2506
I1
s(I32
S'GGA'
p2507
tp2508
I8
s(I8
S'AAT'
p2509
tp2510
I2
s(I51
S'GCC'
p2511
tp2512
I8
s(I63
S'CGC'
p2513
tp2514
I110
s(I27
S'TCA'
p2515
tp2516
I10
s(I25
S'TTG'
p2517
tp2518
I38
s(I45
S'GAT'
p2519
tp2520
I10
s(I22
S'CAT'
p2521
tp2522
I23
s(I60
S'GGG'
p2523
tp2524
I106
s(I5
S'TCT'
p2525
tp2526
I1
s(I36
S'CGA'
p2527
tp2528
I17
s(I57
S'CTG'
p2529
tp2530
I45
s(I3
S'GCT'
p2531
tp2532
I456
s(I76
S'ATC'
p2533
tp2534
I19
s(I61
S'CCC'
p2535
tp2536
I225
s(I40
S'TTC'
p2537
tp2538
I45
s(I66
S'AGC'
p2539
tp2540
I29
s(I54
S'TCC'
p2541
tp2542
I22
s(I18
S'GGG'
p2543
tp2544
I9
s(I4
S'TAA'
p2545
tp2546
I4
s(I56
S'GGC'
p2547
tp2548
I10
s(I17
S'AGT'
p2549
tp2550
I144
s(I52
S'CGG'
p2551
tp2552
I19
s(I36
S'TGT'
p2553
tp2554
I888
s(I58
S'TTT'
p2555
tp2556
I119
s(I64
S'GGC'
p2557
tp2558
I1743
s(I7
S'TCC'
p2559
tp2560
I1
s(I9
S'CGG'
p2561
tp2562
I5
s(I36
S'TAG'
p2563
tp2564
I3
s(I65
S'ATA'
p2565
tp2566
I92
s(I72
S'ATG'
p2567
tp2568
I227
s(I19
S'GTG'
p2569
tp2570
I35
s(I11
S'ATC'
p2571
tp2572
I26
s(I62
S'TTG'
p2573
tp2574
I127
s(I19
S'ACA'
p2575
tp2576
I63
s(I44
S'TAG'
p2577
tp2578
I2
s(I18
S'TGA'
p2579
tp2580
I3
s(I17
S'TCG'
p2581
tp2582
I102
s(I28
S'TCT'
p2583
tp2584
I42
s(I30
S'GAC'
p2585
tp2586
I5
s(I66
S'GTC'
p2587
tp2588
I16
s(I42
S'CGT'
p2589
tp2590
I77
s(I20
S'CGG'
p2591
tp2592
I19
s(I22
S'CCC'
p2593
tp2594
I53
s(I59
S'ACC'
p2595
tp2596
I6
s(I32
S'GGC'
p2597
tp2598
I26
s(I54
S'CAA'
p2599
tp2600
I8
s(I27
S'AAT'
p2601
tp2602
I1
s(I19
S'ACG'
p2603
tp2604
I24
s(I29
S'GCT'
p2605
tp2606
I21
s(I40
S'TGC'
p2607
tp2608
I2
s(I25
S'TAT'
p2609
tp2610
I13
s(I28
S'ACG'
p2611
tp2612
I25
s(I18
S'CTG'
p2613
tp2614
I36
s(I54
S'AGG'
p2615
tp2616
I77
s(I64
S'TCA'
p2617
tp2618
I1615
s(I11
S'CAC'
p2619
tp2620
I49
s(I14
S'CCT'
p2621
tp2622
I1
s(I16
S'CAC'
p2623
tp2624
I81
s(I6
S'TTT'
p2625
tp2626
I150
s(I64
S'CTC'
p2627
tp2628
I320
s(I47
S'AGT'
p2629
tp2630
I470
s(I10
S'AAT'
p2631
tp2632
I366
s(I27
S'CAC'
p2633
tp2634
I91
s(I20
S'GCC'
p2635
tp2636
I68
s(I40
S'CTT'
p2637
tp2638
I32
s(I36
S'TGC'
p2639
tp2640
I340
s(I16
S'TAC'
p2641
tp2642
I21
s(I70
S'AGT'
p2643
tp2644
I9
s(I54
S'GAC'
p2645
tp2646
I13
s(I65
S'CCC'
p2647
tp2648
I584
s(I14
S'TCC'
p2649
tp2650
I36
s(I37
S'TCA'
p2651
tp2652
I113
s(I63
S'AGG'
p2653
tp2654
I83
s(I33
S'TGC'
p2655
tp2656
I207
s(I74
S'TCT'
p2657
tp2658
I3
s(I57
S'TGG'
p2659
tp2660
I100
s(I36
S'GGG'
p2661
tp2662
I4
s(I60
S'ACT'
p2663
tp2664
I199
s(I18
S'CGG'
p2665
tp2666
I17
s(I70
S'TCG'
p2667
tp2668
I1
s(I9
S'GAT'
p2669
tp2670
I417
s(I69
S'CCG'
p2671
tp2672
I12
s(I70
S'CAC'
p2673
tp2674
I10
s(I36
S'GTC'
p2675
tp2676
I2
s(I62
S'AAA'
p2677
tp2678
I6
s(I75
S'CAC'
p2679
tp2680
I44
s(I53
S'CAA'
p2681
tp2682
I23
s(I7
S'GTT'
p2683
tp2684
I11
s(I41
S'AGA'
p2685
tp2686
I1
s(I75
S'ATC'
p2687
tp2688
I3
s(I42
S'TTG'
p2689
tp2690
I38
s(I57
S'TAG'
p2691
tp2692
I1
s(I52
S'ATG'
p2693
tp2694
I41
s(I27
S'TGT'
p2695
tp2696
I37
s(I8
S'GTT'
p2697
tp2698
I108
s(I17
S'GCC'
p2699
tp2700
I37
s(I29
S'CAC'
p2701
tp2702
I1
s(I4
S'CTA'
p2703
tp2704
I26
s(I23
S'AGT'
p2705
tp2706
I12
s(I25
S'GTA'
p2707
tp2708
I3
s(I38
S'CCG'
p2709
tp2710
I159
s(I4
S'CAT'
p2711
tp2712
I39
s(I5
S'CCT'
p2713
tp2714
I8
s(I72
S'TTC'
p2715
tp2716
I276
s(I39
S'ACC'
p2717
tp2718
I6
s(I20
S'GGT'
p2719
tp2720
I42
s(I39
S'GCG'
p2721
tp2722
I4
s(I8
S'GCT'
p2723
tp2724
I3
s(I55
S'CCT'
p2725
tp2726
I6
s(I24
S'CGG'
p2727
tp2728
I1
s(I49
S'CTA'
p2729
tp2730
I4
s(I4
S'GCC'
p2731
tp2732
I1
s(I66
S'TGA'
p2733
tp2734
I2
s(I76
S'TTG'
p2735
tp2736
I7
s(I39
S'AGG'
p2737
tp2738
I3
s(I34
S'ACG'
p2739
tp2740
I1
s(I71
S'GTA'
p2741
tp2742
I6
s(I11
S'TAT'
p2743
tp2744
I3
s(I68
S'TGA'
p2745
tp2746
I1
s(I73
S'GGA'
p2747
tp2748
I1
s(I50
S'GCC'
p2749
tp2750
I8
s(I40
S'GCT'
p2751
tp2752
I5
s(I28
S'GGT'
p2753
tp2754
I5
s(I9
S'CCA'
p2755
tp2756
I979
s(I15
S'TTT'
p2757
tp2758
I24
s(I19
S'ATA'
p2759
tp2760
I5
s(I68
S'TGG'
p2761
tp2762
I2
s(I69
S'TTT'
p2763
tp2764
I148
s(I63
S'CTC'
p2765
tp2766
I19
s(I55
S'CAA'
p2767
tp2768
I12
s(I28
S'GCA'
p2769
tp2770
I30
s(I76
S'CGT'
p2771
tp2772
I3
s(I60
S'CAA'
p2773
tp2774
I137
s(I20
S'AAA'
p2775
tp2776
I65
s(I6
S'CAT'
p2777
tp2778
I103
s(I17
S'GGG'
p2779
tp2780
I12
s(I3
S'GCC'
p2781
tp2782
I29
s(I35
S'TCG'
p2783
tp2784
I24
s(I66
S'ATG'
p2785
tp2786
I91
s(I43
S'ATG'
p2787
tp2788
I2
s(I29
S'GAG'
p2789
tp2790
I52
s(I5
S'GGT'
p2791
tp2792
I1
s(I25
S'CCC'
p2793
tp2794
I13
s(I35
S'TGC'
p2795
tp2796
I76
s(I11
S'AGC'
p2797
tp2798
I511
s(I59
S'ACT'
p2799
tp2800
I2
s(I17
S'CGA'
p2801
tp2802
I2
s(I45
S'TAC'
p2803
tp2804
I16
s(I7
S'CCG'
p2805
tp2806
I390
s(I19
S'TGC'
p2807
tp2808
I3
s(I36
S'TCC'
p2809
tp2810
I12
s(I65
S'ATC'
p2811
tp2812
I13
s(I52
S'TTG'
p2813
tp2814
I11
s(I53
S'CGC'
p2815
tp2816
I1
s(I75
S'TTC'
p2817
tp2818
I2
s(I72
S'TAG'
p2819
tp2820
I23
s(I10
S'GAC'
p2821
tp2822
I9
s(I6
S'CGG'
p2823
tp2824
I8
s(I57
S'GAT'
p2825
tp2826
I19
s(I71
S'ATT'
p2827
tp2828
I4
s(I36
S'GCT'
p2829
tp2830
I51
s(I22
S'GGG'
p2831
tp2832
I24
s(I15
S'CTG'
p2833
tp2834
I132
s(I6
S'GCC'
p2835
tp2836
I56
s(I9
S'TAG'
p2837
tp2838
I6
s(I55
S'TCA'
p2839
tp2840
I175
s(I61
S'ATC'
p2841
tp2842
I117
s(I72
S'TCG'
p2843
tp2844
I65
s(I69
S'TCA'
p2845
tp2846
I21
s(I37
S'TCT'
p2847
tp2848
I70
s(I20
S'CAA'
p2849
tp2850
I119
s(I73
S'ACA'
p2851
tp2852
I1
s(I15
S'AAC'
p2853
tp2854
I3
s(I51
S'CCA'
p2855
tp2856
I269
s(I36
S'AGT'
p2857
tp2858
I1
s(I28
S'ATC'
p2859
tp2860
I12
s(I46
S'TGA'
p2861
tp2862
I2
s(I46
S'CAA'
p2863
tp2864
I64
s(I57
S'ATG'
p2865
tp2866
I68
s(I76
S'TCC'
p2867
tp2868
I4
s(I48
S'AGA'
p2869
tp2870
I19
s(I34
S'ATC'
p2871
tp2872
I15
s(I44
S'CCT'
p2873
tp2874
I1
s(I63
S'AGA'
p2875
tp2876
I36
s(I60
S'ATC'
p2877
tp2878
I72
s(I7
S'GTC'
p2879
tp2880
I77
s(I6
S'ATT'
p2881
tp2882
I868
s(I29
S'CGT'
p2883
tp2884
I23
s(I13
S'CAC'
p2885
tp2886
I13
s(I55
S'CCC'
p2887
tp2888
I8
s(I18
S'CAC'
p2889
tp2890
I13
s(I73
S'GTC'
p2891
tp2892
I526
s(I41
S'CAG'
p2893
tp2894
I21
s(I75
S'CGT'
p2895
tp2896
I3
s(I22
S'ACG'
p2897
tp2898
I101
s(I46
S'ATG'
p2899
tp2900
I878
s(I46
S'TAT'
p2901
tp2902
I343
s(I22
S'GCG'
p2903
tp2904
I35
s(I56
S'ATG'
p2905
tp2906
I2
s(I54
S'TAT'
p2907
tp2908
I37
s(I7
S'GCC'
p2909
tp2910
I21
s(I25
S'AAT'
p2911
tp2912
I9
s(I9
S'GGA'
p2913
tp2914
I893
s(I17
S'ACC'
p2915
tp2916
I137
s(I33
S'CTC'
p2917
tp2918
I3
s(I48
S'CGT'
p2919
tp2920
I16
s(I11
S'TAG'
p2921
tp2922
I4
s(I32
S'TGC'
p2923
tp2924
I8
s(I73
S'TCC'
p2925
tp2926
I1
s(I63
S'GTA'
p2927
tp2928
I50
s(I20
S'CAG'
p2929
tp2930
I98
s(I22
S'GTG'
p2931
tp2932
I27
s(I73
S'AAT'
p2933
tp2934
I2
s(I52
S'CTG'
p2935
tp2936
I1
s(I48
S'TCG'
p2937
tp2938
I12
s(I16
S'CGG'
p2939
tp2940
I12
s(I68
S'TAT'
p2941
tp2942
I6
s(I70
S'TAG'
p2943
tp2944
I1
s(I45
S'CTC'
p2945
tp2946
I22
s(I17
S'TGT'
p2947
tp2948
I118
s(I8
S'ACT'
p2949
tp2950
I2
s(I37
S'GAT'
p2951
tp2952
I647
s(I42
S'TGT'
p2953
tp2954
I1546
s(I26
S'CTA'
p2955
tp2956
I7
s(I65
S'ACG'
p2957
tp2958
I145
s(I72
S'GGA'
p2959
tp2960
I225
s(I52
S'TCC'
p2961
tp2962
I6
s(I65
S'GCG'
p2963
tp2964
I10
s(I17
S'GGA'
p2965
tp2966
I53
s(I76
S'CGC'
p2967
tp2968
I11
s(I24
S'ACC'
p2969
tp2970
I82
s(I24
S'TCT'
p2971
tp2972
I19
s(I39
S'CTA'
p2973
tp2974
I2
s(I47
S'GAG'
p2975
tp2976
I3
s(I17
S'CAG'
p2977
tp2978
I7
s(I76
S'ACC'
p2979
tp2980
I1
s(I65
S'TTA'
p2981
tp2982
I8
s(I27
S'TTG'
p2983
tp2984
I1
s(I16
S'AGT'
p2985
tp2986
I4
s(I57
S'CCT'
p2987
tp2988
I111
s(I57
S'AGT'
p2989
tp2990
I3
s(I24
S'CTC'
p2991
tp2992
I2
s(I37
S'ATG'
p2993
tp2994
I56
s(I5
S'GAC'
p2995
tp2996
I1
s(I60
S'GAG'
p2997
tp2998
I105
s(I16
S'ATT'
p2999
tp3000
I28
s(I4
S'GAT'
p3001
tp3002
I1
s(I63
S'ATG'
p3003
tp3004
I47
s(I50
S'GGC'
p3005
tp3006
I2
s(I30
S'TCA'
p3007
tp3008
I9
s(I27
S'GCG'
p3009
tp3010
I7
s(I60
S'CGA'
p3011
tp3012
I102
s(I59
S'ATC'
p3013
tp3014
I92
s(I75
S'TTT'
p3015
tp3016
I2
s(I62
S'GGG'
p3017
tp3018
I126
s(I26
S'TGA'
p3019
tp3020
I3
s(I39
S'GGA'
p3021
tp3022
I6
s(I22
S'GGA'
p3023
tp3024
I185
s(I21
S'GAC'
p3025
tp3026
I33
s(I57
S'GAA'
p3027
tp3028
I16
s(I30
S'GCA'
p3029
tp3030
I31
s(I29
S'TGA'
p3031
tp3032
I31
s(I51
S'TTT'
p3033
tp3034
I1
s(I32
S'GAG'
p3035
tp3036
I69
s(I35
S'CCC'
p3037
tp3038
I273
s(I28
S'CCG'
p3039
tp3040
I1
s(I56
S'ACA'
p3041
tp3042
I4
s(I53
S'CTG'
p3043
tp3044
I34
s(I56
S'GCA'
p3045
tp3046
I1
s(I54
S'CTT'
p3047
tp3048
I5
s(I59
S'CTT'
p3049
tp3050
I1134
s(I41
S'GCA'
p3051
tp3052
I15
s(I51
S'CCT'
p3053
tp3054
I10
s(I29
S'GGG'
p3055
tp3056
I128
s(I17
S'ATA'
p3057
tp3058
I27
s(I33
S'AGT'
p3059
tp3060
I3
s(I64
S'TGG'
p3061
tp3062
I3
s(I73
S'TTG'
p3063
tp3064
I10
s(I75
S'GTG'
p3065
tp3066
I347
s(I15
S'GTG'
p3067
tp3068
I7
s(I67
S'CTT'
p3069
tp3070
I17
s(I76
S'TCT'
p3071
tp3072
I6
s(I7
S'GAT'
p3073
tp3074
I16
s(I55
S'AAA'
p3075
tp3076
I179
s(I60
S'ATT'
p3077
tp3078
I153
s(I51
S'GGG'
p3079
tp3080
I5
s(I48
S'GAG'
p3081
tp3082
I21
s(I6
S'ATA'
p3083
tp3084
I962
s(I5
S'ATC'
p3085
tp3086
I62
s(I17
S'CCA'
p3087
tp3088
I6
s(I29
S'GTA'
p3089
tp3090
I27
s(I14
S'AGA'
p3091
tp3092
I3
s(I4
S'AAA'
p3093
tp3094
I1
s(I13
S'GAC'
p3095
tp3096
I19
s(I41
S'AAG'
p3097
tp3098
I14
s(I15
S'GCG'
p3099
tp3100
I49
s(I23
S'AAC'
p3101
tp3102
I1
s(I46
S'TAA'
p3103
tp3104
I4
s(I15
S'ACG'
p3105
tp3106
I7
s(I7
S'ATA'
p3107
tp3108
I7
s(I54
S'TAA'
p3109
tp3110
I3
s(I21
S'CTT'
p3111
tp3112
I66
s(I63
S'TGT'
p3113
tp3114
I122
s(I27
S'ATG'
p3115
tp3116
I16
s(I34
S'CTG'
p3117
tp3118
I17
s(I5
S'CTT'
p3119
tp3120
I683
s(I11
S'CCC'
p3121
tp3122
I267
s(I65
S'CAA'
p3123
tp3124
I75
s(I16
S'TCC'
p3125
tp3126
I1
s(I32
S'CAC'
p3127
tp3128
I104
s(I21
S'GCC'
p3129
tp3130
I28
s(I52
S'CCC'
p3131
tp3132
I11
s(I28
S'TTT'
p3133
tp3134
I2
s(I16
S'TGA'
p3135
tp3136
I1
s(I62
S'ATC'
p3137
tp3138
I698
s(I29
S'TCG'
p3139
tp3140
I6
s(I39
S'CCA'
p3141
tp3142
I3
s(I63
S'ACC'
p3143
tp3144
I45
s(I47
S'CAT'
p3145
tp3146
I37
s(I41
S'GTA'
p3147
tp3148
I12
s(I76
S'GCC'
p3149
tp3150
I1
s(I9
S'AGT'
p3151
tp3152
I22
s(I21
S'GTA'
p3153
tp3154
I75
s(I68
S'AGA'
p3155
tp3156
I13
s(I38
S'GCT'
p3157
tp3158
I68
s(I15
S'GGT'
p3159
tp3160
I6
s(I69
S'TGG'
p3161
tp3162
I508
s(I20
S'ACA'
p3163
tp3164
I35
s(I70
S'AAA'
p3165
tp3166
I17
s(I37
S'GTA'
p3167
tp3168
I1
s(I57
S'GGC'
p3169
tp3170
I52
s(I52
S'AGA'
p3171
tp3172
I5
s(I15
S'TTA'
p3173
tp3174
I50
s(I63
S'CAG'
p3175
tp3176
I1
s(I6
S'TAG'
p3177
tp3178
I5
s(I68
S'CAG'
p3179
tp3180
I81
s(I39
S'CTT'
p3181
tp3182
I5
s(I51
S'TAG'
p3183
tp3184
I4
s(I47
S'AAG'
p3185
tp3186
I1
s(I44
S'CTT'
p3187
tp3188
I739
s(I24
S'AAT'
p3189
tp3190
I8
s(I48
S'TTT'
p3191
tp3192
I5
s(I45
S'ATC'
p3193
tp3194
I703
s(I22
S'CTG'
p3195
tp3196
I8
s(I23
S'GTT'
p3197
tp3198
I58
s(I74
S'GCT'
p3199
tp3200
I4
s(I18
S'GCG'
p3201
tp3202
I29
s(I30
S'ACG'
p3203
tp3204
I4
s(I34
S'CAT'
p3205
tp3206
I24
s(I46
S'GGA'
p3207
tp3208
I221
s(I46
S'AGG'
p3209
tp3210
I3
s(I34
S'TGC'
p3211
tp3212
I8
s(I59
S'TAT'
p3213
tp3214
I60
s(I54
S'GGA'
p3215
tp3216
I52
s(I35
S'GCC'
p3217
tp3218
I6
s(I8
S'CAC'
p3219
tp3220
I2
s(I60
S'TGC'
p3221
tp3222
I41
s(I67
S'TAT'
p3223
tp3224
I5
s(I36
S'ATT'
p3225
tp3226
I24
s(I7
S'AAC'
p3227
tp3228
I5232
s(I24
S'CAG'
p3229
tp3230
I22
s(I17
S'GCG'
p3231
tp3232
I64
s(I6
S'GAA'
p3233
tp3234
I89
s(I24
S'GTC'
p3235
tp3236
I57
s(I34
S'AGC'
p3237
tp3238
I2
s(I46
S'TGG'
p3239
tp3240
I114
s(I35
S'CGT'
p3241
tp3242
I37
s(I13
S'ACG'
p3243
tp3244
I4
s(I56
S'TGG'
p3245
tp3246
I1
s(I64
S'AAG'
p3247
tp3248
I21
s(I62
S'AGT'
p3249
tp3250
I538
s(I51
S'AGG'
p3251
tp3252
I1
s(I3
S'AAG'
p3253
tp3254
I2
s(I54
S'ACA'
p3255
tp3256
I5
s(I74
S'CGC'
p3257
tp3258
I136
s(I27
S'ATC'
p3259
tp3260
I2
s(I66
S'GTT'
p3261
tp3262
I38
s(I19
S'TCG'
p3263
tp3264
I34
s(I15
S'ATA'
p3265
tp3266
I149
s(I56
S'ACT'
p3267
tp3268
I5
s(I13
S'CCT'
p3269
tp3270
I3
s(I33
S'GGC'
p3271
tp3272
I1
s(I35
S'GAT'
p3273
tp3274
I21
s(I44
S'CAG'
p3275
tp3276
I18
s(I56
S'GCT'
p3277
tp3278
I6
s(I62
S'CAC'
p3279
tp3280
I34
s(I54
S'CTA'
p3281
tp3282
I2
s(I67
S'GTC'
p3283
tp3284
I66
s(I27
S'ACC'
p3285
tp3286
I40
s(I59
S'CTC'
p3287
tp3288
I109
s(I63
S'CGA'
p3289
tp3290
I9
s(I61
S'CGA'
p3291
tp3292
I1
s(I71
S'TGA'
p3293
tp3294
I6
s(I66
S'GCT'
p3295
tp3296
I31
s(I38
S'CGC'
p3297
tp3298
I22
s(I6
S'TAA'
p3299
tp3300
I7
s(I16
S'GAC'
p3301
tp3302
I39
s(I66
S'ACT'
p3303
tp3304
I16
s(I28
S'CAT'
p3305
tp3306
I27
s(I22
S'AGG'
p3307
tp3308
I76
s(I33
S'TCT'
p3309
tp3310
I14
s(I28
S'ATT'
p3311
tp3312
I22
s(I71
S'GCT'
p3313
tp3314
I4
s(I16
S'CCT'
p3315
tp3316
I143
s(I24
S'ATC'
p3317
tp3318
I3
s(I34
S'AAG'
p3319
tp3320
I6
s(I68
S'TGC'
p3321
tp3322
I137
s(I55
S'ACT'
p3323
tp3324
I7
s(I40
S'TCG'
p3325
tp3326
I55
s(I57
S'GCC'
p3327
tp3328
I34
s(I63
S'CGT'
p3329
tp3330
I189
s(I38
S'AGT'
p3331
tp3332
I5
s(I69
S'TCT'
p3333
tp3334
I217
s(I47
S'CGG'
p3335
tp3336
I1
s(I37
S'CTG'
p3337
tp3338
I65
s(I33
S'CCC'
p3339
tp3340
I4
s(I72
S'CAA'
p3341
tp3342
I294
s(I59
S'GGC'
p3343
tp3344
I3
s(I58
S'TGT'
p3345
tp3346
I241
s(I31
S'AGG'
p3347
tp3348
I6
s(I17
S'GAC'
p3349
tp3350
I1
s(I58
S'GGT'
p3351
tp3352
I17
s(I9
S'CAT'
p3353
tp3354
I1735
s(I70
S'GAC'
p3355
tp3356
I10
s(I45
S'ACG'
p3357
tp3358
I481
s(I47
S'TAA'
p3359
tp3360
I2
s(I9
S'GGC'
p3361
tp3362
I429
s(I66
S'GGT'
p3363
tp3364
I2
s(I72
S'GTT'
p3365
tp3366
I164
s(I43
S'GCA'
p3367
tp3368
I1
s(I13
S'TGC'
p3369
tp3370
I90
s(I65
S'AGG'
p3371
tp3372
I245
s(I41
S'GAT'
p3373
tp3374
I1
s(I17
S'TCT'
p3375
tp3376
I15
s(I47
S'CAA'
p3377
tp3378
I21
s(I67
S'GAG'
p3379
tp3380
I3
s(I52
S'CAA'
p3381
tp3382
I11
s(I8
S'TTC'
p3383
tp3384
I26
s(I20
S'GTC'
p3385
tp3386
I16
s(I18
S'ACA'
p3387
tp3388
I51
s(I60
S'TCT'
p3389
tp3390
I60
s(I9
S'TGG'
p3391
tp3392
I3
s(I8
S'GAC'
p3393
tp3394
I1
s(I51
S'GAG'
p3395
tp3396
I10
s(I15
S'AAA'
p3397
tp3398
I1
s(I74
S'GTA'
p3399
tp3400
I1
s(I15
S'AGG'
p3401
tp3402
I1
s(I52
S'AGT'
p3403
tp3404
I28
s(I36
S'CGT'
p3405
tp3406
I1
s(I74
S'AGG'
p3407
tp3408
I50
s(I21
S'TTA'
p3409
tp3410
I6
s(I63
S'GGG'
p3411
tp3412
I22
s(I71
S'GGG'
p3413
tp3414
I2
s(I23
S'CCT'
p3415
tp3416
I10
s(I17
S'CTA'
p3417
tp3418
I28
s(I51
S'AAG'
p3419
tp3420
I5
s(I22
S'ATT'
p3421
tp3422
I22
s(I37
S'CTA'
p3423
tp3424
I99
s(I33
S'GAC'
p3425
tp3426
I10
s(I42
S'CTC'
p3427
tp3428
I10
s(I34
S'CAC'
p3429
tp3430
I10
s(I64
S'CGA'
p3431
tp3432
I82
s(I7
S'AGG'
p3433
tp3434
I5
s(I18
S'GTT'
p3435
tp3436
I1
s(I57
S'CAG'
p3437
tp3438
I15
s(I37
S'CCC'
p3439
tp3440
I126
s(I75
S'AAA'
p3441
tp3442
I5
s(I64
S'GTT'
p3443
tp3444
I64
s(I13
S'CGG'
p3445
tp3446
I5
s(I14
S'AAA'
p3447
tp3448
I6
s(I13
S'CCG'
p3449
tp3450
I3
s(I49
S'GGT'
p3451
tp3452
I1354
s(I6
S'CTA'
p3453
tp3454
I69
s(I12
S'ATC'
p3455
tp3456
I188
s(I56
S'GTA'
p3457
tp3458
I111
s(I40
S'TAG'
p3459
tp3460
I3
s(I57
S'CGG'
p3461
tp3462
I1
s(I31
S'CTC'
p3463
tp3464
I17
s(I34
S'GCC'
p3465
tp3466
I4
s(I38
S'TTA'
p3467
tp3468
I138
s(I48
S'TAG'
p3469
tp3470
I3
s(I10
S'GGG'
p3471
tp3472
I18
s(I62
S'AGC'
p3473
tp3474
I101
s(I54
S'ACT'
p3475
tp3476
I27
s(I20
S'TGA'
p3477
tp3478
I2
s(I75
S'GAA'
p3479
tp3480
I9
s(I38
S'GGT'
p3481
tp3482
I35
s(I61
S'TAG'
p3483
tp3484
I2
s(I68
S'TAA'
p3485
tp3486
I3
s(I37
S'TGT'
p3487
tp3488
I189
s(I61
S'CTC'
p3489
tp3490
I283
s(I28
S'AGT'
p3491
tp3492
I17
s(I38
S'CTC'
p3493
tp3494
I4
s(I67
S'TGC'
p3495
tp3496
I373
s(I22
S'TCA'
p3497
tp3498
I243
s(I12
S'ATA'
p3499
tp3500
I9
s(I6
S'TGA'
p3501
tp3502
I20
s(I40
S'AGA'
p3503
tp3504
I67
s(I20
S'GTT'
p3505
tp3506
I22
s(I68
S'GTC'
p3507
tp3508
I6
s(I45
S'GAG'
p3509
tp3510
I14
s(I51
S'TAA'
p3511
tp3512
I4
s(I5
S'AGT'
p3513
tp3514
I1
s(I10
S'CAC'
p3515
tp3516
I30
s(I57
S'CTT'
p3517
tp3518
I20
s(I55
S'CTA'
p3519
tp3520
I26
s(I28
S'GTA'
p3521
tp3522
I46
s(I3
S'CTG'
p3523
tp3524
I13
s(I33
S'CAG'
p3525
tp3526
I3
s(I33
S'TCC'
p3527
tp3528
I42
s(I53
S'GTG'
p3529
tp3530
I29
s(I44
S'GGC'
p3531
tp3532
I10
s(I8
S'TCG'
p3533
tp3534
I4
s(I55
S'GGA'
p3535
tp3536
I1
s(I7
S'TAA'
p3537
tp3538
I3
s(I27
S'GTT'
p3539
tp3540
I7
s(I17
S'TAA'
p3541
tp3542
I67
s(I55
S'CAC'
p3543
tp3544
I3
s(I68
S'ACG'
p3545
tp3546
I341
s(I26
S'GAC'
p3547
tp3548
I1
s(I59
S'AGA'
p3549
tp3550
I17
s(I61
S'GGC'
p3551
tp3552
I2
s(I39
S'TAG'
p3553
tp3554
I12
s(I40
S'GGG'
p3555
tp3556
I4
s(I28
S'ACC'
p3557
tp3558
I7
s(I8
S'TGC'
p3559
tp3560
I9
s(I38
S'AGC'
p3561
tp3562
I7
s(I20
S'ATA'
p3563
tp3564
I121
s(I60
S'CAC'
p3565
tp3566
I54
s(I72
S'CAT'
p3567
tp3568
I4
s(I38
S'TTC'
p3569
tp3570
I69
s(I46
S'TTG'
p3571
tp3572
I190
s(I40
S'ACC'
p3573
tp3574
I11
s(I27
S'TCG'
p3575
tp3576
I1
s(I27
S'AAC'
p3577
tp3578
I1
s(I25
S'TTA'
p3579
tp3580
I55
s(I42
S'TAC'
p3581
tp3582
I1
s(I60
S'GGA'
p3583
tp3584
I580
s(I29
S'GCC'
p3585
tp3586
I6
s(I67
S'CTG'
p3587
tp3588
I61
s(I16
S'AGA'
p3589
tp3590
I12
s(I68
S'GAA'
p3591
tp3592
I9
s(I57
S'TTG'
p3593
tp3594
I101
s(I31
S'TCC'
p3595
tp3596
I2
s(I59
S'AGC'
p3597
tp3598
I274
s(I51
S'AGC'
p3599
tp3600
I63
s(I48
S'CCA'
p3601
tp3602
I1
s(I11
S'TAC'
p3603
tp3604
I1
s(I40
S'CTG'
p3605
tp3606
I201
s(I45
S'CGT'
p3607
tp3608
I15
s(I61
S'TTC'
p3609
tp3610
I17
s(I70
S'TGC'
p3611
tp3612
I31
s(I19
S'GTA'
p3613
tp3614
I18
s(I42
S'TCA'
p3615
tp3616
I5
s(I45
S'GTA'
p3617
tp3618
I1638
s(I10
S'CGT'
p3619
tp3620
I13
s(I74
S'GAC'
p3621
tp3622
I2
s(I25
S'GAG'
p3623
tp3624
I111
s(I62
S'GCC'
p3625
tp3626
I465
s(I28
S'GAG'
p3627
tp3628
I143
s(I21
S'CGA'
p3629
tp3630
I1
s(I26
S'TCA'
p3631
tp3632
I1
s(I60
S'ACA'
p3633
tp3634
I98
s(I18
S'CGT'
p3635
tp3636
I1
s(I67
S'ACG'
p3637
tp3638
I447
s(I49
S'TCG'
p3639
tp3640
I1244
s(I75
S'AGA'
p3641
tp3642
I6
s(I70
S'GGC'
p3643
tp3644
I4
s(I42
S'CTT'
p3645
tp3646
I9
s(I9
S'GAG'
p3647
tp3648
I8
s(I64
S'CGT'
p3649
tp3650
I26
s(I18
S'GTA'
p3651
tp3652
I18
s(I3
S'CTA'
p3653
tp3654
I24
s(I23
S'TGA'
p3655
tp3656
I5
s(I13
S'CTC'
p3657
tp3658
I26
s(I54
S'TTC'
p3659
tp3660
I24
s(I64
S'TCG'
p3661
tp3662
I2700
s(I69
S'TGT'
p3663
tp3664
I439
s(I9
S'ACA'
p3665
tp3666
I38
s(I60
S'GTA'
p3667
tp3668
I8
s(I50
S'ATG'
p3669
tp3670
I24
s(I11
S'TGG'
p3671
tp3672
I5
s(I65
S'TAT'
p3673
tp3674
I211
s(I72
S'AAA'
p3675
tp3676
I33
s(I32
S'CGT'
p3677
tp3678
I26
s(I35
S'TAG'
p3679
tp3680
I12
s(I68
S'TCC'
p3681
tp3682
I145
s(I55
S'GCC'
p3683
tp3684
I32
s(I66
S'TTG'
p3685
tp3686
I901
s(I44
S'ACC'
p3687
tp3688
I702
s(I48
S'ATT'
p3689
tp3690
I6
s(I34
S'TCC'
p3691
tp3692
I4
s(I48
S'TAC'
p3693
tp3694
I13
s(I26
S'TTG'
p3695
tp3696
I16
s(I67
S'CGA'
p3697
tp3698
I14
s(I62
S'AAT'
p3699
tp3700
I19
s(I25
S'AGT'
p3701
tp3702
I21
s(I11
S'GGA'
p3703
tp3704
I595
s(I43
S'CGG'
p3705
tp3706
I1
s(I36
S'GGA'
p3707
tp3708
I13
s(I46
S'TCC'
p3709
tp3710
I682
s(I13
S'GGC'
p3711
tp3712
I2
s(I11
S'GTG'
p3713
tp3714
I39
s(I27
S'GGT'
p3715
tp3716
I1
s(I53
S'TAT'
p3717
tp3718
I3
s(I27
S'TTC'
p3719
tp3720
I94
s(I60
S'GAC'
p3721
tp3722
I109
s(I25
S'TCG'
p3723
tp3724
I6
s(I54
S'CGG'
p3725
tp3726
I65
s(I11
S'CGG'
p3727
tp3728
I2
s(I51
S'ACC'
p3729
tp3730
I56
s(I32
S'CTA'
p3731
tp3732
I105
s(I74
S'AAG'
p3733
tp3734
I99
s(I31
S'TTG'
p3735
tp3736
I11
s(I4
S'GCA'
p3737
tp3738
I1
s(I66
S'GAA'
p3739
tp3740
I55
s(I11
S'ACG'
p3741
tp3742
I66
s(I9
S'GTA'
p3743
tp3744
I35
s(I22
S'GGC'
p3745
tp3746
I1
s(I8
S'CGC'
p3747
tp3748
I1
s(I63
S'TTA'
p3749
tp3750
I16
s(I20
S'GAA'
p3751
tp3752
I114
s(I19
S'CAC'
p3753
tp3754
I29
s(I71
S'CAG'
p3755
tp3756
I9
s(I6
S'GGG'
p3757
tp3758
I876
s(I75
S'GGA'
p3759
tp3760
I6
s(I14
S'GCA'
p3761
tp3762
I3
s(I8
S'TGT'
p3763
tp3764
I7
s(I43
S'ATT'
p3765
tp3766
I13
s(I9
S'AAC'
p3767
tp3768
I14
s(I65
S'GGT'
p3769
tp3770
I208
s(I27
S'CTT'
p3771
tp3772
I20
s(I13
S'AAC'
p3773
tp3774
I1
s(I49
S'CTG'
p3775
tp3776
I2
s(I2
S'GGG'
p3777
tp3778
I2
s(I17
S'CGT'
p3779
tp3780
I5
s(I45
S'CAT'
p3781
tp3782
I362
s(I15
S'TGT'
p3783
tp3784
I11
s(I48
S'GGC'
p3785
tp3786
I19
s(I25
S'GCA'
p3787
tp3788
I11
s(I58
S'CCC'
p3789
tp3790
I1
s(I20
S'TAG'
p3791
tp3792
I4
s(I73
S'GCT'
p3793
tp3794
I6
s(I73
S'GGG'
p3795
tp3796
I1
s(I52
S'TTT'
p3797
tp3798
I27
s(I13
S'ATG'
p3799
tp3800
I2
s(I33
S'GGT'
p3801
tp3802
I3
s(I28
S'TAG'
p3803
tp3804
I4
s(I14
S'GGC'
p3805
tp3806
I3
s(I9
S'CCG'
p3807
tp3808
I409
s(I46
S'GAC'
p3809
tp3810
I8907
s(I68
S'GTG'
p3811
tp3812
I56
s(I41
S'GGT'
p3813
tp3814
I132
s(I6
S'CGT'
p3815
tp3816
I14
s(I55
S'CAG'
p3817
tp3818
I140
s(I6
S'TCT'
p3819
tp3820
I195
s(I52
S'CGT'
p3821
tp3822
I2
s(I20
S'AAC'
p3823
tp3824
I142
s(I45
S'CGA'
p3825
tp3826
I208
s(I21
S'ATC'
p3827
tp3828
I5
s(I22
S'GGT'
p3829
tp3830
I108
s(I19
S'GTT'
p3831
tp3832
I47
s(I67
S'ATC'
p3833
tp3834
I41
s(I66
S'ATA'
p3835
tp3836
I36
s(I62
S'GAT'
p3837
tp3838
I28
s(I44
S'ATG'
p3839
tp3840
I218
s(I64
S'CCG'
p3841
tp3842
I14
s(I39
S'TTA'
p3843
tp3844
I1
s(I28
S'AAG'
p3845
tp3846
I1
s(I42
S'ACA'
p3847
tp3848
I20
s(I72
S'ATC'
p3849
tp3850
I5
s(I42
S'AAC'
p3851
tp3852
I51
s(I73
S'ACT'
p3853
tp3854
I3
s(I20
S'CGT'
p3855
tp3856
I35
s(I2
S'TCC'
p3857
tp3858
I11
s(I13
S'GAA'
p3859
tp3860
I1
s(I75
S'ATT'
p3861
tp3862
I3
s(I20
S'TGC'
p3863
tp3864
I20
s(I55
S'ATA'
p3865
tp3866
I15
s(I30
S'TGT'
p3867
tp3868
I445
s(I56
S'CCT'
p3869
tp3870
I2
s(I31
S'GCG'
p3871
tp3872
I9
s(I54
S'AAG'
p3873
tp3874
I32
s(I42
S'GTA'
p3875
tp3876
I9
s(I30
S'CCA'
p3877
tp3878
I18
s(I54
S'AGT'
p3879
tp3880
I36
s(I31
S'CGG'
p3881
tp3882
I14
s(I76
S'AGC'
p3883
tp3884
I1
s(I29
S'CGC'
p3885
tp3886
I49
s(I55
S'CTC'
p3887
tp3888
I6
s(I11
S'GAG'
p3889
tp3890
I252
s(I26
S'ACG'
p3891
tp3892
I16
s(I40
S'TGT'
p3893
tp3894
I1
s(I71
S'GAC'
p3895
tp3896
I8
s(I20
S'GGG'
p3897
tp3898
I7
s(I63
S'TGC'
p3899
tp3900
I54
s(I40
S'TTA'
p3901
tp3902
I277
s(I42
S'GCC'
p3903
tp3904
I1551
s(I31
S'CAG'
p3905
tp3906
I30
s(I68
S'TCT'
p3907
tp3908
I65
s(I26
S'CGG'
p3909
tp3910
I3
s(I54
S'CAC'
p3911
tp3912
I13
s(I51
S'TCT'
p3913
tp3914
I111
s(I55
S'GAC'
p3915
tp3916
I61
s(I2
S'CGA'
p3917
tp3918
I33
s(I15
S'CTA'
p3919
tp3920
I60
s(I59
S'TCA'
p3921
tp3922
I202
s(I8
S'CTG'
p3923
tp3924
I66
s(I10
S'CCT'
p3925
tp3926
I1
s(I20
S'CAT'
p3927
tp3928
I115
s(I38
S'TAG'
p3929
tp3930
I25
s(I36
S'GGT'
p3931
tp3932
I1
s(I70
S'GTA'
p3933
tp3934
I25
s(I66
S'TGC'
p3935
tp3936
I20
s(I13
S'GGT'
p3937
tp3938
I1
s(I2
S'GCG'
p3939
tp3940
I1
s(I22
S'GAG'
p3941
tp3942
I3
s(I37
S'GAG'
p3943
tp3944
I1380
s(I35
S'AGT'
p3945
tp3946
I7
s(I42
S'TGG'
p3947
tp3948
I239
s(I47
S'TCC'
p3949
tp3950
I30
s(I2
S'AGC'
p3951
tp3952
I1
s(I51
S'ACT'
p3953
tp3954
I1
s(I16
S'CTT'
p3955
tp3956
I9
s(I5
S'CGT'
p3957
tp3958
I4
s(I21
S'GAG'
p3959
tp3960
I40
s(I63
S'GTG'
p3961
tp3962
I20
s(I30
S'AGT'
p3963
tp3964
I1
s(I33
S'CTA'
p3965
tp3966
I2
s(I16
S'CTA'
p3967
tp3968
I5
s(I22
S'ACA'
p3969
tp3970
I6
s(I53
S'CTA'
p3971
tp3972
I5
s(I53
S'GCA'
p3973
tp3974
I12
s(I63
S'CCT'
p3975
tp3976
I1
s(I58
S'CTC'
p3977
tp3978
I5
s(I45
S'AAA'
p3979
tp3980
I12
s(I69
S'ACG'
p3981
tp3982
I324
s(I42
S'GGG'
p3983
tp3984
I14
s(I61
S'ACT'
p3985
tp3986
I10
s(I32
S'AAC'
p3987
tp3988
I5
s(I5
S'TAA'
p3989
tp3990
I9
s(I14
S'GCT'
p3991
tp3992
I28
s(I57
S'AGG'
p3993
tp3994
I2
s(I65
S'GGA'
p3995
tp3996
I170
s(I48
S'AAT'
p3997
tp3998
I125
s(I27
S'CTC'
p3999
tp4000
I67
s(I68
S'ATA'
p4001
tp4002
I26
s(I41
S'CGG'
p4003
tp4004
I3
s(I47
S'CTC'
p4005
tp4006
I3
s(I63
S'ATT'
p4007
tp4008
I1
s(I19
S'CGT'
p4009
tp4010
I71
s(I52
S'CTA'
p4011
tp4012
I1
s(I16
S'CGA'
p4013
tp4014
I9
s(I53
S'GGA'
p4015
tp4016
I1
s(I34
S'ACT'
p4017
tp4018
I24
s(I39
S'GAC'
p4019
tp4020
I1
s(I61
S'AGC'
p4021
tp4022
I2
s(I22
S'CTC'
p4023
tp4024
I48
s(I29
S'ATC'
p4025
tp4026
I1
s(I5
S'GCG'
p4027
tp4028
I6
s(I33
S'GGA'
p4029
tp4030
I3
s(I27
S'ACG'
p4031
tp4032
I12
s(I12
S'GTT'
p4033
tp4034
I1
s(I62
S'TAA'
p4035
tp4036
I1
s(I43
S'TGG'
p4037
tp4038
I1
s(I21
S'TAC'
p4039
tp4040
I229
s(I41
S'GCG'
p4041
tp4042
I19
s(I62
S'GAG'
p4043
tp4044
I35
s(I26
S'ATC'
p4045
tp4046
I2
s(I29
S'TAC'
p4047
tp4048
I91
s(I24
S'TCA'
p4049
tp4050
I58
s(I17
S'CAA'
p4051
tp4052
I200
s(I31
S'CAC'
p4053
tp4054
I4
s(I25
S'CGA'
p4055
tp4056
I21
s(I2
S'GCT'
p4057
tp4058
I1
s(I21
S'CAC'
p4059
tp4060
I45
s(I26
S'CAC'
p4061
tp4062
I2
s(I65
S'GTC'
p4063
tp4064
I12
s(I72
S'AAG'
p4065
tp4066
I9
s(I19
S'GCG'
p4067
tp4068
I43
s(I14
S'ATC'
p4069
tp4070
I2
s(I48
S'TAT'
p4071
tp4072
I11
s(I14
S'ACG'
p4073
tp4074
I21
s(I38
S'ATG'
p4075
tp4076
I31
s(I37
S'ATA'
p4077
tp4078
I142
s(I3
S'GGA'
p4079
tp4080
I1
s(I45
S'TGC'
p4081
tp4082
I703
s(I33
S'AGG'
p4083
tp4084
I75
s(I70
S'GCC'
p4085
tp4086
I154
s(I67
S'TCC'
p4087
tp4088
I4
s(I37
S'ACG'
p4089
tp4090
I367
s(I32
S'ACA'
p4091
tp4092
I54
s(I55
S'ATT'
p4093
tp4094
I23
s(I34
S'CCA'
p4095
tp4096
I5
s(I27
S'GCA'
p4097
tp4098
I11
s(I56
S'CCC'
p4099
tp4100
I1
s(I41
S'TCT'
p4101
tp4102
I22
s(I28
S'ACA'
p4103
tp4104
I8
s(I53
S'GGG'
p4105
tp4106
I57
s(I5
S'ATT'
p4107
tp4108
I24
s(I16
S'GTA'
p4109
tp4110
I25
s(I23
S'GAC'
p4111
tp4112
I2
s(I38
S'CAC'
p4113
tp4114
I45
s(I43
S'CAC'
p4115
tp4116
I1
s(I60
S'CCG'
p4117
tp4118
I97
s(I20
S'AGT'
p4119
tp4120
I200
s(I23
S'TGG'
p4121
tp4122
I1
s(I42
S'AGG'
p4123
tp4124
I76
s(I47
S'GCC'
p4125
tp4126
I1
s(I18
S'TAT'
p4127
tp4128
I34
s(I16
S'GCC'
p4129
tp4130
I5
s(I70
S'ACC'
p4131
tp4132
I2239
s(I66
S'TAC'
p4133
tp4134
I52
s(I16
S'ACC'
p4135
tp4136
I18
s(I52
S'CCT'
p4137
tp4138
I23
s(I5
S'CTA'
p4139
tp4140
I1
s(I65
S'GAC'
p4141
tp4142
I2645
s(I10
S'CTC'
p4143
tp4144
I5
s(I54
S'CCA'
p4145
tp4146
I1
s(I3
S'AAC'
p4147
tp4148
I3
s(I25
S'CAG'
p4149
tp4150
I2
s(I73
S'TTA'
p4151
tp4152
I140
s(I49
S'GAC'
p4153
tp4154
I13
s(I33
S'ACT'
p4155
tp4156
I11
s(I57
S'ATT'
p4157
tp4158
I37
s(I11
S'AAT'
p4159
tp4160
I45
s(I29
S'ATG'
p4161
tp4162
I14
s(I8
S'ATT'
p4163
tp4164
I106
s(I12
S'GAT'
p4165
tp4166
I2
s(I64
S'ACG'
p4167
tp4168
I479
s(I17
S'CCG'
p4169
tp4170
I2
s(I35
S'TAC'
p4171
tp4172
I3
s(I30
S'AGC'
p4173
tp4174
I3
s(I75
S'CGC'
p4175
tp4176
I7
s(I22
S'ACT'
p4177
tp4178
I85
s(I36
S'GTA'
p4179
tp4180
I20
s(I46
S'TAG'
p4181
tp4182
I3
s(I52
S'AAG'
p4183
tp4184
I13
s(I10
S'CGA'
p4185
tp4186
I31
s(I44
S'GCG'
p4187
tp4188
I55
s(I44
S'CTG'
p4189
tp4190
I1
s(I64
S'AGC'
p4191
tp4192
I315
s(I50
S'ATA'
p4193
tp4194
I175
s(I36
S'CCG'
p4195
tp4196
I52
s(I29
S'CTC'
p4197
tp4198
I371
s(I45
S'ATT'
p4199
tp4200
I72
s(I69
S'CTA'
p4201
tp4202
I36
s(I23
S'CAA'
p4203
tp4204
I4
s(I23
S'GTA'
p4205
tp4206
I4
s(I18
S'AGG'
p4207
tp4208
I13
s(I18
S'GCT'
p4209
tp4210
I130
s(I72
S'CCG'
p4211
tp4212
I142
s(I50
S'TAG'
p4213
tp4214
I3
s(I12
S'ACA'
p4215
tp4216
I2
s(I43
S'TAC'
p4217
tp4218
I10
s(I73
S'AAG'
p4219
tp4220
I2
s(I68
S'AAT'
p4221
tp4222
I178
s(I48
S'ACA'
p4223
tp4224
I3
s(I20
S'CTT'
p4225
tp4226
I7
s(I25
S'CTT'
p4227
tp4228
I26
s(I23
S'GCA'
p4229
tp4230
I20
s(I76
S'CCC'
p4231
tp4232
I2
s(I11
S'TTC'
p4233
tp4234
I39
s(I2
S'GAG'
p4235
tp4236
I1
s(I21
S'GTG'
p4237
tp4238
I83
s(I27
S'TTT'
p4239
tp4240
I1
s(I47
S'CCG'
p4241
tp4242
I1
s(I44
S'TGG'
p4243
tp4244
I3
s(I3
S'CAC'
p4245
tp4246
I1
s(I72
S'CTT'
p4247
tp4248
I12
s(I12
S'GTA'
p4249
tp4250
I4
s(I37
S'GTG'
p4251
tp4252
I141
s(I16
S'CTC'
p4253
tp4254
I1
s(I28
S'TGG'
p4255
tp4256
I32
s(I36
S'CTC'
p4257
tp4258
I19
s(I34
S'GGC'
p4259
tp4260
I62
s(I55
S'GCA'
p4261
tp4262
I28
s(I32
S'TCC'
p4263
tp4264
I69
s(I20
S'ATC'
p4265
tp4266
I122
s(I6
S'AGC'
p4267
tp4268
I398
s(I67
S'CTA'
p4269
tp4270
I55
s(I71
S'ACA'
p4271
tp4272
I2
s(I22
S'GCT'
p4273
tp4274
I49
s(I46
S'GGG'
p4275
tp4276
I19
s(I12
S'GGC'
p4277
tp4278
I4
s(I53
S'CCC'
p4279
tp4280
I33
s(I55
S'GTC'
p4281
tp4282
I24
s(I54
S'GGG'
p4283
tp4284
I3
s(I24
S'TCG'
p4285
tp4286
I26
s(I35
S'CTG'
p4287
tp4288
I29
s(I42
S'ATG'
p4289
tp4290
I1
s(I32
S'AGA'
p4291
tp4292
I2
s(I31
S'TGG'
p4293
tp4294
I12
s(I31
S'GAA'
p4295
tp4296
I9
s(I8
S'AAA'
p4297
tp4298
I55
s(I18
S'ATC'
p4299
tp4300
I68
s(I32
S'ACT'
p4301
tp4302
I12
s(I18
S'TAC'
p4303
tp4304
I175
s(I34
S'ATA'
p4305
tp4306
I2
s(I25
S'CTG'
p4307
tp4308
I2
s(I13
S'GCC'
p4309
tp4310
I17
s(I65
S'TTG'
p4311
tp4312
I5
s(I52
S'GCT'
p4313
tp4314
I16
s(I15
S'GAA'
p4315
tp4316
I11
s(I16
S'GGA'
p4317
tp4318
I10
s(I54
S'ATC'
p4319
tp4320
I9
s(I16
S'CCA'
p4321
tp4322
I171
s(I55
S'ACC'
p4323
tp4324
I8
s(I49
S'AGC'
p4325
tp4326
I793
s(I7
S'CCA'
p4327
tp4328
I567
s(I9
S'ATT'
p4329
tp4330
I511
s(I67
S'CAT'
p4331
tp4332
I5
s(I15
S'TAC'
p4333
tp4334
I35
s(I13
S'GTA'
p4335
tp4336
I49
s(I69
S'CAC'
p4337
tp4338
I2
s(I10
S'GGC'
p4339
tp4340
I81
s(I42
S'TGC'
p4341
tp4342
I424
s(I75
S'GCT'
p4343
tp4344
I2
s(I71
S'AGC'
p4345
tp4346
I1
s(I56
S'TTG'
p4347
tp4348
I11
s(I74
S'CAT'
p4349
tp4350
I2
s(I10
S'TGG'
p4351
tp4352
I1
s(I9
S'CAG'
p4353
tp4354
I953
s(I71
S'AGT'
p4355
tp4356
I1
s(I9
S'TCC'
p4357
tp4358
I47
s(I35
S'GGG'
p4359
tp4360
I15
s(I18
S'TGT'
p4361
tp4362
I114
s(I74
S'CAC'
p4363
tp4364
I2
s(I43
S'AGA'
p4365
tp4366
I1
s(I43
S'GCT'
p4367
tp4368
I1
s(I61
S'CGG'
p4369
tp4370
I3
s(I10
S'CTT'
p4371
tp4372
I1
s(I43
S'GGG'
p4373
tp4374
I26
s(I57
S'GTC'
p4375
tp4376
I103
s(I75
S'GCC'
p4377
tp4378
I10
s(I67
S'ACA'
p4379
tp4380
I218
s(I28
S'GAT'
p4381
tp4382
I323
s(I36
S'GAG'
p4383
tp4384
I1
s(I62
S'ACC'
p4385
tp4386
I2569
s(I15
S'GTT'
p4387
tp4388
I9
s(I13
S'TCG'
p4389
tp4390
I4
s(I23
S'TGC'
p4391
tp4392
I5
s(I75
S'CCA'
p4393
tp4394
I25
s(I38
S'TAA'
p4395
tp4396
I4
s(I32
S'GCG'
p4397
tp4398
I24
s(I18
S'GGC'
p4399
tp4400
I121
s(I63
S'TAC'
p4401
tp4402
I51
s(I8
S'ATA'
p4403
tp4404
I255
s(I23
S'ATG'
p4405
tp4406
I144
s(I46
S'GTC'
p4407
tp4408
I341
s(I69
S'ACT'
p4409
tp4410
I148
s(I71
S'TAC'
p4411
tp4412
I2
s(I7
S'TGG'
p4413
tp4414
I2
s(I62
S'GTC'
p4415
tp4416
I640
s(I28
S'GTC'
p4417
tp4418
I140
s(I48
S'AAA'
p4419
tp4420
I13
s(I24
S'TTA'
p4421
tp4422
I13
s(I46
S'AAC'
p4423
tp4424
I2394
s(I64
S'GCG'
p4425
tp4426
I767
s(I37
S'CAT'
p4427
tp4428
I70
s(I4
S'GCG'
p4429
tp4430
I3
s(I56
S'AAG'
p4431
tp4432
I10
s(I22
S'ATG'
p4433
tp4434
I40
s(I46
S'ACA'
p4435
tp4436
I8
s(I27
S'AGC'
p4437
tp4438
I4
s(I14
S'ATA'
p4439
tp4440
I1
s(I61
S'GAC'
p4441
tp4442
I1
s(I64
S'GTG'
p4443
tp4444
I1330
s(I47
S'CAG'
p4445
tp4446
I527
s(I60
S'GCC'
p4447
tp4448
I16
s(I55
S'ATC'
p4449
tp4450
I158
s(I52
S'CAG'
p4451
tp4452
I8
s(I49
S'GGC'
p4453
tp4454
I482
s(I37
S'TGG'
p4455
tp4456
I18
s(I18
S'TCA'
p4457
tp4458
I100
s(I11
S'TTT'
p4459
tp4460
I11
s(I40
S'CTA'
p4461
tp4462
I448
s(I76
S'GAC'
p4463
tp4464
I23
s(I43
S'TAG'
p4465
tp4466
I1
s(I15
S'CAG'
p4467
tp4468
I25
s(I15
S'GGC'
p4469
tp4470
I1
s(I74
S'GTG'
p4471
tp4472
I1
s(I32
S'AAA'
p4473
tp4474
I13
s(I6
S'GCG'
p4475
tp4476
I55
s(I53
S'ACA'
p4477
tp4478
I37
s(I23
S'CGG'
p4479
tp4480
I1
s(I24
S'CCA'
p4481
tp4482
I45
s(I30
S'TTC'
p4483
tp4484
I61
s(I38
S'GGA'
p4485
tp4486
I24
s(I39
S'ATC'
p4487
tp4488
I1
s(I18
S'ACG'
p4489
tp4490
I37
s(I37
S'GCT'
p4491
tp4492
I62
s(I63
S'GGA'
p4493
tp4494
I15
s(I61
S'AAG'
p4495
tp4496
I1
s(I55
S'TGT'
p4497
tp4498
I37
s(I4
S'CTT'
p4499
tp4500
I20
s(I2
S'GTA'
p4501
tp4502
I1
s(I71
S'GGA'
p4503
tp4504
I3
s(I58
S'GAG'
p4505
tp4506
I91
s(I2
S'AAC'
p4507
tp4508
I1
s(I4
S'TGT'
p4509
tp4510
I2
s(I13
S'TAG'
p4511
tp4512
I1
s(I65
S'CGG'
p4513
tp4514
I15
s(I62
S'CGA'
p4515
tp4516
I7
s(I9
S'TTG'
p4517
tp4518
I12
s(I32
S'AGT'
p4519
tp4520
I29
s(I46
S'AGT'
p4521
tp4522
I756
s(I68
S'AGC'
p4523
tp4524
I408
s(I10
S'TAT'
p4525
tp4526
I1
s(I70
S'AAT'
p4527
tp4528
I6
s(I14
S'AAG'
p4529
tp4530
I1
s(I43
S'TAT'
p4531
tp4532
I7
s(I44
S'TAC'
p4533
tp4534
I5
s(I6
S'CTG'
p4535
tp4536
I34
s(I38
S'ACG'
p4537
tp4538
I8
s(I9
S'GCA'
p4539
tp4540
I49
s(I75
S'GTC'
p4541
tp4542
I1
s(I35
S'CGC'
p4543
tp4544
I11
s(I33
S'CGG'
p4545
tp4546
I1
s(I74
S'GGG'
p4547
tp4548
I1
s(I33
S'CAA'
p4549
tp4550
I1
s(I52
S'GTG'
p4551
tp4552
I25
s(I20
S'CCA'
p4553
tp4554
I321
s(I59
S'AAA'
p4555
tp4556
I4
s(I75
S'GAG'
p4557
tp4558
I1
s(I9
S'ATC'
p4559
tp4560
I398
s(I71
S'CTC'
p4561
tp4562
I67
s(I28
S'AGA'
p4563
tp4564
I23
s(I76
S'CTA'
p4565
tp4566
I4
s(I23
S'ACG'
p4567
tp4568
I21
s(I46
S'CGC'
p4569
tp4570
I501
s(I32
S'CCG'
p4571
tp4572
I30
s(I48
S'GTT'
p4573
tp4574
I4
s(I27
S'TCT'
p4575
tp4576
I6
s(I20
S'TTG'
p4577
tp4578
I1
s(I25
S'TTT'
p4579
tp4580
I82
s(I45
S'GAA'
p4581
tp4582
I32
s(I73
S'AGA'
p4583
tp4584
I52
s(I52
S'TGC'
p4585
tp4586
I69
s(I5
S'TCC'
p4587
tp4588
I3
s(I19
S'GAA'
p4589
tp4590
I19
s(I68
S'GCA'
p4591
tp4592
I64
s(I24
S'CCT'
p4593
tp4594
I79
s(I4
S'TCT'
p4595
tp4596
I2
s(I24
S'TGA'
p4597
tp4598
I1
s(I22
S'TCT'
p4599
tp4600
I4
s(I22
S'AGT'
p4601
tp4602
I22
s(I44
S'AGC'
p4603
tp4604
I109
s(I62
S'TGC'
p4605
tp4606
I194
s(I18
S'TTG'
p4607
tp4608
I63
s(I48
S'GAA'
p4609
tp4610
I17
s(I57
S'GCT'
p4611
tp4612
I76
s(I41
S'TTC'
p4613
tp4614
I141
s(I69
S'ACA'
p4615
tp4616
I40
s(I64
S'TGA'
p4617
tp4618
I1
s(I24
S'GGA'
p4619
tp4620
I16
s(I64
S'GAT'
p4621
tp4622
I593
s(I67
S'CAC'
p4623
tp4624
I8
s(I12
S'TTT'
p4625
tp4626
I5
s(I72
S'GCC'
p4627
tp4628
I54
s(I31
S'AAA'
p4629
tp4630
I10
s(I68
S'GGA'
p4631
tp4632
I13
s(I10
S'TGC'
p4633
tp4634
I2
s(I26
S'GCC'
p4635
tp4636
I10
s(I45
S'TTG'
p4637
tp4638
I825
s(I46
S'TTA'
p4639
tp4640
I106
s(I18
S'CCA'
p4641
tp4642
I1
s(I34
S'TAG'
p4643
tp4644
I5
s(I53
S'AGC'
p4645
tp4646
I28
s(I46
S'ACT'
p4647
tp4648
I97
s(I63
S'TCG'
p4649
tp4650
I31
s(I69
S'GTC'
p4651
tp4652
I29
s(I23
S'CTG'
p4653
tp4654
I20
s(I72
S'GTC'
p4655
tp4656
I1
s(I3
S'TAT'
p4657
tp4658
I1
s(I58
S'TGA'
p4659
tp4660
I1
s(I59
S'TCG'
p4661
tp4662
I12
s(I69
S'AGT'
p4663
tp4664
I1
s(I5
S'TCA'
p4665
tp4666
I1
s(I66
S'AAA'
p4667
tp4668
I1
s(I57
S'TTA'
p4669
tp4670
I22
s(I4
S'AGC'
p4671
tp4672
I1
s(I12
S'CCC'
p4673
tp4674
I42
s(I47
S'GGG'
p4675
tp4676
I40
s(I76
S'TGC'
p4677
tp4678
I1
s(I47
S'AGA'
p4679
tp4680
I10
s(I9
S'TGT'
p4681
tp4682
I466
s(I55
S'GGG'
p4683
tp4684
I57
s(I31
S'ACT'
p4685
tp4686
I28
s(I63
S'TCC'
p4687
tp4688
I58
s(I16
S'TCT'
p4689
tp4690
I14
s(I10
S'CGC'
p4691
tp4692
I2
s(I26
S'CTC'
p4693
tp4694
I22
s(I19
S'CCG'
p4695
tp4696
I13
s(I5
S'GGG'
p4697
tp4698
I1
s(I46
S'CTG'
p4699
tp4700
I2
s(I28
S'GGC'
p4701
tp4702
I17
s(I7
S'TCT'
p4703
tp4704
I212
s(I17
S'TTC'
p4705
tp4706
I5
s(I67
S'CCT'
p4707
tp4708
I2
s(I65
S'CCT'
p4709
tp4710
I375
s(I37
S'GCA'
p4711
tp4712
I180
s(I67
S'CGT'
p4713
tp4714
I4
s(I25
S'AGG'
p4715
tp4716
I18
s(I38
S'CCC'
p4717
tp4718
I1
s(I23
S'GGG'
p4719
tp4720
I4
s(I13
S'CCC'
p4721
tp4722
I1
s(I74
S'TCA'
p4723
tp4724
I3
s(I65
S'TGG'
p4725
tp4726
I59
s(I24
S'TAG'
p4727
tp4728
I1
s(I60
S'ACG'
p4729
tp4730
I151
s(I34
S'GAC'
p4731
tp4732
I3
s(I75
S'AGG'
p4733
tp4734
I17
s(I22
S'TTA'
p4735
tp4736
I39
s(I2
S'TCT'
p4737
tp4738
I2
s(I71
S'CCC'
p4739
tp4740
I14
s(I19
S'GGC'
p4741
tp4742
I6
s(I7
S'CAG'
p4743
tp4744
I37
s(I17
S'CAT'
p4745
tp4746
I53
s(I60
S'CTG'
p4747
tp4748
I6
s(I35
S'CAC'
p4749
tp4750
I26
s(I21
S'GGA'
p4751
tp4752
I22
s(I74
S'AAT'
p4753
tp4754
I10
s(I18
S'AAG'
p4755
tp4756
I3
s(I33
S'TTA'
p4757
tp4758
I21
s(I34
S'GCT'
p4759
tp4760
I3
s(I70
S'CGC'
p4761
tp4762
I3
s(I69
S'GGG'
p4763
tp4764
I471
s(I29
S'ACG'
p4765
tp4766
I95
s(I43
S'TTA'
p4767
tp4768
I57
s(I32
S'GTT'
p4769
tp4770
I85
s(I39
S'TCC'
p4771
tp4772
I4
s(I25
S'GAT'
p4773
tp4774
I3
s(I22
S'TGG'
p4775
tp4776
I18
s(I66
S'CCG'
p4777
tp4778
I119
s(I37
S'CCG'
p4779
tp4780
I27
s(I45
S'CAG'
p4781
tp4782
I25
s(I11
S'GTA'
p4783
tp4784
I5
s(I39
S'GCC'
p4785
tp4786
I3
s(I73
S'ATA'
p4787
tp4788
I1503
s(I64
S'CTG'
p4789
tp4790
I223
s(I32
S'CTC'
p4791
tp4792
I31
s(I39
S'GTT'
p4793
tp4794
I4
s(I23
S'TAG'
p4795
tp4796
I8
s(I54
S'GCC'
p4797
tp4798
I8
s(I57
S'TGA'
p4799
tp4800
I2
s(I34
S'TCA'
p4801
tp4802
I5
s(I52
S'ACA'
p4803
tp4804
I22
s(I76
S'ATA'
p4805
tp4806
I5
s(I8
S'CTT'
p4807
tp4808
I51
s(I43
S'GAC'
p4809
tp4810
I1
s(I57
S'TCG'
p4811
tp4812
I72
s(I70
S'ATC'
p4813
tp4814
I11
s(I60
S'CAT'
p4815
tp4816
I30
s(I27
S'GTA'
p4817
tp4818
I16
s(I6
S'CAC'
p4819
tp4820
I548
s(I41
S'TCA'
p4821
tp4822
I9
s(I52
S'CGA'
p4823
tp4824
I3
s(I66
S'AAT'
p4825
tp4826
I61
s(I63
S'TTG'
p4827
tp4828
I67
s(I10
S'AGG'
p4829
tp4830
I29
s(I39
S'TAT'
p4831
tp4832
I5
s(I51
S'CTG'
p4833
tp4834
I238
s(I37
S'AAC'
p4835
tp4836
I18
s(I28
S'ACT'
p4837
tp4838
I14
s(I18
S'TGC'
p4839
tp4840
I73
s(I29
S'GAT'
p4841
tp4842
I4
s(I70
S'GTC'
p4843
tp4844
I83
s(I11
S'AGT'
p4845
tp4846
I329
s(I18
S'CCT'
p4847
tp4848
I4
s(I20
S'CGA'
p4849
tp4850
I32
s(I72
S'ACA'
p4851
tp4852
I96
s(I22
S'CCA'
p4853
tp4854
I23
s(I72
S'AGT'
p4855
tp4856
I450
s(I76
S'CGA'
p4857
tp4858
I28
s(I21
S'CCA'
p4859
tp4860
I1
s(I72
S'ACT'
p4861
tp4862
I36
s(I62
S'CTT'
p4863
tp4864
I345
s(I8
S'GGT'
p4865
tp4866
I3
s(I66
S'GCC'
p4867
tp4868
I267
s(I52
S'TAC'
p4869
tp4870
I7
s(I28
S'TAA'
p4871
tp4872
I3
s(I31
S'GTT'
p4873
tp4874
I114
s(I70
S'ACA'
p4875
tp4876
I635
s(I16
S'CAA'
p4877
tp4878
I13
s(I16
S'TAG'
p4879
tp4880
I1
s(I69
S'AGG'
p4881
tp4882
I3
s(I35
S'TTC'
p4883
tp4884
I30
s(I44
S'AGA'
p4885
tp4886
I3
s(I15
S'AAG'
p4887
tp4888
I1
s(I36
S'TGA'
p4889
tp4890
I14
s(I59
S'GCT'
p4891
tp4892
I1149
s(I45
S'CGG'
p4893
tp4894
I385
s(I27
S'CAG'
p4895
tp4896
I17
s(I38
S'TCT'
p4897
tp4898
I186
s(I54
S'CAT'
p4899
tp4900
I32
s(I3
S'GAT'
p4901
tp4902
I1
s(I41
S'TAC'
p4903
tp4904
I1
s(I43
S'ACC'
p4905
tp4906
I3
s(I4
S'CCG'
p4907
tp4908
I1
s(I65
S'CCA'
p4909
tp4910
I160
s(I39
S'TTG'
p4911
tp4912
I3
s(I62
S'TTC'
p4913
tp4914
I11
s(I23
S'TAA'
p4915
tp4916
I3
s(I16
S'AGG'
p4917
tp4918
I2
s(I20
S'ACG'
p4919
tp4920
I54
s(I49
S'TCT'
p4921
tp4922
I1600
s(I70
S'GGT'
p4923
tp4924
I12
s(I70
S'TCA'
p4925
tp4926
I13
s(I6
S'GCA'
p4927
tp4928
I51
s(I75
S'CAA'
p4929
tp4930
I3
s(I50
S'TTG'
p4931
tp4932
I68
s(I61
S'GTC'
p4933
tp4934
I40
s(I15
S'CCG'
p4935
tp4936
I1
s(I54
S'GAG'
p4937
tp4938
I47
s(I35
S'CAT'
p4939
tp4940
I225
s(I62
S'ACA'
p4941
tp4942
I911
s(I7
S'TTA'
p4943
tp4944
I1
s(I25
S'AAA'
p4945
tp4946
I1
s(I18
S'GAG'
p4947
tp4948
I21
s(I17
S'GCA'
p4949
tp4950
I16
s(I20
S'GGA'
p4951
tp4952
I6
s(I51
S'CGG'
p4953
tp4954
I1
s(I45
S'AAT'
p4955
tp4956
I717
s(I4
S'CTC'
p4957
tp4958
I56
s(I28
S'GGA'
p4959
tp4960
I22
s(I34
S'GTC'
p4961
tp4962
I3
s(I45
S'AGG'
p4963
tp4964
I268
s(I55
S'TGA'
p4965
tp4966
I3
s(I55
S'AGC'
p4967
tp4968
I30
s(I61
S'ACG'
p4969
tp4970
I3
s(I67
S'CGC'
p4971
tp4972
I6
s(I48
S'ATA'
p4973
tp4974
I4
s(I6
S'TTC'
p4975
tp4976
I29
s(I3
S'AGC'
p4977
tp4978
I1
s(I39
S'GCA'
p4979
tp4980
I14
s(I73
S'ATG'
p4981
tp4982
I44
s(I68
S'ATT'
p4983
tp4984
I20
s(I72
S'TTA'
p4985
tp4986
I11
s(I63
S'TAG'
p4987
tp4988
I3
s(I19
S'CGG'
p4989
tp4990
I12
s(I52
S'CTT'
p4991
tp4992
I4
s(I21
S'CCC'
p4993
tp4994
I1
s(I55
S'AAG'
p4995
tp4996
I35
s(I36
S'ACA'
p4997
tp4998
I11
s(I58
S'ATA'
p4999
tp5000
I11
s(I22
S'TAC'
p5001
tp5002
I57
s(I17
S'TGC'
p5003
tp5004
I1
s(I56
S'TCA'
p5005
tp5006
I1
s(I20
S'GAC'
p5007
tp5008
I19
s(I39
S'GTC'
p5009
tp5010
I4
s(I18
S'AAT'
p5011
tp5012
I6
s(I30
S'TTA'
p5013
tp5014
I52
s(I28
S'CTA'
p5015
tp5016
I99
s(I28
S'GCC'
p5017
tp5018
I19
s(I27
S'TGC'
p5019
tp5020
I5
s(I53
S'GAG'
p5021
tp5022
I14
s(I17
S'AGC'
p5023
tp5024
I2
s(I46
S'ACG'
p5025
tp5026
I400
s(I53
S'GCG'
p5027
tp5028
I18
s(I54
S'ATA'
p5029
tp5030
I13
s(I69
S'GAC'
p5031
tp5032
I33
s(I15
S'CGC'
p5033
tp5034
I3
s(I29
S'GTT'
p5035
tp5036
I8
s(I59
S'AGG'
p5037
tp5038
I1
s(I36
S'GGC'
p5039
tp5040
I2
s(I58
S'AAT'
p5041
tp5042
I12
s(I41
S'ACA'
p5043
tp5044
I63
s(I74
S'TGA'
p5045
tp5046
I12
s(I16
S'AAG'
p5047
tp5048
I55
s(I12
S'TAG'
p5049
tp5050
I13
s(I27
S'TGA'
p5051
tp5052
I10
s(I65
S'GGG'
p5053
tp5054
I430
s(I33
S'TGA'
p5055
tp5056
I6
s(I30
S'TCC'
p5057
tp5058
I1
s(I11
S'AGA'
p5059
tp5060
I8
s(I6
S'GGC'
p5061
tp5062
I851
s(I52
S'TAT'
p5063
tp5064
I16
s(I17
S'CGG'
p5065
tp5066
I2
s(I45
S'TAA'
p5067
tp5068
I4
s(I21
S'CTA'
p5069
tp5070
I5
s(I28
S'GAC'
p5071
tp5072
I298
s(I19
S'TGA'
p5073
tp5074
I3
s(I69
S'AAC'
p5075
tp5076
I38
s(I53
S'AAG'
p5077
tp5078
I29
s(I53
S'CGA'
p5079
tp5080
I1
s(I33
S'GGG'
p5081
tp5082
I9
s(I55
S'TAA'
p5083
tp5084
I1
s(I28
S'CGG'
p5085
tp5086
I43
s(I16
S'CAT'
p5087
tp5088
I40
s(I67
S'ACT'
p5089
tp5090
I1662
s(I42
S'ATC'
p5091
tp5092
I6
s(I29
S'TGT'
p5093
tp5094
I58
s(I48
S'TGT'
p5095
tp5096
I14
s(I65
S'TCG'
p5097
tp5098
I9
s(I20
S'ACT'
p5099
tp5100
I58
s(I61
S'TAC'
p5101
tp5102
I4
s(I16
S'GCT'
p5103
tp5104
I131
s(I19
S'GCA'
p5105
tp5106
I31
s(I69
S'TCC'
p5107
tp5108
I106
s(I45
S'GCA'
p5109
tp5110
I2108
s(I48
S'GCG'
p5111
tp5112
I2
s(I44
S'GAC'
p5113
tp5114
I1
s(I52
S'GAG'
p5115
tp5116
I52
s(I73
S'GCC'
p5117
tp5118
I3
s(I33
S'ACG'
p5119
tp5120
I2
s(I57
S'ATA'
p5121
tp5122
I30
s(I74
S'TAA'
p5123
tp5124
I17
s(I29
S'ACT'
p5125
tp5126
I24
s(I16
S'TGG'
p5127
tp5128
I26
s(I74
S'GTC'
p5129
tp5130
I1
s(I40
S'AAT'
p5131
tp5132
I112
s(I60
S'ATA'
p5133
tp5134
I30
s(I41
S'TGA'
p5135
tp5136
I2
s(I48
S'GTG'
p5137
tp5138
I8
s(I50
S'GAC'
p5139
tp5140
I1
s(I45
S'GGC'
p5141
tp5142
I1056
s(I7
S'CTA'
p5143
tp5144
I1
s(I9
S'ACG'
p5145
tp5146
I43
s(I26
S'ACT'
p5147
tp5148
I57
s(I60
S'CCA'
p5149
tp5150
I43
s(I19
S'AAA'
p5151
tp5152
I398
s(I33
S'TAG'
p5153
tp5154
I16
s(I48
S'CTC'
p5155
tp5156
I40
s(I50
S'ATT'
p5157
tp5158
I38
s(I74
S'ACT'
p5159
tp5160
I3
s(I2
S'TGT'
p5161
tp5162
I2
s(I63
S'TGG'
p5163
tp5164
I124
s(I72
S'TTT'
p5165
tp5166
I66
s(I61
S'CTG'
p5167
tp5168
I150
s(I18
S'TCG'
p5169
tp5170
I165
s(I24
S'AGC'
p5171
tp5172
I22
s(I27
S'ATA'
p5173
tp5174
I62
s(I32
S'TGA'
p5175
tp5176
I3
s(I16
S'AAA'
p5177
tp5178
I36
s(I25
S'CAA'
p5179
tp5180
I146
s(I74
S'GAG'
p5181
tp5182
I24
s(I36
S'AGC'
p5183
tp5184
I27
s(I36
S'CCT'
p5185
tp5186
I64
s(I7
S'TCA'
p5187
tp5188
I1
s(I76
S'GTC'
p5189
tp5190
I1
s(I50
S'CTC'
p5191
tp5192
I45
s(I21
S'CGG'
p5193
tp5194
I4
s(I5
S'ACG'
p5195
tp5196
I11
s(I42
S'CCC'
p5197
tp5198
I2
s(I71
S'TTT'
p5199
tp5200
I8
s(I30
S'CGT'
p5201
tp5202
I45
s(I72
S'GGC'
p5203
tp5204
I206
s(I52
S'TCA'
p5205
tp5206
I3
s(I13
S'CAT'
p5207
tp5208
I22
s(I23
S'CCC'
p5209
tp5210
I6
s(I38
S'ACC'
p5211
tp5212
I81
s(I45
S'TCC'
p5213
tp5214
I894
s(I37
S'GTT'
p5215
tp5216
I286
s(I24
S'ACA'
p5217
tp5218
I7
s(I37
S'TAG'
p5219
tp5220
I2
s(I39
S'CTC'
p5221
tp5222
I11
s(I24
S'ATT'
p5223
tp5224
I6
s(I44
S'CTA'
p5225
tp5226
I408
s(I76
S'ACA'
p5227
tp5228
I1
s(I65
S'TTC'
p5229
tp5230
I107
s(I24
S'CGA'
p5231
tp5232
I24
s(I40
S'ACT'
p5233
tp5234
I8
s(I23
S'CAG'
p5235
tp5236
I10
s(I23
S'TTC'
p5237
tp5238
I40
s(I18
S'AGA'
p5239
tp5240
I35
s(I46
S'CAC'
p5241
tp5242
I2583
s(I51
S'CAC'
p5243
tp5244
I31
s(I46
S'GGT'
p5245
tp5246
I1026
s(I8
S'AGG'
p5247
tp5248
I2
s(I35
S'TGT'
p5249
tp5250
I47
s(I54
S'GGT'
p5251
tp5252
I7
s(I60
S'TGT'
p5253
tp5254
I14
s(I45
S'TAT'
p5255
tp5256
I177
s(I31
S'GGT'
p5257
tp5258
I78
s(I29
S'TAA'
p5259
tp5260
I2
s(I13
S'TAC'
p5261
tp5262
I8
s(I63
S'GCC'
p5263
tp5264
I104
s(I60
S'CGC'
p5265
tp5266
I71
s(I8
S'ACC'
p5267
tp5268
I2
s(I64
S'ATT'
p5269
tp5270
I546
s(I73
S'GAC'
p5271
tp5272
I1
s(I46
S'TGT'
p5273
tp5274
I1443
s(I47
S'CCA'
p5275
tp5276
I1
s(I15
S'GAT'
p5277
tp5278
I2
s(I60
S'AGA'
p5279
tp5280
I5
s(I39
S'GGC'
p5281
tp5282
I1
s(I31
S'TGC'
p5283
tp5284
I45
s(I57
S'GAC'
p5285
tp5286
I3
s(I25
S'ACT'
p5287
tp5288
I7
s(I29
S'TGC'
p5289
tp5290
I100
s(I61
S'CAG'
p5291
tp5292
I4
s(I27
S'TTA'
p5293
tp5294
I90
s(I66
S'CAG'
p5295
tp5296
I3
s(I7
S'GGT'
p5297
tp5298
I1234
s(I29
S'AGC'
p5299
tp5300
I88
s(I30
S'GTA'
p5301
tp5302
I27
s(I56
S'ACG'
p5303
tp5304
I1
s(I71
S'ACG'
p5305
tp5306
I2
s(I11
S'AAC'
p5307
tp5308
I79
s(I35
S'TAT'
p5309
tp5310
I25
s(I56
S'GCC'
p5311
tp5312
I1
s(I70
S'AAG'
p5313
tp5314
I6
s(I39
S'TGC'
p5315
tp5316
I2
s(I25
S'TGG'
p5317
tp5318
I25
s(I21
S'AGC'
p5319
tp5320
I57
s(I14
S'ACT'
p5321
tp5322
I75
s(I10
S'GCC'
p5323
tp5324
I8
s(I44
S'AAG'
p5325
tp5326
I10
s(I66
S'GCG'
p5327
tp5328
I2
s(I67
S'ACC'
p5329
tp5330
I19
s(I67
S'TCT'
p5331
tp5332
I177
s(I62
S'ACT'
p5333
tp5334
I544
s(I15
S'GTA'
p5335
tp5336
I45
s(I15
S'CCC'
p5337
tp5338
I1
s(I41
S'TTA'
p5339
tp5340
I58
s(I37
S'GGT'
p5341
tp5342
I10
s(I55
S'AAC'
p5343
tp5344
I26
s(I41
S'ACT'
p5345
tp5346
I118
s(I51
S'GGA'
p5347
tp5348
I8
s(I75
S'CTG'
p5349
tp5350
I37
s(I6
S'ATC'
p5351
tp5352
I181
s(I65
S'AAG'
p5353
tp5354
I158
s(I45
S'GGT'
p5355
tp5356
I618
s(I27
S'AGT'
p5357
tp5358
I29
s(I15
S'GCA'
p5359
tp5360
I4
s(I19
S'TTC'
p5361
tp5362
I64
s(I13
S'GTG'
p5363
tp5364
I50
s(I33
S'CCT'
p5365
tp5366
I38
s(I26
S'CGA'
p5367
tp5368
I4
s(I52
S'GCA'
p5369
tp5370
I17
s(I74
S'ACC'
p5371
tp5372
I1
s(I37
S'CAG'
p5373
tp5374
I82
s(I69
S'GCC'
p5375
tp5376
I254
s(I42
S'CAG'
p5377
tp5378
I37
s(I9
S'CAA'
p5379
tp5380
I198
s(I72
S'CGG'
p5381
tp5382
I2
s(I65
S'CAC'
p5383
tp5384
I34
s(I29
S'GTG'
p5385
tp5386
I53
s(I66
S'GAC'
p5387
tp5388
I311
s(I21
S'GCA'
p5389
tp5390
I23
s(I23
S'TTG'
p5391
tp5392
I7
s(I42
S'TTA'
p5393
tp5394
I13
s(I38
S'CTT'
p5395
tp5396
I27
s(I39
S'CCC'
p5397
tp5398
I1
s(I63
S'ACA'
p5399
tp5400
I12
s(I16
S'GAT'
p5401
tp5402
I14
s(I45
S'CTT'
p5403
tp5404
I9
s(I18
S'ACT'
p5405
tp5406
I38
s(I32
S'GCA'
p5407
tp5408
I36
s(I29
S'ATT'
p5409
tp5410
I183
s(I32
S'CAT'
p5411
tp5412
I15
s(I46
S'CCC'
p5413
tp5414
I1
s(I8
S'ATG'
p5415
tp5416
I5
s(I57
S'GGT'
p5417
tp5418
I18
s(I7
S'ATG'
p5419
tp5420
I9
s(I61
S'GCT'
p5421
tp5422
I3
s(I58
S'ACA'
p5423
tp5424
I56
s(I41
S'GCC'
p5425
tp5426
I116
s(I39
S'GAA'
p5427
tp5428
I9
s(I24
S'ACT'
p5429
tp5430
I12
s(I52
S'AGG'
p5431
tp5432
I1
s(I17
S'TAT'
p5433
tp5434
I41
s(I54
S'TGG'
p5435
tp5436
I100
s(I34
S'CCG'
p5437
tp5438
I30
s(I64
S'AGT'
p5439
tp5440
I3344
s(I64
S'GCA'
p5441
tp5442
I3046
s(I24
S'CGT'
p5443
tp5444
I12
s(I17
S'GAA'
p5445
tp5446
I3
s(I11
S'CCT'
p5447
tp5448
I476
s(I4
S'TGC'
p5449
tp5450
I11
s(I17
S'ATG'
p5451
tp5452
I53
s(I72
S'CCT'
p5453
tp5454
I27
s(I60
S'AAA'
p5455
tp5456
I300
s(I33
S'AGC'
p5457
tp5458
I15
s(I57
S'CAT'
p5459
tp5460
I11
s(I3
S'CAA'
p5461
tp5462
I7
s(I63
S'GTC'
p5463
tp5464
I68
s(I60
S'TGA'
p5465
tp5466
I1
s(I41
S'ATA'
p5467
tp5468
I10
s(I64
S'GTA'
p5469
tp5470
I643
s(I6
S'GAC'
p5471
tp5472
I55
s(I23
S'ACT'
p5473
tp5474
I21
s(I2
S'ACG'
p5475
tp5476
I1
s(I39
S'AGC'
p5477
tp5478
I10
s(I38
S'GCC'
p5479
tp5480
I9
s(I70
S'CCG'
p5481
tp5482
I2
s(I64
S'AAA'
p5483
tp5484
I1
s(I12
S'TCC'
p5485
tp5486
I3
s(I30
S'ATA'
p5487
tp5488
I4
s(I54
S'ACC'
p5489
tp5490
I44
s(I3
S'CGG'
p5491
tp5492
I1
s(I41
S'TCG'
p5493
tp5494
I5
s(I68
S'AAA'
p5495
tp5496
I4
s(I38
S'GGG'
p5497
tp5498
I278
s(I76
S'TGA'
p5499
tp5500
I5
s(I49
S'CGC'
p5501
tp5502
I4
s(I25
S'GCG'
p5503
tp5504
I50
s(I63
S'AAC'
p5505
tp5506
I109
s(I28
S'AGG'
p5507
tp5508
I46
s(I49
S'GCC'
p5509
tp5510
I337
s(I58
S'GAA'
p5511
tp5512
I135
s(I20
S'TTT'
p5513
tp5514
I76
s(I71
S'TCG'
p5515
tp5516
I1
s(I48
S'CTT'
p5517
tp5518
I3
s(I51
S'CCC'
p5519
tp5520
I61
s(I54
S'GTC'
p5521
tp5522
I6
s(I23
S'TCA'
p5523
tp5524
I22
s(I38
S'AAC'
p5525
tp5526
I72
s(I35
S'CTT'
p5527
tp5528
I130
s(I24
S'TGT'
p5529
tp5530
I4
s(I54
S'GCG'
p5531
tp5532
I58
s(I76
S'CGG'
p5533
tp5534
I1
s(I22
S'AGA'
p5535
tp5536
I10
s(I38
S'ACA'
p5537
tp5538
I34
s(I30
S'AAC'
p5539
tp5540
I1
s(I27
S'GTC'
p5541
tp5542
I19
s(I37
S'AGG'
p5543
tp5544
I61
s(I38
S'TTT'
p5545
tp5546
I90
s(I57
S'ACG'
p5547
tp5548
I57
s(I16
S'TGT'
p5549
tp5550
I33
s(I7
S'GAG'
p5551
tp5552
I123
s(I72
S'GCT'
p5553
tp5554
I346
s(I61
S'TAA'
p5555
tp5556
I10
s(I19
S'TAT'
p5557
tp5558
I62
s(I49
S'CAC'
p5559
tp5560
I225
s(I47
S'CGA'
p5561
tp5562
I1
s(I33
S'CCA'
p5563
tp5564
I27
s(I72
S'CAG'
p5565
tp5566
I11
s(I44
S'CGT'
p5567
tp5568
I3
s(I22
S'CGC'
p5569
tp5570
I19
s(I8
S'CCG'
p5571
tp5572
I9
s(I22
S'TAA'
p5573
tp5574
I1
s(I73
S'CTT'
p5575
tp5576
I34
s(I41
S'GAG'
p5577
tp5578
I7
s(I45
S'ACA'
p5579
tp5580
I1988
s(I47
S'TAC'
p5581
tp5582
I6
s(I74
S'TGC'
p5583
tp5584
I1
s(I61
S'ATG'
p5585
tp5586
I489
s(I43
S'GCC'
p5587
tp5588
I1
s(I65
S'AGA'
p5589
tp5590
I1
s(I55
S'TAC'
p5591
tp5592
I151
s(I3
S'TAA'
p5593
tp5594
I2
s(I19
S'GAG'
p5595
tp5596
I43
s(I59
S'TCT'
p5597
tp5598
I18
s(I31
S'TCT'
p5599
tp5600
I100
s(I57
S'TTT'
p5601
tp5602
I66
s(I31
S'ATC'
p5603
tp5604
I76
s(I53
S'TAG'
p5605
tp5606
I1
s(I13
S'TCT'
p5607
tp5608
I2
s(I8
S'TTA'
p5609
tp5610
I1
s(I9
S'AGC'
p5611
tp5612
I89
s(I18
S'ACC'
p5613
tp5614
I5
s(I5
S'ATA'
p5615
tp5616
I14
s(I32
S'GCT'
p5617
tp5618
I21
s(I66
S'CGG'
p5619
tp5620
I1
s(I3
S'TGC'
p5621
tp5622
I175
s(I31
S'CCG'
p5623
tp5624
I2
s(I21
S'ACA'
p5625
tp5626
I4
s(I10
S'ACC'
p5627
tp5628
I2
s(I13
S'AGG'
p5629
tp5630
I174
s(I74
S'TGT'
p5631
tp5632
I3
s(I45
S'GTT'
p5633
tp5634
I238
s(I3
S'AGA'
p5635
tp5636
I2
s(I55
S'TGC'
p5637
tp5638
I11
s(I19
S'ATT'
p5639
tp5640
I3
s(I32
S'CGA'
p5641
tp5642
I176
s(I64
S'GCT'
p5643
tp5644
I559
s(I19
S'TAG'
p5645
tp5646
I3
s(I44
S'GTG'
p5647
tp5648
I4
s(I58
S'GGC'
p5649
tp5650
I5
s(I34
S'GAT'
p5651
tp5652
I88
s(I27
S'TAG'
p5653
tp5654
I4
s(I48
S'CAG'
p5655
tp5656
I1
s(I42
S'CTA'
p5657
tp5658
I1
s(I66
S'GGC'
p5659
tp5660
I13
s(I64
S'CGC'
p5661
tp5662
I61
s(I2
S'ACA'
p5663
tp5664
I2
s(I8
S'CAT'
p5665
tp5666
I3
s(I42
S'TAG'
p5667
tp5668
I1
s(I9
S'TGA'
p5669
tp5670
I1
s(I20
S'CCG'
p5671
tp5672
I48
s(I47
S'GGA'
p5673
tp5674
I8
s(I21
S'GGT'
p5675
tp5676
I12
s(I39
S'AAC'
p5677
tp5678
I3
s(I36
S'ACG'
p5679
tp5680
I1474
s(I40
S'TAA'
p5681
tp5682
I2
s(I7
S'ATT'
p5683
tp5684
I88
s(I33
S'TTT'
p5685
tp5686
I5
s(I53
S'GAA'
p5687
tp5688
I6
s(I34
S'GCA'
p5689
tp5690
I3
s(I32
S'CGC'
p5691
tp5692
I3
s(I12
S'TCT'
p5693
tp5694
I5
s(I12
S'GCC'
p5695
tp5696
I1
s(I70
S'CCT'
p5697
tp5698
I30
s(I66
S'CCT'
p5699
tp5700
I8
s(I37
S'GCG'
p5701
tp5702
I1
s(I63
S'ACT'
p5703
tp5704
I39
s(I3
S'GAG'
p5705
tp5706
I6
s(I61
S'CTA'
p5707
tp5708
I1
s(I10
S'GCG'
p5709
tp5710
I1
s(I47
S'TTT'
p5711
tp5712
I2
s(I23
S'GGA'
p5713
tp5714
I5
s(I49
S'TTC'
p5715
tp5716
I3
s(I55
S'TTC'
p5717
tp5718
I23
s(I22
S'TCC'
p5719
tp5720
I44
s(I6
S'TGC'
p5721
tp5722
I292
s(I54
S'GTT'
p5723
tp5724
I52
s(I56
S'TAG'
p5725
tp5726
I12
s(I44
S'GAA'
p5727
tp5728
I1
s(I24
S'CCC'
p5729
tp5730
I143
s(I76
S'TCG'
p5731
tp5732
I1
s(I53
S'TTG'
p5733
tp5734
I74
s(I61
S'TGG'
p5735
tp5736
I3
s(I10
S'TCG'
p5737
tp5738
I13
s(I34
S'TCT'
p5739
tp5740
I2
s(I60
S'CTA'
p5741
tp5742
I17
s(I67
S'GGG'
p5743
tp5744
I21
s(I55
S'GGT'
p5745
tp5746
I14
s(I67
S'ATA'
p5747
tp5748
I127
s(I71
S'CGA'
p5749
tp5750
I2
s(I66
S'ATC'
p5751
tp5752
I76
s(I71
S'GCC'
p5753
tp5754
I2
s(I43
S'AGG'
p5755
tp5756
I1
s(I57
S'TGC'
p5757
tp5758
I27
s(I61
S'GGA'
p5759
tp5760
I6
s(I10
S'TCT'
p5761
tp5762
I27
s(I61
S'TCT'
p5763
tp5764
I3
s(I40
S'GGA'
p5765
tp5766
I2
s(I22
S'TGA'
p5767
tp5768
I1
s(I11
S'CGA'
p5769
tp5770
I34
s(I8
S'TGA'
p5771
tp5772
I28
s(I51
S'TCG'
p5773
tp5774
I12
s(I9
S'AAT'
p5775
tp5776
I710
s(I44
S'CGC'
p5777
tp5778
I12
s(I28
S'GTG'
p5779
tp5780
I135
s(I67
S'GGT'
p5781
tp5782
I437
s(I15
S'ATT'
p5783
tp5784
I233
s(I41
S'GGC'
p5785
tp5786
I36
s(I25
S'TTC'
p5787
tp5788
I39
s(I62
S'CTC'
p5789
tp5790
I654
s(I60
S'GGC'
p5791
tp5792
I257
s(I29
S'GCA'
p5793
tp5794
I63
s(I8
S'GGA'
p5795
tp5796
I1
s(I55
S'CGG'
p5797
tp5798
I10
s(I13
S'ACT'
p5799
tp5800
I2
s(I43
S'GTT'
p5801
tp5802
I92
s(I68
S'GAG'
p5803
tp5804
I7
s(I32
S'TAA'
p5805
tp5806
I10
s(I52
S'ACG'
p5807
tp5808
I20
s(I31
S'TCA'
p5809
tp5810
I15
s(I8
S'TTT'
p5811
tp5812
I10
s(I42
S'AAA'
p5813
tp5814
I17
s(I54
S'TCG'
p5815
tp5816
I39
s(I58
S'AAC'
p5817
tp5818
I18
s(I56
S'TGA'
p5819
tp5820
I2
s(I18
S'TTT'
p5821
tp5822
I71
s(I48
S'CCC'
p5823
tp5824
I2
s(I49
S'GTG'
p5825
tp5826
I11
s(I51
S'TTC'
p5827
tp5828
I32
s(I64
S'GGG'
p5829
tp5830
I72
s(I59
S'GCG'
p5831
tp5832
I137
s(I9
S'CGC'
p5833
tp5834
I10
s(I8
S'AGA'
p5835
tp5836
I1
s(I38
S'TCG'
p5837
tp5838
I28
s(I10
S'AGA'
p5839
tp5840
I25
s(I3
S'GAC'
p5841
tp5842
I3
s(I15
S'TCG'
p5843
tp5844
I3
s(I42
S'ACT'
p5845
tp5846
I33
s(I55
S'TAT'
p5847
tp5848
I37
s(I42
S'TCC'
p5849
tp5850
I7
s(I30
S'GGG'
p5851
tp5852
I17
s(I17
S'AAT'
p5853
tp5854
I102
s(I10
S'AAG'
p5855
tp5856
I50
s(I26
S'GCT'
p5857
tp5858
I10
s(I25
S'GAA'
p5859
tp5860
I15
s(I62
S'GCA'
p5861
tp5862
I139
s(I20
S'TTA'
p5863
tp5864
I6
s(I51
S'TTA'
p5865
tp5866
I64
s(I22
S'CCG'
p5867
tp5868
I15
s(I57
S'AAC'
p5869
tp5870
I49
s(I32
S'GGG'
p5871
tp5872
I1
s(I69
S'CAT'
p5873
tp5874
I377
s(I9
S'GAA'
p5875
tp5876
I20
s(I40
S'ATT'
p5877
tp5878
I43
s(I22
S'AAC'
p5879
tp5880
I69
s(I19
S'ACC'
p5881
tp5882
I27
s(I67
S'CTC'
p5883
tp5884
I6
s(I74
S'CGG'
p5885
tp5886
I26
s(I31
S'GCT'
p5887
tp5888
I1
s(I13
S'CTA'
p5889
tp5890
I7
s(I18
S'CTC'
p5891
tp5892
I34
s(I31
S'CGT'
p5893
tp5894
I1
s(I72
S'CTC'
p5895
tp5896
I47
s(I75
S'TAC'
p5897
tp5898
I5
s(I53
S'CAG'
p5899
tp5900
I2
s(I9
S'TTT'
p5901
tp5902
I44
s(I72
S'TGG'
p5903
tp5904
I31
s(I58
S'CAG'
p5905
tp5906
I21
s(I60
S'GTC'
p5907
tp5908
I117
s(I71
S'AAA'
p5909
tp5910
I2
s(I17
S'GCT'
p5911
tp5912
I12
s(I8
S'TAG'
p5913
tp5914
I9
s(I20
S'GCG'
p5915
tp5916
I82
s(I36
S'TGG'
p5917
tp5918
I3
s(I68
S'TCA'
p5919
tp5920
I183
s(I66
S'TTA'
p5921
tp5922
I736
s(I4
S'CCA'
p5923
tp5924
I3
s(I74
S'GGC'
p5925
tp5926
I1
s(I40
S'ATA'
p5927
tp5928
I3
s(I65
S'CCG'
p5929
tp5930
I3
s(I14
S'TCG'
p5931
tp5932
I8
s(I38
S'GGC'
p5933
tp5934
I42
s(I14
S'CAC'
p5935
tp5936
I4
s(I11
S'GGC'
p5937
tp5938
I14
s(I31
S'CAT'
p5939
tp5940
I10
s(I63
S'AGC'
p5941
tp5942
I55
s(I38
S'GAG'
p5943
tp5944
I100
s(I67
S'TGT'
p5945
tp5946
I26
s(I13
S'GGA'
p5947
tp5948
I2
s(I21
S'TGC'
p5949
tp5950
I18
s(I61
S'TCC'
p5951
tp5952
I2
s(I69
S'CCC'
p5953
tp5954
I8
s(I36
S'GTG'
p5955
tp5956
I1052
s(I60
S'GAA'
p5957
tp5958
I18
s(I25
S'TCA'
p5959
tp5960
I23
s(I27
S'ACA'
p5961
tp5962
I5
s(I42
S'GTC'
p5963
tp5964
I21
s(I19
S'AGT'
p5965
tp5966
I87
s(I15
S'CCA'
p5967
tp5968
I2
s(I40
S'GGT'
p5969
tp5970
I420
s(I51
S'ACA'
p5971
tp5972
I8
s(I75
S'ATG'
p5973
tp5974
I2
s(I25
S'AAG'
p5975
tp5976
I1
s(I33
S'TAC'
p5977
tp5978
I13
s(I72
S'GAT'
p5979
tp5980
I10
s(I9
S'GTG'
p5981
tp5982
I114
s(I63
S'CCA'
p5983
tp5984
I91
s(I29
S'CAG'
p5985
tp5986
I22
s(I27
S'CGG'
p5987
tp5988
I14
s(I45
S'AGA'
p5989
tp5990
I13
s(I19
S'CAA'
p5991
tp5992
I6
s(I24
S'CAA'
p5993
tp5994
I5
s(I75
S'GGC'
p5995
tp5996
I13
s(I14
S'GCG'
p5997
tp5998
I4
s(I37
S'TTA'
p5999
tp6000
I59
s(I62
S'TCT'
p6001
tp6002
I69
s(I35
S'ATA'
p6003
tp6004
I71
s(I9
S'AAA'
p6005
tp6006
I4
s(I71
S'TGC'
p6007
tp6008
I165
s(I38
S'GTG'
p6009
tp6010
I3
s(I60
S'AGG'
p6011
tp6012
I24
s(I25
S'GGC'
p6013
tp6014
I11
s(I51
S'GCT'
p6015
tp6016
I3
s(I19
S'CGA'
p6017
tp6018
I67
s(I45
S'ATG'
p6019
tp6020
I782
s(I35
S'ACC'
p6021
tp6022
I98
s(I30
S'ACT'
p6023
tp6024
I1
s(I42
S'GAC'
p6025
tp6026
I18
s(I47
S'TTG'
p6027
tp6028
I16
s(I51
S'TGG'
p6029
tp6030
I6
s(I50
S'GCG'
p6031
tp6032
I5
s(I14
S'GGA'
p6033
tp6034
I22
s(I48
S'TTG'
p6035
tp6036
I3
s(I22
S'GTT'
p6037
tp6038
I53
s(I68
S'GTA'
p6039
tp6040
I22
s(I43
S'CTG'
p6041
tp6042
I37
s(I2
S'TGC'
p6043
tp6044
I1
s(I55
S'TCG'
p6045
tp6046
I50
s(I60
S'TCC'
p6047
tp6048
I729
s(I65
S'GAG'
p6049
tp6050
I23
s(I32
S'CAA'
p6051
tp6052
I75
s(I12
S'TGC'
p6053
tp6054
I1
s(I68
S'TTC'
p6055
tp6056
I3
s(I42
S'ACC'
p6057
tp6058
I1
s(I3
S'CCG'
p6059
tp6060
I12
s(I26
S'ACA'
p6061
tp6062
I43
s(I17
S'AAA'
p6063
tp6064
I2
s(I64
S'CCA'
p6065
tp6066
I2
s(I29
S'GAC'
p6067
tp6068
I2
s(I38
S'ATT'
p6069
tp6070
I5
s(I69
S'ATC'
p6071
tp6072
I9
s(I42
S'CGC'
p6073
tp6074
I41
s(I46
S'CTT'
p6075
tp6076
I20
s(I69
S'AGA'
p6077
tp6078
I3
s(I26
S'GTC'
p6079
tp6080
I59
s(I53
S'ATG'
p6081
tp6082
I54
s(I52
S'GAT'
p6083
tp6084
I91
s(I7
S'CCC'
p6085
tp6086
I2
s(I38
S'AAA'
p6087
tp6088
I40
s(I31
S'ACA'
p6089
tp6090
I16
s(I55
S'ATG'
p6091
tp6092
I97
s(I19
S'ACT'
p6093
tp6094
I21
s(I37
S'GTC'
p6095
tp6096
I133
s(I31
S'GCA'
p6097
tp6098
I19
s(I65
S'ATG'
p6099
tp6100
I121
s(I13
S'CTT'
p6101
tp6102
I25
s(I25
S'TAC'
p6103
tp6104
I71
s(I53
S'CGG'
p6105
tp6106
I4
s(I18
S'CTT'
p6107
tp6108
I43
s(I72
S'TAT'
p6109
tp6110
I3
s(I17
S'GAT'
p6111
tp6112
I2
s(I76
S'AGA'
p6113
tp6114
I1
s(I29
S'CGA'
p6115
tp6116
I40
s(I14
S'CCC'
p6117
tp6118
I1
s(I62
S'TAC'
p6119
tp6120
I63
s(I6
S'CGC'
p6121
tp6122
I40
s(I31
S'ACC'
p6123
tp6124
I5
s(I39
S'ATT'
p6125
tp6126
I3
s(I40
S'TTG'
p6127
tp6128
I93
s(I42
S'GCA'
p6129
tp6130
I476
s(I33
S'TAT'
p6131
tp6132
I1
s(I55
S'GAA'
p6133
tp6134
I64
s(I59
S'GTA'
p6135
tp6136
I13
s(I4
S'CCT'
p6137
tp6138
I3
s(I15
S'CTC'
p6139
tp6140
I68
s(I50
S'CCG'
p6141
tp6142
I1
s(I40
S'CCT'
p6143
tp6144
I6
s(I32
S'TGT'
p6145
tp6146
I126
s(I54
S'CCT'
p6147
tp6148
I143
s(I48
S'GCA'
p6149
tp6150
I21
s(I67
S'TTG'
p6151
tp6152
I33
s(I25
S'CAT'
p6153
tp6154
I35
s(I29
S'AGT'
p6155
tp6156
I16
s(I56
S'CTT'
p6157
tp6158
I17
s(I33
S'AGA'
p6159
tp6160
I34
s(I29
S'AAT'
p6161
tp6162
I36
s(I55
S'CGT'
p6163
tp6164
I92
s(I57
S'CCC'
p6165
tp6166
I154
s(I8
S'AAG'
p6167
tp6168
I119
s(I74
S'GCC'
p6169
tp6170
I1
s(I50
S'TTT'
p6171
tp6172
I3
s(I61
S'GTT'
p6173
tp6174
I53
s(I72
S'GAC'
p6175
tp6176
I5
s(I42
S'TGA'
p6177
tp6178
I4
s(I7
S'GTG'
p6179
tp6180
I66
s(I43
S'GTC'
p6181
tp6182
I53
s(I75
S'GCA'
p6183
tp6184
I1
s(I13
S'CAG'
p6185
tp6186
I21
s(I66
S'GCA'
p6187
tp6188
I60
s(I18
S'CAG'
p6189
tp6190
I48
s(I36
S'CAC'
p6191
tp6192
I10
s(I52
S'ATT'
p6193
tp6194
I71
s(I41
S'CAC'
p6195
tp6196
I28
s(I5
S'TTC'
p6197
tp6198
I125
s(I18
S'GAT'
p6199
tp6200
I10
s(I64
S'CAG'
p6201
tp6202
I928
s(I16
S'GGT'
p6203
tp6204
I66
s(I58
S'CTA'
p6205
tp6206
I3
s(I22
S'GCC'
p6207
tp6208
I11
s(I45
S'AAG'
p6209
tp6210
I63
s(I38
S'GTT'
p6211
tp6212
I60
s(I7
S'GCG'
p6213
tp6214
I4
s(I5
S'TAG'
p6215
tp6216
I8
s(I6
S'GAT'
p6217
tp6218
I90
s(I47
S'GTG'
p6219
tp6220
I3
s(I46
S'CAT'
p6221
tp6222
I804
s(I8
S'GCG'
p6223
tp6224
I1
s(I12
S'ACT'
p6225
tp6226
I4
s(I68
S'ATG'
p6227
tp6228
I207
s(I22
S'GTC'
p6229
tp6230
I265
s(I52
S'CTC'
p6231
tp6232
I6
s(I74
S'GAA'
p6233
tp6234
I19
s(I16
S'CGC'
p6235
tp6236
I47
s(I31
S'GGG'
p6237
tp6238
I114
s(I52
S'GTT'
p6239
tp6240
I1
s(I51
S'GTG'
p6241
tp6242
I13
s(I11
S'GCA'
p6243
tp6244
I789
s(I4
S'TGG'
p6245
tp6246
I2
s(I6
S'ACA'
p6247
tp6248
I20
s(I64
S'ATC'
p6249
tp6250
I409
s(I47
S'CCT'
p6251
tp6252
I1
s(I40
S'GCG'
p6253
tp6254
I15
s(I65
S'ACC'
p6255
tp6256
I66
s(I44
S'TTC'
p6257
tp6258
I48
s(I5
S'AGG'
p6259
tp6260
I1
s(I65
S'GCC'
p6261
tp6262
I11
s(I45
S'GCG'
p6263
tp6264
I2871
s(I21
S'TAA'
p6265
tp6266
I2
s(I30
S'GCT'
p6267
tp6268
I8
s(I36
S'TTA'
p6269
tp6270
I846
s(I55
S'AGG'
p6271
tp6272
I85
s(I17
S'GGT'
p6273
tp6274
I80
s(I7
S'GGG'
p6275
tp6276
I4
s(I50
S'AGG'
p6277
tp6278
I1
s(I17
S'CAC'
p6279
tp6280
I29
s(I75
S'GTA'
p6281
tp6282
I1
s(I40
S'TCC'
p6283
tp6284
I159
s(I71
S'AAG'
p6285
tp6286
I5
s(I40
S'GTG'
p6287
tp6288
I5
s(I40
S'CAG'
p6289
tp6290
I63
s(I65
S'GTA'
p6291
tp6292
I5
s(I19
S'CTA'
p6293
tp6294
I6
s(I48
S'TGC'
p6295
tp6296
I8
s(I24
S'CTG'
p6297
tp6298
I76
s(I20
S'CTA'
p6299
tp6300
I55
s(I13
S'ACA'
p6301
tp6302
I14
s(I37
S'ATC'
p6303
tp6304
I174
s(I3
S'GGC'
p6305
tp6306
I1
s(I6
S'GGT'
p6307
tp6308
I642
s(I36
S'AAA'
p6309
tp6310
I1
s(I44
S'TCG'
p6311
tp6312
I142
s(I70
S'GCA'
p6313
tp6314
I960
s(I42
S'ATT'
p6315
tp6316
I2
s(I67
S'TCA'
p6317
tp6318
I59
s(I14
S'AGT'
p6319
tp6320
I27
s(I4
S'AGT'
p6321
tp6322
I2
s(I17
S'ATC'
p6323
tp6324
I40
s(I32
S'ACG'
p6325
tp6326
I45
s(I69
S'GTA'
p6327
tp6328
I20
s(I27
S'GCC'
p6329
tp6330
I6
s(I13
S'GCT'
p6331
tp6332
I172
s(I6
S'CCA'
p6333
tp6334
I1
s(I38
S'CGT'
p6335
tp6336
I15
s(I71
S'CAC'
p6337
tp6338
I4
s(I43
S'CAA'
p6339
tp6340
I2
s(I25
S'ATG'
p6341
tp6342
I103
s(I63
S'TCT'
p6343
tp6344
I86
s(I35
S'CCG'
p6345
tp6346
I84
s(I8
S'GGG'
p6347
tp6348
I3
s(I33
S'ACA'
p6349
tp6350
I6
s(I58
S'TAA'
p6351
tp6352
I2
s(I23
S'CGT'
p6353
tp6354
I2
s(I62
S'CCC'
p6355
tp6356
I96
s(I25
S'TGA'
p6357
tp6358
I1
s(I30
S'TAC'
p6359
tp6360
I40
s(I16
S'ACA'
p6361
tp6362
I9
s(I5
S'CTG'
p6363
tp6364
I14
s(I29
S'GGC'
p6365
tp6366
I49
s(I44
S'AAA'
p6367
tp6368
I4
s(I40
S'GAC'
p6369
tp6370
I345
s(I73
S'TTC'
p6371
tp6372
I1
s(I17
S'GTC'
p6373
tp6374
I49
s(I7
S'AAA'
p6375
tp6376
I2
s(I34
S'ATT'
p6377
tp6378
I4
s(I33
S'AAT'
p6379
tp6380
I1
s(I24
S'CGC'
p6381
tp6382
I28
s(I34
S'AAA'
p6383
tp6384
I2
s(I26
S'TAA'
p6385
tp6386
I5
s(I61
S'GCC'
p6387
tp6388
I1
s(I18
S'TAG'
p6389
tp6390
I20
s(I4
S'GGC'
p6391
tp6392
I1
s(I31
S'GTC'
p6393
tp6394
I100
s(I4
S'TAC'
p6395
tp6396
I11
s(I34
S'CCT'
p6397
tp6398
I2
s(I44
S'GCA'
p6399
tp6400
I27
s(I71
S'TTC'
p6401
tp6402
I63
s(I50
S'ATC'
p6403
tp6404
I111
s(I47
S'GCT'
p6405
tp6406
I7
s(I29
S'CTA'
p6407
tp6408
I95
s(I72
S'ATA'
p6409
tp6410
I8
s(I47
S'TCA'
p6411
tp6412
I436
s(I34
S'CTC'
p6413
tp6414
I4
s(I23
S'GTC'
p6415
tp6416
I30
s(I11
S'CCG'
p6417
tp6418
I773
s(I26
S'ATA'
p6419
tp6420
I144
s(I72
S'CCA'
p6421
tp6422
I50
s(I21
S'GCG'
p6423
tp6424
I99
s(I48
S'CGG'
p6425
tp6426
I42
s(I10
S'GCT'
p6427
tp6428
I15
s(I33
S'GCT'
p6429
tp6430
I3
s(I62
S'ATG'
p6431
tp6432
I208
s(I51
S'CGC'
p6433
tp6434
I4
s(I74
S'GAT'
p6435
tp6436
I2
s(I48
S'TCT'
p6437
tp6438
I11
s(I63
S'ACG'
p6439
tp6440
I1
s(I67
S'TAC'
p6441
tp6442
I3
s(I70
S'TAT'
p6443
tp6444
I2
s(I23
S'GCC'
p6445
tp6446
I2
s(I37
S'TCC'
p6447
tp6448
I53
s(I11
S'TTA'
p6449
tp6450
I37
s(I23
S'ACC'
p6451
tp6452
I34
s(I20
S'TCT'
p6453
tp6454
I11
s(I65
S'GCT'
p6455
tp6456
I137
s(I57
S'GGG'
p6457
tp6458
I54
s(I62
S'GGT'
p6459
tp6460
I6
s(I66
S'GTA'
p6461
tp6462
I6
s(I41
S'CTC'
p6463
tp6464
I311
s(I54
S'TGA'
p6465
tp6466
I1
s(I40
S'TGA'
p6467
tp6468
I6
s(I20
S'TAA'
p6469
tp6470
I5
s(I32
S'TAG'
p6471
tp6472
I1
s(I65
S'GTT'
p6473
tp6474
I340
s(I30
S'TGA'
p6475
tp6476
I3
s(I5
S'GAT'
p6477
tp6478
I2
s(I43
S'AAG'
p6479
tp6480
I1
s(I30
S'CTC'
p6481
tp6482
I215
s(I35
S'CTA'
p6483
tp6484
I164
s(I12
S'CTC'
p6485
tp6486
I4
s(I10
S'TAA'
p6487
tp6488
I5
s(I69
S'GAT'
p6489
tp6490
I25
s(I31
S'GAG'
p6491
tp6492
I192
s(I18
S'TAA'
p6493
tp6494
I12
s(I37
S'ACT'
p6495
tp6496
I83
s(I13
S'GCA'
p6497
tp6498
I202
s(I46
S'TGC'
p6499
tp6500
I1024
s(I15
S'GAG'
p6501
tp6502
I8
s(I53
S'TCG'
p6503
tp6504
I29
s(I56
S'TGC'
p6505
tp6506
I23
s(I16
S'CCC'
p6507
tp6508
I25
s(I55
S'ACA'
p6509
tp6510
I18
s(I76
S'TGT'
p6511
tp6512
I2
s(I3
S'CGA'
p6513
tp6514
I2
s(I33
S'GTC'
p6515
tp6516
I8
s(I10
S'ACT'
p6517
tp6518
I1
s(I24
S'GCA'
p6519
tp6520
I25
s(I61
S'AAA'
p6521
tp6522
I5
s(I3
S'GTC'
p6523
tp6524
I11
s(I39
S'TGT'
p6525
tp6526
I9
s(I59
S'CTG'
p6527
tp6528
I909
s(I32
S'GTG'
p6529
tp6530
I45
s(I34
S'TAC'
p6531
tp6532
I3
s(I24
S'TGC'
p6533
tp6534
I7
s(I41
S'GAA'
p6535
tp6536
I2
s(I52
S'TGT'
p6537
tp6538
I1
s(I39
S'CGC'
p6539
tp6540
I3
s(I34
S'CGG'
p6541
tp6542
I3
s(I16
S'GAG'
p6543
tp6544
I1
s(I58
S'TCC'
p6545
tp6546
I44
s(I44
S'CCC'
p6547
tp6548
I1
s(I29
S'GAA'
p6549
tp6550
I10
s(I44
S'TAA'
p6551
tp6552
I5
s(I75
S'CCC'
p6553
tp6554
I3
s(I55
S'TCT'
p6555
tp6556
I43
s(I70
S'CTT'
p6557
tp6558
I2
s(I11
S'TCC'
p6559
tp6560
I11
s(I75
S'CTT'
p6561
tp6562
I2
s(I57
S'GCA'
p6563
tp6564
I100
s(I54
S'ATT'
p6565
tp6566
I7
s(I33
S'ATA'
p6567
tp6568
I3
s(I24
S'GGT'
p6569
tp6570
I20
s(I6
S'AAT'
p6571
tp6572
I258
s(I62
S'CAA'
p6573
tp6574
I72
s(I65
S'CTG'
p6575
tp6576
I76
s(I62
S'GTA'
p6577
tp6578
I357
s(I28
S'AGC'
p6579
tp6580
I77
s(I15
S'ACT'
p6581
tp6582
I1
s(I24
S'TTG'
p6583
tp6584
I14
s(I33
S'CCG'
p6585
tp6586
I27
s(I46
S'AAA'
p6587
tp6588
I4
s(I59
S'GGG'
p6589
tp6590
I1
s(I56
S'AAA'
p6591
tp6592
I1
s(I42
S'CAT'
p6593
tp6594
I153
s(I49
S'TGG'
p6595
tp6596
I4
s(I15
S'CGT'
p6597
tp6598
I3
s(I22
S'ATA'
p6599
tp6600
I41
s(I46
S'ACC'
p6601
tp6602
I1160
s(I3
S'ACT'
p6603
tp6604
I13
s(I9
S'GGG'
p6605
tp6606
I76
s(I5
S'TTG'
p6607
tp6608
I17
s(I34
S'CGA'
p6609
tp6610
I1
s(I23
S'CTA'
p6611
tp6612
I36
s(I15
S'TGC'
p6613
tp6614
I9
s(I75
S'ATA'
p6615
tp6616
I4
s(I49
S'GGA'
p6617
tp6618
I2025
s(I35
S'TAA'
p6619
tp6620
I4
s(I36
S'ACT'
p6621
tp6622
I1115
s(I19
S'ATG'
p6623
tp6624
I45
s(I76
S'GAA'
p6625
tp6626
I2
s(I53
S'GAT'
p6627
tp6628
I8
s(I48
S'GAC'
p6629
tp6630
I22
s(I8
S'AGT'
p6631
tp6632
I1
s(I31
S'CCA'
p6633
tp6634
I4
s(I64
S'TGC'
p6635
tp6636
I73
s(I63
S'GCG'
p6637
tp6638
I65
s(I19
S'CCT'
p6639
tp6640
I16
s(I53
S'ACC'
p6641
tp6642
I60
s(I13
S'AGA'
p6643
tp6644
I23
s(I41
S'AAC'
p6645
tp6646
I23
s(I63
S'CAT'
p6647
tp6648
I6
s(I9
S'ACT'
p6649
tp6650
I59
s(I3
S'AGG'
p6651
tp6652
I2
s(I63
S'GGC'
p6653
tp6654
I2
s(I34
S'AAT'
p6655
tp6656
I16
s(I23
S'GGT'
p6657
tp6658
I1
s(I37
S'TTG'
p6659
tp6660
I64
s(I24
S'TAT'
p6661
tp6662
I18
s(I51
S'CCG'
p6663
tp6664
I20
s(I49
S'ACG'
p6665
tp6666
I115
s(I48
S'AGC'
p6667
tp6668
I2
s(I33
S'GCC'
p6669
tp6670
I3
s(I33
S'GAG'
p6671
tp6672
I9
s(I8
S'TAT'
p6673
tp6674
I4
s(I48
S'CAT'
p6675
tp6676
I5
s(I62
S'CGG'
p6677
tp6678
I72
s(I7
S'AGC'
p6679
tp6680
I12
s(I57
S'CAC'
p6681
tp6682
I81
s(I67
S'AAG'
p6683
tp6684
I13
s(I76
S'GGA'
p6685
tp6686
I74
s(I63
S'CCG'
p6687
tp6688
I77
s(I60
S'CTT'
p6689
tp6690
I54
s(I7
S'GAC'
p6691
tp6692
I14
s(I46
S'GCG'
p6693
tp6694
I14
s(I9
S'GCG'
p6695
tp6696
I51
s(I74
S'CGT'
p6697
tp6698
I27
s(I24
S'GTT'
p6699
tp6700
I16
s(I57
S'CGC'
p6701
tp6702
I10
s(I34
S'GCG'
p6703
tp6704
I4
s(I48
S'TTA'
p6705
tp6706
I26
s(I24
S'AGT'
p6707
tp6708
I42
s(I57
S'TGT'
p6709
tp6710
I17
s(I60
S'TTT'
p6711
tp6712
I29
s(I32
S'ATA'
p6713
tp6714
I46
s(I61
S'GGT'
p6715
tp6716
I1
s(I11
S'ATG'
p6717
tp6718
I34
s(I22
S'TGT'
p6719
tp6720
I19
s(I21
S'TGT'
p6721
tp6722
I79
s(I52
S'GGG'
p6723
tp6724
I9
s(I76
S'CTC'
p6725
tp6726
I5
s(I26
S'ATT'
p6727
tp6728
I48
s(I24
S'GCT'
p6729
tp6730
I29
s(I46
S'CGA'
p6731
tp6732
I518
s(I32
S'CCA'
p6733
tp6734
I12
s(I39
S'CAT'
p6735
tp6736
I36
s(I45
S'GAC'
p6737
tp6738
I28
s(I60
S'GGT'
p6739
tp6740
I152
s(I67
S'CCC'
p6741
tp6742
I1
s(I46
S'GCT'
p6743
tp6744
I21
s(I68
S'GCC'
p6745
tp6746
I155
s(I24
S'TGG'
p6747
tp6748
I3
s(I10
S'CAG'
p6749
tp6750
I14
s(I28
S'CAC'
p6751
tp6752
I44
s(I10
S'TCA'
p6753
tp6754
I375
s(I33
S'CAC'
p6755
tp6756
I2
s(I33
S'TCG'
p6757
tp6758
I8
s(I58
S'CGT'
p6759
tp6760
I55
s(I13
S'TTT'
p6761
tp6762
I2
s(I32
S'TAC'
p6763
tp6764
I17
s(I18
S'TTA'
p6765
tp6766
I292
s(I55
S'TTG'
p6767
tp6768
I21
s(I39
S'ACA'
p6769
tp6770
I3
s(I67
S'AAC'
p6771
tp6772
I1
s(I66
S'AAG'
p6773
tp6774
I10
s(I24
S'GGC'
p6775
tp6776
I13
s(I56
S'GTT'
p6777
tp6778
I90
s(I5
S'AAG'
p6779
tp6780
I2
s(I39
S'TAC'
p6781
tp6782
I2
s(I20
S'AGG'
p6783
tp6784
I13
s(I31
S'AAC'
p6785
tp6786
I2
s(I72
S'GAG'
p6787
tp6788
I1
s(I69
S'CGC'
p6789
tp6790
I1
s(I38
S'AGG'
p6791
tp6792
I6
s(I37
S'TTT'
p6793
tp6794
I108
s(I26
S'GCA'
p6795
tp6796
I10
s(I45
S'TTA'
p6797
tp6798
I151
s(I46
S'TTC'
p6799
tp6800
I6
s(I18
S'CCG'
p6801
tp6802
I28
s(I8
S'CCT'
p6803
tp6804
I2
s(I64
S'TGT'
p6805
tp6806
I391
s(I22
S'CCT'
p6807
tp6808
I279
s(I3
S'TGT'
p6809
tp6810
I1
s(I67
S'GTG'
p6811
tp6812
I12
s(I50
S'GTC'
p6813
tp6814
I1
s(I69
S'CAG'
p6815
tp6816
I57
s(I29
S'GCG'
p6817
tp6818
I51
s(I61
S'CCA'
p6819
tp6820
I5
s(I37
S'CGC'
p6821
tp6822
I1
s(I34
S'TTG'
p6823
tp6824
I2
s(I57
S'TTC'
p6825
tp6826
I59
s(I29
S'AGG'
p6827
tp6828
I87
s(I73
S'AGG'
p6829
tp6830
I1
s(I67
S'GAT'
p6831
tp6832
I1
s(I39
S'ACG'
p6833
tp6834
I26
s(I47
S'ACT'
p6835
tp6836
I88
s(I47
S'AGG'
p6837
tp6838
I1
s(I4
S'CAC'
p6839
tp6840
I2
s(I42
S'TCG'
p6841
tp6842
I1
s(I63
S'TCA'
p6843
tp6844
I117
s(I72
S'ACG'
p6845
tp6846
I71
s(I9
S'CTT'
p6847
tp6848
I92
s(I32
S'GGT'
p6849
tp6850
I73
s(I61
S'TTG'
p6851
tp6852
I963
s(I19
S'CCA'
p6853
tp6854
I12
s(I46
S'GTG'
p6855
tp6856
I121
s(I69
S'TGA'
p6857
tp6858
I1
s(I25
S'AGA'
p6859
tp6860
I5
s(I74
S'TCC'
p6861
tp6862
I4
s(I24
S'TAA'
p6863
tp6864
I1
s(I25
S'GTT'
p6865
tp6866
I3
s(I70
S'GGG'
p6867
tp6868
I3
s(I22
S'TTC'
p6869
tp6870
I61
s(I30
S'GCG'
p6871
tp6872
I51
s(I71
S'TAG'
p6873
tp6874
I2
s(I31
S'TGA'
p6875
tp6876
I9
s(I8
S'GAT'
p6877
tp6878
I3
s(I6
S'TCC'
p6879
tp6880
I130
s(I52
S'TAA'
p6881
tp6882
I4
s(I19
S'AGC'
p6883
tp6884
I68
s(I15
S'CCT'
p6885
tp6886
I8
s(I35
S'GTG'
p6887
tp6888
I15
s(I35
S'CAA'
p6889
tp6890
I10
s(I21
S'GGG'
p6891
tp6892
I33
s(I10
S'TTG'
p6893
tp6894
I6
s(I57
S'CGT'
p6895
tp6896
I135
s(I33
S'TTC'
p6897
tp6898
I8
s(I11
S'TGC'
p6899
tp6900
I33
s(I9
S'GTT'
p6901
tp6902
I125
s(I34
S'ACA'
p6903
tp6904
I28
s(I27
S'CAA'
p6905
tp6906
I6
s(I45
S'AGT'
p6907
tp6908
I469
s(I50
S'AGT'
p6909
tp6910
I10
s(I44
S'ACG'
p6911
tp6912
I462
s(I39
S'TCA'
p6913
tp6914
I8
s(I3
S'ATA'
p6915
tp6916
I17
s(I62
S'TCG'
p6917
tp6918
I326
s(I50
S'GTT'
p6919
tp6920
I640
s(I46
S'CGT'
p6921
tp6922
I360
s(I63
S'GAC'
p6923
tp6924
I75
s(I25
S'CCG'
p6925
tp6926
I3
s(I43
S'CGC'
p6927
tp6928
I1
s(I51
S'GCG'
p6929
tp6930
I5
s(I70
S'TTG'
p6931
tp6932
I6
s(I46
S'TCG'
p6933
tp6934
I171
s(I45
S'CAA'
p6935
tp6936
I3484
s(I11
S'GTC'
p6937
tp6938
I107
s(I19
S'AAC'
p6939
tp6940
I6
s(I8
S'CTC'
p6941
tp6942
I39
s(I47
S'TTA'
p6943
tp6944
I7
s(I25
S'CGG'
p6945
tp6946
I1
s(I50
S'GCT'
p6947
tp6948
I1
s(I54
S'CGC'
p6949
tp6950
I102
s(I54
S'GCA'
p6951
tp6952
I60
s(I57
S'CTC'
p6953
tp6954
I22
s(I11
S'CGC'
p6955
tp6956
I3
s(I49
S'AAC'
p6957
tp6958
I307
s(I67
S'GCG'
p6959
tp6960
I80
s(I51
S'TGT'
p6961
tp6962
I82
s(I57
S'TCA'
p6963
tp6964
I20
s(I66
S'AGG'
p6965
tp6966
I1
s(I74
S'AAC'
p6967
tp6968
I2
s(I6
S'TCA'
p6969
tp6970
I66
s(I38
S'GCA'
p6971
tp6972
I69
s(I11
S'ACC'
p6973
tp6974
I107
s(I52
S'CGC'
p6975
tp6976
I2
s(I62
S'TCC'
p6977
tp6978
I106
s(I48
S'TGA'
p6979
tp6980
I2
s(I27
S'CGA'
p6981
tp6982
I51
s(I46
S'CTC'
p6983
tp6984
I54
s(I51
S'CTA'
p6985
tp6986
I103
s(I37
S'AAA'
p6987
tp6988
I44
s(I12
S'CCA'
p6989
tp6990
I49
s(I17
S'TCC'
p6991
tp6992
I1
s(I0
S'WT'
p6993
tp6994
I21
s(I69
S'ATT'
p6995
tp6996
I15
s(I76
S'CAC'
p6997
tp6998
I6
s(I20
S'CGC'
p6999
tp7000
I188
s(I2
S'GGC'
p7001
tp7002
I1
s(I59
S'ACG'
p7003
tp7004
I2
s(I55
S'TGG'
p7005
tp7006
I7
s(I63
S'GAG'
p7007
tp7008
I11
s(I18
S'TCT'
p7009
tp7010
I20
s(I48
S'GGG'
p7011
tp7012
I3
s(I33
S'ATG'
p7013
tp7014
I22
s(I35
S'TCA'
p7015
tp7016
I16
s(I73
S'CCG'
p7017
tp7018
I1
s(I20
S'TAC'
p7019
tp7020
I1
s(I6
S'TTG'
p7021
tp7022
I2
s(I54
S'AGC'
p7023
tp7024
I236
s(I28
S'TAC'
p7025
tp7026
I52
s(I14
S'GGG'
p7027
tp7028
I2
s(I11
S'CAG'
p7029
tp7030
I37
s(I46
S'GAG'
p7031
tp7032
I389
s(I38
S'ATA'
p7033
tp7034
I125
s(I35
S'TTA'
p7035
tp7036
I157
s(I3
S'TGG'
p7037
tp7038
I10
s(I7
S'ACA'
p7039
tp7040
I33
s(I21
S'GAA'
p7041
tp7042
I2
s(I55
S'GAT'
p7043
tp7044
I187
s(I43
S'ACA'
p7045
tp7046
I1
s(I15
S'CTT'
p7047
tp7048
I17
s(I17
S'AAG'
p7049
tp7050
I5
s(I33
S'CTG'
p7051
tp7052
I2
s(I38
S'TTG'
p7053
tp7054
I261
s(I50
S'GTA'
p7055
tp7056
I90
s(I31
S'ATG'
p7057
tp7058
I16
s(I18
S'CGC'
p7059
tp7060
I7
s(I21
S'CTC'
p7061
tp7062
I35
s(I58
S'GTA'
p7063
tp7064
I12
s(I70
S'TCC'
p7065
tp7066
I3
s(I17
S'GTG'
p7067
tp7068
I19
s(I20
S'TGG'
p7069
tp7070
I184
s(I70
S'CAG'
p7071
tp7072
I17
s(I22
S'AAT'
p7073
tp7074
I15
s(I75
S'CAG'
p7075
tp7076
I32
s(I67
S'CCG'
p7077
tp7078
I21
s(I2
S'TAG'
p7079
tp7080
I14
s(I61
S'GTA'
p7081
tp7082
I5
s(I35
S'GAC'
p7083
tp7084
I12
s(I28
S'TTA'
p7085
tp7086
I52
s(I29
S'CGG'
p7087
tp7088
I66
s(I57
S'TAC'
p7089
tp7090
I21
s(I6
S'GTG'
p7091
tp7092
I1143
s(I20
S'GGC'
p7093
tp7094
I9
s(I64
S'CAT'
p7095
tp7096
I208
s(I65
S'TAC'
p7097
tp7098
I339
s(I20
S'GCT'
p7099
tp7100
I13
s(I42
S'GCG'
p7101
tp7102
I5
s(I4
S'GGG'
p7103
tp7104
I1
s(I34
S'GTA'
p7105
tp7106
I6
s(I9
S'CTC'
p7107
tp7108
I41
s(I2
S'TCA'
p7109
tp7110
I2
s(I61
S'ACA'
p7111
tp7112
I7
s(I39
S'TCT'
p7113
tp7114
I3
s(I72
S'TTG'
p7115
tp7116
I204
s(I27
S'CGT'
p7117
tp7118
I91
s(I37
S'ACA'
p7119
tp7120
I188
s(I62
S'AAC'
p7121
tp7122
I4
s(I63
S'GAT'
p7123
tp7124
I62
s(I73
S'TAT'
p7125
tp7126
I2
s(I27
S'GAA'
p7127
tp7128
I1
s(I75
S'AAC'
p7129
tp7130
I4
s(I38
S'GAT'
p7131
tp7132
I106
s(I66
S'TGG'
p7133
tp7134
I24
s(I16
S'CGT'
p7135
tp7136
I50
s(I76
S'TTC'
p7137
tp7138
I4
s(I34
S'ACC'
p7139
tp7140
I9
s(I73
S'CGT'
p7141
tp7142
I1
s(I15
S'TCT'
p7143
tp7144
I5
s(I11
S'GCT'
p7145
tp7146
I341
s(I40
S'CCG'
p7147
tp7148
I44
s(I58
S'AGT'
p7149
tp7150
I6
s(I37
S'GAC'
p7151
tp7152
I26
s(I5
S'ACT'
p7153
tp7154
I3
s(I19
S'CTC'
p7155
tp7156
I30
s(I54
S'GCT'
p7157
tp7158
I147
s(I36
S'TTT'
p7159
tp7160
I1
s(I69
S'GAG'
p7161
tp7162
I47
s(I63
S'CTG'
p7163
tp7164
I141
s(I28
S'CTC'
p7165
tp7166
I115
s(I31
S'TTT'
p7167
tp7168
I31
s(I17
S'GGC'
p7169
tp7170
I285
s(I35
S'TCC'
p7171
tp7172
I61
s(I37
S'CAA'
p7173
tp7174
I115
s(I76
S'ACT'
p7175
tp7176
I8
s(I42
S'GGC'
p7177
tp7178
I34
s(I41
S'ACC'
p7179
tp7180
I29
s(I11
S'GAA'
p7181
tp7182
I671
s(I43
S'ATC'
p7183
tp7184
I22
s(I71
S'TGT'
p7185
tp7186
I6
s(I8
S'GCA'
p7187
tp7188
I5
s(I37
S'ATT'
p7189
tp7190
I112
s(I27
S'CTG'
p7191
tp7192
I37
s(I35
S'TGG'
p7193
tp7194
I13
s(I41
S'CGC'
p7195
tp7196
I1
s(I38
S'TCC'
p7197
tp7198
I22
s(I45
S'TAG'
p7199
tp7200
I9
s(I31
S'GGA'
p7201
tp7202
I241
s(I20
S'AGC'
p7203
tp7204
I79
s(I28
S'ATG'
p7205
tp7206
I82
s(I51
S'GTA'
p7207
tp7208
I197
s(I15
S'CGG'
p7209
tp7210
I5
s(I19
S'TGG'
p7211
tp7212
I26
s(I42
S'TTT'
p7213
tp7214
I45
s(I43
S'CCC'
p7215
tp7216
I1
s(I52
S'TTC'
p7217
tp7218
I32
s(I51
S'ATA'
p7219
tp7220
I9
s(I40
S'GCA'
p7221
tp7222
I6
s(I75
S'TTG'
p7223
tp7224
I7
s(I9
S'CCT'
p7225
tp7226
I386
s(I69
S'AGC'
p7227
tp7228
I364
s(I28
S'CGA'
p7229
tp7230
I98
s(I43
S'CTT'
p7231
tp7232
I19
s(I10
S'GAG'
p7233
tp7234
I158
s(I51
S'TGA'
p7235
tp7236
I8
s(I7
S'CAA'
p7237
tp7238
I156
s(I25
S'ACA'
p7239
tp7240
I43
s(I61
S'CAT'
p7241
tp7242
I1
s(I35
S'TGA'
p7243
tp7244
I5
s(I7
S'GGA'
p7245
tp7246
I209
s(I67
S'GTA'
p7247
tp7248
I1
s(I65
S'CTC'
p7249
tp7250
I21
s(I40
S'GTA'
p7251
tp7252
I5
s(I58
S'TAT'
p7253
tp7254
I27
s(I21
S'CAG'
p7255
tp7256
I5
s(I67
S'GTT'
p7257
tp7258
I2
s(I64
S'TCT'
p7259
tp7260
I2575
s(I9
S'TAC'
p7261
tp7262
I9
s(I66
S'TAT'
p7263
tp7264
I18
s(I72
S'TCC'
p7265
tp7266
I146
s(I14
S'ACC'
p7267
tp7268
I147
s(I17
S'TAC'
p7269
tp7270
I40
s(I23
S'TCC'
p7271
tp7272
I10
s(I45
S'TGG'
p7273
tp7274
I319
s(I29
S'TCC'
p7275
tp7276
I237
s(I14
S'CGC'
p7277
tp7278
I7
s(I27
S'GAG'
p7279
tp7280
I1
s(I57
S'ATC'
p7281
tp7282
I16
s(I74
S'TAG'
p7283
tp7284
I2
s(I34
S'ATG'
p7285
tp7286
I3
s(I65
S'ATT'
p7287
tp7288
I77
s(I37
S'GGA'
p7289
tp7290
I88
s(I33
S'AAC'
p7291
tp7292
I17
s(I41
S'TGC'
p7293
tp7294
I25
s(I45
S'GGA'
p7295
tp7296
I1354
s(I5
S'GCC'
p7297
tp7298
I1
s(I7
S'CTC'
p7299
tp7300
I34
s(I73
S'GTG'
p7301
tp7302
I421
s(I23
S'CAT'
p7303
tp7304
I1
s(I60
S'CCC'
p7305
tp7306
I439
s(I46
S'ATC'
p7307
tp7308
I51
s(I62
S'CCT'
p7309
tp7310
I1884
s(I56
S'ATC'
p7311
tp7312
I120
s(I71
S'ATA'
p7313
tp7314
I4
s(I38
S'TGG'
p7315
tp7316
I223
s(I71
S'CCA'
p7317
tp7318
I2
s(I47
S'GCG'
p7319
tp7320
I140
s(I69
S'GCT'
p7321
tp7322
I301
s(I5
S'GTA'
p7323
tp7324
I33
s(I13
S'GTT'
p7325
tp7326
I57
s(I17
S'ACG'
p7327
tp7328
I9
s(I30
S'ACC'
p7329
tp7330
I2
s(I46
S'ATA'
p7331
tp7332
I2818
s(I44
S'TTT'
p7333
tp7334
I27
s(I20
S'CAC'
p7335
tp7336
I69
s(I25
S'CAC'
p7337
tp7338
I35
s(I48
S'TCC'
p7339
tp7340
I56
s(I48
S'ACT'
p7341
tp7342
I4
s(I24
S'CAC'
p7343
tp7344
I6
s(I64
S'TAC'
p7345
tp7346
I4
s(I68
S'ACT'
p7347
tp7348
I131
s(I5
S'ACA'
p7349
tp7350
I19
s(I42
S'CCA'
p7351
tp7352
I2
s(I36
S'GCA'
p7353
tp7354
I35
s(I64
S'ACC'
p7355
tp7356
I2883
s(I52
S'TCG'
p7357
tp7358
I37
s(I51
S'TGC'
p7359
tp7360
I24
s(I61
S'TGC'
p7361
tp7362
I4
s(I18
S'CAT'
p7363
tp7364
I14
s(I75
S'TCA'
p7365
tp7366
I3
s(I36
S'CAT'
p7367
tp7368
I3
s(I48
S'TTC'
p7369
tp7370
I3
s(I24
S'ACG'
p7371
tp7372
I9
s(I52
S'AAC'
p7373
tp7374
I37
s(I54
S'TGT'
p7375
tp7376
I33
s(I51
S'TAT'
p7377
tp7378
I62
s(I44
S'CTC'
p7379
tp7380
I12
s(I64
S'AGG'
p7381
tp7382
I280
s(I36
S'CCC'
p7383
tp7384
I21
s(I22
S'GAA'
p7385
tp7386
I70
s(I77
S'TGT'
p7387
tp7388
I30
s(I73
S'CGG'
p7389
tp7390
I1
s(I18
S'AGC'
p7391
tp7392
I51
s(I68
S'TTT'
p7393
tp7394
I6
s(I51
S'CAA'
p7395
tp7396
I46
s(I48
S'CGA'
p7397
tp7398
I2
s(I5
S'GAG'
p7399
tp7400
I4
s(I22
S'CTT'
p7401
tp7402
I55
s(I73
S'TCT'
p7403
tp7404
I1
s(I64
S'TTG'
p7405
tp7406
I374
s(I14
S'ATG'
p7407
tp7408
I5
s(I69
S'TTA'
p7409
tp7410
I17
s(I50
S'GGG'
p7411
tp7412
I1
s(I41
S'ATT'
p7413
tp7414
I12
s(I51
S'GTT'
p7415
tp7416
I64
s(I61
S'AGT'
p7417
tp7418
I9
s(I32
S'ATT'
p7419
tp7420
I41
s(I8
S'ACA'
p7421
tp7422
I6
s(I66
S'GAT'
p7423
tp7424
I2552
s(I47
S'CCC'
p7425
tp7426
I2
s(I16
S'GTT'
p7427
tp7428
I11
s(I62
S'GGC'
p7429
tp7430
I626
s(I40
S'AAC'
p7431
tp7432
I56
s(I43
S'TGC'
p7433
tp7434
I12
s(I11
S'CTA'
p7435
tp7436
I8
s(I16
S'CTG'
p7437
tp7438
I11
s(I26
S'TAG'
p7439
tp7440
I1
s(I71
S'AAT'
p7441
tp7442
I1
s(I15
S'AAT'
p7443
tp7444
I2
s(I66
S'GTG'
p7445
tp7446
I29
s(I37
S'CTC'
p7447
tp7448
I74
s(I31
S'ACG'
p7449
tp7450
I34
s(I6
S'AGG'
p7451
tp7452
I11
s(I7
S'TAG'
p7453
tp7454
I7
s(I69
S'GGA'
p7455
tp7456
I1137
s(I21
S'AGA'
p7457
tp7458
I1
s(I39
S'TGA'
p7459
tp7460
I1
s(I41
S'AGC'
p7461
tp7462
I62
s(I58
S'ACC'
p7463
tp7464
I99
s(I10
S'GCA'
p7465
tp7466
I9
s(I55
S'GTG'
p7467
tp7468
I9
s(I69
S'AAA'
p7469
tp7470
I6
s(I17
S'TTA'
p7471
tp7472
I13
s(I35
S'TTT'
p7473
tp7474
I49
s(I15
S'GTC'
p7475
tp7476
I10
s(I17
S'CTG'
p7477
tp7478
I7
s(I7
S'AGA'
p7479
tp7480
I1
s(I13
S'GCG'
p7481
tp7482
I352
s(I43
S'TTC'
p7483
tp7484
I16
s(I73
S'GAT'
p7485
tp7486
I6
s(I41
S'CCC'
p7487
tp7488
I6
s(I51
S'GGC'
p7489
tp7490
I83
s(I37
S'AGT'
p7491
tp7492
I24
s(I5
S'ATG'
p7493
tp7494
I78
s(I14
S'TAC'
p7495
tp7496
I1
s(I40
S'ACG'
p7497
tp7498
I57
s(I49
S'AGG'
p7499
tp7500
I4
s(I16
S'TAT'
p7501
tp7502
I4
s(I15
S'GCC'
p7503
tp7504
I13
s(I62
S'GAC'
p7505
tp7506
I31
s(I62
S'GTT'
p7507
tp7508
I499
s(I26
S'CCG'
p7509
tp7510
I22
s(I15
S'ACC'
p7511
tp7512
I20
s(I24
S'TTT'
p7513
tp7514
I8
s(I48
S'CTA'
p7515
tp7516
I24
s(I69
S'GCA'
p7517
tp7518
I132
s(I42
S'CAA'
p7519
tp7520
I40
s(I9
S'CAC'
p7521
tp7522
I1116
s(I73
S'CTG'
p7523
tp7524
I10
s(I9
S'TCG'
p7525
tp7526
I3
s(I32
S'CAG'
p7527
tp7528
I8
s(I32
S'GTA'
p7529
tp7530
I63
s(I52
S'CCG'
p7531
tp7532
I31
s(I36
S'CGC'
p7533
tp7534
I2
s(I40
S'GAT'
p7535
tp7536
I118
s(I59
S'TGT'
p7537
tp7538
I156
s(I58
S'AGG'
p7539
tp7540
I34
s(I51
S'TAC'
p7541
tp7542
I56
s(I36
S'TCA'
p7543
tp7544
I12
s(I32
S'GCC'
p7545
tp7546
I12
s(I42
S'CCT'
p7547
tp7548
I2
s(I46
S'CCA'
p7549
tp7550
I2
s(I35
S'AAG'
p7551
tp7552
I65
s(I34
S'AAC'
p7553
tp7554
I11
s(I17
S'CCT'
p7555
tp7556
I4
s(I69
S'TGC'
p7557
tp7558
I728
s(I39
S'GAG'
p7559
tp7560
I3
s(I13
S'CCA'
p7561
tp7562
I1
s(I77
S'TGG'
p7563
tp7564
I31
s(I53
S'TTA'
p7565
tp7566
I56
s(I64
S'TAG'
p7567
tp7568
I1
s(I3
S'CCT'
p7569
tp7570
I1
s(I63
S'CAC'
p7571
tp7572
I19
s(I68
S'GAT'
p7573
tp7574
I48
s(I53
S'TGC'
p7575
tp7576
I34
s(I46
S'AAG'
p7577
tp7578
I51
s(I23
S'GAG'
p7579
tp7580
I1
s(I64
S'GCC'
p7581
tp7582
I949
s.