(dp0
(I38
S'CTG'
p1
tp2
I42
s(I49
S'TGA'
p3
tp4
I20
s(I47
S'ACA'
p5
tp6
I4
s(I18
S'GCC'
p7
tp8
I5
s(I52
S'ACT'
p9
tp10
I1
s(I62
S'CGT'
p11
tp12
I154
s(I46
S'AGC'
p13
tp14
I542
s(I19
S'AAT'
p15
tp16
I125
s(I3
S'CAG'
p17
tp18
I1
s(I8
S'CAG'
p19
tp20
I9
s(I28
S'CCG'
p21
tp22
I2
s(I64
S'GTC'
p23
tp24
I58
s(I60
S'GCG'
p25
tp26
I46
s(I18
S'ATG'
p27
tp28
I33
s(I25
S'CTC'
p29
tp30
I8
s(I49
S'GGG'
p31
tp32
I824
s(I31
S'CTA'
p33
tp34
I13
s(I4
S'TGA'
p35
tp36
I1
s(I10
S'TGC'
p37
tp38
I1
s(I38
S'GCA'
p39
tp40
I91
s(I14
S'AGG'
p41
tp42
I2
s(I24
S'AGA'
p43
tp44
I1
s(I12
S'TCA'
p45
tp46
I1
s(I20
S'CCT'
p47
tp48
I131
s(I3
S'AAC'
p49
tp50
I2
s(I75
S'TAA'
p51
tp52
I4
s(I14
S'CTC'
p53
tp54
I14
s(I36
S'GAA'
p55
tp56
I12
s(I6
S'AAA'
p57
tp58
I16
s(I36
S'CTT'
p59
tp60
I106
s(I14
S'CGG'
p61
tp62
I3
s(I70
S'CCT'
p63
tp64
I25
s(I60
S'CAG'
p65
tp66
I23
s(I9
S'GCT'
p67
tp68
I12
s(I19
S'TCC'
p69
tp70
I54
s(I49
S'GCA'
p71
tp72
I154
s(I41
S'GTT'
p73
tp74
I20
s(I39
S'CAC'
p75
tp76
I2
s(I49
S'GTA'
p77
tp78
I5
s(I44
S'CAC'
p79
tp80
I23
s(I49
S'ACA'
p81
tp82
I33
s(I67
S'CAG'
p83
tp84
I11
s(I34
S'TTA'
p85
tp86
I2
s(I27
S'TCA'
p87
tp88
I19
s(I65
S'CGC'
p89
tp90
I102
s(I54
S'GTA'
p91
tp92
I13
s(I23
S'TCG'
p93
tp94
I8
s(I11
S'ATA'
p95
tp96
I12
s(I64
S'TAT'
p97
tp98
I36
s(I72
S'TAC'
p99
tp100
I43
s(I63
S'AAA'
p101
tp102
I100
s(I22
S'AGC'
p103
tp104
I21
s(I13
S'ATC'
p105
tp106
I36
s(I3
S'TTC'
p107
tp108
I13
s(I58
S'CGA'
p109
tp110
I45
s(I13
S'TTG'
p111
tp112
I7
s(I36
S'TTC'
p113
tp114
I2
s(I33
S'CGC'
p115
tp116
I62
s(I53
S'ATT'
p117
tp118
I10
s(I66
S'CTC'
p119
tp120
I121
s(I32
S'ATG'
p121
tp122
I18
s(I9
S'ATG'
p123
tp124
I12
s(I52
S'GGA'
p125
tp126
I2
s(I46
S'TTT'
p127
tp128
I316
s(I22
S'CGA'
p129
tp130
I39
s(I41
S'ATC'
p131
tp132
I32
s(I32
S'CTA'
p133
tp134
I112
s(I65
S'CTT'
p135
tp136
I81
s(I45
S'ACC'
p137
tp138
I507
s(I61
S'CGT'
p139
tp140
I6
s(I65
S'AGC'
p141
tp142
I71
s(I52
S'TGG'
p143
tp144
I61
s(I61
S'CCT'
p145
tp146
I5
s(I38
S'TGT'
p147
tp148
I52
s(I6
S'TAT'
p149
tp150
I382
s(I67
S'GAC'
p151
tp152
I14
s(I7
S'AAG'
p153
tp154
I1
s(I24
S'AAC'
p155
tp156
I39
s(I29
S'TTT'
p157
tp158
I2
s(I34
S'CGT'
p159
tp160
I5
s(I68
S'TAG'
p161
tp162
I1
s(I26
S'CTT'
p163
tp164
I57
s(I39
S'ATA'
p165
tp166
I2
s(I51
S'AAA'
p167
tp168
I5
s(I6
S'CCC'
p169
tp170
I1
s(I37
S'GGC'
p171
tp172
I1
s(I67
S'CCA'
p173
tp174
I3
s(I15
S'TAG'
p175
tp176
I17
s(I17
S'AAC'
p177
tp178
I124
s(I10
S'GGG'
p179
tp180
I7
s(I19
S'TAA'
p181
tp182
I11
s(I51
S'GGT'
p183
tp184
I107
s(I44
S'GTA'
p185
tp186
I34
s(I58
S'GGA'
p187
tp188
I82
s(I24
S'ATA'
p189
tp190
I6
s(I27
S'TAA'
p191
tp192
I17
s(I70
S'GAT'
p193
tp194
I1
s(I69
S'GTG'
p195
tp196
I33
s(I42
S'CTG'
p197
tp198
I4
s(I66
S'GGA'
p199
tp200
I77
s(I42
S'CTT'
p201
tp202
I2
s(I13
S'TGT'
p203
tp204
I36
s(I8
S'GAA'
p205
tp206
I6
s(I75
S'GCG'
p207
tp208
I4
s(I26
S'TGT'
p209
tp210
I7
s(I13
S'CGC'
p211
tp212
I130
s(I66
S'AGC'
p213
tp214
I17
s(I15
S'CAA'
p215
tp216
I4
s(I47
S'GGC'
p217
tp218
I24
s(I42
S'AAC'
p219
tp220
I34
s(I40
S'TAC'
p221
tp222
I199
s(I31
S'CTG'
p223
tp224
I13
s(I55
S'GGC'
p225
tp226
I9
s(I49
S'CCC'
p227
tp228
I183
s(I44
S'CAT'
p229
tp230
I19
s(I44
S'TGT'
p231
tp232
I92
s(I10
S'CGG'
p233
tp234
I10
s(I35
S'TTG'
p235
tp236
I18
s(I75
S'CAT'
p237
tp238
I29
s(I5
S'GGC'
p239
tp240
I1
s(I44
S'ACT'
p241
tp242
I91
s(I32
S'TTT'
p243
tp244
I16
s(I14
S'TCT'
p245
tp246
I1
s(I11
S'GAT'
p247
tp248
I195
s(I37
S'TGA'
p249
tp250
I79
s(I55
S'TGC'
p251
tp252
I6
s(I66
S'CTA'
p253
tp254
I438
s(I20
S'TTC'
p255
tp256
I18
s(I65
S'TGC'
p257
tp258
I20
s(I58
S'AAG'
p259
tp260
I14
s(I43
S'CCA'
p261
tp262
I1
s(I11
S'GTT'
p263
tp264
I44
s(I65
S'CGT'
p265
tp266
I81
s(I36
S'GTT'
p267
tp268
I458
s(I25
S'TCT'
p269
tp270
I56
s(I19
S'GGG'
p271
tp272
I24
s(I64
S'TAA'
p273
tp274
I3
s(I30
S'ATC'
p275
tp276
I10
s(I22
S'GTT'
p277
tp278
I37
s(I3
S'CTC'
p279
tp280
I5
s(I60
S'CTC'
p281
tp282
I17
s(I35
S'GTA'
p283
tp284
I17
s(I67
S'GGA'
p285
tp286
I800
s(I6
S'CTT'
p287
tp288
I95
s(I53
S'GTC'
p289
tp290
I3
s(I42
S'GAG'
p291
tp292
I6
s(I18
S'AAC'
p293
tp294
I69
s(I8
S'TCC'
p295
tp296
I1
s(I71
S'CGC'
p297
tp298
I1
s(I69
S'GGC'
p299
tp300
I3
s(I9
S'CGG'
p301
tp302
I7
s(I29
S'CAT'
p303
tp304
I19
s(I62
S'TAT'
p305
tp306
I189
s(I26
S'GAG'
p307
tp308
I1
s(I61
S'GGG'
p309
tp310
I2
s(I38
S'TCC'
p311
tp312
I16
s(I5
S'TCG'
p313
tp314
I2
s(I37
S'AAT'
p315
tp316
I39
s(I22
S'TGC'
p317
tp318
I6
s(I66
S'CCC'
p319
tp320
I144
s(I8
S'TGG'
p321
tp322
I18
s(I28
S'AAC'
p323
tp324
I6
s(I70
S'GTT'
p325
tp326
I3
s(I33
S'TAG'
p327
tp328
I40
s(I25
S'GGT'
p329
tp330
I15
s(I22
S'CGT'
p331
tp332
I9
s(I51
S'GCA'
p333
tp334
I84
s(I30
S'TGT'
p335
tp336
I615
s(I27
S'TCC'
p337
tp338
I1
s(I62
S'CTA'
p339
tp340
I295
s(I8
S'GGC'
p341
tp342
I16
s(I55
S'CGA'
p343
tp344
I1
s(I36
S'CGG'
p345
tp346
I3
s(I10
S'CAT'
p347
tp348
I21
s(I16
S'GGC'
p349
tp350
I4
s(I14
S'GGT'
p351
tp352
I33
s(I28
S'GTT'
p353
tp354
I33
s(I70
S'ACT'
p355
tp356
I1385
s(I10
S'GGA'
p357
tp358
I3
s(I31
S'TCG'
p359
tp360
I3
s(I41
S'GGG'
p361
tp362
I916
s(I27
S'ATT'
p363
tp364
I63
s(I66
S'AGA'
p365
tp366
I2
s(I29
S'TTA'
p367
tp368
I40
s(I18
S'GGA'
p369
tp370
I32
s(I52
S'ACC'
p371
tp372
I1
s(I62
S'TGT'
p373
tp374
I142
s(I29
S'ATC'
p375
tp376
I1
s(I40
S'CTC'
p377
tp378
I64
s(I41
S'TTT'
p379
tp380
I44
s(I9
S'CGA'
p381
tp382
I2
s(I38
S'TCA'
p383
tp384
I20
s(I10
S'AGC'
p385
tp386
I94
s(I3
S'GAA'
p387
tp388
I5
s(I14
S'TGT'
p389
tp390
I19
s(I43
S'ACT'
p391
tp392
I1
s(I67
S'ATT'
p393
tp394
I1
s(I64
S'CCT'
p395
tp396
I2
s(I26
S'ATA'
p397
tp398
I67
s(I18
S'TGG'
p399
tp400
I22
s(I69
S'TAC'
p401
tp402
I180
s(I25
S'GAC'
p403
tp404
I56
s(I62
S'GCG'
p405
tp406
I1
s(I76
S'AGC'
p407
tp408
I3
s(I51
S'TTG'
p409
tp410
I5
s(I57
S'AAA'
p411
tp412
I76
s(I32
S'GGA'
p413
tp414
I8
s(I49
S'TCC'
p415
tp416
I343
s(I76
S'TGA'
p417
tp418
I1
s(I58
S'GAC'
p419
tp420
I90
s(I61
S'GAG'
p421
tp422
I4
s(I19
S'ACA'
p423
tp424
I48
s(I44
S'GGA'
p425
tp426
I3
s(I42
S'GTT'
p427
tp428
I74
s(I13
S'CTG'
p429
tp430
I52
s(I18
S'CTA'
p431
tp432
I52
s(I64
S'TCC'
p433
tp434
I1630
s(I10
S'CCA'
p435
tp436
I3
s(I47
S'TCT'
p437
tp438
I220
s(I64
S'CTA'
p439
tp440
I312
s(I58
S'CAA'
p441
tp442
I48
s(I60
S'TAC'
p443
tp444
I36
s(I8
S'TAA'
p445
tp446
I53
s(I20
S'GCA'
p447
tp448
I21
s(I7
S'ACG'
p449
tp450
I6
s(I53
S'TTG'
p451
tp452
I51
s(I68
S'TCG'
p453
tp454
I1
s(I18
S'TTC'
p455
tp456
I284
s(I8
S'CTA'
p457
tp458
I36
s(I66
S'TTC'
p459
tp460
I8
s(I32
S'AGG'
p461
tp462
I38
s(I4
S'CCC'
p463
tp464
I1
s(I54
S'GAA'
p465
tp466
I59
s(I54
S'CCG'
p467
tp468
I38
s(I14
S'TCA'
p469
tp470
I35
s(I73
S'TAA'
p471
tp472
I19
s(I63
S'AGA'
p473
tp474
I47
s(I21
S'CGT'
p475
tp476
I2
s(I38
S'GAA'
p477
tp478
I4
s(I21
S'CCT'
p479
tp480
I1
s(I13
S'GGG'
p481
tp482
I1
s(I69
S'CCA'
p483
tp484
I1
s(I70
S'CAA'
p485
tp486
I12
s(I27
S'TTG'
p487
tp488
I10
s(I9
S'TTC'
p489
tp490
I16
s(I71
S'CCT'
p491
tp492
I1
s(I25
S'TCC'
p493
tp494
I6
s(I61
S'GTG'
p495
tp496
I22
s(I64
S'TTT'
p497
tp498
I101
s(I7
S'CAT'
p499
tp500
I3
s(I76
S'GGG'
p501
tp502
I19
s(I41
S'AGG'
p503
tp504
I6
s(I50
S'ACG'
p505
tp506
I7
s(I20
S'AGA'
p507
tp508
I42
s(I52
S'ATA'
p509
tp510
I13
s(I60
S'GTT'
p511
tp512
I267
s(I31
S'TTC'
p513
tp514
I2
s(I18
S'GAC'
p515
tp516
I23
s(I72
S'AAA'
p517
tp518
I450
s(I54
S'TTG'
p519
tp520
I10
s(I63
S'CCC'
p521
tp522
I93
s(I31
S'GTA'
p523
tp524
I29
s(I29
S'CAA'
p525
tp526
I47
s(I64
S'GAC'
p527
tp528
I177
s(I8
S'CGG'
p529
tp530
I2
s(I45
S'AGC'
p531
tp532
I963
s(I7
S'GCT'
p533
tp534
I119
s(I19
S'CAG'
p535
tp536
I33
s(I28
S'GGG'
p537
tp538
I38
s(I34
S'GGA'
p539
tp540
I55
s(I50
S'GTG'
p541
tp542
I14
s(I42
S'TTC'
p543
tp544
I41
s(I11
S'GGT'
p545
tp546
I342
s(I33
S'TGT'
p547
tp548
I5
s(I41
S'AAT'
p549
tp550
I85
s(I25
S'GGA'
p551
tp552
I1
s(I19
S'CGC'
p553
tp554
I106
s(I70
S'CCC'
p555
tp556
I9
s(I54
S'CAC'
p557
tp558
I26
s(I35
S'ACA'
p559
tp560
I416
s(I19
S'TGT'
p561
tp562
I27
s(I58
S'CCG'
p563
tp564
I1
s(I4
S'ATG'
p565
tp566
I35
s(I17
S'AGA'
p567
tp568
I2
s(I73
S'GGC'
p569
tp570
I3
s(I20
S'ATA'
p571
tp572
I117
s(I53
S'GGC'
p573
tp574
I65
s(I43
S'GTA'
p575
tp576
I49
s(I9
S'CCC'
p577
tp578
I69
s(I11
S'GCG'
p579
tp580
I1042
s(I3
S'GCG'
p581
tp582
I347
s(I43
S'CTA'
p583
tp584
I95
s(I63
S'CTA'
p585
tp586
I16
s(I66
S'AGT'
p587
tp588
I40
s(I28
S'GCG'
p589
tp590
I14
s(I18
S'GGT'
p591
tp592
I131
s(I4
S'TAT'
p593
tp594
I89
s(I17
S'AGG'
p595
tp596
I4
s(I26
S'TGC'
p597
tp598
I17
s(I58
S'TTA'
p599
tp600
I30
s(I73
S'TGG'
p601
tp602
I1
s(I63
S'TTT'
p603
tp604
I63
s(I12
S'TGA'
p605
tp606
I14
s(I40
S'GTT'
p607
tp608
I5
s(I29
S'ATA'
p609
tp610
I113
s(I66
S'TCG'
p611
tp612
I5
s(I19
S'CTT'
p613
tp614
I36
s(I64
S'CCC'
p615
tp616
I2
s(I12
S'TAC'
p617
tp618
I13
s(I24
S'CTT'
p619
tp620
I8
s(I36
S'GCG'
p621
tp622
I15
s(I42
S'CGA'
p623
tp624
I30
s(I4
S'GAC'
p625
tp626
I1
s(I45
S'TTC'
p627
tp628
I14
s(I26
S'GTA'
p629
tp630
I73
s(I72
S'AGC'
p631
tp632
I90
s(I17
S'CGC'
p633
tp634
I3
s(I12
S'CCT'
p635
tp636
I13
s(I6
S'GTG'
p637
tp638
I2164
s(I48
S'GGT'
p639
tp640
I18
s(I26
S'AGG'
p641
tp642
I2
s(I53
S'CAC'
p643
tp644
I129
s(I31
S'GCC'
p645
tp646
I2
s(I54
S'AAC'
p647
tp648
I7
s(I53
S'AAC'
p649
tp650
I6
s(I25
S'TAA'
p651
tp652
I10
s(I19
S'GAT'
p653
tp654
I19
s(I31
S'CGC'
p655
tp656
I15
s(I76
S'AGG'
p657
tp658
I13
s(I14
S'CCA'
p659
tp660
I1
s(I6
S'TCG'
p661
tp662
I122
s(I41
S'CTT'
p663
tp664
I165
s(I73
S'GTT'
p665
tp666
I359
s(I58
S'CAC'
p667
tp668
I4
s(I26
S'ACC'
p669
tp670
I7
s(I60
S'CCT'
p671
tp672
I28
s(I62
S'CCA'
p673
tp674
I29
s(I58
S'GCG'
p675
tp676
I2
s(I42
S'AGT'
p677
tp678
I5
s(I26
S'CGC'
p679
tp680
I1
s(I54
S'CAG'
p681
tp682
I29
s(I55
S'GAG'
p683
tp684
I4
s(I59
S'GTC'
p685
tp686
I35
s(I70
S'AGA'
p687
tp688
I6
s(I61
S'ATA'
p689
tp690
I37
s(I39
S'TTT'
p691
tp692
I2
s(I48
S'GCC'
p693
tp694
I10
s(I38
S'CGA'
p695
tp696
I13
s(I48
S'CCT'
p697
tp698
I2
s(I2
S'GCC'
p699
tp700
I2
s(I69
S'CAA'
p701
tp702
I155
s(I33
S'ACC'
p703
tp704
I1
s(I7
S'CGT'
p705
tp706
I1
s(I70
S'CAT'
p707
tp708
I4
s(I57
S'CCA'
p709
tp710
I42
s(I35
S'ATC'
p711
tp712
I189
s(I23
S'AAA'
p713
tp714
I1
s(I71
S'TTA'
p715
tp716
I17
s(I7
S'GTA'
p717
tp718
I2
s(I48
S'GTC'
p719
tp720
I11
s(I13
S'CAA'
p721
tp722
I117
s(I18
S'CAA'
p723
tp724
I109
s(I36
S'CAA'
p725
tp726
I834
s(I49
S'TAG'
p727
tp728
I7
s(I22
S'CTA'
p729
tp730
I14
s(I8
S'GTG'
p731
tp732
I56
s(I27
S'GGA'
p733
tp734
I1
s(I58
S'CTG'
p735
tp736
I2
s(I22
S'GCA'
p737
tp738
I7
s(I60
S'TTC'
p739
tp740
I93
s(I38
S'TGA'
p741
tp742
I14
s(I38
S'CCT'
p743
tp744
I10
s(I52
S'AAA'
p745
tp746
I11
s(I7
S'GCA'
p747
tp748
I58
s(I68
S'CCA'
p749
tp750
I14
s(I5
S'GTG'
p751
tp752
I64
s(I18
S'AGT'
p753
tp754
I20
s(I57
S'AGC'
p755
tp756
I47
s(I17
S'ACA'
p757
tp758
I11
s(I51
S'CAT'
p759
tp760
I16
s(I41
S'AAA'
p761
tp762
I7
s(I66
S'CAC'
p763
tp764
I839
s(I47
S'CTG'
p765
tp766
I1
s(I22
S'GTA'
p767
tp768
I56
s(I62
S'ATT'
p769
tp770
I59
s(I76
S'GGC'
p771
tp772
I23
s(I76
S'TTT'
p773
tp774
I1
s(I11
S'GCC'
p775
tp776
I384
s(I2
S'GAT'
p777
tp778
I1
s(I6
S'ACC'
p779
tp780
I280
s(I64
S'ATA'
p781
tp782
I2
s(I70
S'AGC'
p783
tp784
I5
s(I24
S'CGA'
p785
tp786
I7
s(I72
S'GGG'
p787
tp788
I371
s(I31
S'TAG'
p789
tp790
I7
s(I65
S'GCA'
p791
tp792
I196
s(I63
S'CTT'
p793
tp794
I14
s(I21
S'TAG'
p795
tp796
I19
s(I49
S'ATC'
p797
tp798
I73
s(I4
S'GGA'
p799
tp800
I1
s(I53
S'GCT'
p801
tp802
I8
s(I26
S'ATG'
p803
tp804
I5
s(I29
S'TAG'
p805
tp806
I21
s(I74
S'ATA'
p807
tp808
I39
s(I35
S'TCT'
p809
tp810
I112
s(I40
S'TCA'
p811
tp812
I121
s(I56
S'TTC'
p813
tp814
I2
s(I14
S'TCC'
p815
tp816
I9
s(I65
S'GTG'
p817
tp818
I2
s(I72
S'AAC'
p819
tp820
I259
s(I14
S'GCA'
p821
tp822
I8
s(I24
S'CTA'
p823
tp824
I44
s(I11
S'AAC'
p825
tp826
I298
s(I2
S'AGC'
p827
tp828
I2
s(I5
S'GAA'
p829
tp830
I3
s(I34
S'TGT'
p831
tp832
I7
s(I36
S'AAC'
p833
tp834
I28
s(I3
S'ACC'
p835
tp836
I37
s(I70
S'GCG'
p837
tp838
I10
s(I27
S'CAT'
p839
tp840
I76
s(I72
S'GAT'
p841
tp842
I14
s(I60
S'CGG'
p843
tp844
I96
s(I53
S'AAT'
p845
tp846
I4
s(I32
S'AAG'
p847
tp848
I18
s(I36
S'AAA'
p849
tp850
I1
s(I10
S'GAT'
p851
tp852
I21
s(I27
S'AGA'
p853
tp854
I146
s(I67
S'AAA'
p855
tp856
I10
s(I38
S'CAG'
p857
tp858
I202
s(I57
S'GAG'
p859
tp860
I7
s(I30
S'GCC'
p861
tp862
I167
s(I29
S'TGG'
p863
tp864
I62
s(I19
S'TTT'
p865
tp866
I27
s(I50
S'CGT'
p867
tp868
I2
s(I12
S'ACG'
p869
tp870
I13
s(I35
S'CCA'
p871
tp872
I68
s(I21
S'GAG'
p873
tp874
I31
s(I38
S'GAC'
p875
tp876
I46
s(I56
S'ACC'
p877
tp878
I18
s(I58
S'TAG'
p879
tp880
I1
s(I9
S'TAT'
p881
tp882
I51
s(I66
S'TAG'
p883
tp884
I1
s(I25
S'TGC'
p885
tp886
I3
s(I30
S'TAA'
p887
tp888
I3
s(I16
S'ACG'
p889
tp890
I34
s(I30
S'GTC'
p891
tp892
I117
s(I29
S'GGA'
p893
tp894
I10
s(I3
S'GGT'
p895
tp896
I5
s(I44
S'AAC'
p897
tp898
I13
s(I45
S'TGT'
p899
tp900
I46
s(I40
S'GAA'
p901
tp902
I339
s(I51
S'GAT'
p903
tp904
I5
s(I48
S'ATC'
p905
tp906
I4
s(I7
S'CGA'
p907
tp908
I1
s(I69
S'TTG'
p909
tp910
I72
s(I53
S'CTA'
p911
tp912
I1
s(I24
S'GAA'
p913
tp914
I13
s(I40
S'AAG'
p915
tp916
I151
s(I33
S'AGA'
p917
tp918
I46
s(I61
S'TTA'
p919
tp920
I187
s(I5
S'ATA'
p921
tp922
I12
s(I17
S'CCC'
p923
tp924
I1
s(I61
S'GCA'
p925
tp926
I36
s(I74
S'CGG'
p927
tp928
I25
s(I75
S'CGG'
p929
tp930
I8
s(I29
S'AAG'
p931
tp932
I24
s(I46
S'TAC'
p933
tp934
I394
s(I33
S'GTT'
p935
tp936
I8
s(I32
S'TTC'
p937
tp938
I1
s(I44
S'GCC'
p939
tp940
I66
s(I3
S'GTA'
p941
tp942
I129
s(I54
S'TAC'
p943
tp944
I65
s(I58
S'GTT'
p945
tp946
I14
s(I29
S'CTG'
p947
tp948
I127
s(I69
S'GCG'
p949
tp950
I379
s(I11
S'CCA'
p951
tp952
I2
s(I72
S'CGC'
p953
tp954
I4
s(I34
S'GTT'
p955
tp956
I5
s(I72
S'CCC'
p957
tp958
I52
s(I69
S'GGT'
p959
tp960
I90
s(I13
S'TAC'
p961
tp962
I5
s(I44
S'GAG'
p963
tp964
I1
s(I73
S'AAC'
p965
tp966
I52
s(I43
S'ATG'
p967
tp968
I1
s(I58
S'AGA'
p969
tp970
I6
s(I38
S'TCG'
p971
tp972
I17
s(I66
S'AAG'
p973
tp974
I17
s(I76
S'CCG'
p975
tp976
I2
s(I11
S'TTG'
p977
tp978
I26
s(I23
S'ACA'
p979
tp980
I5
s(I21
S'GTC'
p981
tp982
I9
s(I46
S'CCG'
p983
tp984
I5
s(I44
S'TGC'
p985
tp986
I1510
s(I63
S'GCT'
p987
tp988
I70
s(I29
S'GTC'
p989
tp990
I58
s(I35
S'GAG'
p991
tp992
I1
s(I52
S'AGC'
p993
tp994
I16
s(I15
S'TTC'
p995
tp996
I98
s(I41
S'ACG'
p997
tp998
I61
s(I36
S'CTG'
p999
tp1000
I1261
s(I34
S'GGG'
p1001
tp1002
I2
s(I25
S'ATT'
p1003
tp1004
I4
s(I69
S'AAT'
p1005
tp1006
I157
s(I54
S'TGC'
p1007
tp1008
I10
s(I34
S'CCC'
p1009
tp1010
I3
s(I40
S'TGG'
p1011
tp1012
I1
s(I64
S'ATT'
p1013
tp1014
I519
s(I38
S'GTT'
p1015
tp1016
I82
s(I45
S'ATA'
p1017
tp1018
I144
s(I63
S'GTT'
p1019
tp1020
I95
s(I32
S'TAA'
p1021
tp1022
I30
s(I33
S'GAT'
p1023
tp1024
I1
s(I46
S'GGC'
p1025
tp1026
I488
s(I53
S'CCG'
p1027
tp1028
I18
s(I53
S'GAG'
p1029
tp1030
I24
s(I23
S'TCT'
p1031
tp1032
I7
s(I63
S'AGT'
p1033
tp1034
I188
s(I35
S'GCA'
p1035
tp1036
I71
s(I35
S'CTC'
p1037
tp1038
I37
s(I17
S'TCA'
p1039
tp1040
I23
s(I10
S'TAG'
p1041
tp1042
I7
s(I3
S'AAA'
p1043
tp1044
I1
s(I18
S'ATA'
p1045
tp1046
I14
s(I23
S'GCT'
p1047
tp1048
I1
s(I38
S'ACT'
p1049
tp1050
I151
s(I6
S'GAG'
p1051
tp1052
I14
s(I24
S'GTA'
p1053
tp1054
I17
s(I16
S'TTC'
p1055
tp1056
I3
s(I3
S'ACG'
p1057
tp1058
I24
s(I48
S'GAT'
p1059
tp1060
I2
s(I24
S'AGG'
p1061
tp1062
I10
s(I23
S'CCG'
p1063
tp1064
I11
s(I39
S'GGT'
p1065
tp1066
I2
s(I74
S'GGG'
p1067
tp1068
I1
s(I21
S'TCC'
p1069
tp1070
I60
s(I55
S'GCT'
p1071
tp1072
I17
s(I37
S'CTT'
p1073
tp1074
I40
s(I24
S'GCC'
p1075
tp1076
I12
s(I32
S'CCT'
p1077
tp1078
I72
s(I15
S'ATC'
p1079
tp1080
I7
s(I38
S'GTC'
p1081
tp1082
I13
s(I6
S'GTC'
p1083
tp1084
I749
s(I3
S'AAT'
p1085
tp1086
I1
s(I54
S'CTC'
p1087
tp1088
I37
s(I28
S'GAT'
p1089
tp1090
I262
s(I35
S'GGC'
p1091
tp1092
I6
s(I21
S'AGT'
p1093
tp1094
I49
s(I63
S'CGG'
p1095
tp1096
I76
s(I61
S'CGC'
p1097
tp1098
I3
s(I41
S'GAC'
p1099
tp1100
I2
s(I57
S'GTG'
p1101
tp1102
I82
s(I68
S'GGT'
p1103
tp1104
I5
s(I38
S'AAG'
p1105
tp1106
I14
s(I6
S'TAC'
p1107
tp1108
I2
s(I51
S'TCA'
p1109
tp1110
I44
s(I62
S'ACG'
p1111
tp1112
I734
s(I41
S'GTG'
p1113
tp1114
I30
s(I46
S'GCA'
p1115
tp1116
I2
s(I58
S'CGG'
p1117
tp1118
I11
s(I45
S'CTC'
p1119
tp1120
I29
s(I64
S'AAC'
p1121
tp1122
I2153
s(I48
S'AGT'
p1123
tp1124
I64
s(I55
S'AAT'
p1125
tp1126
I43
s(I63
S'TAG'
p1127
tp1128
I7
s(I37
S'AGC'
p1129
tp1130
I202
s(I57
S'GCG'
p1131
tp1132
I20
s(I65
S'AAT'
p1133
tp1134
I172
s(I41
S'TAT'
p1135
tp1136
I21
s(I33
S'ATC'
p1137
tp1138
I11
s(I57
S'ACC'
p1139
tp1140
I37
s(I40
S'TTT'
p1141
tp1142
I5
s(I10
S'ATG'
p1143
tp1144
I2
s(I43
S'TTT'
p1145
tp1146
I2
s(I20
S'TCG'
p1147
tp1148
I2
s(I62
S'GTG'
p1149
tp1150
I517
s(I69
S'CGT'
p1151
tp1152
I3
s(I68
S'GGA'
p1153
tp1154
I5
s(I69
S'TCG'
p1155
tp1156
I99
s(I71
S'CCG'
p1157
tp1158
I9
s(I17
S'TTG'
p1159
tp1160
I35
s(I70
S'GAA'
p1161
tp1162
I1
s(I9
S'TCT'
p1163
tp1164
I50
s(I47
S'AAA'
p1165
tp1166
I4
s(I69
S'GTT'
p1167
tp1168
I121
s(I5
S'TTA'
p1169
tp1170
I301
s(I13
S'TGA'
p1171
tp1172
I12
s(I29
S'ACA'
p1173
tp1174
I60
s(I37
S'CGT'
p1175
tp1176
I27
s(I39
S'CCT'
p1177
tp1178
I4
s(I47
S'CAC'
p1179
tp1180
I51
s(I64
S'TTC'
p1181
tp1182
I28
s(I65
S'TAC'
p1183
tp1184
I253
s(I37
S'TGC'
p1185
tp1186
I233
s(I9
S'AGG'
p1187
tp1188
I48
s(I75
S'CCT'
p1189
tp1190
I34
s(I20
S'GTA'
p1191
tp1192
I11
s(I38
S'TAT'
p1193
tp1194
I25
s(I40
S'TCT'
p1195
tp1196
I27
s(I35
S'AGG'
p1197
tp1198
I12
s(I41
S'TCC'
p1199
tp1200
I37
s(I15
S'GGG'
p1201
tp1202
I1
s(I56
S'TGT'
p1203
tp1204
I13
s(I16
S'TCG'
p1205
tp1206
I50
s(I35
S'AGC'
p1207
tp1208
I27
s(I31
S'CCC'
p1209
tp1210
I5
s(I61
S'TTT'
p1211
tp1212
I495
s(I63
S'GCA'
p1213
tp1214
I7
s(I53
S'TGA'
p1215
tp1216
I1
s(I13
S'AGC'
p1217
tp1218
I26
s(I26
S'GCG'
p1219
tp1220
I22
s(I56
S'CGT'
p1221
tp1222
I3
s(I45
S'TCG'
p1223
tp1224
I2485
s(I11
S'GAC'
p1225
tp1226
I2727
s(I61
S'CTT'
p1227
tp1228
I9
s(I21
S'ACC'
p1229
tp1230
I16
s(I66
S'CTT'
p1231
tp1232
I1110
s(I65
S'TGT'
p1233
tp1234
I71
s(I17
S'CTC'
p1235
tp1236
I6
s(I24
S'ATG'
p1237
tp1238
I3
s(I63
S'GTC'
p1239
tp1240
I70
s(I37
S'CTC'
p1241
tp1242
I61
s(I33
S'GAA'
p1243
tp1244
I5
s(I34
S'CAA'
p1245
tp1246
I31
s(I65
S'ACA'
p1247
tp1248
I196
s(I7
S'AAT'
p1249
tp1250
I806
s(I8
S'GAG'
p1251
tp1252
I3
s(I34
S'CAG'
p1253
tp1254
I23
s(I68
S'AGG'
p1255
tp1256
I3
s(I75
S'AAG'
p1257
tp1258
I20
s(I10
S'TTA'
p1259
tp1260
I2
s(I60
S'GCT'
p1261
tp1262
I4
s(I7
S'GAA'
p1263
tp1264
I134
s(I29
S'CCG'
p1265
tp1266
I1
s(I6
S'CTC'
p1267
tp1268
I116
s(I37
S'ACC'
p1269
tp1270
I538
s(I49
S'TGT'
p1271
tp1272
I67
s(I34
S'CGC'
p1273
tp1274
I1
s(I34
S'AGT'
p1275
tp1276
I1
s(I35
S'CGG'
p1277
tp1278
I116
s(I72
S'TCT'
p1279
tp1280
I135
s(I51
S'AAC'
p1281
tp1282
I28
s(I52
S'GTC'
p1283
tp1284
I2
s(I62
S'AGA'
p1285
tp1286
I403
s(I72
S'TCA'
p1287
tp1288
I36
s(I30
S'GTG'
p1289
tp1290
I72
s(I53
S'ACT'
p1291
tp1292
I4
s(I75
S'GAC'
p1293
tp1294
I1
s(I70
S'CTA'
p1295
tp1296
I72
s(I71
S'CTG'
p1297
tp1298
I5
s(I68
S'GTT'
p1299
tp1300
I103
s(I46
S'CGG'
p1301
tp1302
I86
s(I32
S'CCC'
p1303
tp1304
I149
s(I70
S'CGG'
p1305
tp1306
I2
s(I9
S'TTA'
p1307
tp1308
I7
s(I41
S'TGT'
p1309
tp1310
I30
s(I22
S'TCG'
p1311
tp1312
I13
s(I46
S'TCT'
p1313
tp1314
I551
s(I62
S'CAT'
p1315
tp1316
I145
s(I40
S'AGC'
p1317
tp1318
I44
s(I50
S'TGC'
p1319
tp1320
I13
s(I30
S'TTG'
p1321
tp1322
I31
s(I10
S'GTA'
p1323
tp1324
I2
s(I10
S'CAA'
p1325
tp1326
I14
s(I26
S'AGA'
p1327
tp1328
I2
s(I28
S'CAA'
p1329
tp1330
I28
s(I10
S'TCC'
p1331
tp1332
I100
s(I33
S'TCA'
p1333
tp1334
I5
s(I42
S'GAA'
p1335
tp1336
I6
s(I62
S'TGG'
p1337
tp1338
I230
s(I20
S'TCT'
p1339
tp1340
I12
s(I35
S'ACG'
p1341
tp1342
I96
s(I36
S'TTT'
p1343
tp1344
I3
s(I26
S'ATC'
p1345
tp1346
I1
s(I41
S'TTG'
p1347
tp1348
I520
s(I9
S'CGT'
p1349
tp1350
I22
s(I43
S'GAG'
p1351
tp1352
I1
s(I10
S'AGT'
p1353
tp1354
I89
s(I72
S'ATT'
p1355
tp1356
I14
s(I41
S'CTA'
p1357
tp1358
I53
s(I51
S'CTT'
p1359
tp1360
I16
s(I35
S'ATT'
p1361
tp1362
I325
s(I69
S'CGA'
p1363
tp1364
I1
s(I38
S'AGA'
p1365
tp1366
I62
s(I44
S'CGG'
p1367
tp1368
I9
s(I62
S'GCT'
p1369
tp1370
I216
s(I29
S'AAC'
p1371
tp1372
I18
s(I9
S'CTG'
p1373
tp1374
I155
s(I53
S'AGG'
p1375
tp1376
I6
s(I6
S'AGT'
p1377
tp1378
I61
s(I27
S'AAA'
p1379
tp1380
I13
s(I72
S'GTG'
p1381
tp1382
I34
s(I62
S'CTG'
p1383
tp1384
I227
s(I61
S'CCG'
p1385
tp1386
I1
s(I37
S'CCA'
p1387
tp1388
I53
s(I37
S'CGA'
p1389
tp1390
I19
s(I16
S'AGC'
p1391
tp1392
I48
s(I68
S'GAC'
p1393
tp1394
I53
s(I12
S'CCG'
p1395
tp1396
I1
s(I24
S'TTG'
p1397
tp1398
I13
s(I48
S'CCG'
p1399
tp1400
I1
s(I11
S'TAA'
p1401
tp1402
I2
s(I48
S'TAA'
p1403
tp1404
I36
s(I59
S'GCC'
p1405
tp1406
I1064
s(I26
S'CTG'
p1407
tp1408
I48
s(I19
S'CCC'
p1409
tp1410
I61
s(I70
S'TGA'
p1411
tp1412
I1
s(I6
S'CCT'
p1413
tp1414
I2
s(I6
S'CAA'
p1415
tp1416
I86
s(I45
S'GTC'
p1417
tp1418
I1104
s(I50
S'GAG'
p1419
tp1420
I3
s(I10
S'AAC'
p1421
tp1422
I2
s(I53
S'ATC'
p1423
tp1424
I3
s(I25
S'AGC'
p1425
tp1426
I24
s(I74
S'CAC'
p1427
tp1428
I2
s(I21
S'CGC'
p1429
tp1430
I1
s(I38
S'CTA'
p1431
tp1432
I28
s(I24
S'TAC'
p1433
tp1434
I15
s(I60
S'ACC'
p1435
tp1436
I1
s(I57
S'AAG'
p1437
tp1438
I33
s(I34
S'GAG'
p1439
tp1440
I8
s(I28
S'ATA'
p1441
tp1442
I12
s(I19
S'CTG'
p1443
tp1444
I21
s(I76
S'TGG'
p1445
tp1446
I6
s(I31
S'AGC'
p1447
tp1448
I83
s(I18
S'GTC'
p1449
tp1450
I54
s(I29
S'AGG'
p1451
tp1452
I82
s(I63
S'TCG'
p1453
tp1454
I56
s(I70
S'AGG'
p1455
tp1456
I1
s(I7
S'CAC'
p1457
tp1458
I5
s(I62
S'AGG'
p1459
tp1460
I270
s(I19
S'AGA'
p1461
tp1462
I3
s(I35
S'CAG'
p1463
tp1464
I4
s(I30
S'GTT'
p1465
tp1466
I95
s(I72
S'TGC'
p1467
tp1468
I69
s(I60
S'GTG'
p1469
tp1470
I267
s(I11
S'TGA'
p1471
tp1472
I4
s(I3
S'TGA'
p1473
tp1474
I5
s(I16
S'TCA'
p1475
tp1476
I39
s(I31
S'TGT'
p1477
tp1478
I71
s(I70
S'GAG'
p1479
tp1480
I7
s(I24
S'CAT'
p1481
tp1482
I12
s(I76
S'CGT'
p1483
tp1484
I7
s(I62
S'TCA'
p1485
tp1486
I154
s(I11
S'GGG'
p1487
tp1488
I413
s(I73
S'TAG'
p1489
tp1490
I10
s(I30
S'TCG'
p1491
tp1492
I1
s(I71
S'CAT'
p1493
tp1494
I4
s(I66
S'TGT'
p1495
tp1496
I1
s(I46
S'TCA'
p1497
tp1498
I1577
s(I45
S'CAC'
p1499
tp1500
I15
s(I6
S'TGT'
p1501
tp1502
I9
s(I5
S'TGT'
p1503
tp1504
I229
s(I60
S'TCG'
p1505
tp1506
I121
s(I76
S'CCA'
p1507
tp1508
I9
s(I44
S'TCA'
p1509
tp1510
I16
s(I73
S'CAG'
p1511
tp1512
I1
s(I54
S'CGA'
p1513
tp1514
I17
s(I35
S'ACT'
p1515
tp1516
I147
s(I57
S'CTA'
p1517
tp1518
I20
s(I28
S'TTC'
p1519
tp1520
I7
s(I49
S'AAA'
p1521
tp1522
I79
s(I10
S'ACA'
p1523
tp1524
I7
s(I57
S'TCC'
p1525
tp1526
I33
s(I58
S'GTG'
p1527
tp1528
I11
s(I70
S'ATT'
p1529
tp1530
I13
s(I44
S'GGT'
p1531
tp1532
I2
s(I4
S'TAG'
p1533
tp1534
I4
s(I20
S'GAG'
p1535
tp1536
I30
s(I6
S'CAG'
p1537
tp1538
I55
s(I13
S'AAA'
p1539
tp1540
I348
s(I9
S'GTC'
p1541
tp1542
I354
s(I47
S'GAA'
p1543
tp1544
I7
s(I66
S'TTT'
p1545
tp1546
I2
s(I27
S'CGC'
p1547
tp1548
I18
s(I8
S'CGA'
p1549
tp1550
I2
s(I63
S'TTC'
p1551
tp1552
I75
s(I58
S'CCT'
p1553
tp1554
I1
s(I46
S'CTA'
p1555
tp1556
I33
s(I51
S'CTC'
p1557
tp1558
I23
s(I75
S'GGG'
p1559
tp1560
I30
s(I25
S'GTC'
p1561
tp1562
I30
s(I37
S'AAG'
p1563
tp1564
I147
s(I16
S'AAT'
p1565
tp1566
I104
s(I71
S'TGG'
p1567
tp1568
I6
s(I42
S'AAT'
p1569
tp1570
I95
s(I25
S'GGG'
p1571
tp1572
I20
s(I76
S'CAA'
p1573
tp1574
I4
s(I59
S'TGG'
p1575
tp1576
I2
s(I2
S'GGA'
p1577
tp1578
I7
s(I35
S'CCT'
p1579
tp1580
I189
s(I43
S'TTA'
p1581
tp1582
I19
s(I48
S'GGA'
p1583
tp1584
I13
s(I25
S'GCC'
p1585
tp1586
I92
s(I71
S'TCC'
p1587
tp1588
I5
s(I43
S'GTG'
p1589
tp1590
I129
s(I76
S'AGT'
p1591
tp1592
I3
s(I46
S'GAA'
p1593
tp1594
I4842
s(I3
S'GCA'
p1595
tp1596
I1838
s(I54
S'GCG'
p1597
tp1598
I44
s(I48
S'TGG'
p1599
tp1600
I37
s(I65
S'TCT'
p1601
tp1602
I53
s(I73
S'TGA'
p1603
tp1604
I6
s(I45
S'CGC'
p1605
tp1606
I33
s(I36
S'TAT'
p1607
tp1608
I30
s(I12
S'TGG'
p1609
tp1610
I1
s(I61
S'AAT'
p1611
tp1612
I5
s(I14
S'TGC'
p1613
tp1614
I6
s(I69
S'GAA'
p1615
tp1616
I55
s(I42
S'ACG'
p1617
tp1618
I31
s(I44
S'TAT'
p1619
tp1620
I13
s(I66
S'TCA'
p1621
tp1622
I6
s(I4
S'GTA'
p1623
tp1624
I1
s(I51
S'TCC'
p1625
tp1626
I63
s(I39
S'TTC'
p1627
tp1628
I8
s(I20
S'GTG'
p1629
tp1630
I118
s(I22
S'TAT'
p1631
tp1632
I29
s(I37
S'TCG'
p1633
tp1634
I240
s(I42
S'CGG'
p1635
tp1636
I11
s(I75
S'GTT'
p1637
tp1638
I4
s(I41
S'TGG'
p1639
tp1640
I2
s(I26
S'GTG'
p1641
tp1642
I28
s(I18
S'CGA'
p1643
tp1644
I50
s(I28
S'TAT'
p1645
tp1646
I29
s(I23
S'GGC'
p1647
tp1648
I4
s(I76
S'GAA'
p1649
tp1650
I6
s(I28
S'AAA'
p1651
tp1652
I3
s(I69
S'TAT'
p1653
tp1654
I23
s(I42
S'GTG'
p1655
tp1656
I6
s(I50
S'TTC'
p1657
tp1658
I2
s(I25
S'TAG'
p1659
tp1660
I28
s(I56
S'TTT'
p1661
tp1662
I1
s(I14
S'CCG'
p1663
tp1664
I1
s(I5
S'GCT'
p1665
tp1666
I2
s(I72
S'TGT'
p1667
tp1668
I9
s(I67
S'TGG'
p1669
tp1670
I5
s(I32
S'CAA'
p1671
tp1672
I66
s(I62
S'CCG'
p1673
tp1674
I857
s(I31
S'GTG'
p1675
tp1676
I268
s(I4
S'CTG'
p1677
tp1678
I84
s(I64
S'TGG'
p1679
tp1680
I2
s(I9
S'CTA'
p1681
tp1682
I257
s(I2
S'CCC'
p1683
tp1684
I2
s(I61
S'ACC'
p1685
tp1686
I13
s(I2
S'CGC'
p1687
tp1688
I2
s(I32
S'TCG'
p1689
tp1690
I29
s(I5
S'GTT'
p1691
tp1692
I16
s(I48
S'GTA'
p1693
tp1694
I24
s(I25
S'ACG'
p1695
tp1696
I58
s(I17
S'ACT'
p1697
tp1698
I41
s(I67
S'CAA'
p1699
tp1700
I61
s(I73
S'ATC'
p1701
tp1702
I2543
s(I50
S'CCC'
p1703
tp1704
I1
s(I11
S'ACA'
p1705
tp1706
I589
s(I67
S'TTC'
p1707
tp1708
I526
s(I29
S'TCA'
p1709
tp1710
I64
s(I66
S'TGA'
p1711
tp1712
I1
s(I76
S'TTA'
p1713
tp1714
I4
s(I27
S'GGG'
p1715
tp1716
I1
s(I70
S'TCT'
p1717
tp1718
I19
s(I56
S'GAA'
p1719
tp1720
I2
s(I57
S'CCG'
p1721
tp1722
I4
s(I17
S'TGG'
p1723
tp1724
I1
s(I6
S'ACT'
p1725
tp1726
I301
s(I54
S'CGT'
p1727
tp1728
I8
s(I71
S'TTG'
p1729
tp1730
I66
s(I12
S'GAC'
p1731
tp1732
I139
s(I36
S'CAG'
p1733
tp1734
I1
s(I70
S'ATA'
p1735
tp1736
I29
s(I13
S'GAG'
p1737
tp1738
I145
s(I21
S'TAT'
p1739
tp1740
I22
s(I33
S'CTC'
p1741
tp1742
I2
s(I8
S'GTA'
p1743
tp1744
I315
s(I20
S'AAG'
p1745
tp1746
I24
s(I36
S'GCT'
p1747
tp1748
I63
s(I53
S'CTC'
p1749
tp1750
I22
s(I53
S'GCC'
p1751
tp1752
I12
s(I29
S'TAT'
p1753
tp1754
I32
s(I45
S'AAC'
p1755
tp1756
I961
s(I47
S'GAT'
p1757
tp1758
I10
s(I42
S'GGA'
p1759
tp1760
I407
s(I22
S'GAT'
p1761
tp1762
I83
s(I5
S'TAC'
p1763
tp1764
I265
s(I16
S'AAC'
p1765
tp1766
I21
s(I30
S'ACA'
p1767
tp1768
I1
s(I65
S'GGC'
p1769
tp1770
I318
s(I8
S'GCC'
p1771
tp1772
I9
s(I27
S'CTA'
p1773
tp1774
I17
s(I55
S'CCA'
p1775
tp1776
I2
s(I41
S'CGA'
p1777
tp1778
I2
s(I64
S'GAA'
p1779
tp1780
I2
s(I31
S'GGC'
p1781
tp1782
I69
s(I51
S'GTC'
p1783
tp1784
I126
s(I61
S'TCG'
p1785
tp1786
I1
s(I61
S'AGA'
p1787
tp1788
I10
s(I30
S'ACG'
p1789
tp1790
I7
s(I45
S'GCC'
p1791
tp1792
I1262
s(I64
S'ATG'
p1793
tp1794
I13
s(I52
S'TTA'
p1795
tp1796
I12
s(I14
S'GCC'
p1797
tp1798
I4
s(I33
S'GGC'
p1799
tp1800
I3
s(I40
S'GCC'
p1801
tp1802
I1
s(I54
S'AAA'
p1803
tp1804
I82
s(I28
S'CGC'
p1805
tp1806
I42
s(I5
S'AGC'
p1807
tp1808
I3
s(I70
S'AAC'
p1809
tp1810
I3
s(I22
S'TAG'
p1811
tp1812
I8
s(I28
S'GCT'
p1813
tp1814
I46
s(I25
S'ACC'
p1815
tp1816
I37
s(I66
S'CAT'
p1817
tp1818
I681
s(I7
S'GGC'
p1819
tp1820
I2
s(I12
S'CAG'
p1821
tp1822
I1
s(I73
S'TGT'
p1823
tp1824
I2
s(I4
S'TTT'
p1825
tp1826
I15
s(I37
S'CCC'
p1827
tp1828
I87
s(I65
S'CTA'
p1829
tp1830
I31
s(I67
S'GCC'
p1831
tp1832
I4374
s(I40
S'CAC'
p1833
tp1834
I194
s(I21
S'CAA'
p1835
tp1836
I2
s(I30
S'AAC'
p1837
tp1838
I1
s(I66
S'ATT'
p1839
tp1840
I4
s(I9
S'TAA'
p1841
tp1842
I2
s(I25
S'TGT'
p1843
tp1844
I78
s(I16
S'ACT'
p1845
tp1846
I6
s(I29
S'GGT'
p1847
tp1848
I7
s(I10
S'GCT'
p1849
tp1850
I10
s(I44
S'AAT'
p1851
tp1852
I18
s(I73
S'ACG'
p1853
tp1854
I23
s(I45
S'TGA'
p1855
tp1856
I2
s(I44
S'TCC'
p1857
tp1858
I106
s(I49
S'TAC'
p1859
tp1860
I6
s(I65
S'CAT'
p1861
tp1862
I228
s(I73
S'GCG'
p1863
tp1864
I68
s(I14
S'CGA'
p1865
tp1866
I2
s(I7
S'CCT'
p1867
tp1868
I4612
s(I32
S'ACC'
p1869
tp1870
I22
s(I28
S'AAT'
p1871
tp1872
I65
s(I13
S'ACC'
p1873
tp1874
I5
s(I44
S'GGG'
p1875
tp1876
I1
s(I54
S'AAT'
p1877
tp1878
I81
s(I43
S'CCT'
p1879
tp1880
I1
s(I37
S'GGG'
p1881
tp1882
I3
s(I53
S'CGT'
p1883
tp1884
I15
s(I33
S'AAA'
p1885
tp1886
I22
s(I32
S'CTT'
p1887
tp1888
I47
s(I7
S'ATC'
p1889
tp1890
I363
s(I45
S'GGG'
p1891
tp1892
I140
s(I5
S'GCA'
p1893
tp1894
I1
s(I27
S'AGG'
p1895
tp1896
I4
s(I49
S'AGT'
p1897
tp1898
I82
s(I5
S'CTA'
p1899
tp1900
I8
s(I46
S'ATG'
p1901
tp1902
I613
s(I56
S'ATA'
p1903
tp1904
I20
s(I33
S'TAC'
p1905
tp1906
I40
s(I47
S'GCA'
p1907
tp1908
I42
s(I29
S'CTT'
p1909
tp1910
I59
s(I63
S'TGC'
p1911
tp1912
I47
s(I34
S'CTT'
p1913
tp1914
I2
s(I16
S'GCA'
p1915
tp1916
I8
s(I72
S'CGT'
p1917
tp1918
I48
s(I33
S'CGT'
p1919
tp1920
I31
s(I27
S'ACT'
p1921
tp1922
I46
s(I69
S'TGA'
p1923
tp1924
I2
s(I41
S'GGT'
p1925
tp1926
I286
s(I54
S'CCC'
p1927
tp1928
I164
s(I67
S'TTT'
p1929
tp1930
I333
s(I40
S'GAG'
p1931
tp1932
I2854
s(I48
S'TCA'
p1933
tp1934
I25
s(I36
S'AGG'
p1935
tp1936
I1
s(I47
S'GTC'
p1937
tp1938
I1
s(I2
S'GCT'
p1939
tp1940
I1
s(I21
S'TAA'
p1941
tp1942
I4
s(I70
S'TAA'
p1943
tp1944
I2
s(I21
S'TTA'
p1945
tp1946
I4
s(I24
S'GAG'
p1947
tp1948
I2
s(I5
S'ACC'
p1949
tp1950
I30
s(I42
S'CCG'
p1951
tp1952
I1
s(I36
S'GCC'
p1953
tp1954
I5
s(I46
S'CCT'
p1955
tp1956
I3
s(I35
S'AAT'
p1957
tp1958
I31
s(I64
S'ACA'
p1959
tp1960
I1172
s(I29
S'CCA'
p1961
tp1962
I1
s(I61
S'GCG'
p1963
tp1964
I13
s(I33
S'CAT'
p1965
tp1966
I4
s(I57
S'GGA'
p1967
tp1968
I7
s(I41
S'CAT'
p1969
tp1970
I10
s(I46
S'ATT'
p1971
tp1972
I402
s(I34
S'GGT'
p1973
tp1974
I37
s(I25
S'ATA'
p1975
tp1976
I127
s(I14
S'GTC'
p1977
tp1978
I1
s(I24
S'AAG'
p1979
tp1980
I1
s(I42
S'GGT'
p1981
tp1982
I25
s(I22
S'GAC'
p1983
tp1984
I20
s(I70
S'CTC'
p1985
tp1986
I430
s(I69
S'CTC'
p1987
tp1988
I56
s(I23
S'CAC'
p1989
tp1990
I1
s(I73
S'AGT'
p1991
tp1992
I2
s(I46
S'CAG'
p1993
tp1994
I2
s(I51
S'CAG'
p1995
tp1996
I212
s(I48
S'CGC'
p1997
tp1998
I6
s(I8
S'AGC'
p1999
tp2000
I1
s(I59
S'TAG'
p2001
tp2002
I18
s(I69
S'TTC'
p2003
tp2004
I680
s(I35
S'GCT'
p2005
tp2006
I40
s(I48
S'ACC'
p2007
tp2008
I13
s(I67
S'TAG'
p2009
tp2010
I1
s(I40
S'GGC'
p2011
tp2012
I229
s(I23
S'GCG'
p2013
tp2014
I5
s(I62
S'TTG'
p2015
tp2016
I108
s(I25
S'CCC'
p2017
tp2018
I42
s(I18
S'TCC'
p2019
tp2020
I38
s(I26
S'CCG'
p2021
tp2022
I36
s(I3
S'ATG'
p2023
tp2024
I30
s(I54
S'TTA'
p2025
tp2026
I29
s(I37
S'TAA'
p2027
tp2028
I32
s(I8
S'GTC'
p2029
tp2030
I44
s(I72
S'GGT'
p2031
tp2032
I160
s(I62
S'GGA'
p2033
tp2034
I82
s(I54
S'TTT'
p2035
tp2036
I3
s(I51
S'ATT'
p2037
tp2038
I35
s(I39
S'GGG'
p2039
tp2040
I1
s(I61
S'GAT'
p2041
tp2042
I2
s(I11
S'CTC'
p2043
tp2044
I2
s(I21
S'TCT'
p2045
tp2046
I36
s(I61
S'CAC'
p2047
tp2048
I36
s(I41
S'CCG'
p2049
tp2050
I2
s(I36
S'CTA'
p2051
tp2052
I297
s(I32
S'GAA'
p2053
tp2054
I53
s(I55
S'GCG'
p2055
tp2056
I17
s(I41
S'CTG'
p2057
tp2058
I244
s(I6
S'AGA'
p2059
tp2060
I15
s(I25
S'CGT'
p2061
tp2062
I12
s(I63
S'ATC'
p2063
tp2064
I64
s(I71
S'ACC'
p2065
tp2066
I1
s(I56
S'GCG'
p2067
tp2068
I7
s(I70
S'CCA'
p2069
tp2070
I28
s(I55
S'GTA'
p2071
tp2072
I6
s(I30
S'CTG'
p2073
tp2074
I52
s(I42
S'TAT'
p2075
tp2076
I1
s(I38
S'AAT'
p2077
tp2078
I82
s(I24
S'GTT'
p2079
tp2080
I8
s(I69
S'AAG'
p2081
tp2082
I7
s(I66
S'ACG'
p2083
tp2084
I8
s(I14
S'CGT'
p2085
tp2086
I2
s(I31
S'GAC'
p2087
tp2088
I12
s(I6
S'GTA'
p2089
tp2090
I371
s(I51
S'TGC'
p2091
tp2092
I4
s(I56
S'GTG'
p2093
tp2094
I64
s(I27
S'GCT'
p2095
tp2096
I46
s(I60
S'CGT'
p2097
tp2098
I2
s(I47
S'ACC'
p2099
tp2100
I9
s(I41
S'CCA'
p2101
tp2102
I2
s(I15
S'GAC'
p2103
tp2104
I1
s(I75
S'CTC'
p2105
tp2106
I13
s(I17
S'TAG'
p2107
tp2108
I13
s(I65
S'AAC'
p2109
tp2110
I98
s(I16
S'CCG'
p2111
tp2112
I17
s(I62
S'TTT'
p2113
tp2114
I17
s(I19
S'ATA'
p2115
tp2116
I14
s(I15
S'ACA'
p2117
tp2118
I12
s(I13
S'GTC'
p2119
tp2120
I199
s(I37
S'CAC'
p2121
tp2122
I10
s(I42
S'CAC'
p2123
tp2124
I16
s(I57
S'GTA'
p2125
tp2126
I5
s(I60
S'AGT'
p2127
tp2128
I24
s(I15
S'CGA'
p2129
tp2130
I1
s(I65
S'CAG'
p2131
tp2132
I51
s(I9
S'TCA'
p2133
tp2134
I10
s(I66
S'GAG'
p2135
tp2136
I66
s(I32
S'GTC'
p2137
tp2138
I16
s(I60
S'CAC'
p2139
tp2140
I54
s(I23
S'TTC'
p2141
tp2142
I33
s(I39
S'CGG'
p2143
tp2144
I1
s(I39
S'CCG'
p2145
tp2146
I1
s(I73
S'TTT'
p2147
tp2148
I1
s(I72
S'TAA'
p2149
tp2150
I37
s(I46
S'AGA'
p2151
tp2152
I353
s(I20
S'CCC'
p2153
tp2154
I84
s(I75
S'CCG'
p2155
tp2156
I39
s(I38
S'TAC'
p2157
tp2158
I2
s(I59
S'AAC'
p2159
tp2160
I116
s(I34
S'TAA'
p2161
tp2162
I11
s(I63
S'TAA'
p2163
tp2164
I2
s(I8
S'ATC'
p2165
tp2166
I50
s(I23
S'ATA'
p2167
tp2168
I16
s(I64
S'ACT'
p2169
tp2170
I512
s(I28
S'TGC'
p2171
tp2172
I13
s(I71
S'TAA'
p2173
tp2174
I25
s(I2
S'GCA'
p2175
tp2176
I1
s(I15
S'GCT'
p2177
tp2178
I110
s(I14
S'GAG'
p2179
tp2180
I1
s(I63
S'CAA'
p2181
tp2182
I26
s(I8
S'CAA'
p2183
tp2184
I6
s(I68
S'CAA'
p2185
tp2186
I846
s(I15
S'TCC'
p2187
tp2188
I23
s(I15
S'TAC'
p2189
tp2190
I1
s(I24
S'TCA'
p2191
tp2192
I33
s(I25
S'ATC'
p2193
tp2194
I21
s(I6
S'GCT'
p2195
tp2196
I223
s(I57
S'ACA'
p2197
tp2198
I21
s(I18
S'ATT'
p2199
tp2200
I27
s(I49
S'TGC'
p2201
tp2202
I10
s(I27
S'TAT'
p2203
tp2204
I88
s(I18
S'GCA'
p2205
tp2206
I40
s(I21
S'GCT'
p2207
tp2208
I18
s(I65
S'AAA'
p2209
tp2210
I20
s(I32
S'TCA'
p2211
tp2212
I121
s(I7
S'AGT'
p2213
tp2214
I10
s(I15
S'TGG'
p2215
tp2216
I3
s(I63
S'ACA'
p2217
tp2218
I212
s(I59
S'TGC'
p2219
tp2220
I1
s(I13
S'CGT'
p2221
tp2222
I109
s(I60
S'GCA'
p2223
tp2224
I50
s(I25
S'CTA'
p2225
tp2226
I75
s(I24
S'AAA'
p2227
tp2228
I4
s(I76
S'CCT'
p2229
tp2230
I8
s(I23
S'AAC'
p2231
tp2232
I1
s(I21
S'GTT'
p2233
tp2234
I60
s(I38
S'GCG'
p2235
tp2236
I58
s(I15
S'GGA'
p2237
tp2238
I2
s(I26
S'AAA'
p2239
tp2240
I1
s(I42
S'TCT'
p2241
tp2242
I1
s(I12
S'TCG'
p2243
tp2244
I1
s(I54
S'ACG'
p2245
tp2246
I11
s(I53
S'ACG'
p2247
tp2248
I2
s(I38
S'GGC'
p2249
tp2250
I18
s(I45
S'TCA'
p2251
tp2252
I250
s(I49
S'CGG'
p2253
tp2254
I3
s(I19
S'TCA'
p2255
tp2256
I15
s(I49
S'GCG'
p2257
tp2258
I98
s(I23
S'CAA'
p2259
tp2260
I13
s(I39
S'CAA'
p2261
tp2262
I2
s(I44
S'CAA'
p2263
tp2264
I8
s(I49
S'ACC'
p2265
tp2266
I47
s(I74
S'GCG'
p2267
tp2268
I3
s(I40
S'ATC'
p2269
tp2270
I3
s(I68
S'TGG'
p2271
tp2272
I1
s(I65
S'CGA'
p2273
tp2274
I284
s(I62
S'CGC'
p2275
tp2276
I91
s(I54
S'GTG'
p2277
tp2278
I2
s(I19
S'GGT'
p2279
tp2280
I190
s(I61
S'TGT'
p2281
tp2282
I39
s(I31
S'GAT'
p2283
tp2284
I41
s(I36
S'ATA'
p2285
tp2286
I13
s(I62
S'GAA'
p2287
tp2288
I196
s(I44
S'AGT'
p2289
tp2290
I182
s(I40
S'CCC'
p2291
tp2292
I12
s(I9
S'GCC'
p2293
tp2294
I417
s(I10
S'TGT'
p2295
tp2296
I4
s(I13
S'TTA'
p2297
tp2298
I3
s(I48
S'ATG'
p2299
tp2300
I20
s(I72
S'CCG'
p2301
tp2302
I4
s(I35
S'CGA'
p2303
tp2304
I5
s(I36
S'TTA'
p2305
tp2306
I1009
s(I33
S'CGA'
p2307
tp2308
I1
s(I49
S'GTC'
p2309
tp2310
I1
s(I23
S'ATG'
p2311
tp2312
I80
s(I48
S'GCT'
p2313
tp2314
I2
s(I9
S'ATA'
p2315
tp2316
I891
s(I52
S'GGC'
p2317
tp2318
I35
s(I48
S'AAC'
p2319
tp2320
I5
s(I15
S'TAA'
p2321
tp2322
I11
s(I22
S'CGG'
p2323
tp2324
I16
s(I17
S'TAT'
p2325
tp2326
I17
s(I8
S'CCC'
p2327
tp2328
I2
s(I7
S'TGA'
p2329
tp2330
I7
s(I30
S'TCC'
p2331
tp2332
I1
s(I43
S'GCG'
p2333
tp2334
I1
s(I53
S'TCG'
p2335
tp2336
I47
s(I5
S'TCA'
p2337
tp2338
I3
s(I19
S'GAC'
p2339
tp2340
I19
s(I68
S'GCG'
p2341
tp2342
I172
s(I28
S'TCC'
p2343
tp2344
I29
s(I30
S'ATA'
p2345
tp2346
I7
s(I4
S'TTG'
p2347
tp2348
I33
s(I64
S'GGA'
p2349
tp2350
I258
s(I19
S'AAG'
p2351
tp2352
I49
s(I75
S'TAG'
p2353
tp2354
I2
s(I62
S'TGA'
p2355
tp2356
I1
s(I63
S'TAT'
p2357
tp2358
I51
s(I30
S'CCT'
p2359
tp2360
I1
s(I34
S'AAT'
p2361
tp2362
I14
s(I46
S'TAT'
p2363
tp2364
I237
s(I64
S'GGT'
p2365
tp2366
I33
s(I12
S'GCT'
p2367
tp2368
I1
s(I58
S'TGG'
p2369
tp2370
I113
s(I66
S'AAC'
p2371
tp2372
I490
s(I71
S'TAT'
p2373
tp2374
I15
s(I68
S'TGT'
p2375
tp2376
I289
s(I6
S'CCA'
p2377
tp2378
I1
s(I7
S'TGT'
p2379
tp2380
I19
s(I72
S'GCA'
p2381
tp2382
I55
s(I67
S'CCC'
p2383
tp2384
I1
s(I12
S'AAC'
p2385
tp2386
I11
s(I55
S'ATC'
p2387
tp2388
I103
s(I70
S'TGG'
p2389
tp2390
I1
s(I3
S'GTG'
p2391
tp2392
I110
s(I74
S'TCG'
p2393
tp2394
I3
s(I19
S'TAC'
p2395
tp2396
I14
s(I67
S'TAA'
p2397
tp2398
I1
s(I44
S'GTC'
p2399
tp2400
I21
s(I58
S'GGG'
p2401
tp2402
I121
s(I53
S'AGA'
p2403
tp2404
I5
s(I27
S'TAC'
p2405
tp2406
I72
s(I34
S'GCT'
p2407
tp2408
I1
s(I9
S'GGT'
p2409
tp2410
I849
s(I66
S'GGG'
p2411
tp2412
I192
s(I72
S'GTA'
p2413
tp2414
I47
s(I64
S'CGG'
p2415
tp2416
I34
s(I65
S'AGT'
p2417
tp2418
I7
s(I37
S'CGG'
p2419
tp2420
I22
s(I55
S'TTT'
p2421
tp2422
I21
s(I13
S'CGA'
p2423
tp2424
I94
s(I24
S'GCG'
p2425
tp2426
I10
s(I53
S'GAC'
p2427
tp2428
I18
s(I6
S'TTA'
p2429
tp2430
I30
s(I39
S'AAG'
p2431
tp2432
I4
s(I36
S'ACC'
p2433
tp2434
I2291
s(I58
S'CAT'
p2435
tp2436
I7
s(I4
S'CAG'
p2437
tp2438
I7
s(I21
S'ATG'
p2439
tp2440
I1
s(I70
S'CGT'
p2441
tp2442
I5
s(I32
S'CGG'
p2443
tp2444
I47
s(I21
S'CTC'
p2445
tp2446
I3
s(I21
S'CTG'
p2447
tp2448
I29
s(I5
S'GGA'
p2449
tp2450
I4
s(I35
S'GAA'
p2451
tp2452
I25
s(I54
S'GAT'
p2453
tp2454
I2
s(I20
S'TCA'
p2455
tp2456
I15
s(I15
S'ATG'
p2457
tp2458
I37
s(I37
S'GCC'
p2459
tp2460
I2
s(I28
S'AAG'
p2461
tp2462
I3
s(I63
S'GGT'
p2463
tp2464
I21
s(I55
S'TGA'
p2465
tp2466
I6
s(I60
S'AGC'
p2467
tp2468
I6
s(I66
S'CTG'
p2469
tp2470
I326
s(I49
S'TTG'
p2471
tp2472
I1
s(I12
S'CTT'
p2473
tp2474
I3
s(I23
S'CCA'
p2475
tp2476
I1
s(I17
S'CTT'
p2477
tp2478
I85
s(I6
S'TGG'
p2479
tp2480
I105
s(I5
S'TGA'
p2481
tp2482
I88
s(I2
S'AAC'
p2483
tp2484
I1
s(I29
S'AGA'
p2485
tp2486
I7
s(I19
S'GGA'
p2487
tp2488
I54
s(I53
S'TTC'
p2489
tp2490
I19
s(I19
S'AGG'
p2491
tp2492
I4
s(I55
S'CTG'
p2493
tp2494
I90
s(I14
S'AAT'
p2495
tp2496
I5
s(I32
S'TAT'
p2497
tp2498
I1
s(I35
S'GTC'
p2499
tp2500
I231
s(I67
S'GGC'
p2501
tp2502
I1176
s(I21
S'GGC'
p2503
tp2504
I47
s(I53
S'GTA'
p2505
tp2506
I5
s(I40
S'TAT'
p2507
tp2508
I34
s(I18
S'AAA'
p2509
tp2510
I32
s(I20
S'GAT'
p2511
tp2512
I8
s(I11
S'ACT'
p2513
tp2514
I394
s(I69
S'GGA'
p2515
tp2516
I1360
s(I57
S'TAA'
p2517
tp2518
I1
s(I23
S'AGC'
p2519
tp2520
I8
s(I68
S'ACA'
p2521
tp2522
I54
s(I28
S'TCA'
p2523
tp2524
I45
s(I40
S'AGT'
p2525
tp2526
I30
s(I43
S'TGC'
p2527
tp2528
I35
s(I71
S'CTT'
p2529
tp2530
I1
s(I21
S'TGG'
p2531
tp2532
I14
s(I36
S'TCG'
p2533
tp2534
I2
s(I66
S'CGA'
p2535
tp2536
I1
s(I53
S'AGT'
p2537
tp2538
I5
s(I8
S'AAT'
p2539
tp2540
I1
s(I51
S'GCC'
p2541
tp2542
I6
s(I63
S'CGC'
p2543
tp2544
I91
s(I33
S'GCG'
p2545
tp2546
I7
s(I17
S'TCG'
p2547
tp2548
I8
s(I25
S'TTG'
p2549
tp2550
I67
s(I45
S'GAT'
p2551
tp2552
I8
s(I22
S'CAT'
p2553
tp2554
I36
s(I60
S'GGG'
p2555
tp2556
I57
s(I5
S'TCT'
p2557
tp2558
I1
s(I36
S'CGA'
p2559
tp2560
I30
s(I57
S'CTG'
p2561
tp2562
I2
s(I3
S'GCT'
p2563
tp2564
I658
s(I76
S'ATC'
p2565
tp2566
I25
s(I62
S'TAG'
p2567
tp2568
I17
s(I40
S'TTC'
p2569
tp2570
I42
s(I9
S'GAC'
p2571
tp2572
I133
s(I54
S'TCC'
p2573
tp2574
I31
s(I18
S'GGG'
p2575
tp2576
I28
s(I4
S'TAA'
p2577
tp2578
I11
s(I56
S'GGC'
p2579
tp2580
I3
s(I17
S'AGT'
p2581
tp2582
I136
s(I52
S'CGG'
p2583
tp2584
I13
s(I36
S'TGT'
p2585
tp2586
I1108
s(I58
S'TTT'
p2587
tp2588
I77
s(I64
S'GGC'
p2589
tp2590
I1261
s(I7
S'TCC'
p2591
tp2592
I19
s(I15
S'CAC'
p2593
tp2594
I2
s(I36
S'TAG'
p2595
tp2596
I5
s(I72
S'ATG'
p2597
tp2598
I3
s(I19
S'GTG'
p2599
tp2600
I19
s(I11
S'ATC'
p2601
tp2602
I39
s(I30
S'TGC'
p2603
tp2604
I786
s(I44
S'TAG'
p2605
tp2606
I19
s(I18
S'TGA'
p2607
tp2608
I5
s(I69
S'TAA'
p2609
tp2610
I2
s(I28
S'TCT'
p2611
tp2612
I44
s(I66
S'GTC'
p2613
tp2614
I3
s(I42
S'CGT'
p2615
tp2616
I88
s(I20
S'CGG'
p2617
tp2618
I39
s(I22
S'CCC'
p2619
tp2620
I64
s(I59
S'ACC'
p2621
tp2622
I4
s(I32
S'GGC'
p2623
tp2624
I60
s(I54
S'CAA'
p2625
tp2626
I9
s(I2
S'TCT'
p2627
tp2628
I6
s(I19
S'ACG'
p2629
tp2630
I32
s(I29
S'GCT'
p2631
tp2632
I149
s(I40
S'TGC'
p2633
tp2634
I1
s(I25
S'TAT'
p2635
tp2636
I26
s(I72
S'GAG'
p2637
tp2638
I9
s(I18
S'CTG'
p2639
tp2640
I36
s(I54
S'AGG'
p2641
tp2642
I52
s(I64
S'TCA'
p2643
tp2644
I816
s(I11
S'CAC'
p2645
tp2646
I63
s(I14
S'CCT'
p2647
tp2648
I2
s(I16
S'CAC'
p2649
tp2650
I22
s(I6
S'TTT'
p2651
tp2652
I225
s(I64
S'CTC'
p2653
tp2654
I470
s(I47
S'AGT'
p2655
tp2656
I87
s(I10
S'AAT'
p2657
tp2658
I238
s(I27
S'CAC'
p2659
tp2660
I174
s(I20
S'GCC'
p2661
tp2662
I73
s(I40
S'CTT'
p2663
tp2664
I47
s(I36
S'TGC'
p2665
tp2666
I315
s(I16
S'TAC'
p2667
tp2668
I15
s(I39
S'GTA'
p2669
tp2670
I9
s(I38
S'ACA'
p2671
tp2672
I86
s(I26
S'GCA'
p2673
tp2674
I7
s(I70
S'AGT'
p2675
tp2676
I14
s(I54
S'GAC'
p2677
tp2678
I137
s(I65
S'CCC'
p2679
tp2680
I696
s(I67
S'CGG'
p2681
tp2682
I7
s(I14
S'CAG'
p2683
tp2684
I1
s(I37
S'TCA'
p2685
tp2686
I64
s(I63
S'AGG'
p2687
tp2688
I43
s(I74
S'TCT'
p2689
tp2690
I2
s(I57
S'TGG'
p2691
tp2692
I58
s(I36
S'GGG'
p2693
tp2694
I14
s(I60
S'ACT'
p2695
tp2696
I160
s(I18
S'CGG'
p2697
tp2698
I9
s(I70
S'TCG'
p2699
tp2700
I3
s(I9
S'GAT'
p2701
tp2702
I695
s(I69
S'CCG'
p2703
tp2704
I5
s(I70
S'CAC'
p2705
tp2706
I3
s(I36
S'GTC'
p2707
tp2708
I11
s(I62
S'AAA'
p2709
tp2710
I1
s(I75
S'CAC'
p2711
tp2712
I6
s(I53
S'CAA'
p2713
tp2714
I37
s(I7
S'GTT'
p2715
tp2716
I103
s(I41
S'AGA'
p2717
tp2718
I15
s(I75
S'ATC'
p2719
tp2720
I9
s(I42
S'TTG'
p2721
tp2722
I29
s(I57
S'TAG'
p2723
tp2724
I5
s(I52
S'ATG'
p2725
tp2726
I20
s(I27
S'TGT'
p2727
tp2728
I76
s(I27
S'GTC'
p2729
tp2730
I50
s(I17
S'GCC'
p2731
tp2732
I43
s(I65
S'TAG'
p2733
tp2734
I2
s(I26
S'CCT'
p2735
tp2736
I1
s(I29
S'CAC'
p2737
tp2738
I2
s(I4
S'CTA'
p2739
tp2740
I42
s(I23
S'AGT'
p2741
tp2742
I3
s(I38
S'CCG'
p2743
tp2744
I114
s(I69
S'AGC'
p2745
tp2746
I695
s(I5
S'CCT'
p2747
tp2748
I12
s(I72
S'TTC'
p2749
tp2750
I38
s(I39
S'ACC'
p2751
tp2752
I1
s(I20
S'GGT'
p2753
tp2754
I29
s(I39
S'GCG'
p2755
tp2756
I3
s(I8
S'GCT'
p2757
tp2758
I2
s(I55
S'CCT'
p2759
tp2760
I3
s(I24
S'CGG'
p2761
tp2762
I1
s(I49
S'CTA'
p2763
tp2764
I6
s(I69
S'GTA'
p2765
tp2766
I82
s(I21
S'CCG'
p2767
tp2768
I1
s(I76
S'TTG'
p2769
tp2770
I10
s(I39
S'AGG'
p2771
tp2772
I3
s(I34
S'ACG'
p2773
tp2774
I2
s(I71
S'GTA'
p2775
tp2776
I5
s(I11
S'TAT'
p2777
tp2778
I5
s(I57
S'ACG'
p2779
tp2780
I40
s(I73
S'GGA'
p2781
tp2782
I1
s(I50
S'GCC'
p2783
tp2784
I2
s(I40
S'GCT'
p2785
tp2786
I3
s(I28
S'GGT'
p2787
tp2788
I1
s(I9
S'CCA'
p2789
tp2790
I663
s(I15
S'TTT'
p2791
tp2792
I127
s(I43
S'CTC'
p2793
tp2794
I52
s(I42
S'GAT'
p2795
tp2796
I9
s(I69
S'TTT'
p2797
tp2798
I171
s(I63
S'CTC'
p2799
tp2800
I12
s(I55
S'CAA'
p2801
tp2802
I11
s(I28
S'GCA'
p2803
tp2804
I15
s(I60
S'GAG'
p2805
tp2806
I3
s(I60
S'CAA'
p2807
tp2808
I99
s(I20
S'AAA'
p2809
tp2810
I42
s(I6
S'CAT'
p2811
tp2812
I136
s(I17
S'GGG'
p2813
tp2814
I45
s(I3
S'GCC'
p2815
tp2816
I59
s(I35
S'TCG'
p2817
tp2818
I15
s(I66
S'ATG'
p2819
tp2820
I97
s(I23
S'TGG'
p2821
tp2822
I1
s(I29
S'GAG'
p2823
tp2824
I25
s(I5
S'GGT'
p2825
tp2826
I2
s(I69
S'ATG'
p2827
tp2828
I39
s(I35
S'TGC'
p2829
tp2830
I72
s(I11
S'AGC'
p2831
tp2832
I784
s(I72
S'AGA'
p2833
tp2834
I20
s(I17
S'CGA'
p2835
tp2836
I5
s(I45
S'TAC'
p2837
tp2838
I14
s(I7
S'CCG'
p2839
tp2840
I441
s(I19
S'TGC'
p2841
tp2842
I13
s(I36
S'TCC'
p2843
tp2844
I11
s(I65
S'ATC'
p2845
tp2846
I16
s(I43
S'CCG'
p2847
tp2848
I1
s(I52
S'TTG'
p2849
tp2850
I5
s(I53
S'CGC'
p2851
tp2852
I7
s(I75
S'TTC'
p2853
tp2854
I1
s(I11
S'CAT'
p2855
tp2856
I51
s(I10
S'GAC'
p2857
tp2858
I36
s(I6
S'CGG'
p2859
tp2860
I38
s(I57
S'GAT'
p2861
tp2862
I42
s(I71
S'ATT'
p2863
tp2864
I5
s(I26
S'CGA'
p2865
tp2866
I4
s(I22
S'GGG'
p2867
tp2868
I16
s(I13
S'ACG'
p2869
tp2870
I6
s(I15
S'CTG'
p2871
tp2872
I22
s(I6
S'GCC'
p2873
tp2874
I125
s(I9
S'TAG'
p2875
tp2876
I13
s(I53
S'TAA'
p2877
tp2878
I5
s(I61
S'ATC'
p2879
tp2880
I92
s(I72
S'TCG'
p2881
tp2882
I117
s(I69
S'TCA'
p2883
tp2884
I59
s(I37
S'TCT'
p2885
tp2886
I30
s(I20
S'CAA'
p2887
tp2888
I72
s(I73
S'ACA'
p2889
tp2890
I3
s(I15
S'AAC'
p2891
tp2892
I7
s(I51
S'CCA'
p2893
tp2894
I249
s(I36
S'AGT'
p2895
tp2896
I39
s(I28
S'ATC'
p2897
tp2898
I13
s(I51
S'CGC'
p2899
tp2900
I9
s(I46
S'TGA'
p2901
tp2902
I1
s(I46
S'CAA'
p2903
tp2904
I36
s(I2
S'ACC'
p2905
tp2906
I3
s(I57
S'ATG'
p2907
tp2908
I62
s(I76
S'TCC'
p2909
tp2910
I9
s(I48
S'AGA'
p2911
tp2912
I10
s(I24
S'GAT'
p2913
tp2914
I9
s(I60
S'ATC'
p2915
tp2916
I85
s(I7
S'GTC'
p2917
tp2918
I102
s(I6
S'ATT'
p2919
tp2920
I1030
s(I29
S'CGT'
p2921
tp2922
I5
s(I13
S'CAC'
p2923
tp2924
I17
s(I55
S'CCC'
p2925
tp2926
I10
s(I18
S'CAC'
p2927
tp2928
I71
s(I73
S'GTC'
p2929
tp2930
I409
s(I41
S'CAG'
p2931
tp2932
I22
s(I75
S'CGT'
p2933
tp2934
I11
s(I22
S'ACG'
p2935
tp2936
I62
s(I72
S'CTG'
p2937
tp2938
I42
s(I54
S'ATC'
p2939
tp2940
I2
s(I22
S'GCG'
p2941
tp2942
I16
s(I56
S'ATG'
p2943
tp2944
I24
s(I54
S'TAT'
p2945
tp2946
I30
s(I7
S'GCC'
p2947
tp2948
I19
s(I25
S'AAT'
p2949
tp2950
I1
s(I9
S'GGA'
p2951
tp2952
I1648
s(I44
S'CCG'
p2953
tp2954
I1
s(I17
S'ACC'
p2955
tp2956
I117
s(I32
S'GTT'
p2957
tp2958
I60
s(I48
S'CGT'
p2959
tp2960
I10
s(I11
S'TAG'
p2961
tp2962
I18
s(I32
S'TGC'
p2963
tp2964
I27
s(I73
S'TCC'
p2965
tp2966
I1
s(I74
S'GCC'
p2967
tp2968
I6
s(I20
S'CAG'
p2969
tp2970
I83
s(I22
S'GTG'
p2971
tp2972
I28
s(I73
S'AAT'
p2973
tp2974
I1
s(I52
S'CTG'
p2975
tp2976
I2
s(I48
S'TCG'
p2977
tp2978
I4
s(I16
S'CGG'
p2979
tp2980
I60
s(I68
S'TAT'
p2981
tp2982
I2
s(I70
S'TAG'
p2983
tp2984
I5
s(I64
S'CAC'
p2985
tp2986
I66
s(I17
S'TGT'
p2987
tp2988
I87
s(I8
S'ACT'
p2989
tp2990
I4
s(I37
S'GAT'
p2991
tp2992
I860
s(I42
S'TGT'
p2993
tp2994
I1999
s(I26
S'CTA'
p2995
tp2996
I8
s(I65
S'ACG'
p2997
tp2998
I13
s(I72
S'GGA'
p2999
tp3000
I299
s(I52
S'TCC'
p3001
tp3002
I2
s(I65
S'GCG'
p3003
tp3004
I4
s(I17
S'GGA'
p3005
tp3006
I54
s(I76
S'CGC'
p3007
tp3008
I20
s(I24
S'ACC'
p3009
tp3010
I56
s(I24
S'TCT'
p3011
tp3012
I25
s(I39
S'CTA'
p3013
tp3014
I2
s(I47
S'GAG'
p3015
tp3016
I3
s(I17
S'CAG'
p3017
tp3018
I12
s(I76
S'ACC'
p3019
tp3020
I11
s(I65
S'TTA'
p3021
tp3022
I1
s(I36
S'GTA'
p3023
tp3024
I19
s(I16
S'AGT'
p3025
tp3026
I10
s(I57
S'CCT'
p3027
tp3028
I115
s(I57
S'AGT'
p3029
tp3030
I5
s(I24
S'CTC'
p3031
tp3032
I1
s(I37
S'ATG'
p3033
tp3034
I60
s(I5
S'GAC'
p3035
tp3036
I2
s(I29
S'AGT'
p3037
tp3038
I33
s(I16
S'ATT'
p3039
tp3040
I21
s(I4
S'GAT'
p3041
tp3042
I4
s(I63
S'ATG'
p3043
tp3044
I43
s(I50
S'GGC'
p3045
tp3046
I14
s(I30
S'TCA'
p3047
tp3048
I1
s(I27
S'GCG'
p3049
tp3050
I25
s(I60
S'CGA'
p3051
tp3052
I82
s(I73
S'GAA'
p3053
tp3054
I1
s(I59
S'ATC'
p3055
tp3056
I72
s(I4
S'GCC'
p3057
tp3058
I1
s(I75
S'TTT'
p3059
tp3060
I2
s(I62
S'GGG'
p3061
tp3062
I125
s(I26
S'TGA'
p3063
tp3064
I17
s(I39
S'GGA'
p3065
tp3066
I8
s(I22
S'GGA'
p3067
tp3068
I71
s(I21
S'GAC'
p3069
tp3070
I36
s(I57
S'GAA'
p3071
tp3072
I19
s(I30
S'GCA'
p3073
tp3074
I84
s(I29
S'TGA'
p3075
tp3076
I38
s(I51
S'TTT'
p3077
tp3078
I10
s(I32
S'GAG'
p3079
tp3080
I48
s(I35
S'CCC'
p3081
tp3082
I287
s(I56
S'ACA'
p3083
tp3084
I18
s(I53
S'CTG'
p3085
tp3086
I31
s(I56
S'GCA'
p3087
tp3088
I7
s(I54
S'CTT'
p3089
tp3090
I22
s(I59
S'CTT'
p3091
tp3092
I826
s(I41
S'GCA'
p3093
tp3094
I20
s(I51
S'CCT'
p3095
tp3096
I14
s(I29
S'GGG'
p3097
tp3098
I33
s(I17
S'ATA'
p3099
tp3100
I50
s(I33
S'AGT'
p3101
tp3102
I1
s(I30
S'TTT'
p3103
tp3104
I292
s(I73
S'TTG'
p3105
tp3106
I60
s(I75
S'GTG'
p3107
tp3108
I483
s(I15
S'GTG'
p3109
tp3110
I17
s(I7
S'TTG'
p3111
tp3112
I2
s(I76
S'TCT'
p3113
tp3114
I3
s(I7
S'GAT'
p3115
tp3116
I31
s(I55
S'AAA'
p3117
tp3118
I20
s(I60
S'ATT'
p3119
tp3120
I143
s(I51
S'GGG'
p3121
tp3122
I1
s(I48
S'GAG'
p3123
tp3124
I16
s(I6
S'ATA'
p3125
tp3126
I1293
s(I5
S'ATC'
p3127
tp3128
I32
s(I17
S'CCA'
p3129
tp3130
I8
s(I29
S'GTA'
p3131
tp3132
I19
s(I14
S'TAG'
p3133
tp3134
I11
s(I40
S'ACC'
p3135
tp3136
I23
s(I13
S'GAC'
p3137
tp3138
I9
s(I10
S'ATT'
p3139
tp3140
I2
s(I41
S'AAG'
p3141
tp3142
I21
s(I15
S'GCG'
p3143
tp3144
I41
s(I46
S'TAA'
p3145
tp3146
I26
s(I15
S'ACG'
p3147
tp3148
I1
s(I7
S'ATA'
p3149
tp3150
I7
s(I54
S'TAA'
p3151
tp3152
I6
s(I21
S'CTT'
p3153
tp3154
I75
s(I63
S'TGT'
p3155
tp3156
I80
s(I27
S'ATG'
p3157
tp3158
I28
s(I34
S'CTG'
p3159
tp3160
I2
s(I5
S'CTT'
p3161
tp3162
I553
s(I11
S'CCC'
p3163
tp3164
I1
s(I65
S'CAA'
p3165
tp3166
I42
s(I16
S'TCC'
p3167
tp3168
I21
s(I32
S'CAC'
p3169
tp3170
I25
s(I21
S'GCC'
p3171
tp3172
I74
s(I52
S'CCC'
p3173
tp3174
I12
s(I28
S'TTT'
p3175
tp3176
I17
s(I16
S'TGA'
p3177
tp3178
I2
s(I62
S'ATC'
p3179
tp3180
I575
s(I29
S'TCG'
p3181
tp3182
I64
s(I63
S'ACC'
p3183
tp3184
I54
s(I47
S'CAT'
p3185
tp3186
I18
s(I41
S'GTA'
p3187
tp3188
I18
s(I33
S'ATT'
p3189
tp3190
I20
s(I9
S'AGT'
p3191
tp3192
I17
s(I21
S'GTA'
p3193
tp3194
I40
s(I68
S'AGA'
p3195
tp3196
I15
s(I38
S'GCT'
p3197
tp3198
I82
s(I15
S'GGT'
p3199
tp3200
I5
s(I69
S'TGG'
p3201
tp3202
I581
s(I20
S'ACA'
p3203
tp3204
I1
s(I70
S'AAA'
p3205
tp3206
I25
s(I37
S'GTA'
p3207
tp3208
I105
s(I57
S'GGC'
p3209
tp3210
I63
s(I52
S'AGA'
p3211
tp3212
I9
s(I15
S'TTA'
p3213
tp3214
I39
s(I63
S'CAG'
p3215
tp3216
I84
s(I68
S'CAG'
p3217
tp3218
I173
s(I39
S'CTT'
p3219
tp3220
I6
s(I51
S'TAG'
p3221
tp3222
I17
s(I47
S'AAG'
p3223
tp3224
I2
s(I44
S'CTT'
p3225
tp3226
I671
s(I24
S'AAT'
p3227
tp3228
I9
s(I35
S'TGT'
p3229
tp3230
I54
s(I45
S'ATC'
p3231
tp3232
I652
s(I22
S'CTG'
p3233
tp3234
I6
s(I23
S'GTT'
p3235
tp3236
I39
s(I74
S'GCT'
p3237
tp3238
I4
s(I18
S'GCG'
p3239
tp3240
I27
s(I25
S'GCT'
p3241
tp3242
I7
s(I34
S'CAT'
p3243
tp3244
I6
s(I46
S'GGA'
p3245
tp3246
I176
s(I30
S'AAG'
p3247
tp3248
I1
s(I46
S'AGG'
p3249
tp3250
I26
s(I34
S'TGC'
p3251
tp3252
I10
s(I3
S'CAC'
p3253
tp3254
I1
s(I54
S'GGA'
p3255
tp3256
I37
s(I35
S'GCC'
p3257
tp3258
I6
s(I8
S'CAC'
p3259
tp3260
I2
s(I60
S'TGC'
p3261
tp3262
I51
s(I28
S'CCC'
p3263
tp3264
I1
s(I67
S'TAT'
p3265
tp3266
I2
s(I36
S'ATT'
p3267
tp3268
I28
s(I7
S'AAC'
p3269
tp3270
I6105
s(I25
S'CTG'
p3271
tp3272
I1
s(I6
S'GAA'
p3273
tp3274
I279
s(I24
S'GTC'
p3275
tp3276
I28
s(I34
S'AGC'
p3277
tp3278
I5
s(I46
S'TGG'
p3279
tp3280
I62
s(I35
S'CGT'
p3281
tp3282
I50
s(I19
S'AGC'
p3283
tp3284
I72
s(I38
S'ATG'
p3285
tp3286
I54
s(I56
S'TGG'
p3287
tp3288
I2
s(I64
S'AAG'
p3289
tp3290
I23
s(I62
S'AGT'
p3291
tp3292
I441
s(I3
S'AAG'
p3293
tp3294
I2
s(I54
S'ACA'
p3295
tp3296
I5
s(I74
S'CGC'
p3297
tp3298
I97
s(I14
S'CTG'
p3299
tp3300
I1
s(I27
S'ATC'
p3301
tp3302
I10
s(I66
S'GTT'
p3303
tp3304
I54
s(I7
S'CCA'
p3305
tp3306
I658
s(I19
S'TCG'
p3307
tp3308
I39
s(I15
S'ATA'
p3309
tp3310
I132
s(I56
S'ACT'
p3311
tp3312
I8
s(I35
S'GTG'
p3313
tp3314
I429
s(I44
S'CAG'
p3315
tp3316
I20
s(I56
S'GCT'
p3317
tp3318
I17
s(I75
S'ATT'
p3319
tp3320
I2
s(I54
S'CTA'
p3321
tp3322
I4
s(I67
S'GTC'
p3323
tp3324
I71
s(I67
S'CAC'
p3325
tp3326
I2
s(I59
S'CTC'
p3327
tp3328
I126
s(I63
S'CGA'
p3329
tp3330
I76
s(I61
S'CGA'
p3331
tp3332
I1
s(I71
S'TGA'
p3333
tp3334
I7
s(I66
S'GCT'
p3335
tp3336
I24
s(I38
S'CGC'
p3337
tp3338
I13
s(I6
S'TAA'
p3339
tp3340
I25
s(I16
S'GAC'
p3341
tp3342
I26
s(I66
S'ACT'
p3343
tp3344
I13
s(I28
S'CAT'
p3345
tp3346
I14
s(I22
S'AGG'
p3347
tp3348
I56
s(I33
S'TCT'
p3349
tp3350
I31
s(I29
S'ACC'
p3351
tp3352
I114
s(I28
S'ATT'
p3353
tp3354
I16
s(I71
S'GCT'
p3355
tp3356
I4
s(I16
S'CCT'
p3357
tp3358
I85
s(I24
S'ATC'
p3359
tp3360
I9
s(I43
S'TGG'
p3361
tp3362
I5
s(I68
S'TGC'
p3363
tp3364
I147
s(I55
S'ACT'
p3365
tp3366
I6
s(I26
S'TTG'
p3367
tp3368
I15
s(I46
S'GTC'
p3369
tp3370
I1191
s(I63
S'CGT'
p3371
tp3372
I160
s(I38
S'AGT'
p3373
tp3374
I3
s(I69
S'TCT'
p3375
tp3376
I45
s(I47
S'CGG'
p3377
tp3378
I1
s(I48
S'CAG'
p3379
tp3380
I3
s(I33
S'CCC'
p3381
tp3382
I8
s(I72
S'CAA'
p3383
tp3384
I321
s(I59
S'GGC'
p3385
tp3386
I1
s(I38
S'GAG'
p3387
tp3388
I132
s(I76
S'TGC'
p3389
tp3390
I2
s(I58
S'TGT'
p3391
tp3392
I288
s(I31
S'AGG'
p3393
tp3394
I10
s(I17
S'GAC'
p3395
tp3396
I3
s(I58
S'GGT'
p3397
tp3398
I16
s(I9
S'CAT'
p3399
tp3400
I3094
s(I70
S'GAC'
p3401
tp3402
I6
s(I45
S'ACG'
p3403
tp3404
I632
s(I47
S'TAA'
p3405
tp3406
I6
s(I9
S'GGC'
p3407
tp3408
I855
s(I66
S'GGT'
p3409
tp3410
I11
s(I72
S'GTT'
p3411
tp3412
I162
s(I43
S'GCA'
p3413
tp3414
I1
s(I13
S'TGC'
p3415
tp3416
I58
s(I65
S'AGG'
p3417
tp3418
I207
s(I41
S'GAT'
p3419
tp3420
I1
s(I3
S'TAG'
p3421
tp3422
I1
s(I17
S'TCT'
p3423
tp3424
I26
s(I47
S'CAA'
p3425
tp3426
I27
s(I67
S'GAG'
p3427
tp3428
I10
s(I52
S'CAA'
p3429
tp3430
I8
s(I8
S'TTC'
p3431
tp3432
I24
s(I20
S'GTC'
p3433
tp3434
I3
s(I18
S'ACA'
p3435
tp3436
I57
s(I60
S'TCT'
p3437
tp3438
I24
s(I9
S'TGG'
p3439
tp3440
I13
s(I8
S'GAC'
p3441
tp3442
I3
s(I51
S'GAG'
p3443
tp3444
I11
s(I15
S'AAA'
p3445
tp3446
I2
s(I74
S'GTA'
p3447
tp3448
I1
s(I15
S'AGG'
p3449
tp3450
I7
s(I52
S'AGT'
p3451
tp3452
I9
s(I36
S'CGT'
p3453
tp3454
I1
s(I74
S'AGG'
p3455
tp3456
I32
s(I8
S'GTT'
p3457
tp3458
I40
s(I3
S'AGC'
p3459
tp3460
I2
s(I63
S'GGG'
p3461
tp3462
I2
s(I71
S'GGG'
p3463
tp3464
I1
s(I33
S'GTC'
p3465
tp3466
I2
s(I17
S'CTA'
p3467
tp3468
I135
s(I51
S'AAG'
p3469
tp3470
I10
s(I22
S'ATT'
p3471
tp3472
I18
s(I37
S'CTA'
p3473
tp3474
I59
s(I33
S'GAC'
p3475
tp3476
I1
s(I42
S'CTC'
p3477
tp3478
I8
s(I34
S'CAC'
p3479
tp3480
I8
s(I64
S'CGA'
p3481
tp3482
I73
s(I7
S'AGG'
p3483
tp3484
I17
s(I18
S'GTT'
p3485
tp3486
I3
s(I57
S'CAG'
p3487
tp3488
I14
s(I25
S'CGC'
p3489
tp3490
I6
s(I75
S'AAA'
p3491
tp3492
I15
s(I64
S'GTT'
p3493
tp3494
I45
s(I13
S'CGG'
p3495
tp3496
I14
s(I14
S'AAA'
p3497
tp3498
I1
s(I13
S'CCG'
p3499
tp3500
I6
s(I40
S'GTC'
p3501
tp3502
I3
s(I6
S'CTA'
p3503
tp3504
I139
s(I39
S'GTG'
p3505
tp3506
I1
s(I12
S'ATC'
p3507
tp3508
I322
s(I56
S'GTA'
p3509
tp3510
I99
s(I40
S'TAG'
p3511
tp3512
I10
s(I57
S'CGG'
p3513
tp3514
I1
s(I31
S'CTC'
p3515
tp3516
I19
s(I34
S'GCC'
p3517
tp3518
I7
s(I38
S'TTA'
p3519
tp3520
I151
s(I62
S'TCG'
p3521
tp3522
I200
s(I62
S'AGC'
p3523
tp3524
I93
s(I54
S'ACT'
p3525
tp3526
I22
s(I20
S'TGA'
p3527
tp3528
I15
s(I75
S'GAA'
p3529
tp3530
I4
s(I38
S'GGT'
p3531
tp3532
I17
s(I60
S'GAT'
p3533
tp3534
I307
s(I68
S'TAA'
p3535
tp3536
I1
s(I37
S'TGT'
p3537
tp3538
I128
s(I61
S'CTC'
p3539
tp3540
I212
s(I28
S'AGT'
p3541
tp3542
I18
s(I38
S'CTC'
p3543
tp3544
I91
s(I67
S'TGC'
p3545
tp3546
I260
s(I22
S'TCA'
p3547
tp3548
I219
s(I12
S'ATA'
p3549
tp3550
I13
s(I6
S'TGA'
p3551
tp3552
I10
s(I40
S'AGA'
p3553
tp3554
I124
s(I20
S'GTT'
p3555
tp3556
I12
s(I68
S'GTC'
p3557
tp3558
I43
s(I45
S'GAG'
p3559
tp3560
I10
s(I51
S'TAA'
p3561
tp3562
I4
s(I15
S'GAT'
p3563
tp3564
I1
s(I10
S'CAC'
p3565
tp3566
I29
s(I57
S'CTT'
p3567
tp3568
I15
s(I55
S'CTA'
p3569
tp3570
I25
s(I28
S'GTA'
p3571
tp3572
I42
s(I3
S'CTG'
p3573
tp3574
I9
s(I33
S'CAG'
p3575
tp3576
I2
s(I51
S'ATC'
p3577
tp3578
I56
s(I33
S'TCC'
p3579
tp3580
I8
s(I53
S'GTG'
p3581
tp3582
I41
s(I44
S'GGC'
p3583
tp3584
I30
s(I8
S'TCG'
p3585
tp3586
I1
s(I41
S'TCT'
p3587
tp3588
I24
s(I7
S'TAA'
p3589
tp3590
I4
s(I71
S'GCA'
p3591
tp3592
I1
s(I17
S'TAA'
p3593
tp3594
I1
s(I55
S'CAC'
p3595
tp3596
I11
s(I68
S'ACG'
p3597
tp3598
I429
s(I3
S'GGG'
p3599
tp3600
I4
s(I59
S'AGA'
p3601
tp3602
I25
s(I61
S'GGC'
p3603
tp3604
I2
s(I39
S'TAG'
p3605
tp3606
I23
s(I40
S'GGG'
p3607
tp3608
I27
s(I28
S'ACC'
p3609
tp3610
I2
s(I8
S'TGC'
p3611
tp3612
I8
s(I38
S'AGC'
p3613
tp3614
I15
s(I66
S'CGG'
p3615
tp3616
I2
s(I72
S'CAT'
p3617
tp3618
I297
s(I44
S'CGA'
p3619
tp3620
I1
s(I46
S'TTG'
p3621
tp3622
I96
s(I15
S'CCC'
p3623
tp3624
I1
s(I53
S'TAC'
p3625
tp3626
I68
s(I27
S'TCG'
p3627
tp3628
I27
s(I27
S'AAC'
p3629
tp3630
I1
s(I25
S'TTA'
p3631
tp3632
I40
s(I42
S'TAC'
p3633
tp3634
I2
s(I60
S'GGA'
p3635
tp3636
I448
s(I29
S'GCC'
p3637
tp3638
I7
s(I67
S'CTG'
p3639
tp3640
I56
s(I16
S'AGA'
p3641
tp3642
I5
s(I68
S'GAA'
p3643
tp3644
I8
s(I57
S'TTG'
p3645
tp3646
I98
s(I31
S'TCC'
p3647
tp3648
I176
s(I59
S'AGC'
p3649
tp3650
I302
s(I51
S'AGC'
p3651
tp3652
I56
s(I48
S'CCA'
p3653
tp3654
I1
s(I11
S'TAC'
p3655
tp3656
I2
s(I40
S'CTG'
p3657
tp3658
I802
s(I45
S'CGT'
p3659
tp3660
I17
s(I61
S'TTC'
p3661
tp3662
I90
s(I61
S'AAA'
p3663
tp3664
I1
s(I19
S'GTA'
p3665
tp3666
I19
s(I42
S'TCA'
p3667
tp3668
I1
s(I45
S'GTA'
p3669
tp3670
I3221
s(I10
S'CGT'
p3671
tp3672
I2
s(I25
S'GAG'
p3673
tp3674
I130
s(I62
S'GCC'
p3675
tp3676
I389
s(I28
S'GAG'
p3677
tp3678
I27
s(I21
S'CGA'
p3679
tp3680
I2
s(I64
S'TGC'
p3681
tp3682
I158
s(I60
S'ACA'
p3683
tp3684
I104
s(I18
S'CGT'
p3685
tp3686
I44
s(I67
S'ACG'
p3687
tp3688
I608
s(I49
S'TCG'
p3689
tp3690
I280
s(I75
S'AGA'
p3691
tp3692
I2
s(I70
S'GGC'
p3693
tp3694
I17
s(I22
S'TTG'
p3695
tp3696
I39
s(I9
S'GAG'
p3697
tp3698
I5
s(I64
S'CGT'
p3699
tp3700
I31
s(I18
S'GTA'
p3701
tp3702
I20
s(I3
S'CTA'
p3703
tp3704
I35
s(I23
S'TGA'
p3705
tp3706
I11
s(I13
S'CTC'
p3707
tp3708
I3
s(I54
S'TTC'
p3709
tp3710
I73
s(I55
S'TTG'
p3711
tp3712
I26
s(I56
S'CCA'
p3713
tp3714
I2
s(I69
S'TGT'
p3715
tp3716
I594
s(I52
S'TAC'
p3717
tp3718
I3
s(I9
S'ACA'
p3719
tp3720
I71
s(I60
S'GTA'
p3721
tp3722
I20
s(I50
S'ATG'
p3723
tp3724
I88
s(I11
S'TGG'
p3725
tp3726
I4
s(I65
S'TAT'
p3727
tp3728
I157
s(I23
S'CCT'
p3729
tp3730
I5
s(I32
S'CGT'
p3731
tp3732
I92
s(I35
S'TAG'
p3733
tp3734
I33
s(I68
S'TCC'
p3735
tp3736
I127
s(I55
S'GCC'
p3737
tp3738
I11
s(I17
S'ATC'
p3739
tp3740
I50
s(I66
S'TTG'
p3741
tp3742
I1052
s(I44
S'ACC'
p3743
tp3744
I1279
s(I35
S'AGT'
p3745
tp3746
I9
s(I11
S'CGC'
p3747
tp3748
I7
s(I62
S'TCC'
p3749
tp3750
I106
s(I2
S'TAG'
p3751
tp3752
I26
s(I67
S'CGA'
p3753
tp3754
I24
s(I62
S'AAT'
p3755
tp3756
I19
s(I25
S'AGT'
p3757
tp3758
I34
s(I63
S'GAG'
p3759
tp3760
I15
s(I43
S'CGG'
p3761
tp3762
I2
s(I36
S'GGA'
p3763
tp3764
I14
s(I46
S'TCC'
p3765
tp3766
I475
s(I13
S'GGC'
p3767
tp3768
I2
s(I11
S'GTG'
p3769
tp3770
I46
s(I27
S'GGT'
p3771
tp3772
I1
s(I51
S'TGT'
p3773
tp3774
I48
s(I27
S'TTC'
p3775
tp3776
I1
s(I60
S'GAC'
p3777
tp3778
I166
s(I25
S'TCG'
p3779
tp3780
I7
s(I54
S'CGG'
p3781
tp3782
I34
s(I11
S'CGG'
p3783
tp3784
I3
s(I51
S'ACC'
p3785
tp3786
I54
s(I42
S'AAG'
p3787
tp3788
I7
s(I74
S'AAG'
p3789
tp3790
I91
s(I31
S'TTG'
p3791
tp3792
I10
s(I66
S'GAA'
p3793
tp3794
I17
s(I40
S'TCG'
p3795
tp3796
I59
s(I9
S'GTA'
p3797
tp3798
I152
s(I8
S'CGC'
p3799
tp3800
I3
s(I63
S'TTA'
p3801
tp3802
I4
s(I19
S'CAC'
p3803
tp3804
I30
s(I71
S'CAG'
p3805
tp3806
I2
s(I6
S'GGG'
p3807
tp3808
I905
s(I75
S'GGA'
p3809
tp3810
I8
s(I25
S'GTA'
p3811
tp3812
I131
s(I8
S'TGT'
p3813
tp3814
I5
s(I43
S'ATT'
p3815
tp3816
I7
s(I9
S'AAC'
p3817
tp3818
I65
s(I65
S'GGT'
p3819
tp3820
I235
s(I27
S'CTT'
p3821
tp3822
I78
s(I13
S'AAC'
p3823
tp3824
I4
s(I49
S'CTG'
p3825
tp3826
I5
s(I2
S'GGG'
p3827
tp3828
I1
s(I17
S'CGT'
p3829
tp3830
I8
s(I45
S'CAT'
p3831
tp3832
I375
s(I15
S'TGT'
p3833
tp3834
I16
s(I48
S'GGC'
p3835
tp3836
I19
s(I25
S'GCA'
p3837
tp3838
I5
s(I58
S'CCC'
p3839
tp3840
I6
s(I64
S'TGA'
p3841
tp3842
I5
s(I73
S'GCT'
p3843
tp3844
I19
s(I73
S'GGG'
p3845
tp3846
I1
s(I52
S'TTT'
p3847
tp3848
I35
s(I38
S'ACG'
p3849
tp3850
I4
s(I77
S'TGG'
p3851
tp3852
I91
s(I68
S'GAT'
p3853
tp3854
I1
s(I14
S'GGC'
p3855
tp3856
I6
s(I9
S'CCG'
p3857
tp3858
I285
s(I70
S'ACG'
p3859
tp3860
I6346
s(I68
S'GTG'
p3861
tp3862
I590
s(I64
S'TTA'
p3863
tp3864
I1382
s(I6
S'CGT'
p3865
tp3866
I5
s(I55
S'CAG'
p3867
tp3868
I128
s(I6
S'TCT'
p3869
tp3870
I444
s(I52
S'CGT'
p3871
tp3872
I7
s(I73
S'TGC'
p3873
tp3874
I1
s(I45
S'CGA'
p3875
tp3876
I179
s(I21
S'ATC'
p3877
tp3878
I8
s(I22
S'GGT'
p3879
tp3880
I17
s(I19
S'GTT'
p3881
tp3882
I35
s(I67
S'ATC'
p3883
tp3884
I10
s(I66
S'ATA'
p3885
tp3886
I27
s(I62
S'GAT'
p3887
tp3888
I105
s(I4
S'AGT'
p3889
tp3890
I2
s(I44
S'ATG'
p3891
tp3892
I275
s(I64
S'CCG'
p3893
tp3894
I5
s(I39
S'TTA'
p3895
tp3896
I3
s(I38
S'GGA'
p3897
tp3898
I69
s(I42
S'ACA'
p3899
tp3900
I33
s(I72
S'ATC'
p3901
tp3902
I9
s(I69
S'ATA'
p3903
tp3904
I8
s(I73
S'ACT'
p3905
tp3906
I2
s(I20
S'CGT'
p3907
tp3908
I17
s(I13
S'GAA'
p3909
tp3910
I87
s(I20
S'TGC'
p3911
tp3912
I11
s(I55
S'ATA'
p3913
tp3914
I11
s(I45
S'TCC'
p3915
tp3916
I824
s(I56
S'CCT'
p3917
tp3918
I1
s(I31
S'GCG'
p3919
tp3920
I14
s(I54
S'AAG'
p3921
tp3922
I15
s(I42
S'GTA'
p3923
tp3924
I153
s(I30
S'CCA'
p3925
tp3926
I22
s(I54
S'AGT'
p3927
tp3928
I42
s(I31
S'CGG'
p3929
tp3930
I8
s(I65
S'ATA'
p3931
tp3932
I25
s(I29
S'CGC'
p3933
tp3934
I15
s(I61
S'TGG'
p3935
tp3936
I1
s(I11
S'GAG'
p3937
tp3938
I457
s(I26
S'ACG'
p3939
tp3940
I15
s(I40
S'TGT'
p3941
tp3942
I7
s(I71
S'GAC'
p3943
tp3944
I9
s(I20
S'GGG'
p3945
tp3946
I76
s(I11
S'CGT'
p3947
tp3948
I7
s(I40
S'TTA'
p3949
tp3950
I382
s(I42
S'GCC'
p3951
tp3952
I1373
s(I31
S'CAG'
p3953
tp3954
I15
s(I68
S'TCT'
p3955
tp3956
I66
s(I26
S'CGG'
p3957
tp3958
I2
s(I55
S'TAT'
p3959
tp3960
I26
s(I2
S'CCA'
p3961
tp3962
I1
s(I51
S'TCT'
p3963
tp3964
I52
s(I55
S'GAC'
p3965
tp3966
I19
s(I2
S'CGA'
p3967
tp3968
I11
s(I15
S'CTA'
p3969
tp3970
I42
s(I59
S'TCA'
p3971
tp3972
I275
s(I8
S'CTG'
p3973
tp3974
I42
s(I10
S'CCT'
p3975
tp3976
I1
s(I20
S'CAT'
p3977
tp3978
I49
s(I38
S'TAG'
p3979
tp3980
I30
s(I36
S'GGT'
p3981
tp3982
I3
s(I70
S'GTA'
p3983
tp3984
I77
s(I66
S'TGC'
p3985
tp3986
I11
s(I13
S'GGT'
p3987
tp3988
I13
s(I2
S'GCG'
p3989
tp3990
I1
s(I40
S'TTG'
p3991
tp3992
I128
s(I35
S'ATG'
p3993
tp3994
I144
s(I37
S'GAG'
p3995
tp3996
I1734
s(I41
S'ACT'
p3997
tp3998
I135
s(I42
S'TGG'
p3999
tp4000
I8
s(I47
S'TCC'
p4001
tp4002
I33
s(I44
S'TGA'
p4003
tp4004
I5
s(I38
S'ACC'
p4005
tp4006
I119
s(I51
S'ACT'
p4007
tp4008
I68
s(I16
S'CTT'
p4009
tp4010
I9
s(I5
S'CGT'
p4011
tp4012
I2
s(I70
S'ATC'
p4013
tp4014
I12
s(I4
S'TGT'
p4015
tp4016
I2
s(I30
S'AGT'
p4017
tp4018
I2
s(I33
S'CTA'
p4019
tp4020
I4
s(I16
S'CTA'
p4021
tp4022
I1
s(I22
S'ACA'
p4023
tp4024
I5
s(I64
S'CAA'
p4025
tp4026
I851
s(I53
S'GCA'
p4027
tp4028
I13
s(I63
S'CCT'
p4029
tp4030
I1
s(I58
S'CTC'
p4031
tp4032
I28
s(I65
S'GAA'
p4033
tp4034
I703
s(I45
S'AAA'
p4035
tp4036
I2
s(I69
S'ACG'
p4037
tp4038
I488
s(I42
S'GGG'
p4039
tp4040
I249
s(I61
S'ACT'
p4041
tp4042
I16
s(I5
S'TAA'
p4043
tp4044
I11
s(I14
S'GCT'
p4045
tp4046
I44
s(I57
S'AGG'
p4047
tp4048
I5
s(I65
S'GGA'
p4049
tp4050
I332
s(I74
S'GTT'
p4051
tp4052
I1
s(I48
S'AAT'
p4053
tp4054
I93
s(I27
S'CTC'
p4055
tp4056
I22
s(I68
S'ATA'
p4057
tp4058
I39
s(I41
S'CGG'
p4059
tp4060
I3
s(I47
S'CTC'
p4061
tp4062
I3
s(I63
S'ATT'
p4063
tp4064
I2
s(I19
S'CGT'
p4065
tp4066
I67
s(I52
S'CTA'
p4067
tp4068
I2
s(I16
S'CGA'
p4069
tp4070
I7
s(I53
S'GGA'
p4071
tp4072
I68
s(I34
S'ACT'
p4073
tp4074
I21
s(I39
S'GAC'
p4075
tp4076
I34
s(I61
S'AGC'
p4077
tp4078
I1
s(I22
S'CTC'
p4079
tp4080
I147
s(I5
S'GCG'
p4081
tp4082
I7
s(I29
S'ACT'
p4083
tp4084
I22
s(I33
S'GGA'
p4085
tp4086
I9
s(I27
S'ACG'
p4087
tp4088
I46
s(I62
S'TAA'
p4089
tp4090
I2
s(I21
S'TAC'
p4091
tp4092
I168
s(I41
S'GCG'
p4093
tp4094
I15
s(I48
S'GGG'
p4095
tp4096
I195
s(I55
S'AGA'
p4097
tp4098
I2
s(I29
S'TAC'
p4099
tp4100
I74
s(I28
S'TGA'
p4101
tp4102
I14
s(I58
S'GCA'
p4103
tp4104
I3
s(I17
S'CAA'
p4105
tp4106
I188
s(I31
S'CAC'
p4107
tp4108
I6
s(I25
S'CGA'
p4109
tp4110
I4
s(I67
S'AGT'
p4111
tp4112
I1
s(I21
S'CAC'
p4113
tp4114
I60
s(I26
S'CAC'
p4115
tp4116
I1
s(I65
S'GTC'
p4117
tp4118
I4
s(I72
S'AAG'
p4119
tp4120
I19
s(I19
S'GCG'
p4121
tp4122
I37
s(I48
S'TAT'
p4123
tp4124
I5
s(I14
S'ACG'
p4125
tp4126
I37
s(I11
S'AAG'
p4127
tp4128
I30
s(I37
S'ATA'
p4129
tp4130
I129
s(I3
S'GGA'
p4131
tp4132
I1
s(I45
S'TGC'
p4133
tp4134
I894
s(I33
S'AGG'
p4135
tp4136
I82
s(I70
S'GCC'
p4137
tp4138
I213
s(I67
S'TCC'
p4139
tp4140
I3
s(I37
S'ACG'
p4141
tp4142
I276
s(I32
S'ACA'
p4143
tp4144
I36
s(I55
S'ATT'
p4145
tp4146
I15
s(I53
S'TGG'
p4147
tp4148
I34
s(I27
S'GCA'
p4149
tp4150
I20
s(I43
S'TAT'
p4151
tp4152
I1
s(I28
S'ACA'
p4153
tp4154
I8
s(I53
S'GGG'
p4155
tp4156
I54
s(I33
S'TGG'
p4157
tp4158
I19
s(I5
S'ATT'
p4159
tp4160
I15
s(I16
S'GTA'
p4161
tp4162
I21
s(I23
S'GAC'
p4163
tp4164
I5
s(I38
S'CAC'
p4165
tp4166
I66
s(I43
S'CAC'
p4167
tp4168
I1
s(I60
S'CCG'
p4169
tp4170
I32
s(I20
S'AGT'
p4171
tp4172
I137
s(I42
S'AGG'
p4173
tp4174
I23
s(I55
S'AAC'
p4175
tp4176
I31
s(I47
S'GCC'
p4177
tp4178
I7
s(I18
S'TAT'
p4179
tp4180
I40
s(I16
S'GCC'
p4181
tp4182
I5
s(I46
S'GAG'
p4183
tp4184
I1322
s(I66
S'TAC'
p4185
tp4186
I94
s(I16
S'ACC'
p4187
tp4188
I12
s(I52
S'CCT'
p4189
tp4190
I57
s(I32
S'TCT'
p4191
tp4192
I77
s(I65
S'GAC'
p4193
tp4194
I2716
s(I10
S'CTC'
p4195
tp4196
I1
s(I54
S'CCA'
p4197
tp4198
I4
s(I25
S'CAG'
p4199
tp4200
I1
s(I73
S'TTA'
p4201
tp4202
I88
s(I24
S'CGC'
p4203
tp4204
I24
s(I49
S'GAC'
p4205
tp4206
I14
s(I33
S'ACT'
p4207
tp4208
I19
s(I57
S'ATT'
p4209
tp4210
I17
s(I11
S'AAT'
p4211
tp4212
I204
s(I29
S'ATG'
p4213
tp4214
I14
s(I8
S'ATT'
p4215
tp4216
I143
s(I12
S'GAT'
p4217
tp4218
I1
s(I64
S'ACG'
p4219
tp4220
I1043
s(I17
S'CCG'
p4221
tp4222
I20
s(I30
S'AGC'
p4223
tp4224
I2
s(I75
S'CGC'
p4225
tp4226
I13
s(I22
S'ACT'
p4227
tp4228
I82
s(I46
S'TAG'
p4229
tp4230
I11
s(I52
S'AAG'
p4231
tp4232
I7
s(I10
S'CGA'
p4233
tp4234
I20
s(I32
S'TTG'
p4235
tp4236
I112
s(I44
S'GCG'
p4237
tp4238
I220
s(I44
S'CTG'
p4239
tp4240
I1
s(I64
S'AGC'
p4241
tp4242
I1587
s(I50
S'ATA'
p4243
tp4244
I128
s(I36
S'CCG'
p4245
tp4246
I74
s(I29
S'CTC'
p4247
tp4248
I28
s(I45
S'ATT'
p4249
tp4250
I102
s(I69
S'CTA'
p4251
tp4252
I26
s(I5
S'TAT'
p4253
tp4254
I53
s(I18
S'AGG'
p4255
tp4256
I8
s(I18
S'GCT'
p4257
tp4258
I114
s(I48
S'TGA'
p4259
tp4260
I3
s(I50
S'TAG'
p4261
tp4262
I17
s(I12
S'ACA'
p4263
tp4264
I5
s(I14
S'ATC'
p4265
tp4266
I3
s(I73
S'AAG'
p4267
tp4268
I1
s(I23
S'TTG'
p4269
tp4270
I7
s(I68
S'AAT'
p4271
tp4272
I171
s(I48
S'ACA'
p4273
tp4274
I21
s(I20
S'CTT'
p4275
tp4276
I8
s(I25
S'CTT'
p4277
tp4278
I11
s(I23
S'GCA'
p4279
tp4280
I17
s(I76
S'CCC'
p4281
tp4282
I3
s(I11
S'TTC'
p4283
tp4284
I98
s(I2
S'GAG'
p4285
tp4286
I30
s(I21
S'GTG'
p4287
tp4288
I50
s(I27
S'TTT'
p4289
tp4290
I7
s(I47
S'CCG'
p4291
tp4292
I3
s(I44
S'TGG'
p4293
tp4294
I1
s(I59
S'TAT'
p4295
tp4296
I56
s(I72
S'CTT'
p4297
tp4298
I84
s(I12
S'GTA'
p4299
tp4300
I6
s(I37
S'GTG'
p4301
tp4302
I95
s(I16
S'CTC'
p4303
tp4304
I13
s(I28
S'TGG'
p4305
tp4306
I62
s(I36
S'CTC'
p4307
tp4308
I954
s(I34
S'GGC'
p4309
tp4310
I88
s(I55
S'GCA'
p4311
tp4312
I22
s(I20
S'ATC'
p4313
tp4314
I82
s(I6
S'AGC'
p4315
tp4316
I659
s(I8
S'GGA'
p4317
tp4318
I4
s(I71
S'ACA'
p4319
tp4320
I1
s(I46
S'GGG'
p4321
tp4322
I39
s(I71
S'CTC'
p4323
tp4324
I67
s(I53
S'CCC'
p4325
tp4326
I34
s(I55
S'GTC'
p4327
tp4328
I52
s(I54
S'GGG'
p4329
tp4330
I62
s(I24
S'TCG'
p4331
tp4332
I3
s(I35
S'CTG'
p4333
tp4334
I43
s(I55
S'GAT'
p4335
tp4336
I181
s(I10
S'TAC'
p4337
tp4338
I1
s(I31
S'TGG'
p4339
tp4340
I4
s(I31
S'GAA'
p4341
tp4342
I7
s(I8
S'AAA'
p4343
tp4344
I40
s(I18
S'ATC'
p4345
tp4346
I78
s(I32
S'ACT'
p4347
tp4348
I44
s(I18
S'TAC'
p4349
tp4350
I162
s(I16
S'TGC'
p4351
tp4352
I19
s(I13
S'GCC'
p4353
tp4354
I10
s(I65
S'TTG'
p4355
tp4356
I3
s(I52
S'GCT'
p4357
tp4358
I23
s(I15
S'GAA'
p4359
tp4360
I16
s(I16
S'GGA'
p4361
tp4362
I8
s(I28
S'CTG'
p4363
tp4364
I34
s(I16
S'CCA'
p4365
tp4366
I182
s(I55
S'ACC'
p4367
tp4368
I16
s(I49
S'AGC'
p4369
tp4370
I614
s(I44
S'TCG'
p4371
tp4372
I127
s(I9
S'ATT'
p4373
tp4374
I1260
s(I67
S'CAT'
p4375
tp4376
I3
s(I71
S'GCG'
p4377
tp4378
I1
s(I13
S'GTA'
p4379
tp4380
I68
s(I10
S'GGC'
p4381
tp4382
I61
s(I42
S'TGC'
p4383
tp4384
I379
s(I75
S'GCT'
p4385
tp4386
I11
s(I56
S'TTG'
p4387
tp4388
I8
s(I74
S'CAT'
p4389
tp4390
I7
s(I9
S'CAG'
p4391
tp4392
I2013
s(I9
S'TCC'
p4393
tp4394
I48
s(I35
S'GGG'
p4395
tp4396
I8
s(I34
S'ATC'
p4397
tp4398
I7
s(I23
S'TTA'
p4399
tp4400
I4
s(I43
S'GCT'
p4401
tp4402
I1
s(I61
S'CGG'
p4403
tp4404
I1
s(I10
S'CTT'
p4405
tp4406
I1
s(I43
S'GGG'
p4407
tp4408
I17
s(I57
S'GTC'
p4409
tp4410
I67
s(I75
S'GCC'
p4411
tp4412
I6
s(I67
S'ACA'
p4413
tp4414
I187
s(I6
S'TAG'
p4415
tp4416
I17
s(I62
S'ACC'
p4417
tp4418
I2029
s(I15
S'GTT'
p4419
tp4420
I102
s(I13
S'TCG'
p4421
tp4422
I15
s(I23
S'TGC'
p4423
tp4424
I1
s(I75
S'CCA'
p4425
tp4426
I37
s(I38
S'TAA'
p4427
tp4428
I2
s(I32
S'GCG'
p4429
tp4430
I5
s(I18
S'GGC'
p4431
tp4432
I129
s(I63
S'TAC'
p4433
tp4434
I30
s(I8
S'ATA'
p4435
tp4436
I262
s(I34
S'AAG'
p4437
tp4438
I6
s(I57
S'GCC'
p4439
tp4440
I10
s(I69
S'ACT'
p4441
tp4442
I50
s(I71
S'TAC'
p4443
tp4444
I5
s(I53
S'TTA'
p4445
tp4446
I47
s(I7
S'TGG'
p4447
tp4448
I1
s(I62
S'GTC'
p4449
tp4450
I543
s(I28
S'GTC'
p4451
tp4452
I101
s(I48
S'AAA'
p4453
tp4454
I4
s(I24
S'TTA'
p4455
tp4456
I13
s(I46
S'AAC'
p4457
tp4458
I1994
s(I64
S'GCG'
p4459
tp4460
I579
s(I37
S'CAT'
p4461
tp4462
I53
s(I4
S'GCG'
p4463
tp4464
I2
s(I56
S'AAG'
p4465
tp4466
I10
s(I22
S'ATG'
p4467
tp4468
I115
s(I46
S'ACA'
p4469
tp4470
I1101
s(I27
S'AGC'
p4471
tp4472
I5
s(I23
S'ATT'
p4473
tp4474
I14
s(I61
S'GAC'
p4475
tp4476
I1
s(I64
S'GTG'
p4477
tp4478
I855
s(I47
S'CAG'
p4479
tp4480
I327
s(I60
S'GCC'
p4481
tp4482
I201
s(I52
S'CAG'
p4483
tp4484
I6
s(I49
S'GGC'
p4485
tp4486
I440
s(I37
S'TGG'
p4487
tp4488
I54
s(I18
S'TCA'
p4489
tp4490
I151
s(I11
S'TTT'
p4491
tp4492
I6
s(I76
S'GAC'
p4493
tp4494
I22
s(I43
S'TAG'
p4495
tp4496
I32
s(I15
S'CAG'
p4497
tp4498
I33
s(I15
S'GGC'
p4499
tp4500
I9
s(I74
S'GTG'
p4501
tp4502
I1
s(I32
S'AAA'
p4503
tp4504
I18
s(I17
S'GTG'
p4505
tp4506
I28
s(I53
S'ACA'
p4507
tp4508
I43
s(I36
S'TAC'
p4509
tp4510
I20
s(I24
S'CCA'
p4511
tp4512
I19
s(I30
S'TTC'
p4513
tp4514
I181
s(I20
S'TGG'
p4515
tp4516
I2
s(I39
S'ATC'
p4517
tp4518
I2
s(I18
S'ACG'
p4519
tp4520
I38
s(I37
S'GCT'
p4521
tp4522
I57
s(I63
S'GGA'
p4523
tp4524
I19
s(I61
S'AAG'
p4525
tp4526
I1
s(I55
S'TGT'
p4527
tp4528
I30
s(I4
S'CTT'
p4529
tp4530
I43
s(I2
S'GTA'
p4531
tp4532
I1
s(I71
S'GGA'
p4533
tp4534
I4
s(I58
S'GAG'
p4535
tp4536
I44
s(I17
S'CTG'
p4537
tp4538
I10
s(I63
S'GTG'
p4539
tp4540
I20
s(I13
S'TAG'
p4541
tp4542
I1
s(I65
S'CGG'
p4543
tp4544
I4
s(I62
S'CGA'
p4545
tp4546
I12
s(I9
S'TTG'
p4547
tp4548
I21
s(I32
S'AGT'
p4549
tp4550
I25
s(I46
S'AGT'
p4551
tp4552
I5
s(I68
S'AGC'
p4553
tp4554
I81
s(I10
S'TAT'
p4555
tp4556
I2
s(I70
S'AAT'
p4557
tp4558
I4
s(I14
S'AAG'
p4559
tp4560
I18
s(I42
S'TCC'
p4561
tp4562
I7
s(I6
S'CTG'
p4563
tp4564
I71
s(I13
S'ATG'
p4565
tp4566
I1
s(I9
S'GCA'
p4567
tp4568
I240
s(I75
S'GTC'
p4569
tp4570
I2
s(I13
S'TTC'
p4571
tp4572
I4
s(I35
S'CGC'
p4573
tp4574
I15
s(I33
S'CGG'
p4575
tp4576
I2
s(I38
S'TTC'
p4577
tp4578
I90
s(I33
S'CAA'
p4579
tp4580
I6
s(I72
S'TAG'
p4581
tp4582
I82
s(I20
S'CCA'
p4583
tp4584
I220
s(I59
S'AAA'
p4585
tp4586
I1
s(I75
S'GAG'
p4587
tp4588
I11
s(I9
S'ATC'
p4589
tp4590
I681
s(I8
S'ACG'
p4591
tp4592
I20
s(I12
S'GGC'
p4593
tp4594
I5
s(I28
S'AGA'
p4595
tp4596
I15
s(I76
S'CTA'
p4597
tp4598
I10
s(I23
S'ACG'
p4599
tp4600
I12
s(I46
S'CGC'
p4601
tp4602
I297
s(I32
S'CCG'
p4603
tp4604
I48
s(I48
S'GTT'
p4605
tp4606
I1
s(I27
S'TCT'
p4607
tp4608
I3
s(I20
S'TTG'
p4609
tp4610
I32
s(I25
S'TTT'
p4611
tp4612
I99
s(I45
S'GAA'
p4613
tp4614
I32
s(I73
S'AGA'
p4615
tp4616
I52
s(I52
S'TGC'
p4617
tp4618
I3
s(I5
S'TCC'
p4619
tp4620
I2
s(I19
S'GAA'
p4621
tp4622
I81
s(I68
S'GCA'
p4623
tp4624
I74
s(I24
S'CCT'
p4625
tp4626
I65
s(I4
S'TCT'
p4627
tp4628
I1
s(I24
S'TGA'
p4629
tp4630
I2
s(I22
S'AGT'
p4631
tp4632
I20
s(I60
S'AGG'
p4633
tp4634
I31
s(I44
S'AGC'
p4635
tp4636
I130
s(I62
S'CAC'
p4637
tp4638
I34
s(I62
S'TGC'
p4639
tp4640
I152
s(I49
S'TAT'
p4641
tp4642
I26
s(I18
S'TTG'
p4643
tp4644
I35
s(I48
S'GAA'
p4645
tp4646
I13
s(I57
S'GCT'
p4647
tp4648
I34
s(I41
S'TTC'
p4649
tp4650
I184
s(I69
S'ACA'
p4651
tp4652
I74
s(I66
S'AAA'
p4653
tp4654
I5
s(I24
S'GGA'
p4655
tp4656
I18
s(I27
S'ACC'
p4657
tp4658
I125
s(I12
S'TTT'
p4659
tp4660
I10
s(I72
S'GCC'
p4661
tp4662
I109
s(I31
S'AAA'
p4663
tp4664
I15
s(I26
S'GCC'
p4665
tp4666
I9
s(I30
S'TAT'
p4667
tp4668
I95
s(I45
S'TTG'
p4669
tp4670
I899
s(I46
S'TTA'
p4671
tp4672
I70
s(I18
S'CCA'
p4673
tp4674
I30
s(I59
S'TCC'
p4675
tp4676
I912
s(I34
S'TAG'
p4677
tp4678
I1
s(I53
S'AGC'
p4679
tp4680
I12
s(I46
S'ACT'
p4681
tp4682
I81
s(I33
S'GCA'
p4683
tp4684
I1
s(I69
S'GTC'
p4685
tp4686
I192
s(I23
S'CTG'
p4687
tp4688
I35
s(I72
S'GTC'
p4689
tp4690
I1
s(I3
S'TAT'
p4691
tp4692
I4
s(I58
S'TGA'
p4693
tp4694
I14
s(I24
S'CAG'
p4695
tp4696
I1
s(I59
S'TCG'
p4697
tp4698
I8
s(I69
S'AGT'
p4699
tp4700
I4
s(I74
S'GAC'
p4701
tp4702
I1
s(I57
S'TTA'
p4703
tp4704
I28
s(I69
S'CAT'
p4705
tp4706
I307
s(I12
S'CCC'
p4707
tp4708
I82
s(I47
S'GGG'
p4709
tp4710
I34
s(I36
S'ACA'
p4711
tp4712
I17
s(I47
S'AGA'
p4713
tp4714
I24
s(I9
S'TGT'
p4715
tp4716
I1083
s(I55
S'GGG'
p4717
tp4718
I94
s(I31
S'ACT'
p4719
tp4720
I34
s(I63
S'TCC'
p4721
tp4722
I4
s(I16
S'TCT'
p4723
tp4724
I20
s(I10
S'CGC'
p4725
tp4726
I2
s(I26
S'CTC'
p4727
tp4728
I14
s(I19
S'CCG'
p4729
tp4730
I10
s(I5
S'GGG'
p4731
tp4732
I2
s(I46
S'CTG'
p4733
tp4734
I65
s(I40
S'TCC'
p4735
tp4736
I244
s(I21
S'AAC'
p4737
tp4738
I4
s(I17
S'TTC'
p4739
tp4740
I12
s(I45
S'GTG'
p4741
tp4742
I2087
s(I65
S'CCT'
p4743
tp4744
I23
s(I9
S'ACG'
p4745
tp4746
I11
s(I67
S'CGT'
p4747
tp4748
I9
s(I25
S'AGG'
p4749
tp4750
I14
s(I9
S'CTC'
p4751
tp4752
I25
s(I23
S'GGG'
p4753
tp4754
I6
s(I74
S'TCA'
p4755
tp4756
I5
s(I65
S'TGG'
p4757
tp4758
I52
s(I24
S'TAG'
p4759
tp4760
I39
s(I60
S'ACG'
p4761
tp4762
I91
s(I46
S'GAC'
p4763
tp4764
I13043
s(I34
S'GAC'
p4765
tp4766
I14
s(I75
S'AGG'
p4767
tp4768
I7
s(I22
S'TTA'
p4769
tp4770
I11
s(I20
S'ACC'
p4771
tp4772
I4
s(I2
S'ACT'
p4773
tp4774
I4
s(I29
S'AGC'
p4775
tp4776
I94
s(I19
S'GGC'
p4777
tp4778
I4
s(I7
S'CAG'
p4779
tp4780
I52
s(I17
S'CAT'
p4781
tp4782
I28
s(I60
S'CTG'
p4783
tp4784
I6
s(I35
S'CAC'
p4785
tp4786
I17
s(I21
S'GGA'
p4787
tp4788
I28
s(I74
S'AAT'
p4789
tp4790
I1
s(I18
S'AAG'
p4791
tp4792
I2
s(I33
S'TTA'
p4793
tp4794
I8
s(I27
S'ACA'
p4795
tp4796
I52
s(I70
S'CGC'
p4797
tp4798
I5
s(I69
S'GGG'
p4799
tp4800
I470
s(I29
S'ACG'
p4801
tp4802
I68
s(I64
S'GAT'
p4803
tp4804
I396
s(I8
S'CGT'
p4805
tp4806
I1
s(I67
S'AGC'
p4807
tp4808
I243
s(I39
S'TCC'
p4809
tp4810
I2
s(I48
S'ATT'
p4811
tp4812
I10
s(I22
S'TGG'
p4813
tp4814
I18
s(I21
S'TGA'
p4815
tp4816
I3
s(I2
S'GGT'
p4817
tp4818
I2
s(I39
S'ACA'
p4819
tp4820
I1
s(I45
S'CAG'
p4821
tp4822
I8
s(I11
S'GTA'
p4823
tp4824
I7
s(I39
S'GCC'
p4825
tp4826
I2
s(I48
S'TAG'
p4827
tp4828
I14
s(I73
S'ATA'
p4829
tp4830
I2419
s(I64
S'CTG'
p4831
tp4832
I196
s(I32
S'CTC'
p4833
tp4834
I18
s(I39
S'GTT'
p4835
tp4836
I2
s(I23
S'TAG'
p4837
tp4838
I8
s(I32
S'TAG'
p4839
tp4840
I26
s(I10
S'TCT'
p4841
tp4842
I40
s(I34
S'TCA'
p4843
tp4844
I6
s(I52
S'ACA'
p4845
tp4846
I11
s(I76
S'ATA'
p4847
tp4848
I5
s(I8
S'CTT'
p4849
tp4850
I45
s(I41
S'GGC'
p4851
tp4852
I1
s(I57
S'TCG'
p4853
tp4854
I99
s(I60
S'CAT'
p4855
tp4856
I34
s(I27
S'GTA'
p4857
tp4858
I41
s(I6
S'CAC'
p4859
tp4860
I652
s(I41
S'TCA'
p4861
tp4862
I18
s(I52
S'CGA'
p4863
tp4864
I2
s(I66
S'AAT'
p4865
tp4866
I88
s(I63
S'TTG'
p4867
tp4868
I54
s(I69
S'AGA'
p4869
tp4870
I1
s(I39
S'TAT'
p4871
tp4872
I12
s(I51
S'CTG'
p4873
tp4874
I110
s(I37
S'AAC'
p4875
tp4876
I17
s(I28
S'ACT'
p4877
tp4878
I81
s(I18
S'TGC'
p4879
tp4880
I26
s(I29
S'GAT'
p4881
tp4882
I4
s(I70
S'GTC'
p4883
tp4884
I69
s(I11
S'AGT'
p4885
tp4886
I490
s(I18
S'CCT'
p4887
tp4888
I10
s(I20
S'CGA'
p4889
tp4890
I32
s(I72
S'ACA'
p4891
tp4892
I151
s(I22
S'CCA'
p4893
tp4894
I41
s(I72
S'AGT'
p4895
tp4896
I686
s(I76
S'CGA'
p4897
tp4898
I3
s(I21
S'CCA'
p4899
tp4900
I1
s(I72
S'ACT'
p4901
tp4902
I62
s(I62
S'CTT'
p4903
tp4904
I227
s(I67
S'CTT'
p4905
tp4906
I10
s(I66
S'GCC'
p4907
tp4908
I1
s(I43
S'GTC'
p4909
tp4910
I76
s(I28
S'TAA'
p4911
tp4912
I10
s(I36
S'TGG'
p4913
tp4914
I1
s(I70
S'ACA'
p4915
tp4916
I831
s(I16
S'CAA'
p4917
tp4918
I12
s(I16
S'TAG'
p4919
tp4920
I2
s(I71
S'AAG'
p4921
tp4922
I4
s(I35
S'TTC'
p4923
tp4924
I2
s(I44
S'AGA'
p4925
tp4926
I4
s(I7
S'ACC'
p4927
tp4928
I1
s(I20
S'AAC'
p4929
tp4930
I2
s(I36
S'TGA'
p4931
tp4932
I37
s(I59
S'GCT'
p4933
tp4934
I1013
s(I45
S'CGG'
p4935
tp4936
I313
s(I27
S'CAG'
p4937
tp4938
I6
s(I38
S'TCT'
p4939
tp4940
I218
s(I54
S'CAT'
p4941
tp4942
I40
s(I3
S'GAT'
p4943
tp4944
I1
s(I41
S'TAC'
p4945
tp4946
I3
s(I61
S'CCC'
p4947
tp4948
I1
s(I65
S'CCA'
p4949
tp4950
I262
s(I39
S'TTG'
p4951
tp4952
I13
s(I62
S'TTC'
p4953
tp4954
I16
s(I4
S'CAT'
p4955
tp4956
I16
s(I23
S'TAA'
p4957
tp4958
I7
s(I16
S'AGG'
p4959
tp4960
I13
s(I20
S'ACG'
p4961
tp4962
I62
s(I49
S'TCT'
p4963
tp4964
I795
s(I70
S'GGT'
p4965
tp4966
I12
s(I70
S'TCA'
p4967
tp4968
I18
s(I76
S'TGT'
p4969
tp4970
I5
s(I75
S'CAA'
p4971
tp4972
I7
s(I50
S'TTG'
p4973
tp4974
I21
s(I61
S'GTC'
p4975
tp4976
I37
s(I15
S'CCG'
p4977
tp4978
I3
s(I54
S'GAG'
p4979
tp4980
I56
s(I75
S'ATA'
p4981
tp4982
I5
s(I62
S'ACA'
p4983
tp4984
I863
s(I7
S'TTA'
p4985
tp4986
I4
s(I25
S'AAA'
p4987
tp4988
I20
s(I18
S'GAG'
p4989
tp4990
I13
s(I17
S'GCA'
p4991
tp4992
I5
s(I8
S'TAT'
p4993
tp4994
I1
s(I63
S'CCG'
p4995
tp4996
I85
s(I45
S'AAT'
p4997
tp4998
I815
s(I4
S'CTC'
p4999
tp5000
I54
s(I28
S'GGA'
p5001
tp5002
I16
s(I34
S'GTC'
p5003
tp5004
I13
s(I45
S'AGG'
p5005
tp5006
I257
s(I55
S'AGC'
p5007
tp5008
I18
s(I61
S'ACG'
p5009
tp5010
I43
s(I67
S'CGC'
p5011
tp5012
I27
s(I35
S'AGA'
p5013
tp5014
I7
s(I6
S'TTC'
p5015
tp5016
I126
s(I61
S'AAC'
p5017
tp5018
I4
s(I39
S'GCA'
p5019
tp5020
I3
s(I73
S'ATG'
p5021
tp5022
I33
s(I25
S'GAT'
p5023
tp5024
I5
s(I68
S'ATT'
p5025
tp5026
I16
s(I72
S'TTA'
p5027
tp5028
I1
s(I19
S'CGG'
p5029
tp5030
I11
s(I52
S'CTT'
p5031
tp5032
I2
s(I55
S'AAG'
p5033
tp5034
I26
s(I34
S'ACA'
p5035
tp5036
I19
s(I58
S'ATA'
p5037
tp5038
I17
s(I22
S'TAC'
p5039
tp5040
I84
s(I9
S'TGC'
p5041
tp5042
I1991
s(I17
S'TGC'
p5043
tp5044
I34
s(I47
S'TTA'
p5045
tp5046
I7
s(I20
S'GAC'
p5047
tp5048
I70
s(I39
S'GTC'
p5049
tp5050
I1
s(I18
S'AAT'
p5051
tp5052
I9
s(I55
S'TCA'
p5053
tp5054
I130
s(I30
S'TTA'
p5055
tp5056
I84
s(I28
S'CTA'
p5057
tp5058
I86
s(I28
S'GCC'
p5059
tp5060
I17
s(I33
S'CTG'
p5061
tp5062
I3
s(I38
S'ATC'
p5063
tp5064
I6
s(I17
S'AGC'
p5065
tp5066
I1
s(I46
S'ACG'
p5067
tp5068
I541
s(I53
S'GCG'
p5069
tp5070
I11
s(I54
S'ATA'
p5071
tp5072
I20
s(I69
S'GAC'
p5073
tp5074
I35
s(I15
S'CGC'
p5075
tp5076
I4
s(I29
S'GTT'
p5077
tp5078
I35
s(I59
S'AGG'
p5079
tp5080
I1
s(I27
S'CGT'
p5081
tp5082
I49
s(I67
S'TGT'
p5083
tp5084
I30
s(I41
S'ACA'
p5085
tp5086
I88
s(I74
S'TGA'
p5087
tp5088
I2
s(I16
S'AAG'
p5089
tp5090
I34
s(I12
S'TAG'
p5091
tp5092
I7
s(I27
S'TGA'
p5093
tp5094
I18
s(I42
S'TTT'
p5095
tp5096
I22
s(I33
S'TGA'
p5097
tp5098
I16
s(I5
S'TTC'
p5099
tp5100
I191
s(I11
S'AGA'
p5101
tp5102
I3
s(I6
S'GGC'
p5103
tp5104
I2323
s(I72
S'CTA'
p5105
tp5106
I41
s(I52
S'TAT'
p5107
tp5108
I15
s(I17
S'CGG'
p5109
tp5110
I3
s(I45
S'TAA'
p5111
tp5112
I8
s(I21
S'CTA'
p5113
tp5114
I7
s(I28
S'GAC'
p5115
tp5116
I209
s(I55
S'GGA'
p5117
tp5118
I8
s(I19
S'TGA'
p5119
tp5120
I27
s(I69
S'AAC'
p5121
tp5122
I60
s(I53
S'AAG'
p5123
tp5124
I41
s(I53
S'CGA'
p5125
tp5126
I24
s(I33
S'GGG'
p5127
tp5128
I1
s(I55
S'TAA'
p5129
tp5130
I1
s(I28
S'CGG'
p5131
tp5132
I36
s(I16
S'CAT'
p5133
tp5134
I6
s(I67
S'ACT'
p5135
tp5136
I2327
s(I29
S'TGT'
p5137
tp5138
I43
s(I48
S'TGT'
p5139
tp5140
I28
s(I65
S'TCG'
p5141
tp5142
I3
s(I36
S'GTG'
p5143
tp5144
I70
s(I61
S'TAC'
p5145
tp5146
I3
s(I16
S'GCT'
p5147
tp5148
I81
s(I19
S'GCA'
p5149
tp5150
I11
s(I19
S'TTG'
p5151
tp5152
I9
s(I69
S'TCC'
p5153
tp5154
I285
s(I45
S'GCA'
p5155
tp5156
I2481
s(I48
S'GCG'
p5157
tp5158
I8
s(I44
S'GAC'
p5159
tp5160
I10
s(I52
S'GAG'
p5161
tp5162
I38
s(I73
S'GCC'
p5163
tp5164
I9
s(I33
S'ACG'
p5165
tp5166
I5
s(I57
S'ATA'
p5167
tp5168
I20
s(I74
S'TAA'
p5169
tp5170
I28
s(I67
S'CCT'
p5171
tp5172
I5
s(I16
S'TGG'
p5173
tp5174
I11
s(I40
S'AAT'
p5175
tp5176
I375
s(I60
S'ATA'
p5177
tp5178
I33
s(I41
S'TGA'
p5179
tp5180
I10
s(I48
S'GTG'
p5181
tp5182
I12
s(I50
S'GAC'
p5183
tp5184
I2
s(I45
S'GGC'
p5185
tp5186
I2431
s(I7
S'CTA'
p5187
tp5188
I1
s(I37
S'GCA'
p5189
tp5190
I180
s(I26
S'ACT'
p5191
tp5192
I65
s(I60
S'CCA'
p5193
tp5194
I238
s(I19
S'AAA'
p5195
tp5196
I333
s(I71
S'ATC'
p5197
tp5198
I3
s(I48
S'CTC'
p5199
tp5200
I30
s(I50
S'ATT'
p5201
tp5202
I29
s(I74
S'ACT'
p5203
tp5204
I1
s(I2
S'TGT'
p5205
tp5206
I6
s(I63
S'TGG'
p5207
tp5208
I93
s(I72
S'TTT'
p5209
tp5210
I159
s(I61
S'CTG'
p5211
tp5212
I167
s(I18
S'TCG'
p5213
tp5214
I114
s(I24
S'AGC'
p5215
tp5216
I15
s(I27
S'ATA'
p5217
tp5218
I39
s(I32
S'TGA'
p5219
tp5220
I14
s(I16
S'AAA'
p5221
tp5222
I19
s(I25
S'CAA'
p5223
tp5224
I100
s(I74
S'GAG'
p5225
tp5226
I26
s(I36
S'AGC'
p5227
tp5228
I24
s(I36
S'CCT'
p5229
tp5230
I85
s(I7
S'TCA'
p5231
tp5232
I4
s(I71
S'TGT'
p5233
tp5234
I3
s(I76
S'GTC'
p5235
tp5236
I12
s(I50
S'CTC'
p5237
tp5238
I42
s(I21
S'CGG'
p5239
tp5240
I2
s(I5
S'ACG'
p5241
tp5242
I22
s(I42
S'CCC'
p5243
tp5244
I2
s(I55
S'AGT'
p5245
tp5246
I6
s(I71
S'TTT'
p5247
tp5248
I23
s(I34
S'AAA'
p5249
tp5250
I3
s(I72
S'GGC'
p5251
tp5252
I551
s(I52
S'TCA'
p5253
tp5254
I2
s(I13
S'CAT'
p5255
tp5256
I40
s(I23
S'CCC'
p5257
tp5258
I38
s(I33
S'TGC'
p5259
tp5260
I175
s(I5
S'CGG'
p5261
tp5262
I2
s(I37
S'GTT'
p5263
tp5264
I233
s(I24
S'ACA'
p5265
tp5266
I5
s(I37
S'TAG'
p5267
tp5268
I3
s(I39
S'CTC'
p5269
tp5270
I2
s(I24
S'ATT'
p5271
tp5272
I7
s(I44
S'CTA'
p5273
tp5274
I324
s(I76
S'ACA'
p5275
tp5276
I1
s(I65
S'TTC'
p5277
tp5278
I36
s(I36
S'CCA'
p5279
tp5280
I33
s(I40
S'ACT'
p5281
tp5282
I33
s(I23
S'CAG'
p5283
tp5284
I6
s(I32
S'TCC'
p5285
tp5286
I56
s(I18
S'AGA'
p5287
tp5288
I24
s(I46
S'CAC'
p5289
tp5290
I2124
s(I51
S'CAC'
p5291
tp5292
I14
s(I46
S'GGT'
p5293
tp5294
I124
s(I8
S'AGG'
p5295
tp5296
I3
s(I37
S'TAT'
p5297
tp5298
I6
s(I54
S'GGT'
p5299
tp5300
I38
s(I60
S'TGT'
p5301
tp5302
I1
s(I45
S'TAT'
p5303
tp5304
I86
s(I31
S'GGT'
p5305
tp5306
I58
s(I29
S'TAA'
p5307
tp5308
I19
s(I51
S'CGA'
p5309
tp5310
I1
s(I41
S'GTC'
p5311
tp5312
I36
s(I63
S'GCC'
p5313
tp5314
I120
s(I60
S'CGC'
p5315
tp5316
I18
s(I8
S'ACC'
p5317
tp5318
I3
s(I29
S'CAG'
p5319
tp5320
I10
s(I73
S'GAC'
p5321
tp5322
I1
s(I46
S'TGT'
p5323
tp5324
I187
s(I47
S'CCA'
p5325
tp5326
I8
s(I32
S'AAC'
p5327
tp5328
I5
s(I60
S'AGA'
p5329
tp5330
I139
s(I39
S'GGC'
p5331
tp5332
I1
s(I31
S'TGC'
p5333
tp5334
I13
s(I57
S'GAC'
p5335
tp5336
I11
s(I25
S'ACT'
p5337
tp5338
I4
s(I29
S'TGC'
p5339
tp5340
I21
s(I61
S'CAG'
p5341
tp5342
I1
s(I51
S'GTA'
p5343
tp5344
I85
s(I2
S'TCC'
p5345
tp5346
I4
s(I66
S'CAG'
p5347
tp5348
I12
s(I7
S'GGT'
p5349
tp5350
I1510
s(I71
S'CCC'
p5351
tp5352
I6
s(I30
S'GTA'
p5353
tp5354
I21
s(I56
S'ACG'
p5355
tp5356
I8
s(I27
S'TTA'
p5357
tp5358
I180
s(I35
S'TAT'
p5359
tp5360
I6
s(I56
S'GCC'
p5361
tp5362
I1
s(I70
S'AAG'
p5363
tp5364
I16
s(I39
S'TGC'
p5365
tp5366
I2
s(I25
S'TGG'
p5367
tp5368
I69
s(I21
S'AGC'
p5369
tp5370
I51
s(I14
S'ACT'
p5371
tp5372
I67
s(I58
S'ACA'
p5373
tp5374
I61
s(I10
S'GCC'
p5375
tp5376
I5
s(I44
S'AAG'
p5377
tp5378
I17
s(I66
S'GCG'
p5379
tp5380
I1
s(I67
S'ACC'
p5381
tp5382
I15
s(I67
S'TCT'
p5383
tp5384
I374
s(I62
S'ACT'
p5385
tp5386
I422
s(I15
S'GTA'
p5387
tp5388
I17
s(I41
S'TTA'
p5389
tp5390
I56
s(I37
S'GGT'
p5391
tp5392
I8
s(I15
S'AGA'
p5393
tp5394
I1
s(I25
S'GTG'
p5395
tp5396
I1
s(I51
S'GGA'
p5397
tp5398
I5
s(I75
S'CTG'
p5399
tp5400
I14
s(I6
S'ATC'
p5401
tp5402
I236
s(I65
S'AAG'
p5403
tp5404
I29
s(I45
S'GGT'
p5405
tp5406
I523
s(I27
S'AGT'
p5407
tp5408
I57
s(I15
S'GCA'
p5409
tp5410
I56
s(I46
S'CAT'
p5411
tp5412
I540
s(I19
S'TTC'
p5413
tp5414
I8
s(I13
S'GTG'
p5415
tp5416
I65
s(I33
S'CCT'
p5417
tp5418
I56
s(I52
S'GCA'
p5419
tp5420
I10
s(I74
S'ACC'
p5421
tp5422
I1
s(I37
S'CAG'
p5423
tp5424
I91
s(I69
S'GCC'
p5425
tp5426
I89
s(I42
S'CAG'
p5427
tp5428
I25
s(I9
S'CAA'
p5429
tp5430
I1903
s(I72
S'CGG'
p5431
tp5432
I8
s(I65
S'CAC'
p5433
tp5434
I31
s(I29
S'GTG'
p5435
tp5436
I38
s(I66
S'GAC'
p5437
tp5438
I423
s(I21
S'GCA'
p5439
tp5440
I48
s(I43
S'AGG'
p5441
tp5442
I2
s(I42
S'TTA'
p5443
tp5444
I6
s(I38
S'CTT'
p5445
tp5446
I48
s(I39
S'CCC'
p5447
tp5448
I2
s(I7
S'TCT'
p5449
tp5450
I112
s(I16
S'GAT'
p5451
tp5452
I11
s(I45
S'CTT'
p5453
tp5454
I42
s(I18
S'ACT'
p5455
tp5456
I40
s(I43
S'CTT'
p5457
tp5458
I9
s(I32
S'GCA'
p5459
tp5460
I16
s(I29
S'ATT'
p5461
tp5462
I155
s(I32
S'CAT'
p5463
tp5464
I18
s(I46
S'CCC'
p5465
tp5466
I5
s(I8
S'ATG'
p5467
tp5468
I6
s(I57
S'GGT'
p5469
tp5470
I19
s(I7
S'ATG'
p5471
tp5472
I8
s(I61
S'GCT'
p5473
tp5474
I17
s(I43
S'TGA'
p5475
tp5476
I11
s(I41
S'GCC'
p5477
tp5478
I158
s(I39
S'GAA'
p5479
tp5480
I5
s(I24
S'ACT'
p5481
tp5482
I4
s(I52
S'AGG'
p5483
tp5484
I5
s(I3
S'AGT'
p5485
tp5486
I3
s(I54
S'TGG'
p5487
tp5488
I54
s(I34
S'CCG'
p5489
tp5490
I37
s(I64
S'AGT'
p5491
tp5492
I2040
s(I64
S'GCA'
p5493
tp5494
I2016
s(I24
S'CGT'
p5495
tp5496
I6
s(I17
S'GAA'
p5497
tp5498
I6
s(I11
S'CCT'
p5499
tp5500
I785
s(I4
S'TGC'
p5501
tp5502
I3
s(I17
S'ATG'
p5503
tp5504
I61
s(I72
S'CCT'
p5505
tp5506
I66
s(I60
S'AAA'
p5507
tp5508
I232
s(I33
S'AGC'
p5509
tp5510
I5
s(I57
S'CAT'
p5511
tp5512
I11
s(I3
S'CAA'
p5513
tp5514
I11
s(I74
S'GCA'
p5515
tp5516
I1
s(I60
S'TGA'
p5517
tp5518
I10
s(I41
S'ATA'
p5519
tp5520
I15
s(I64
S'GTA'
p5521
tp5522
I430
s(I6
S'GAC'
p5523
tp5524
I91
s(I23
S'ACT'
p5525
tp5526
I35
s(I2
S'ACG'
p5527
tp5528
I3
s(I39
S'AGC'
p5529
tp5530
I12
s(I38
S'GCC'
p5531
tp5532
I4
s(I70
S'CCG'
p5533
tp5534
I4
s(I64
S'AAA'
p5535
tp5536
I19
s(I12
S'TCC'
p5537
tp5538
I4
s(I52
S'TGA'
p5539
tp5540
I23
s(I54
S'ACC'
p5541
tp5542
I51
s(I3
S'CGG'
p5543
tp5544
I1
s(I41
S'TCG'
p5545
tp5546
I12
s(I21
S'TCG'
p5547
tp5548
I95
s(I38
S'GGG'
p5549
tp5550
I241
s(I49
S'CGC'
p5551
tp5552
I3
s(I25
S'GCG'
p5553
tp5554
I29
s(I63
S'AAC'
p5555
tp5556
I126
s(I28
S'AGG'
p5557
tp5558
I5
s(I49
S'GCC'
p5559
tp5560
I784
s(I58
S'GAA'
p5561
tp5562
I46
s(I8
S'GGT'
p5563
tp5564
I4
s(I20
S'TTT'
p5565
tp5566
I6
s(I48
S'CTT'
p5567
tp5568
I1
s(I51
S'CCC'
p5569
tp5570
I58
s(I54
S'GTC'
p5571
tp5572
I6
s(I23
S'TCA'
p5573
tp5574
I34
s(I38
S'AAC'
p5575
tp5576
I49
s(I35
S'CTT'
p5577
tp5578
I21
s(I24
S'TGT'
p5579
tp5580
I12
s(I22
S'GGC'
p5581
tp5582
I114
s(I22
S'AGA'
p5583
tp5584
I9
s(I24
S'TTC'
p5585
tp5586
I2
s(I58
S'TAT'
p5587
tp5588
I30
s(I66
S'CCG'
p5589
tp5590
I1123
s(I68
S'TTT'
p5591
tp5592
I4
s(I37
S'AGG'
p5593
tp5594
I73
s(I38
S'TTT'
p5595
tp5596
I14
s(I68
S'TGA'
p5597
tp5598
I1
s(I16
S'TGT'
p5599
tp5600
I15
s(I43
S'TAC'
p5601
tp5602
I22
s(I7
S'GAG'
p5603
tp5604
I226
s(I72
S'GCT'
p5605
tp5606
I390
s(I49
S'GGT'
p5607
tp5608
I1127
s(I19
S'TAT'
p5609
tp5610
I62
s(I49
S'CAC'
p5611
tp5612
I143
s(I47
S'CGA'
p5613
tp5614
I2
s(I33
S'CCA'
p5615
tp5616
I23
s(I72
S'CAG'
p5617
tp5618
I11
s(I44
S'CGT'
p5619
tp5620
I2
s(I22
S'CGC'
p5621
tp5622
I18
s(I44
S'GAT'
p5623
tp5624
I1
s(I8
S'CCG'
p5625
tp5626
I7
s(I22
S'TAA'
p5627
tp5628
I10
s(I73
S'CTT'
p5629
tp5630
I15
s(I41
S'GAG'
p5631
tp5632
I23
s(I45
S'ACA'
p5633
tp5634
I2252
s(I47
S'TAC'
p5635
tp5636
I5
s(I74
S'TGC'
p5637
tp5638
I1
s(I61
S'ATG'
p5639
tp5640
I433
s(I43
S'GCC'
p5641
tp5642
I3
s(I65
S'AGA'
p5643
tp5644
I1
s(I55
S'TAC'
p5645
tp5646
I134
s(I3
S'TAA'
p5647
tp5648
I12
s(I19
S'GAG'
p5649
tp5650
I39
s(I59
S'TCT'
p5651
tp5652
I31
s(I31
S'TCT'
p5653
tp5654
I111
s(I57
S'TTT'
p5655
tp5656
I37
s(I31
S'ATC'
p5657
tp5658
I188
s(I53
S'TAG'
p5659
tp5660
I18
s(I13
S'TCT'
p5661
tp5662
I6
s(I8
S'TTA'
p5663
tp5664
I1
s(I9
S'AGC'
p5665
tp5666
I98
s(I46
S'CTT'
p5667
tp5668
I14
s(I18
S'ACC'
p5669
tp5670
I31
s(I57
S'GTT'
p5671
tp5672
I44
s(I32
S'GCT'
p5673
tp5674
I5
s(I71
S'AAC'
p5675
tp5676
I2
s(I3
S'TGC'
p5677
tp5678
I2
s(I31
S'CCG'
p5679
tp5680
I4
s(I21
S'ACA'
p5681
tp5682
I4
s(I10
S'ACC'
p5683
tp5684
I1
s(I13
S'AGG'
p5685
tp5686
I159
s(I74
S'TGT'
p5687
tp5688
I2
s(I45
S'GTT'
p5689
tp5690
I316
s(I21
S'TTC'
p5691
tp5692
I20
s(I26
S'TTA'
p5693
tp5694
I308
s(I19
S'ATT'
p5695
tp5696
I2
s(I32
S'CGA'
p5697
tp5698
I120
s(I64
S'GCT'
p5699
tp5700
I417
s(I19
S'TAG'
p5701
tp5702
I1
s(I56
S'AAT'
p5703
tp5704
I1
s(I44
S'GTG'
p5705
tp5706
I3
s(I58
S'GGC'
p5707
tp5708
I32
s(I34
S'GAT'
p5709
tp5710
I83
s(I27
S'TAG'
p5711
tp5712
I23
s(I37
S'CTG'
p5713
tp5714
I131
s(I42
S'CTA'
p5715
tp5716
I19
s(I66
S'GGC'
p5717
tp5718
I4
s(I64
S'CGC'
p5719
tp5720
I92
s(I2
S'ACA'
p5721
tp5722
I1
s(I8
S'CAT'
p5723
tp5724
I4
s(I50
S'CAG'
p5725
tp5726
I1
s(I28
S'TTG'
p5727
tp5728
I35
s(I9
S'TGA'
p5729
tp5730
I1
s(I20
S'CCG'
p5731
tp5732
I26
s(I47
S'GGA'
p5733
tp5734
I5
s(I21
S'GGT'
p5735
tp5736
I49
s(I39
S'AAC'
p5737
tp5738
I1
s(I36
S'ACG'
p5739
tp5740
I1540
s(I40
S'TAA'
p5741
tp5742
I12
s(I7
S'ATT'
p5743
tp5744
I144
s(I33
S'TTT'
p5745
tp5746
I7
s(I53
S'GAA'
p5747
tp5748
I23
s(I34
S'GCA'
p5749
tp5750
I3
s(I32
S'CGC'
p5751
tp5752
I64
s(I12
S'TCT'
p5753
tp5754
I4
s(I66
S'CCT'
p5755
tp5756
I11
s(I37
S'GCG'
p5757
tp5758
I1
s(I63
S'ACT'
p5759
tp5760
I54
s(I3
S'GAG'
p5761
tp5762
I6
s(I61
S'CTA'
p5763
tp5764
I5
s(I10
S'GCG'
p5765
tp5766
I1
s(I47
S'TTT'
p5767
tp5768
I2
s(I23
S'GGA'
p5769
tp5770
I17
s(I49
S'TTC'
p5771
tp5772
I36
s(I22
S'GCT'
p5773
tp5774
I19
s(I22
S'TCC'
p5775
tp5776
I35
s(I6
S'TGC'
p5777
tp5778
I413
s(I54
S'GTT'
p5779
tp5780
I37
s(I56
S'TAG'
p5781
tp5782
I30
s(I44
S'GAA'
p5783
tp5784
I2
s(I24
S'CCC'
p5785
tp5786
I126
s(I76
S'TCG'
p5787
tp5788
I3
s(I64
S'TAG'
p5789
tp5790
I1
s(I55
S'CTC'
p5791
tp5792
I52
s(I10
S'TCG'
p5793
tp5794
I35
s(I34
S'TCT'
p5795
tp5796
I4
s(I60
S'CTA'
p5797
tp5798
I21
s(I67
S'GGG'
p5799
tp5800
I30
s(I54
S'GCC'
p5801
tp5802
I5
s(I55
S'GGT'
p5803
tp5804
I56
s(I67
S'ATA'
p5805
tp5806
I79
s(I66
S'ATC'
p5807
tp5808
I86
s(I71
S'GCC'
p5809
tp5810
I2
s(I57
S'TGC'
p5811
tp5812
I20
s(I61
S'GGA'
p5813
tp5814
I12
s(I61
S'TCT'
p5815
tp5816
I7
s(I4
S'ACT'
p5817
tp5818
I1
s(I40
S'GGA'
p5819
tp5820
I465
s(I22
S'TGA'
p5821
tp5822
I3
s(I72
S'GAA'
p5823
tp5824
I19
s(I8
S'TGA'
p5825
tp5826
I22
s(I51
S'TCG'
p5827
tp5828
I15
s(I9
S'AAT'
p5829
tp5830
I899
s(I44
S'CGC'
p5831
tp5832
I5
s(I28
S'GTG'
p5833
tp5834
I94
s(I67
S'GGT'
p5835
tp5836
I694
s(I15
S'ATT'
p5837
tp5838
I143
s(I25
S'TTC'
p5839
tp5840
I3
s(I62
S'CTC'
p5841
tp5842
I430
s(I60
S'GGC'
p5843
tp5844
I15
s(I29
S'GCA'
p5845
tp5846
I63
s(I67
S'CTA'
p5847
tp5848
I34
s(I55
S'CGG'
p5849
tp5850
I10
s(I13
S'ACT'
p5851
tp5852
I1
s(I43
S'GTT'
p5853
tp5854
I1
s(I68
S'GAG'
p5855
tp5856
I1
s(I52
S'ACG'
p5857
tp5858
I19
s(I31
S'TCA'
p5859
tp5860
I33
s(I8
S'TTT'
p5861
tp5862
I28
s(I42
S'AAA'
p5863
tp5864
I2
s(I54
S'TCG'
p5865
tp5866
I60
s(I58
S'AAC'
p5867
tp5868
I6
s(I12
S'TTA'
p5869
tp5870
I4
s(I56
S'TGA'
p5871
tp5872
I1
s(I18
S'TTT'
p5873
tp5874
I73
s(I48
S'CCC'
p5875
tp5876
I1
s(I49
S'GTG'
p5877
tp5878
I4
s(I40
S'CTA'
p5879
tp5880
I642
s(I64
S'GGG'
p5881
tp5882
I51
s(I59
S'GCG'
p5883
tp5884
I139
s(I72
S'TAT'
p5885
tp5886
I7
s(I9
S'CGC'
p5887
tp5888
I13
s(I23
S'CGG'
p5889
tp5890
I1
s(I10
S'AGA'
p5891
tp5892
I13
s(I3
S'GAC'
p5893
tp5894
I1
s(I42
S'ACT'
p5895
tp5896
I15
s(I53
S'TCT'
p5897
tp5898
I14
s(I44
S'TAC'
p5899
tp5900
I1
s(I30
S'GGG'
p5901
tp5902
I45
s(I17
S'AAT'
p5903
tp5904
I158
s(I10
S'AAG'
p5905
tp5906
I51
s(I76
S'GCT'
p5907
tp5908
I1
s(I26
S'GCT'
p5909
tp5910
I7
s(I25
S'GAA'
p5911
tp5912
I16
s(I62
S'GCA'
p5913
tp5914
I257
s(I20
S'TTA'
p5915
tp5916
I2
s(I51
S'TTA'
p5917
tp5918
I48
s(I22
S'CCG'
p5919
tp5920
I9
s(I57
S'AAC'
p5921
tp5922
I28
s(I27
S'AAT'
p5923
tp5924
I1
s(I9
S'GAA'
p5925
tp5926
I26
s(I40
S'ATT'
p5927
tp5928
I29
s(I22
S'AAC'
p5929
tp5930
I21
s(I19
S'ACC'
p5931
tp5932
I22
s(I67
S'CTC'
p5933
tp5934
I8
s(I31
S'GCT'
p5935
tp5936
I1
s(I13
S'CTA'
p5937
tp5938
I32
s(I18
S'CTC'
p5939
tp5940
I16
s(I72
S'CTC'
p5941
tp5942
I35
s(I75
S'TAC'
p5943
tp5944
I11
s(I53
S'CAG'
p5945
tp5946
I5
s(I9
S'TTT'
p5947
tp5948
I91
s(I72
S'TGG'
p5949
tp5950
I25
s(I58
S'CAG'
p5951
tp5952
I23
s(I60
S'GTC'
p5953
tp5954
I137
s(I71
S'AAA'
p5955
tp5956
I1
s(I17
S'GCT'
p5957
tp5958
I8
s(I8
S'TAG'
p5959
tp5960
I22
s(I20
S'GCG'
p5961
tp5962
I85
s(I31
S'GTT'
p5963
tp5964
I131
s(I68
S'TCA'
p5965
tp5966
I209
s(I66
S'TTA'
p5967
tp5968
I623
s(I4
S'CCA'
p5969
tp5970
I2
s(I40
S'ATA'
p5971
tp5972
I22
s(I10
S'AGG'
p5973
tp5974
I11
s(I65
S'CCG'
p5975
tp5976
I1450
s(I14
S'TCG'
p5977
tp5978
I11
s(I14
S'CAC'
p5979
tp5980
I1
s(I11
S'GGC'
p5981
tp5982
I24
s(I42
S'AGC'
p5983
tp5984
I3
s(I63
S'AGC'
p5985
tp5986
I78
s(I36
S'GGC'
p5987
tp5988
I2
s(I58
S'AAT'
p5989
tp5990
I12
s(I13
S'GGA'
p5991
tp5992
I6
s(I21
S'TGC'
p5993
tp5994
I16
s(I61
S'TCC'
p5995
tp5996
I1
s(I69
S'CCC'
p5997
tp5998
I6
s(I20
S'ACT'
p5999
tp6000
I45
s(I60
S'GAA'
p6001
tp6002
I34
s(I25
S'TCA'
p6003
tp6004
I8
s(I42
S'GTC'
p6005
tp6006
I56
s(I19
S'AGT'
p6007
tp6008
I53
s(I15
S'CCA'
p6009
tp6010
I8
s(I40
S'GGT'
p6011
tp6012
I633
s(I51
S'ACA'
p6013
tp6014
I15
s(I75
S'ATG'
p6015
tp6016
I5
s(I25
S'AAG'
p6017
tp6018
I5
s(I68
S'CCT'
p6019
tp6020
I8
s(I9
S'GTG'
p6021
tp6022
I200
s(I63
S'CCA'
p6023
tp6024
I111
s(I27
S'CCG'
p6025
tp6026
I7
s(I27
S'CGG'
p6027
tp6028
I25
s(I45
S'AGA'
p6029
tp6030
I401
s(I19
S'CAA'
p6031
tp6032
I5
s(I24
S'CAA'
p6033
tp6034
I14
s(I75
S'GGC'
p6035
tp6036
I12
s(I14
S'GCG'
p6037
tp6038
I6
s(I37
S'TTA'
p6039
tp6040
I60
s(I62
S'TCT'
p6041
tp6042
I77
s(I35
S'ATA'
p6043
tp6044
I86
s(I9
S'AAA'
p6045
tp6046
I5
s(I71
S'TGC'
p6047
tp6048
I284
s(I38
S'GTG'
p6049
tp6050
I7
s(I69
S'TAG'
p6051
tp6052
I4
s(I25
S'GGC'
p6053
tp6054
I2
s(I51
S'GCT'
p6055
tp6056
I2
s(I19
S'CGA'
p6057
tp6058
I45
s(I45
S'ATG'
p6059
tp6060
I793
s(I27
S'TGC'
p6061
tp6062
I13
s(I35
S'ACC'
p6063
tp6064
I176
s(I30
S'ACT'
p6065
tp6066
I6
s(I58
S'CCA'
p6067
tp6068
I5
s(I42
S'GAC'
p6069
tp6070
I12
s(I47
S'TTG'
p6071
tp6072
I12
s(I51
S'TGG'
p6073
tp6074
I2
s(I50
S'GCG'
p6075
tp6076
I13
s(I14
S'GGA'
p6077
tp6078
I17
s(I48
S'TTG'
p6079
tp6080
I3
s(I68
S'GTA'
p6081
tp6082
I28
s(I43
S'CTG'
p6083
tp6084
I24
s(I2
S'TGC'
p6085
tp6086
I2
s(I55
S'TCG'
p6087
tp6088
I44
s(I60
S'TCC'
p6089
tp6090
I154
s(I65
S'GAG'
p6091
tp6092
I10
s(I12
S'TGC'
p6093
tp6094
I1
s(I68
S'TTC'
p6095
tp6096
I8
s(I42
S'ACC'
p6097
tp6098
I5
s(I3
S'CCG'
p6099
tp6100
I9
s(I26
S'ACA'
p6101
tp6102
I36
s(I17
S'AAA'
p6103
tp6104
I1
s(I64
S'CCA'
p6105
tp6106
I6
s(I29
S'GAC'
p6107
tp6108
I1
s(I38
S'ATT'
p6109
tp6110
I6
s(I69
S'ATC'
p6111
tp6112
I32
s(I42
S'CGC'
p6113
tp6114
I60
s(I51
S'TGA'
p6115
tp6116
I12
s(I26
S'GTC'
p6117
tp6118
I19
s(I52
S'GAT'
p6119
tp6120
I69
s(I7
S'CCC'
p6121
tp6122
I2
s(I38
S'AAA'
p6123
tp6124
I59
s(I31
S'ACA'
p6125
tp6126
I14
s(I55
S'ATG'
p6127
tp6128
I14
s(I19
S'ACT'
p6129
tp6130
I8
s(I37
S'GTC'
p6131
tp6132
I145
s(I31
S'GCA'
p6133
tp6134
I16
s(I65
S'ATG'
p6135
tp6136
I114
s(I13
S'CTT'
p6137
tp6138
I39
s(I25
S'TAC'
p6139
tp6140
I65
s(I53
S'CGG'
p6141
tp6142
I11
s(I18
S'CTT'
p6143
tp6144
I56
s(I57
S'TGA'
p6145
tp6146
I20
s(I17
S'GAT'
p6147
tp6148
I4
s(I76
S'AGA'
p6149
tp6150
I1
s(I29
S'CGA'
p6151
tp6152
I8
s(I14
S'CCC'
p6153
tp6154
I1
s(I62
S'TAC'
p6155
tp6156
I42
s(I6
S'CGC'
p6157
tp6158
I49
s(I31
S'ACC'
p6159
tp6160
I2
s(I56
S'GAG'
p6161
tp6162
I1
s(I39
S'ATT'
p6163
tp6164
I2
s(I62
S'CCC'
p6165
tp6166
I86
s(I42
S'GCA'
p6167
tp6168
I509
s(I33
S'TAT'
p6169
tp6170
I28
s(I55
S'GAA'
p6171
tp6172
I62
s(I59
S'GTA'
p6173
tp6174
I5
s(I4
S'CCT'
p6175
tp6176
I3
s(I15
S'CTC'
p6177
tp6178
I66
s(I44
S'TTC'
p6179
tp6180
I23
s(I40
S'CCT'
p6181
tp6182
I7
s(I32
S'TGT'
p6183
tp6184
I109
s(I54
S'CCT'
p6185
tp6186
I186
s(I48
S'GCA'
p6187
tp6188
I15
s(I67
S'TTG'
p6189
tp6190
I17
s(I25
S'CAT'
p6191
tp6192
I38
s(I56
S'CTT'
p6193
tp6194
I7
s(I27
S'GGC'
p6195
tp6196
I2
s(I33
S'ACA'
p6197
tp6198
I11
s(I29
S'AAT'
p6199
tp6200
I29
s(I55
S'CGT'
p6201
tp6202
I108
s(I57
S'CCC'
p6203
tp6204
I255
s(I8
S'AAG'
p6205
tp6206
I6
s(I63
S'GTA'
p6207
tp6208
I28
s(I50
S'TTT'
p6209
tp6210
I5
s(I20
S'ATG'
p6211
tp6212
I5
s(I61
S'GTT'
p6213
tp6214
I61
s(I72
S'GAC'
p6215
tp6216
I10
s(I42
S'TGA'
p6217
tp6218
I10
s(I35
S'GAT'
p6219
tp6220
I26
s(I75
S'GCA'
p6221
tp6222
I1
s(I13
S'CAG'
p6223
tp6224
I44
s(I66
S'GCA'
p6225
tp6226
I36
s(I18
S'CAG'
p6227
tp6228
I34
s(I36
S'CAC'
p6229
tp6230
I6
s(I52
S'ATT'
p6231
tp6232
I43
s(I41
S'CAC'
p6233
tp6234
I1
s(I18
S'GAT'
p6235
tp6236
I28
s(I64
S'CAG'
p6237
tp6238
I153
s(I16
S'GGT'
p6239
tp6240
I1
s(I58
S'CTA'
p6241
tp6242
I9
s(I22
S'GCC'
p6243
tp6244
I15
s(I45
S'AAG'
p6245
tp6246
I42
s(I49
S'GCT'
p6247
tp6248
I606
s(I7
S'GCG'
p6249
tp6250
I5
s(I5
S'TAG'
p6251
tp6252
I16
s(I6
S'GAT'
p6253
tp6254
I192
s(I47
S'GTG'
p6255
tp6256
I17
s(I57
S'AGA'
p6257
tp6258
I1
s(I14
S'GTG'
p6259
tp6260
I1
s(I8
S'GCG'
p6261
tp6262
I1
s(I12
S'ACT'
p6263
tp6264
I4
s(I68
S'ATG'
p6265
tp6266
I334
s(I73
S'TCG'
p6267
tp6268
I1
s(I33
S'GCC'
p6269
tp6270
I1
s(I55
S'TTC'
p6271
tp6272
I27
s(I52
S'CTC'
p6273
tp6274
I1
s(I74
S'GAA'
p6275
tp6276
I23
s(I16
S'CGC'
p6277
tp6278
I22
s(I31
S'GGG'
p6279
tp6280
I99
s(I52
S'GTT'
p6281
tp6282
I3
s(I34
S'CCA'
p6283
tp6284
I17
s(I51
S'GTG'
p6285
tp6286
I11
s(I52
S'GTA'
p6287
tp6288
I6
s(I11
S'GCA'
p6289
tp6290
I1227
s(I4
S'TGG'
p6291
tp6292
I4
s(I6
S'ACA'
p6293
tp6294
I34
s(I64
S'ATC'
p6295
tp6296
I428
s(I40
S'GCG'
p6297
tp6298
I15
s(I65
S'ACC'
p6299
tp6300
I56
s(I9
S'CTT'
p6301
tp6302
I111
s(I65
S'GCC'
p6303
tp6304
I6
s(I45
S'GCG'
p6305
tp6306
I3014
s(I76
S'CGG'
p6307
tp6308
I3
s(I30
S'GCT'
p6309
tp6310
I29
s(I27
S'GTG'
p6311
tp6312
I30
s(I55
S'AGG'
p6313
tp6314
I9
s(I17
S'GGT'
p6315
tp6316
I197
s(I7
S'GGG'
p6317
tp6318
I4156
s(I50
S'AGG'
p6319
tp6320
I1
s(I17
S'CAC'
p6321
tp6322
I32
s(I75
S'GTA'
p6323
tp6324
I3
s(I25
S'CGG'
p6325
tp6326
I1
s(I69
S'AGG'
p6327
tp6328
I2
s(I67
S'GCG'
p6329
tp6330
I144
s(I40
S'CAG'
p6331
tp6332
I33
s(I65
S'GTA'
p6333
tp6334
I3
s(I19
S'CTA'
p6335
tp6336
I6
s(I48
S'TGC'
p6337
tp6338
I10
s(I24
S'CTG'
p6339
tp6340
I51
s(I20
S'CTA'
p6341
tp6342
I28
s(I13
S'ACA'
p6343
tp6344
I16
s(I37
S'ATC'
p6345
tp6346
I92
s(I3
S'GGC'
p6347
tp6348
I1
s(I6
S'GGT'
p6349
tp6350
I1147
s(I14
S'AGA'
p6351
tp6352
I2
s(I42
S'TAG'
p6353
tp6354
I2
s(I70
S'GCA'
p6355
tp6356
I584
s(I19
S'CTC'
p6357
tp6358
I11
s(I67
S'TCA'
p6359
tp6360
I83
s(I14
S'AGT'
p6361
tp6362
I16
s(I69
S'CAC'
p6363
tp6364
I2
s(I27
S'GAA'
p6365
tp6366
I1
s(I32
S'ACG'
p6367
tp6368
I29
s(I16
S'ATC'
p6369
tp6370
I5
s(I27
S'GCC'
p6371
tp6372
I13
s(I13
S'GCT'
p6373
tp6374
I214
s(I38
S'CGT'
p6375
tp6376
I23
s(I54
S'GGC'
p6377
tp6378
I19
s(I71
S'CAC'
p6379
tp6380
I4
s(I43
S'CAA'
p6381
tp6382
I9
s(I63
S'TCT'
p6383
tp6384
I186
s(I35
S'CCG'
p6385
tp6386
I130
s(I52
S'AAC'
p6387
tp6388
I21
s(I58
S'TAA'
p6389
tp6390
I24
s(I23
S'CGT'
p6391
tp6392
I3
s(I66
S'TAA'
p6393
tp6394
I13
s(I25
S'TGA'
p6395
tp6396
I7
s(I30
S'TAC'
p6397
tp6398
I5
s(I16
S'ACA'
p6399
tp6400
I36
s(I5
S'CTG'
p6401
tp6402
I143
s(I29
S'GGC'
p6403
tp6404
I74
s(I44
S'AAA'
p6405
tp6406
I7
s(I61
S'TAG'
p6407
tp6408
I19
s(I40
S'GAC'
p6409
tp6410
I494
s(I73
S'TTC'
p6411
tp6412
I1
s(I17
S'GTC'
p6413
tp6414
I51
s(I53
S'TAT'
p6415
tp6416
I9
s(I34
S'ATT'
p6417
tp6418
I11
s(I33
S'AAT'
p6419
tp6420
I1
s(I16
S'GGG'
p6421
tp6422
I34
s(I26
S'TAA'
p6423
tp6424
I24
s(I61
S'GCC'
p6425
tp6426
I8
s(I18
S'TAG'
p6427
tp6428
I58
s(I4
S'GGC'
p6429
tp6430
I3
s(I31
S'GTC'
p6431
tp6432
I10
s(I4
S'TAC'
p6433
tp6434
I9
s(I34
S'CCT'
p6435
tp6436
I9
s(I44
S'GCA'
p6437
tp6438
I46
s(I71
S'TTC'
p6439
tp6440
I112
s(I50
S'ATC'
p6441
tp6442
I85
s(I47
S'GCT'
p6443
tp6444
I6
s(I29
S'CTA'
p6445
tp6446
I97
s(I72
S'ATA'
p6447
tp6448
I8
s(I47
S'TCA'
p6449
tp6450
I375
s(I34
S'CTC'
p6451
tp6452
I2
s(I23
S'GTC'
p6453
tp6454
I28
s(I11
S'CCG'
p6455
tp6456
I1183
s(I72
S'CGA'
p6457
tp6458
I16
s(I72
S'CCA'
p6459
tp6460
I59
s(I21
S'GCG'
p6461
tp6462
I76
s(I48
S'CGG'
p6463
tp6464
I31
s(I33
S'GCT'
p6465
tp6466
I2
s(I62
S'ATG'
p6467
tp6468
I142
s(I34
S'AGA'
p6469
tp6470
I4
s(I74
S'GAT'
p6471
tp6472
I2
s(I48
S'TCT'
p6473
tp6474
I88
s(I63
S'ACG'
p6475
tp6476
I5
s(I67
S'TAC'
p6477
tp6478
I15
s(I70
S'TAT'
p6479
tp6480
I1
s(I23
S'GCC'
p6481
tp6482
I13
s(I37
S'TCC'
p6483
tp6484
I46
s(I11
S'TTA'
p6485
tp6486
I49
s(I23
S'ACC'
p6487
tp6488
I23
s(I65
S'GCT'
p6489
tp6490
I276
s(I57
S'GGG'
p6491
tp6492
I70
s(I62
S'GGT'
p6493
tp6494
I7
s(I66
S'GTA'
p6495
tp6496
I19
s(I41
S'CTC'
p6497
tp6498
I488
s(I54
S'TGA'
p6499
tp6500
I14
s(I40
S'TGA'
p6501
tp6502
I32
s(I20
S'TAA'
p6503
tp6504
I21
s(I65
S'GTT'
p6505
tp6506
I202
s(I5
S'GAT'
p6507
tp6508
I2
s(I30
S'CTC'
p6509
tp6510
I4
s(I35
S'CTA'
p6511
tp6512
I201
s(I60
S'TGG'
p6513
tp6514
I1
s(I10
S'TAA'
p6515
tp6516
I4
s(I69
S'GAT'
p6517
tp6518
I10
s(I31
S'GAG'
p6519
tp6520
I178
s(I55
S'TCC'
p6521
tp6522
I12
s(I18
S'TAA'
p6523
tp6524
I32
s(I37
S'ACT'
p6525
tp6526
I57
s(I13
S'GCA'
p6527
tp6528
I1
s(I46
S'TGC'
p6529
tp6530
I1010
s(I27
S'TGG'
p6531
tp6532
I10
s(I15
S'GAG'
p6533
tp6534
I17
s(I55
S'TAG'
p6535
tp6536
I7
s(I56
S'TGC'
p6537
tp6538
I48
s(I53
S'ATG'
p6539
tp6540
I28
s(I55
S'ACA'
p6541
tp6542
I16
s(I6
S'GCA'
p6543
tp6544
I1
s(I3
S'CGA'
p6545
tp6546
I1
s(I21
S'TCA'
p6547
tp6548
I133
s(I10
S'ACT'
p6549
tp6550
I1
s(I24
S'GCA'
p6551
tp6552
I20
s(I70
S'TGC'
p6553
tp6554
I42
s(I3
S'GTC'
p6555
tp6556
I11
s(I39
S'TGT'
p6557
tp6558
I12
s(I59
S'CTG'
p6559
tp6560
I646
s(I32
S'GTG'
p6561
tp6562
I55
s(I34
S'TAC'
p6563
tp6564
I5
s(I24
S'TGC'
p6565
tp6566
I8
s(I41
S'GAA'
p6567
tp6568
I4
s(I52
S'TGT'
p6569
tp6570
I4
s(I39
S'CGC'
p6571
tp6572
I1
s(I16
S'GAG'
p6573
tp6574
I5
s(I58
S'TCC'
p6575
tp6576
I1
s(I29
S'GAA'
p6577
tp6578
I3
s(I44
S'TAA'
p6579
tp6580
I12
s(I28
S'CAG'
p6581
tp6582
I7
s(I75
S'CCC'
p6583
tp6584
I24
s(I48
S'TTT'
p6585
tp6586
I5
s(I55
S'TCT'
p6587
tp6588
I19
s(I70
S'CTT'
p6589
tp6590
I7
s(I11
S'TCC'
p6591
tp6592
I18
s(I75
S'CTT'
p6593
tp6594
I6
s(I57
S'GCA'
p6595
tp6596
I70
s(I54
S'ATT'
p6597
tp6598
I20
s(I24
S'GGT'
p6599
tp6600
I3
s(I6
S'AAT'
p6601
tp6602
I509
s(I30
S'CGT'
p6603
tp6604
I20
s(I2
S'GAC'
p6605
tp6606
I1
s(I65
S'CTG'
p6607
tp6608
I27
s(I62
S'GTA'
p6609
tp6610
I391
s(I28
S'AGC'
p6611
tp6612
I3
s(I15
S'ACT'
p6613
tp6614
I12
s(I15
S'TCG'
p6615
tp6616
I107
s(I33
S'CCG'
p6617
tp6618
I159
s(I46
S'AAA'
p6619
tp6620
I2
s(I59
S'GGG'
p6621
tp6622
I1
s(I42
S'CAT'
p6623
tp6624
I844
s(I49
S'TGG'
p6625
tp6626
I3
s(I15
S'CGT'
p6627
tp6628
I1
s(I22
S'ATA'
p6629
tp6630
I34
s(I46
S'ACC'
p6631
tp6632
I1189
s(I7
S'GAC'
p6633
tp6634
I26
s(I3
S'ACT'
p6635
tp6636
I26
s(I9
S'GGG'
p6637
tp6638
I150
s(I4
S'CAC'
p6639
tp6640
I7
s(I5
S'TTG'
p6641
tp6642
I58
s(I34
S'CGA'
p6643
tp6644
I3
s(I13
S'TGG'
p6645
tp6646
I2
s(I15
S'TGC'
p6647
tp6648
I7
s(I5
S'CTC'
p6649
tp6650
I80
s(I50
S'ACC'
p6651
tp6652
I199
s(I49
S'GGA'
p6653
tp6654
I463
s(I35
S'TAA'
p6655
tp6656
I19
s(I36
S'ACT'
p6657
tp6658
I5638
s(I62
S'CAA'
p6659
tp6660
I45
s(I74
S'GGA'
p6661
tp6662
I1
s(I53
S'GAT'
p6663
tp6664
I25
s(I7
S'GTG'
p6665
tp6666
I100
s(I48
S'GAC'
p6667
tp6668
I10
s(I8
S'AGT'
p6669
tp6670
I1
s(I31
S'CCA'
p6671
tp6672
I2
s(I51
S'TTC'
p6673
tp6674
I18
s(I63
S'GCG'
p6675
tp6676
I58
s(I19
S'CCT'
p6677
tp6678
I11
s(I53
S'ACC'
p6679
tp6680
I64
s(I13
S'AGA'
p6681
tp6682
I22
s(I41
S'AAC'
p6683
tp6684
I42
s(I63
S'CAT'
p6685
tp6686
I6
s(I9
S'ACT'
p6687
tp6688
I37
s(I3
S'AGG'
p6689
tp6690
I3
s(I63
S'GGC'
p6691
tp6692
I42
s(I43
S'TGT'
p6693
tp6694
I10
s(I23
S'GGT'
p6695
tp6696
I3
s(I12
S'CTC'
p6697
tp6698
I1
s(I24
S'TAT'
p6699
tp6700
I23
s(I51
S'CCG'
p6701
tp6702
I25
s(I49
S'ACG'
p6703
tp6704
I85
s(I48
S'AGC'
p6705
tp6706
I48
s(I22
S'GTC'
p6707
tp6708
I274
s(I33
S'GAG'
p6709
tp6710
I13
s(I20
S'GGA'
p6711
tp6712
I6
s(I48
S'CAT'
p6713
tp6714
I7
s(I62
S'CGG'
p6715
tp6716
I243
s(I7
S'AGC'
p6717
tp6718
I11
s(I57
S'CAC'
p6719
tp6720
I65
s(I67
S'AAG'
p6721
tp6722
I10
s(I76
S'GGA'
p6723
tp6724
I36
s(I8
S'AAC'
p6725
tp6726
I1
s(I60
S'CTT'
p6727
tp6728
I27
s(I13
S'CCC'
p6729
tp6730
I7
s(I60
S'AAT'
p6731
tp6732
I2
s(I46
S'GCG'
p6733
tp6734
I1
s(I9
S'GCG'
p6735
tp6736
I291
s(I16
S'CTG'
p6737
tp6738
I2
s(I24
S'GGG'
p6739
tp6740
I12
s(I57
S'CGC'
p6741
tp6742
I3
s(I34
S'GCG'
p6743
tp6744
I3
s(I48
S'TTA'
p6745
tp6746
I24
s(I24
S'AGT'
p6747
tp6748
I19
s(I57
S'TGT'
p6749
tp6750
I26
s(I60
S'TTT'
p6751
tp6752
I22
s(I32
S'ATA'
p6753
tp6754
I36
s(I61
S'GGT'
p6755
tp6756
I1
s(I11
S'ATG'
p6757
tp6758
I38
s(I27
S'GTT'
p6759
tp6760
I24
s(I22
S'TGT'
p6761
tp6762
I18
s(I21
S'TGT'
p6763
tp6764
I30
s(I52
S'GGG'
p6765
tp6766
I1
s(I76
S'CTC'
p6767
tp6768
I12
s(I26
S'ATT'
p6769
tp6770
I27
s(I24
S'GCT'
p6771
tp6772
I9
s(I46
S'CGA'
p6773
tp6774
I368
s(I32
S'CCA'
p6775
tp6776
I260
s(I39
S'CAT'
p6777
tp6778
I55
s(I23
S'CTA'
p6779
tp6780
I37
s(I45
S'GAC'
p6781
tp6782
I29
s(I60
S'GGT'
p6783
tp6784
I146
s(I70
S'CTG'
p6785
tp6786
I262
s(I46
S'GCT'
p6787
tp6788
I16
s(I68
S'GCC'
p6789
tp6790
I139
s(I24
S'TGG'
p6791
tp6792
I4
s(I10
S'CAG'
p6793
tp6794
I10
s(I28
S'CAC'
p6795
tp6796
I45
s(I10
S'TCA'
p6797
tp6798
I20
s(I33
S'CAC'
p6799
tp6800
I3
s(I33
S'TCG'
p6801
tp6802
I11
s(I58
S'CGT'
p6803
tp6804
I33
s(I13
S'TTT'
p6805
tp6806
I2
s(I32
S'TAC'
p6807
tp6808
I21
s(I18
S'TTA'
p6809
tp6810
I225
s(I64
S'TCG'
p6811
tp6812
I1638
s(I47
S'CGT'
p6813
tp6814
I1
s(I48
S'ATA'
p6815
tp6816
I14
s(I67
S'AAC'
p6817
tp6818
I58
s(I30
S'CCC'
p6819
tp6820
I1
s(I24
S'GGC'
p6821
tp6822
I10
s(I56
S'GTT'
p6823
tp6824
I60
s(I5
S'AAG'
p6825
tp6826
I1
s(I20
S'AGG'
p6827
tp6828
I8
s(I31
S'AAC'
p6829
tp6830
I37
s(I28
S'ACG'
p6831
tp6832
I38
s(I69
S'CGC'
p6833
tp6834
I1
s(I38
S'AGG'
p6835
tp6836
I114
s(I37
S'TTT'
p6837
tp6838
I212
s(I35
S'CAT'
p6839
tp6840
I179
s(I45
S'TTA'
p6841
tp6842
I629
s(I46
S'TTC'
p6843
tp6844
I1064
s(I18
S'CCG'
p6845
tp6846
I35
s(I8
S'CCT'
p6847
tp6848
I3
s(I64
S'TGT'
p6849
tp6850
I477
s(I22
S'CCT'
p6851
tp6852
I209
s(I3
S'TGT'
p6853
tp6854
I425
s(I67
S'GTG'
p6855
tp6856
I4
s(I50
S'GTC'
p6857
tp6858
I502
s(I69
S'CAG'
p6859
tp6860
I153
s(I29
S'GCG'
p6861
tp6862
I70
s(I61
S'CCA'
p6863
tp6864
I1
s(I18
S'CCC'
p6865
tp6866
I68
s(I37
S'CGC'
p6867
tp6868
I59
s(I34
S'TTG'
p6869
tp6870
I2
s(I57
S'TTC'
p6871
tp6872
I51
s(I73
S'AGG'
p6873
tp6874
I1
s(I67
S'GAT'
p6875
tp6876
I3
s(I39
S'ACG'
p6877
tp6878
I13
s(I47
S'ACT'
p6879
tp6880
I65
s(I47
S'AGG'
p6881
tp6882
I1
s(I74
S'GGT'
p6883
tp6884
I1
s(I11
S'TCA'
p6885
tp6886
I100
s(I42
S'TCG'
p6887
tp6888
I11
s(I63
S'TCA'
p6889
tp6890
I114
s(I72
S'ACG'
p6891
tp6892
I128
s(I32
S'GGT'
p6893
tp6894
I79
s(I61
S'TTG'
p6895
tp6896
I712
s(I19
S'CCA'
p6897
tp6898
I16
s(I46
S'GTG'
p6899
tp6900
I123
s(I25
S'AGA'
p6901
tp6902
I1
s(I74
S'TCC'
p6903
tp6904
I9
s(I24
S'TAA'
p6905
tp6906
I2
s(I25
S'GTT'
p6907
tp6908
I1
s(I14
S'GTA'
p6909
tp6910
I1
s(I70
S'GGG'
p6911
tp6912
I3
s(I22
S'TTC'
p6913
tp6914
I85
s(I30
S'GCG'
p6915
tp6916
I116
s(I71
S'TAG'
p6917
tp6918
I1
s(I31
S'TGA'
p6919
tp6920
I17
s(I8
S'GAT'
p6921
tp6922
I2
s(I27
S'CCC'
p6923
tp6924
I1
s(I6
S'TCC'
p6925
tp6926
I185
s(I23
S'CGC'
p6927
tp6928
I3
s(I52
S'TAA'
p6929
tp6930
I2
s(I8
S'GGG'
p6931
tp6932
I3
s(I15
S'CCT'
p6933
tp6934
I15
s(I13
S'CCT'
p6935
tp6936
I5
s(I35
S'CAA'
p6937
tp6938
I11
s(I21
S'GGG'
p6939
tp6940
I34
s(I10
S'TTG'
p6941
tp6942
I1
s(I57
S'CGT'
p6943
tp6944
I88
s(I33
S'TTC'
p6945
tp6946
I16
s(I11
S'TGC'
p6947
tp6948
I28
s(I70
S'CGA'
p6949
tp6950
I2
s(I9
S'GTT'
p6951
tp6952
I148
s(I69
S'AAA'
p6953
tp6954
I5
s(I45
S'AGT'
p6955
tp6956
I562
s(I50
S'AGT'
p6957
tp6958
I14
s(I44
S'ACG'
p6959
tp6960
I2352
s(I39
S'TCA'
p6961
tp6962
I2
s(I71
S'ATG'
p6963
tp6964
I638
s(I3
S'ATA'
p6965
tp6966
I30
s(I37
S'TTG'
p6967
tp6968
I137
s(I50
S'GTT'
p6969
tp6970
I486
s(I46
S'CGT'
p6971
tp6972
I283
s(I63
S'GAC'
p6973
tp6974
I101
s(I25
S'CCG'
p6975
tp6976
I2
s(I51
S'GCG'
p6977
tp6978
I7
s(I70
S'TTG'
p6979
tp6980
I12
s(I46
S'TCG'
p6981
tp6982
I317
s(I45
S'CAA'
p6983
tp6984
I3400
s(I11
S'GTC'
p6985
tp6986
I16
s(I19
S'AAC'
p6987
tp6988
I4
s(I50
S'TCC'
p6989
tp6990
I1
s(I56
S'TCA'
p6991
tp6992
I14
s(I37
S'CCG'
p6993
tp6994
I24
s(I50
S'GCT'
p6995
tp6996
I1
s(I54
S'CGC'
p6997
tp6998
I76
s(I54
S'GCA'
p6999
tp7000
I41
s(I57
S'CTC'
p7001
tp7002
I12
s(I34
S'TCC'
p7003
tp7004
I25
s(I49
S'AAC'
p7005
tp7006
I101
s(I40
S'GTG'
p7007
tp7008
I5
s(I41
S'GGA'
p7009
tp7010
I16
s(I57
S'TCA'
p7011
tp7012
I56
s(I66
S'AGG'
p7013
tp7014
I1
s(I74
S'AAC'
p7015
tp7016
I2
s(I6
S'TCA'
p7017
tp7018
I353
s(I20
S'GAA'
p7019
tp7020
I91
s(I11
S'ACC'
p7021
tp7022
I187
s(I52
S'CGC'
p7023
tp7024
I8
s(I72
S'CAC'
p7025
tp7026
I4130
s(I48
S'TAC'
p7027
tp7028
I10
s(I27
S'CGA'
p7029
tp7030
I39
s(I59
S'GGA'
p7031
tp7032
I1
s(I46
S'CTC'
p7033
tp7034
I40
s(I51
S'CTA'
p7035
tp7036
I64
s(I37
S'AAA'
p7037
tp7038
I48
s(I12
S'CCA'
p7039
tp7040
I53
s(I17
S'TCC'
p7041
tp7042
I2
s(I0
S'WT'
p7043
tp7044
I24
s(I69
S'ATT'
p7045
tp7046
I11
s(I76
S'CAC'
p7047
tp7048
I3
s(I20
S'CGC'
p7049
tp7050
I115
s(I2
S'GGC'
p7051
tp7052
I5
s(I59
S'ACG'
p7053
tp7054
I3
s(I55
S'TGG'
p7055
tp7056
I10
s(I11
S'GGA'
p7057
tp7058
I1270
s(I18
S'TCT'
p7059
tp7060
I15
s(I62
S'GAG'
p7061
tp7062
I1
s(I33
S'ATG'
p7063
tp7064
I44
s(I35
S'TCA'
p7065
tp7066
I20
s(I61
S'TAA'
p7067
tp7068
I15
s(I20
S'TAC'
p7069
tp7070
I2
s(I6
S'TTG'
p7071
tp7072
I8
s(I51
S'CGG'
p7073
tp7074
I1
s(I54
S'AGC'
p7075
tp7076
I615
s(I28
S'TAC'
p7077
tp7078
I11
s(I14
S'GGG'
p7079
tp7080
I3
s(I11
S'CAG'
p7081
tp7082
I307
s(I70
S'ACC'
p7083
tp7084
I2343
s(I11
S'CGA'
p7085
tp7086
I17
s(I38
S'ATA'
p7087
tp7088
I100
s(I35
S'TTA'
p7089
tp7090
I209
s(I3
S'TGG'
p7091
tp7092
I5
s(I7
S'ACA'
p7093
tp7094
I15
s(I4
S'GGG'
p7095
tp7096
I6
s(I21
S'GAA'
p7097
tp7098
I98
s(I32
S'AGA'
p7099
tp7100
I22
s(I43
S'ACA'
p7101
tp7102
I3
s(I15
S'CTT'
p7103
tp7104
I17
s(I17
S'AAG'
p7105
tp7106
I12
s(I18
S'TGT'
p7107
tp7108
I74
s(I38
S'TTG'
p7109
tp7110
I238
s(I50
S'GTA'
p7111
tp7112
I67
s(I31
S'ATG'
p7113
tp7114
I22
s(I18
S'CGC'
p7115
tp7116
I2
s(I72
S'ACC'
p7117
tp7118
I100
s(I58
S'GTA'
p7119
tp7120
I8
s(I70
S'TCC'
p7121
tp7122
I1
s(I6
S'GCG'
p7123
tp7124
I48
s(I31
S'ACG'
p7125
tp7126
I26
s(I70
S'CAG'
p7127
tp7128
I42
s(I22
S'AAT'
p7129
tp7130
I13
s(I75
S'CAG'
p7131
tp7132
I54
s(I67
S'CCG'
p7133
tp7134
I1
s(I61
S'GTA'
p7135
tp7136
I11
s(I35
S'GAC'
p7137
tp7138
I8
s(I28
S'TTA'
p7139
tp7140
I60
s(I29
S'CGG'
p7141
tp7142
I74
s(I31
S'CAT'
p7143
tp7144
I9
s(I57
S'TAC'
p7145
tp7146
I32
s(I17
S'GCG'
p7147
tp7148
I48
s(I20
S'GGC'
p7149
tp7150
I20
s(I64
S'CAT'
p7151
tp7152
I126
s(I50
S'AAG'
p7153
tp7154
I2
s(I20
S'GCT'
p7155
tp7156
I8
s(I42
S'GCG'
p7157
tp7158
I1497
s(I28
S'GGC'
p7159
tp7160
I5
s(I34
S'GTA'
p7161
tp7162
I9
s(I38
S'CCC'
p7163
tp7164
I6
s(I2
S'TCA'
p7165
tp7166
I1
s(I61
S'ACA'
p7167
tp7168
I21
s(I39
S'TCT'
p7169
tp7170
I3
s(I72
S'TTG'
p7171
tp7172
I94
s(I37
S'ACA'
p7173
tp7174
I124
s(I62
S'AAC'
p7175
tp7176
I94
s(I63
S'GAT'
p7177
tp7178
I77
s(I73
S'TAT'
p7179
tp7180
I3
s(I75
S'AAC'
p7181
tp7182
I4
s(I38
S'GAT'
p7183
tp7184
I110
s(I66
S'TGG'
p7185
tp7186
I8
s(I16
S'CGT'
p7187
tp7188
I29
s(I76
S'TTC'
p7189
tp7190
I14
s(I34
S'ACC'
p7191
tp7192
I5
s(I73
S'CGT'
p7193
tp7194
I4
s(I15
S'TCT'
p7195
tp7196
I2
s(I11
S'GCT'
p7197
tp7198
I671
s(I40
S'CCG'
p7199
tp7200
I88
s(I58
S'AGT'
p7201
tp7202
I8
s(I37
S'GAC'
p7203
tp7204
I66
s(I5
S'ACT'
p7205
tp7206
I22
s(I54
S'GCT'
p7207
tp7208
I100
s(I69
S'GAG'
p7209
tp7210
I80
s(I63
S'CTG'
p7211
tp7212
I125
s(I28
S'CTC'
p7213
tp7214
I94
s(I52
S'CAC'
p7215
tp7216
I3
s(I31
S'TTT'
p7217
tp7218
I7
s(I17
S'GGC'
p7219
tp7220
I419
s(I35
S'TCC'
p7221
tp7222
I55
s(I37
S'CAA'
p7223
tp7224
I100
s(I76
S'ACT'
p7225
tp7226
I10
s(I42
S'GGC'
p7227
tp7228
I389
s(I41
S'ACC'
p7229
tp7230
I10
s(I11
S'GAA'
p7231
tp7232
I1113
s(I26
S'TTC'
p7233
tp7234
I3
s(I65
S'TTT'
p7235
tp7236
I8
s(I43
S'ATC'
p7237
tp7238
I16
s(I8
S'GCA'
p7239
tp7240
I3
s(I37
S'ATT'
p7241
tp7242
I112
s(I27
S'CTG'
p7243
tp7244
I74
s(I35
S'TGG'
p7245
tp7246
I30
s(I41
S'CGC'
p7247
tp7248
I3
s(I45
S'TAG'
p7249
tp7250
I21
s(I31
S'GGA'
p7251
tp7252
I192
s(I20
S'AGC'
p7253
tp7254
I42
s(I28
S'ATG'
p7255
tp7256
I53
s(I15
S'TGA'
p7257
tp7258
I1
s(I9
S'CAC'
p7259
tp7260
I2282
s(I19
S'TGG'
p7261
tp7262
I20
s(I65
S'GGG'
p7263
tp7264
I332
s(I73
S'GGT'
p7265
tp7266
I1
s(I43
S'CCC'
p7267
tp7268
I1
s(I52
S'TTC'
p7269
tp7270
I8
s(I51
S'ATA'
p7271
tp7272
I14
s(I40
S'GCA'
p7273
tp7274
I14
s(I75
S'TTG'
p7275
tp7276
I10
s(I9
S'CCT'
p7277
tp7278
I968
s(I16
S'CCC'
p7279
tp7280
I17
s(I28
S'CGA'
p7281
tp7282
I71
s(I5
S'AGA'
p7283
tp7284
I1
s(I10
S'GAG'
p7285
tp7286
I130
s(I7
S'CAA'
p7287
tp7288
I279
s(I25
S'ACA'
p7289
tp7290
I21
s(I61
S'CAT'
p7291
tp7292
I2
s(I35
S'TGA'
p7293
tp7294
I24
s(I7
S'GGA'
p7295
tp7296
I248
s(I67
S'GTA'
p7297
tp7298
I65
s(I65
S'CTC'
p7299
tp7300
I5
s(I40
S'GTA'
p7301
tp7302
I6
s(I4
S'AAT'
p7303
tp7304
I2
s(I21
S'CAG'
p7305
tp7306
I51
s(I67
S'GTT'
p7307
tp7308
I19
s(I64
S'TCT'
p7309
tp7310
I523
s(I9
S'TAC'
p7311
tp7312
I21
s(I66
S'TAT'
p7313
tp7314
I20
s(I72
S'TCC'
p7315
tp7316
I200
s(I14
S'ACC'
p7317
tp7318
I80
s(I17
S'TAC'
p7319
tp7320
I70
s(I11
S'ACG'
p7321
tp7322
I95
s(I23
S'TCC'
p7323
tp7324
I15
s(I45
S'TGG'
p7325
tp7326
I248
s(I29
S'TCC'
p7327
tp7328
I235
s(I73
S'GCA'
p7329
tp7330
I5
s(I14
S'CGC'
p7331
tp7332
I1
s(I27
S'GAG'
p7333
tp7334
I1
s(I57
S'ATC'
p7335
tp7336
I28
s(I74
S'TAG'
p7337
tp7338
I4
s(I56
S'CCG'
p7339
tp7340
I1
s(I34
S'ATG'
p7341
tp7342
I2
s(I65
S'ATT'
p7343
tp7344
I77
s(I37
S'GGA'
p7345
tp7346
I75
s(I33
S'AAC'
p7347
tp7348
I7
s(I41
S'TGC'
p7349
tp7350
I39
s(I45
S'GGA'
p7351
tp7352
I15
s(I5
S'GCC'
p7353
tp7354
I2
s(I7
S'CTC'
p7355
tp7356
I2
s(I73
S'GTG'
p7357
tp7358
I261
s(I23
S'CAT'
p7359
tp7360
I28
s(I60
S'CCC'
p7361
tp7362
I417
s(I46
S'ATC'
p7363
tp7364
I67
s(I62
S'CCT'
p7365
tp7366
I1525
s(I56
S'ATC'
p7367
tp7368
I90
s(I71
S'ATA'
p7369
tp7370
I6
s(I38
S'TGG'
p7371
tp7372
I113
s(I71
S'CCA'
p7373
tp7374
I20
s(I47
S'GCG'
p7375
tp7376
I131
s(I69
S'GCT'
p7377
tp7378
I332
s(I5
S'GTA'
p7379
tp7380
I5
s(I13
S'GTT'
p7381
tp7382
I38
s(I17
S'ACG'
p7383
tp7384
I11
s(I30
S'ACC'
p7385
tp7386
I5
s(I46
S'ATA'
p7387
tp7388
I1991
s(I44
S'TTT'
p7389
tp7390
I20
s(I20
S'CAC'
p7391
tp7392
I1
s(I25
S'CAC'
p7393
tp7394
I5
s(I48
S'TCC'
p7395
tp7396
I55
s(I48
S'ACT'
p7397
tp7398
I3
s(I47
S'TCG'
p7399
tp7400
I134
s(I24
S'CAC'
p7401
tp7402
I18
s(I70
S'TAC'
p7403
tp7404
I1
s(I64
S'TAC'
p7405
tp7406
I6
s(I68
S'ACT'
p7407
tp7408
I227
s(I5
S'ACA'
p7409
tp7410
I8
s(I42
S'CCA'
p7411
tp7412
I1
s(I36
S'GCA'
p7413
tp7414
I30
s(I52
S'GTG'
p7415
tp7416
I7
s(I64
S'ACC'
p7417
tp7418
I1586
s(I52
S'TCG'
p7419
tp7420
I1
s(I61
S'TGC'
p7421
tp7422
I28
s(I18
S'CAT'
p7423
tp7424
I88
s(I75
S'TCA'
p7425
tp7426
I7
s(I36
S'CAT'
p7427
tp7428
I31
s(I48
S'TTC'
p7429
tp7430
I1
s(I24
S'ACG'
p7431
tp7432
I5
s(I25
S'ATG'
p7433
tp7434
I107
s(I54
S'TGT'
p7435
tp7436
I51
s(I51
S'TAT'
p7437
tp7438
I37
s(I30
S'CAT'
p7439
tp7440
I1
s(I44
S'CTC'
p7441
tp7442
I14
s(I64
S'AGG'
p7443
tp7444
I171
s(I36
S'CCC'
p7445
tp7446
I84
s(I22
S'GAA'
p7447
tp7448
I66
s(I77
S'TGT'
p7449
tp7450
I23
s(I73
S'CGG'
p7451
tp7452
I2
s(I18
S'AGC'
p7453
tp7454
I55
s(I8
S'CTC'
p7455
tp7456
I44
s(I51
S'CAA'
p7457
tp7458
I34
s(I48
S'CGA'
p7459
tp7460
I7
s(I5
S'GAG'
p7461
tp7462
I7
s(I22
S'CTT'
p7463
tp7464
I49
s(I64
S'TTG'
p7465
tp7466
I284
s(I14
S'ATG'
p7467
tp7468
I1
s(I69
S'TTA'
p7469
tp7470
I5
s(I50
S'GGG'
p7471
tp7472
I4
s(I41
S'ATT'
p7473
tp7474
I22
s(I51
S'GTT'
p7475
tp7476
I46
s(I13
S'TAA'
p7477
tp7478
I1
s(I61
S'AGT'
p7479
tp7480
I5
s(I32
S'ATT'
p7481
tp7482
I25
s(I8
S'ACA'
p7483
tp7484
I4
s(I66
S'GAT'
p7485
tp7486
I2439
s(I47
S'CCC'
p7487
tp7488
I1
s(I16
S'GTT'
p7489
tp7490
I10
s(I62
S'GGC'
p7491
tp7492
I434
s(I40
S'AAC'
p7493
tp7494
I315
s(I34
S'AAC'
p7495
tp7496
I3
s(I11
S'CTA'
p7497
tp7498
I4
s(I74
S'CGT'
p7499
tp7500
I20
s(I26
S'TAG'
p7501
tp7502
I68
s(I71
S'AAT'
p7503
tp7504
I2
s(I15
S'AAT'
p7505
tp7506
I7
s(I66
S'GTG'
p7507
tp7508
I28
s(I48
S'CAC'
p7509
tp7510
I28
s(I6
S'AGG'
p7511
tp7512
I4
s(I7
S'TAG'
p7513
tp7514
I20
s(I17
S'GAG'
p7515
tp7516
I10
s(I21
S'AGA'
p7517
tp7518
I4
s(I39
S'TGA'
p7519
tp7520
I11
s(I41
S'AGC'
p7521
tp7522
I90
s(I58
S'ACC'
p7523
tp7524
I70
s(I10
S'GCA'
p7525
tp7526
I8
s(I24
S'GTG'
p7527
tp7528
I20
s(I55
S'GTG'
p7529
tp7530
I28
s(I27
S'CAA'
p7531
tp7532
I27
s(I73
S'AAA'
p7533
tp7534
I1
s(I17
S'TTA'
p7535
tp7536
I14
s(I35
S'TTT'
p7537
tp7538
I24
s(I15
S'GTC'
p7539
tp7540
I5
s(I15
S'AAG'
p7541
tp7542
I1
s(I13
S'GCG'
p7543
tp7544
I3
s(I43
S'TTC'
p7545
tp7546
I3
s(I73
S'GAT'
p7547
tp7548
I3
s(I41
S'CCC'
p7549
tp7550
I2
s(I51
S'GGC'
p7551
tp7552
I68
s(I37
S'AGT'
p7553
tp7554
I14
s(I5
S'ATG'
p7555
tp7556
I81
s(I40
S'ACG'
p7557
tp7558
I69
s(I49
S'AGG'
p7559
tp7560
I3
s(I16
S'TAT'
p7561
tp7562
I5
s(I15
S'GCC'
p7563
tp7564
I27
s(I62
S'GAC'
p7565
tp7566
I51
s(I62
S'GTT'
p7567
tp7568
I464
s(I50
S'CGG'
p7569
tp7570
I1
s(I15
S'ACC'
p7571
tp7572
I1
s(I16
S'TAA'
p7573
tp7574
I4
s(I24
S'TTT'
p7575
tp7576
I13
s(I48
S'CTA'
p7577
tp7578
I21
s(I22
S'GAG'
p7579
tp7580
I20
s(I69
S'GCA'
p7581
tp7582
I189
s(I42
S'CAA'
p7583
tp7584
I129
s(I74
S'AGT'
p7585
tp7586
I1
s(I15
S'CGG'
p7587
tp7588
I2
s(I73
S'CTG'
p7589
tp7590
I13
s(I9
S'TCG'
p7591
tp7592
I3
s(I32
S'CAG'
p7593
tp7594
I2
s(I32
S'GTA'
p7595
tp7596
I3
s(I52
S'CCG'
p7597
tp7598
I41
s(I36
S'CGC'
p7599
tp7600
I1
s(I20
S'TAG'
p7601
tp7602
I4
s(I40
S'GAT'
p7603
tp7604
I194
s(I59
S'TGT'
p7605
tp7606
I141
s(I58
S'AGG'
p7607
tp7608
I36
s(I51
S'TAC'
p7609
tp7610
I37
s(I36
S'TCA'
p7611
tp7612
I14
s(I32
S'GCC'
p7613
tp7614
I11
s(I42
S'CCT'
p7615
tp7616
I1
s(I46
S'CCA'
p7617
tp7618
I1
s(I35
S'AAG'
p7619
tp7620
I349
s(I19
S'ATG'
p7621
tp7622
I81
s(I17
S'CCT'
p7623
tp7624
I8
s(I69
S'TGC'
p7625
tp7626
I961
s(I39
S'GAG'
p7627
tp7628
I1
s(I13
S'CCA'
p7629
tp7630
I1
s(I33
S'GGT'
p7631
tp7632
I5
s(I56
S'CGG'
p7633
tp7634
I1
s(I63
S'CAC'
p7635
tp7636
I267
s(I28
S'TAG'
p7637
tp7638
I16
s(I53
S'TGC'
p7639
tp7640
I23
s(I46
S'AAG'
p7641
tp7642
I20
s(I23
S'GAG'
p7643
tp7644
I1
s(I64
S'GCC'
p7645
tp7646
I1082
s.