(dp0
(I38
S'CTG'
p1
tp2
I93
s(I49
S'TGA'
p3
tp4
I6
s(I4
S'TGA'
p5
tp6
I74
s(I18
S'GCC'
p7
tp8
I18
s(I48
S'AGC'
p9
tp10
I8
s(I68
S'GTG'
p11
tp12
I187
s(I62
S'CGT'
p13
tp14
I640
s(I16
S'GGC'
p15
tp16
I101
s(I46
S'AGC'
p17
tp18
I4868
s(I3
S'CAG'
p19
tp20
I34
s(I8
S'CAG'
p21
tp22
I3
s(I41
S'ATC'
p23
tp24
I98
s(I19
S'AAA'
p25
tp26
I260
s(I60
S'GCG'
p27
tp28
I178
s(I18
S'ATG'
p29
tp30
I83
s(I41
S'GGT'
p31
tp32
I469
s(I49
S'GGG'
p33
tp34
I1419
s(I31
S'CTA'
p35
tp36
I18
s(I47
S'ACA'
p37
tp38
I22
s(I24
S'GTG'
p39
tp40
I34
s(I38
S'GCA'
p41
tp42
I222
s(I14
S'AGG'
p43
tp44
I8
s(I24
S'AGA'
p45
tp46
I5
s(I12
S'TCA'
p47
tp48
I1
s(I20
S'CCT'
p49
tp50
I508
s(I3
S'AAC'
p51
tp52
I1
s(I75
S'TAA'
p53
tp54
I1
s(I14
S'CTC'
p55
tp56
I4
s(I36
S'GAA'
p57
tp58
I8
s(I6
S'AAA'
p59
tp60
I36
s(I36
S'CTT'
p61
tp62
I1344
s(I14
S'CGG'
p63
tp64
I34
s(I70
S'CCT'
p65
tp66
I78
s(I41
S'GTA'
p67
tp68
I42
s(I9
S'GCT'
p69
tp70
I50
s(I19
S'TCC'
p71
tp72
I101
s(I49
S'GCA'
p73
tp74
I3587
s(I39
S'CAC'
p75
tp76
I3
s(I49
S'GTA'
p77
tp78
I5
s(I44
S'CAC'
p79
tp80
I1
s(I49
S'ACA'
p81
tp82
I99
s(I67
S'CAG'
p83
tp84
I33
s(I68
S'ATA'
p85
tp86
I55
s(I34
S'TTA'
p87
tp88
I18
s(I27
S'TCA'
p89
tp90
I23
s(I65
S'CGC'
p91
tp92
I204
s(I54
S'GTA'
p93
tp94
I23
s(I15
S'TGA'
p95
tp96
I1
s(I23
S'TCG'
p97
tp98
I6
s(I11
S'ATA'
p99
tp100
I64
s(I64
S'TAT'
p101
tp102
I4
s(I72
S'TAC'
p103
tp104
I249
s(I63
S'AAA'
p105
tp106
I324
s(I31
S'TAG'
p107
tp108
I14
s(I38
S'ACC'
p109
tp110
I114
s(I3
S'TTC'
p111
tp112
I10
s(I58
S'CGA'
p113
tp114
I64
s(I13
S'TTG'
p115
tp116
I42
s(I33
S'CGC'
p117
tp118
I123
s(I53
S'ATT'
p119
tp120
I16
s(I32
S'ATG'
p121
tp122
I86
s(I9
S'ATG'
p123
tp124
I79
s(I52
S'GGA'
p125
tp126
I24
s(I46
S'TTT'
p127
tp128
I1082
s(I22
S'CGA'
p129
tp130
I106
s(I28
S'CCG'
p131
tp132
I6
s(I32
S'CTA'
p133
tp134
I271
s(I60
S'TAA'
p135
tp136
I1
s(I64
S'GTC'
p137
tp138
I222
s(I45
S'ACC'
p139
tp140
I1710
s(I50
S'GTC'
p141
tp142
I89
s(I61
S'CGT'
p143
tp144
I36
s(I65
S'AGC'
p145
tp146
I203
s(I52
S'TGG'
p147
tp148
I101
s(I61
S'CCT'
p149
tp150
I3
s(I3
S'GTA'
p151
tp152
I515
s(I6
S'TAT'
p153
tp154
I381
s(I67
S'GAC'
p155
tp156
I11
s(I7
S'AAG'
p157
tp158
I1
s(I23
S'GAT'
p159
tp160
I1
s(I25
S'CTC'
p161
tp162
I32
s(I34
S'CGT'
p163
tp164
I4
s(I28
S'GAT'
p165
tp166
I169
s(I43
S'CGT'
p167
tp168
I1
s(I26
S'CTT'
p169
tp170
I653
s(I51
S'AAA'
p171
tp172
I6
s(I6
S'CCC'
p173
tp174
I1
s(I40
S'AAT'
p175
tp176
I457
s(I3
S'CGT'
p177
tp178
I7
s(I67
S'CCA'
p179
tp180
I10
s(I15
S'TAG'
p181
tp182
I14
s(I17
S'AAC'
p183
tp184
I293
s(I52
S'ACC'
p185
tp186
I240
s(I19
S'TAA'
p187
tp188
I14
s(I41
S'TGA'
p189
tp190
I2
s(I49
S'TGT'
p191
tp192
I232
s(I58
S'GGA'
p193
tp194
I37
s(I24
S'ATA'
p195
tp196
I26
s(I27
S'TAA'
p197
tp198
I22
s(I70
S'GAT'
p199
tp200
I4
s(I69
S'GTG'
p201
tp202
I182
s(I42
S'CTG'
p203
tp204
I4
s(I66
S'GGA'
p205
tp206
I105
s(I3
S'GGT'
p207
tp208
I1
s(I13
S'TGT'
p209
tp210
I133
s(I2
S'ACC'
p211
tp212
I6
s(I48
S'GTG'
p213
tp214
I41
s(I26
S'TGT'
p215
tp216
I52
s(I13
S'CGC'
p217
tp218
I4
s(I15
S'CAA'
p219
tp220
I2
s(I47
S'GGC'
p221
tp222
I214
s(I69
S'ATA'
p223
tp224
I9
s(I12
S'ATG'
p225
tp226
I3
s(I40
S'TAC'
p227
tp228
I408
s(I31
S'CTG'
p229
tp230
I13
s(I55
S'GGC'
p231
tp232
I26
s(I49
S'CCC'
p233
tp234
I622
s(I44
S'CAT'
p235
tp236
I36
s(I44
S'TGT'
p237
tp238
I1057
s(I36
S'TTA'
p239
tp240
I1245
s(I10
S'CGG'
p241
tp242
I45
s(I35
S'TTG'
p243
tp244
I48
s(I75
S'CAT'
p245
tp246
I50
s(I5
S'GGC'
p247
tp248
I2
s(I44
S'ACT'
p249
tp250
I1751
s(I53
S'TGA'
p251
tp252
I3
s(I14
S'TCT'
p253
tp254
I69
s(I11
S'GAT'
p255
tp256
I257
s(I20
S'AGG'
p257
tp258
I29
s(I51
S'TCC'
p259
tp260
I322
s(I66
S'CTA'
p261
tp262
I1450
s(I40
S'AGC'
p263
tp264
I55
s(I65
S'TGC'
p265
tp266
I92
s(I67
S'TGG'
p267
tp268
I8
s(I36
S'TCC'
p269
tp270
I24
s(I11
S'GTT'
p271
tp272
I77
s(I65
S'CGT'
p273
tp274
I286
s(I36
S'GTT'
p275
tp276
I1399
s(I25
S'TCT'
p277
tp278
I60
s(I19
S'GGG'
p279
tp280
I74
s(I64
S'TAA'
p281
tp282
I1
s(I30
S'ATC'
p283
tp284
I3
s(I33
S'GCT'
p285
tp286
I4
s(I2
S'TCC'
p287
tp288
I1
s(I60
S'CTC'
p289
tp290
I43
s(I35
S'GTA'
p291
tp292
I13
s(I67
S'GGA'
p293
tp294
I1110
s(I6
S'CTT'
p295
tp296
I80
s(I53
S'GTC'
p297
tp298
I12
s(I44
S'GGG'
p299
tp300
I5
s(I18
S'AAC'
p301
tp302
I100
s(I8
S'TCC'
p303
tp304
I3
s(I16
S'AGC'
p305
tp306
I163
s(I69
S'GGC'
p307
tp308
I298
s(I9
S'CGG'
p309
tp310
I17
s(I29
S'CAT'
p311
tp312
I15
s(I35
S'TTT'
p313
tp314
I33
s(I48
S'TCT'
p315
tp316
I135
s(I26
S'GAG'
p317
tp318
I4
s(I61
S'GGG'
p319
tp320
I1
s(I38
S'TCC'
p321
tp322
I50
s(I48
S'GAT'
p323
tp324
I9
s(I5
S'TCG'
p325
tp326
I1
s(I37
S'AAT'
p327
tp328
I57
s(I22
S'TGC'
p329
tp330
I22
s(I66
S'CCC'
p331
tp332
I871
s(I8
S'TGG'
p333
tp334
I32
s(I68
S'CGG'
p335
tp336
I2
s(I66
S'CGC'
p337
tp338
I4
s(I70
S'GTT'
p339
tp340
I33
s(I33
S'TAG'
p341
tp342
I39
s(I25
S'GGT'
p343
tp344
I14
s(I22
S'CGT'
p345
tp346
I19
s(I51
S'GCA'
p347
tp348
I42
s(I67
S'TGA'
p349
tp350
I1
s(I27
S'TCC'
p351
tp352
I3
s(I62
S'CTA'
p353
tp354
I257
s(I8
S'GGC'
p355
tp356
I3
s(I10
S'CAA'
p357
tp358
I182
s(I55
S'CGA'
p359
tp360
I55
s(I36
S'CGG'
p361
tp362
I3
s(I10
S'CAT'
p363
tp364
I66
s(I58
S'GTG'
p365
tp366
I57
s(I14
S'GGT'
p367
tp368
I68
s(I28
S'GTT'
p369
tp370
I115
s(I70
S'ACT'
p371
tp372
I3576
s(I10
S'GGA'
p373
tp374
I24
s(I31
S'TCG'
p375
tp376
I389
s(I41
S'GGG'
p377
tp378
I1623
s(I21
S'AAC'
p379
tp380
I11
s(I66
S'AGA'
p381
tp382
I2
s(I29
S'TTA'
p383
tp384
I90
s(I28
S'GTG'
p385
tp386
I390
s(I62
S'TGT'
p387
tp388
I323
s(I29
S'ATC'
p389
tp390
I8
s(I40
S'CTC'
p391
tp392
I193
s(I41
S'TTT'
p393
tp394
I111
s(I9
S'CGA'
p395
tp396
I3
s(I38
S'TCA'
p397
tp398
I55
s(I10
S'AGC'
p399
tp400
I119
s(I70
S'TGG'
p401
tp402
I2
s(I14
S'TGT'
p403
tp404
I4
s(I43
S'ACT'
p405
tp406
I1
s(I67
S'ATT'
p407
tp408
I1
s(I64
S'CCT'
p409
tp410
I6
s(I26
S'ATA'
p411
tp412
I216
s(I18
S'TGG'
p413
tp414
I24
s(I69
S'TAC'
p415
tp416
I78
s(I25
S'GAC'
p417
tp418
I150
s(I62
S'GCG'
p419
tp420
I1432
s(I51
S'TTG'
p421
tp422
I22
s(I57
S'AAA'
p423
tp424
I438
s(I53
S'AGT'
p425
tp426
I37
s(I49
S'TCC'
p427
tp428
I700
s(I9
S'GAC'
p429
tp430
I267
s(I58
S'GAC'
p431
tp432
I341
s(I61
S'GAG'
p433
tp434
I12
s(I30
S'TGC'
p435
tp436
I2438
s(I42
S'GTT'
p437
tp438
I292
s(I13
S'CTG'
p439
tp440
I12
s(I18
S'CTA'
p441
tp442
I37
s(I64
S'TCC'
p443
tp444
I7160
s(I10
S'CCA'
p445
tp446
I5
s(I64
S'CTA'
p447
tp448
I705
s(I66
S'CGG'
p449
tp450
I1
s(I69
S'AGC'
p451
tp452
I2158
s(I20
S'GGT'
p453
tp454
I90
s(I20
S'GCA'
p455
tp456
I129
s(I7
S'ACG'
p457
tp458
I23
s(I53
S'TTG'
p459
tp460
I179
s(I68
S'TCG'
p461
tp462
I1276
s(I25
S'GCG'
p463
tp464
I156
s(I8
S'CTA'
p465
tp466
I149
s(I66
S'TTC'
p467
tp468
I1
s(I32
S'AGG'
p469
tp470
I36
s(I4
S'CCC'
p471
tp472
I3
s(I26
S'ACG'
p473
tp474
I248
s(I54
S'CCG'
p475
tp476
I79
s(I14
S'TCA'
p477
tp478
I99
s(I73
S'TAA'
p479
tp480
I19
s(I63
S'AGA'
p481
tp482
I196
s(I21
S'CGT'
p483
tp484
I14
s(I38
S'GAA'
p485
tp486
I1
s(I13
S'GGG'
p487
tp488
I6
s(I69
S'CCA'
p489
tp490
I1
s(I70
S'CAA'
p491
tp492
I10
s(I27
S'TTG'
p493
tp494
I9
s(I9
S'TTC'
p495
tp496
I23
s(I71
S'CCT'
p497
tp498
I58
s(I25
S'TCC'
p499
tp500
I34
s(I61
S'GTG'
p501
tp502
I247
s(I64
S'TTT'
p503
tp504
I214
s(I7
S'CAT'
p505
tp506
I5
s(I76
S'GGG'
p507
tp508
I53
s(I41
S'AGG'
p509
tp510
I5
s(I50
S'ACG'
p511
tp512
I27
s(I20
S'AGA'
p513
tp514
I147
s(I10
S'TTT'
p515
tp516
I3
s(I52
S'ATA'
p517
tp518
I107
s(I60
S'GTT'
p519
tp520
I906
s(I31
S'TTC'
p521
tp522
I18
s(I18
S'GAC'
p523
tp524
I58
s(I29
S'TCG'
p525
tp526
I185
s(I63
S'CCC'
p527
tp528
I653
s(I32
S'TTG'
p529
tp530
I351
s(I29
S'CAA'
p531
tp532
I134
s(I64
S'GAC'
p533
tp534
I1513
s(I8
S'CGG'
p535
tp536
I3
s(I45
S'AGC'
p537
tp538
I250
s(I7
S'GCT'
p539
tp540
I346
s(I19
S'CAG'
p541
tp542
I182
s(I28
S'GGG'
p543
tp544
I156
s(I50
S'GTG'
p545
tp546
I61
s(I42
S'TTC'
p547
tp548
I499
s(I11
S'GGT'
p549
tp550
I273
s(I33
S'TGT'
p551
tp552
I14
s(I66
S'GTA'
p553
tp554
I173
s(I25
S'GGA'
p555
tp556
I21
s(I19
S'CGC'
p557
tp558
I56
s(I41
S'CTC'
p559
tp560
I467
s(I2
S'CCA'
p561
tp562
I1
s(I35
S'ACA'
p563
tp564
I736
s(I19
S'TGT'
p565
tp566
I101
s(I73
S'CAT'
p567
tp568
I1
s(I17
S'AGA'
p569
tp570
I5
s(I73
S'GGC'
p571
tp572
I6
s(I39
S'GTG'
p573
tp574
I6
s(I53
S'GGC'
p575
tp576
I224
s(I45
S'CCA'
p577
tp578
I1
s(I43
S'GTA'
p579
tp580
I147
s(I9
S'CCC'
p581
tp582
I983
s(I11
S'GCG'
p583
tp584
I1863
s(I3
S'GCG'
p585
tp586
I714
s(I43
S'CTA'
p587
tp588
I4
s(I63
S'CTA'
p589
tp590
I50
s(I66
S'AGT'
p591
tp592
I65
s(I28
S'GCG'
p593
tp594
I2
s(I18
S'GGT'
p595
tp596
I477
s(I60
S'CAC'
p597
tp598
I337
s(I17
S'AGG'
p599
tp600
I4
s(I64
S'TCA'
p601
tp602
I8518
s(I58
S'TTA'
p603
tp604
I5
s(I73
S'TGG'
p605
tp606
I1
s(I68
S'CTG'
p607
tp608
I2
s(I63
S'TTT'
p609
tp610
I14
s(I12
S'TGA'
p611
tp612
I39
s(I40
S'GTT'
p613
tp614
I1
s(I68
S'TTA'
p615
tp616
I2
s(I29
S'ATA'
p617
tp618
I77
s(I3
S'CCA'
p619
tp620
I1
s(I66
S'TCG'
p621
tp622
I34
s(I19
S'CTT'
p623
tp624
I7
s(I64
S'CCC'
p625
tp626
I15
s(I12
S'TAC'
p627
tp628
I5
s(I24
S'CTT'
p629
tp630
I19
s(I36
S'GCG'
p631
tp632
I23
s(I42
S'CGA'
p633
tp634
I171
s(I6
S'GGG'
p635
tp636
I7216
s(I45
S'TTC'
p637
tp638
I21
s(I26
S'GTA'
p639
tp640
I250
s(I72
S'AGC'
p641
tp642
I76
s(I17
S'CGC'
p643
tp644
I6
s(I6
S'TTT'
p645
tp646
I439
s(I55
S'ATA'
p647
tp648
I52
s(I36
S'CGA'
p649
tp650
I40
s(I48
S'GGT'
p651
tp652
I69
s(I28
S'AAG'
p653
tp654
I1
s(I64
S'CTC'
p655
tp656
I1509
s(I31
S'GCC'
p657
tp658
I316
s(I65
S'ATA'
p659
tp660
I72
s(I53
S'AAC'
p661
tp662
I74
s(I25
S'TAA'
p663
tp664
I6
s(I34
S'AAG'
p665
tp666
I20
s(I19
S'GAT'
p667
tp668
I31
s(I31
S'CGC'
p669
tp670
I104
s(I76
S'AGG'
p671
tp672
I19
s(I14
S'CCA'
p673
tp674
I2
s(I6
S'TCG'
p675
tp676
I190
s(I13
S'CAT'
p677
tp678
I72
s(I41
S'CTT'
p679
tp680
I318
s(I73
S'GTT'
p681
tp682
I2263
s(I47
S'AGT'
p683
tp684
I334
s(I26
S'ACC'
p685
tp686
I13
s(I60
S'CCT'
p687
tp688
I66
s(I62
S'CCA'
p689
tp690
I117
s(I58
S'GCG'
p691
tp692
I14
s(I42
S'AGT'
p693
tp694
I7
s(I26
S'CGC'
p695
tp696
I1
s(I54
S'CAG'
p697
tp698
I248
s(I53
S'GGG'
p699
tp700
I58
s(I59
S'GTC'
p701
tp702
I104
s(I70
S'AGA'
p703
tp704
I1
s(I61
S'ATA'
p705
tp706
I123
s(I39
S'TTT'
p707
tp708
I4
s(I48
S'GCC'
p709
tp710
I117
s(I38
S'CGA'
p711
tp712
I1
s(I2
S'GCC'
p713
tp714
I1
s(I27
S'AAA'
p715
tp716
I39
s(I33
S'ACC'
p717
tp718
I2
s(I70
S'CAT'
p719
tp720
I13
s(I57
S'CCA'
p721
tp722
I50
s(I8
S'AAA'
p723
tp724
I115
s(I23
S'AAA'
p725
tp726
I1
s(I19
S'AAG'
p727
tp728
I129
s(I71
S'TTA'
p729
tp730
I791
s(I7
S'GTA'
p731
tp732
I14
s(I28
S'CCA'
p733
tp734
I1
s(I48
S'GTC'
p735
tp736
I23
s(I13
S'CAA'
p737
tp738
I220
s(I18
S'CAA'
p739
tp740
I450
s(I70
S'ACC'
p741
tp742
I3791
s(I36
S'CAA'
p743
tp744
I1331
s(I49
S'TAG'
p745
tp746
I22
s(I8
S'GTG'
p747
tp748
I154
s(I58
S'CTG'
p749
tp750
I6
s(I22
S'GCA'
p751
tp752
I516
s(I60
S'TTC'
p753
tp754
I47
s(I38
S'TGA'
p755
tp756
I17
s(I9
S'CTT'
p757
tp758
I24
s(I52
S'AAA'
p759
tp760
I19
s(I7
S'GCA'
p761
tp762
I133
s(I58
S'CAA'
p763
tp764
I157
s(I5
S'GTG'
p765
tp766
I147
s(I18
S'AGT'
p767
tp768
I27
s(I41
S'GTC'
p769
tp770
I121
s(I57
S'AGC'
p771
tp772
I17
s(I17
S'ACA'
p773
tp774
I229
s(I51
S'CAT'
p775
tp776
I46
s(I41
S'AAA'
p777
tp778
I7
s(I73
S'TCA'
p779
tp780
I1
s(I66
S'CAC'
p781
tp782
I2952
s(I47
S'CTG'
p783
tp784
I11
s(I33
S'GCA'
p785
tp786
I4
s(I62
S'ATT'
p787
tp788
I507
s(I76
S'GGC'
p789
tp790
I47
s(I76
S'TTT'
p791
tp792
I23
s(I61
S'AGG'
p793
tp794
I1
s(I11
S'GCC'
p795
tp796
I735
s(I26
S'GGC'
p797
tp798
I2
s(I2
S'GAT'
p799
tp800
I2
s(I6
S'ACC'
p801
tp802
I129
s(I51
S'AGA'
p803
tp804
I1
s(I24
S'CGA'
p805
tp806
I20
s(I72
S'GGG'
p807
tp808
I805
s(I65
S'GCA'
p809
tp810
I592
s(I63
S'CTT'
p811
tp812
I47
s(I21
S'TAG'
p813
tp814
I8
s(I49
S'ATC'
p815
tp816
I125
s(I20
S'AAC'
p817
tp818
I409
s(I53
S'TCT'
p819
tp820
I72
s(I53
S'GCT'
p821
tp822
I21
s(I26
S'ATG'
p823
tp824
I59
s(I69
S'GAT'
p825
tp826
I63
s(I74
S'ATA'
p827
tp828
I84
s(I35
S'TCT'
p829
tp830
I247
s(I40
S'TCA'
p831
tp832
I307
s(I47
S'TCC'
p833
tp834
I680
s(I14
S'TCC'
p835
tp836
I14
s(I12
S'CCG'
p837
tp838
I116
s(I72
S'AAC'
p839
tp840
I480
s(I24
S'CTA'
p841
tp842
I191
s(I11
S'AAC'
p843
tp844
I2119
s(I5
S'GAA'
p845
tp846
I5
s(I34
S'TGT'
p847
tp848
I53
s(I65
S'GGG'
p849
tp850
I290
s(I36
S'AAC'
p851
tp852
I1
s(I33
S'AGC'
p853
tp854
I17
s(I70
S'GCG'
p855
tp856
I20
s(I27
S'CAT'
p857
tp858
I1
s(I8
S'CCA'
p859
tp860
I3
s(I72
S'ATG'
p861
tp862
I4
s(I60
S'CGG'
p863
tp864
I411
s(I53
S'AAT'
p865
tp866
I59
s(I53
S'TGG'
p867
tp868
I194
s(I32
S'AAG'
p869
tp870
I12
s(I10
S'GAT'
p871
tp872
I58
s(I40
S'ACT'
p873
tp874
I48
s(I67
S'AAA'
p875
tp876
I15
s(I38
S'CAG'
p877
tp878
I390
s(I57
S'GAG'
p879
tp880
I395
s(I30
S'GCC'
p881
tp882
I322
s(I43
S'CAG'
p883
tp884
I2
s(I29
S'TGG'
p885
tp886
I177
s(I19
S'TTT'
p887
tp888
I128
s(I12
S'ACG'
p889
tp890
I135
s(I35
S'CCA'
p891
tp892
I167
s(I28
S'CTG'
p893
tp894
I7
s(I53
S'ATG'
p895
tp896
I98
s(I56
S'ACC'
p897
tp898
I4
s(I9
S'TAT'
p899
tp900
I60
s(I25
S'TGC'
p901
tp902
I29
s(I30
S'TAA'
p903
tp904
I14
s(I16
S'ACG'
p905
tp906
I68
s(I30
S'GTC'
p907
tp908
I185
s(I29
S'GGA'
p909
tp910
I30
s(I63
S'TCG'
p911
tp912
I357
s(I44
S'AAC'
p913
tp914
I44
s(I45
S'TGT'
p915
tp916
I148
s(I40
S'GAA'
p917
tp918
I707
s(I51
S'GAT'
p919
tp920
I16
s(I35
S'AGC'
p921
tp922
I71
s(I7
S'CGA'
p923
tp924
I48
s(I69
S'TTG'
p925
tp926
I287
s(I64
S'CAA'
p927
tp928
I3604
s(I24
S'GAA'
p929
tp930
I86
s(I40
S'AAG'
p931
tp932
I270
s(I33
S'AGA'
p933
tp934
I77
s(I26
S'CTG'
p935
tp936
I214
s(I5
S'ATA'
p937
tp938
I32
s(I17
S'CCC'
p939
tp940
I19
s(I61
S'GCA'
p941
tp942
I50
s(I21
S'TCA'
p943
tp944
I350
s(I75
S'CGG'
p945
tp946
I26
s(I29
S'AAG'
p947
tp948
I50
s(I46
S'TAC'
p949
tp950
I1377
s(I22
S'GCT'
p951
tp952
I142
s(I32
S'TTC'
p953
tp954
I2
s(I44
S'GCC'
p955
tp956
I121
s(I54
S'TAC'
p957
tp958
I302
s(I74
S'ACG'
p959
tp960
I2
s(I29
S'CTG'
p961
tp962
I388
s(I69
S'GCG'
p963
tp964
I818
s(I11
S'CCA'
p965
tp966
I2470
s(I72
S'CGC'
p967
tp968
I3
s(I34
S'GTT'
p969
tp970
I5
s(I72
S'CCC'
p971
tp972
I468
s(I44
S'GAG'
p973
tp974
I1
s(I73
S'AAC'
p975
tp976
I86
s(I43
S'ATG'
p977
tp978
I1
s(I58
S'AGA'
p979
tp980
I17
s(I17
S'TTG'
p981
tp982
I120
s(I66
S'AAG'
p983
tp984
I29
s(I76
S'CCG'
p985
tp986
I13
s(I11
S'TTG'
p987
tp988
I19
s(I20
S'CCC'
p989
tp990
I584
s(I23
S'ACA'
p991
tp992
I42
s(I21
S'GTC'
p993
tp994
I9
s(I46
S'CCG'
p995
tp996
I20
s(I44
S'TGC'
p997
tp998
I3218
s(I50
S'GAG'
p999
tp1000
I851
s(I63
S'GCT'
p1001
tp1002
I7
s(I37
S'GTC'
p1003
tp1004
I575
s(I35
S'GAG'
p1005
tp1006
I140
s(I52
S'AGC'
p1007
tp1008
I40
s(I28
S'TGC'
p1009
tp1010
I38
s(I14
S'GCT'
p1011
tp1012
I67
s(I36
S'CTG'
p1013
tp1014
I2952
s(I34
S'GGG'
p1015
tp1016
I104
s(I25
S'ATT'
p1017
tp1018
I96
s(I69
S'AAT'
p1019
tp1020
I251
s(I54
S'TGC'
p1021
tp1022
I12
s(I34
S'CCC'
p1023
tp1024
I3
s(I20
S'ATG'
p1025
tp1026
I15
s(I38
S'GTT'
p1027
tp1028
I180
s(I45
S'ATA'
p1029
tp1030
I22
s(I63
S'GTT'
p1031
tp1032
I255
s(I32
S'TAA'
p1033
tp1034
I22
s(I52
S'GCA'
p1035
tp1036
I84
s(I46
S'GGC'
p1037
tp1038
I1436
s(I29
S'TTT'
p1039
tp1040
I42
s(I53
S'CCG'
p1041
tp1042
I96
s(I53
S'GAG'
p1043
tp1044
I31
s(I23
S'TCT'
p1045
tp1046
I16
s(I32
S'AAC'
p1047
tp1048
I11
s(I35
S'GCA'
p1049
tp1050
I105
s(I35
S'CTC'
p1051
tp1052
I240
s(I17
S'TCA'
p1053
tp1054
I173
s(I10
S'TAG'
p1055
tp1056
I2
s(I7
S'AAA'
p1057
tp1058
I1
s(I23
S'GCT'
p1059
tp1060
I2
s(I38
S'ACT'
p1061
tp1062
I400
s(I6
S'GAG'
p1063
tp1064
I125
s(I18
S'GGA'
p1065
tp1066
I268
s(I16
S'TTC'
p1067
tp1068
I84
s(I3
S'ACG'
p1069
tp1070
I22
s(I62
S'GGT'
p1071
tp1072
I6
s(I24
S'AGG'
p1073
tp1074
I67
s(I24
S'TAC'
p1075
tp1076
I35
s(I39
S'GGT'
p1077
tp1078
I3
s(I9
S'GAA'
p1079
tp1080
I8
s(I3
S'CGC'
p1081
tp1082
I9
s(I21
S'TCC'
p1083
tp1084
I147
s(I55
S'GCT'
p1085
tp1086
I55
s(I24
S'GCC'
p1087
tp1088
I33
s(I32
S'CCT'
p1089
tp1090
I133
s(I15
S'ATC'
p1091
tp1092
I598
s(I30
S'GTT'
p1093
tp1094
I250
s(I38
S'GTC'
p1095
tp1096
I67
s(I17
S'GCC'
p1097
tp1098
I128
s(I3
S'AAT'
p1099
tp1100
I3
s(I54
S'CTC'
p1101
tp1102
I81
s(I16
S'TCA'
p1103
tp1104
I129
s(I35
S'GGC'
p1105
tp1106
I10
s(I21
S'AGT'
p1107
tp1108
I2
s(I63
S'CGG'
p1109
tp1110
I214
s(I61
S'CGC'
p1111
tp1112
I27
s(I41
S'GAC'
p1113
tp1114
I4
s(I57
S'GTG'
p1115
tp1116
I392
s(I68
S'GGT'
p1117
tp1118
I22
s(I38
S'AAG'
p1119
tp1120
I95
s(I6
S'TAC'
p1121
tp1122
I590
s(I51
S'TCA'
p1123
tp1124
I87
s(I62
S'ACG'
p1125
tp1126
I2094
s(I41
S'GTG'
p1127
tp1128
I134
s(I56
S'GTT'
p1129
tp1130
I203
s(I58
S'CGG'
p1131
tp1132
I22
s(I45
S'CTC'
p1133
tp1134
I94
s(I64
S'AAC'
p1135
tp1136
I9051
s(I35
S'ATT'
p1137
tp1138
I576
s(I55
S'AAT'
p1139
tp1140
I166
s(I63
S'TAG'
p1141
tp1142
I4
s(I37
S'AGC'
p1143
tp1144
I823
s(I57
S'GCG'
p1145
tp1146
I59
s(I65
S'AAT'
p1147
tp1148
I321
s(I41
S'TAT'
p1149
tp1150
I45
s(I33
S'ATC'
p1151
tp1152
I44
s(I57
S'ACC'
p1153
tp1154
I131
s(I40
S'TTT'
p1155
tp1156
I25
s(I10
S'ATG'
p1157
tp1158
I1
s(I23
S'AGT'
p1159
tp1160
I37
s(I18
S'GTC'
p1161
tp1162
I452
s(I62
S'GTG'
p1163
tp1164
I1555
s(I69
S'CGT'
p1165
tp1166
I10
s(I16
S'GAG'
p1167
tp1168
I175
s(I59
S'GGA'
p1169
tp1170
I3
s(I60
S'GAT'
p1171
tp1172
I744
s(I27
S'ATT'
p1173
tp1174
I302
s(I70
S'GAA'
p1175
tp1176
I4
s(I9
S'TCT'
p1177
tp1178
I108
s(I69
S'GTT'
p1179
tp1180
I264
s(I5
S'TTA'
p1181
tp1182
I685
s(I13
S'TGA'
p1183
tp1184
I25
s(I29
S'ACA'
p1185
tp1186
I139
s(I37
S'CGT'
p1187
tp1188
I12
s(I39
S'CCT'
p1189
tp1190
I1
s(I47
S'CAC'
p1191
tp1192
I136
s(I64
S'TTC'
p1193
tp1194
I84
s(I52
S'CAC'
p1195
tp1196
I25
s(I37
S'TGC'
p1197
tp1198
I900
s(I9
S'AGG'
p1199
tp1200
I275
s(I75
S'CCT'
p1201
tp1202
I12
s(I20
S'GTA'
p1203
tp1204
I32
s(I38
S'TAT'
p1205
tp1206
I39
s(I74
S'GGG'
p1207
tp1208
I1
s(I41
S'TCC'
p1209
tp1210
I14
s(I52
S'TGA'
p1211
tp1212
I26
s(I15
S'GGG'
p1213
tp1214
I2
s(I59
S'AGG'
p1215
tp1216
I1
s(I48
S'ATC'
p1217
tp1218
I62
s(I31
S'CCC'
p1219
tp1220
I21
s(I61
S'TTT'
p1221
tp1222
I594
s(I63
S'GCA'
p1223
tp1224
I307
s(I13
S'AGC'
p1225
tp1226
I63
s(I26
S'GCG'
p1227
tp1228
I33
s(I17
S'GGA'
p1229
tp1230
I97
s(I45
S'TCG'
p1231
tp1232
I643
s(I11
S'GAC'
p1233
tp1234
I3908
s(I61
S'CTT'
p1235
tp1236
I1912
s(I21
S'ACC'
p1237
tp1238
I46
s(I66
S'CTT'
p1239
tp1240
I3098
s(I65
S'TGT'
p1241
tp1242
I345
s(I17
S'CTC'
p1243
tp1244
I54
s(I24
S'ATG'
p1245
tp1246
I72
s(I74
S'GCA'
p1247
tp1248
I10
s(I54
S'ATC'
p1249
tp1250
I16
s(I48
S'CAC'
p1251
tp1252
I53
s(I33
S'GAA'
p1253
tp1254
I20
s(I34
S'CAA'
p1255
tp1256
I5
s(I7
S'AAT'
p1257
tp1258
I4
s(I8
S'GAG'
p1259
tp1260
I1
s(I25
S'CAT'
p1261
tp1262
I82
s(I21
S'TTC'
p1263
tp1264
I42
s(I68
S'AGG'
p1265
tp1266
I22
s(I75
S'AAG'
p1267
tp1268
I3
s(I41
S'CCT'
p1269
tp1270
I3
s(I60
S'GCT'
p1271
tp1272
I1093
s(I7
S'GAA'
p1273
tp1274
I156
s(I6
S'CTC'
p1275
tp1276
I99
s(I37
S'ACC'
p1277
tp1278
I1615
s(I44
S'GTA'
p1279
tp1280
I55
s(I54
S'AAC'
p1281
tp1282
I9
s(I34
S'CGC'
p1283
tp1284
I1
s(I34
S'AGT'
p1285
tp1286
I11
s(I35
S'CGG'
p1287
tp1288
I295
s(I72
S'TCT'
p1289
tp1290
I241
s(I51
S'AAC'
p1291
tp1292
I48
s(I52
S'GTC'
p1293
tp1294
I15
s(I62
S'AGA'
p1295
tp1296
I710
s(I72
S'TCA'
p1297
tp1298
I82
s(I41
S'GCG'
p1299
tp1300
I68
s(I53
S'ACT'
p1301
tp1302
I8
s(I75
S'GAC'
p1303
tp1304
I1
s(I44
S'TGA'
p1305
tp1306
I1
s(I70
S'CTA'
p1307
tp1308
I141
s(I71
S'CTG'
p1309
tp1310
I169
s(I30
S'AAT'
p1311
tp1312
I1
s(I46
S'CGG'
p1313
tp1314
I319
s(I32
S'CCC'
p1315
tp1316
I82
s(I70
S'CGG'
p1317
tp1318
I13
s(I9
S'TTA'
p1319
tp1320
I49
s(I15
S'CCC'
p1321
tp1322
I9
s(I22
S'TCG'
p1323
tp1324
I77
s(I74
S'TGT'
p1325
tp1326
I1
s(I62
S'CAT'
p1327
tp1328
I418
s(I46
S'TGA'
p1329
tp1330
I28
s(I20
S'TTC'
p1331
tp1332
I43
s(I34
S'TCT'
p1333
tp1334
I12
s(I37
S'TAT'
p1335
tp1336
I174
s(I50
S'TGC'
p1337
tp1338
I547
s(I30
S'TTG'
p1339
tp1340
I118
s(I10
S'GTA'
p1341
tp1342
I2
s(I52
S'TGT'
p1343
tp1344
I14
s(I55
S'ATC'
p1345
tp1346
I453
s(I28
S'CAA'
p1347
tp1348
I237
s(I10
S'TCC'
p1349
tp1350
I371
s(I33
S'TCA'
p1351
tp1352
I27
s(I42
S'GAA'
p1353
tp1354
I23
s(I62
S'TGG'
p1355
tp1356
I598
s(I20
S'TCT'
p1357
tp1358
I62
s(I18
S'TTC'
p1359
tp1360
I715
s(I71
S'GCG'
p1361
tp1362
I2
s(I55
S'AGA'
p1363
tp1364
I101
s(I41
S'TTG'
p1365
tp1366
I1261
s(I9
S'CGT'
p1367
tp1368
I67
s(I10
S'AGT'
p1369
tp1370
I292
s(I72
S'ATT'
p1371
tp1372
I3
s(I41
S'CTA'
p1373
tp1374
I121
s(I51
S'CTT'
p1375
tp1376
I278
s(I11
S'TAA'
p1377
tp1378
I10
s(I4
S'ATG'
p1379
tp1380
I25
s(I69
S'CGA'
p1381
tp1382
I6
s(I38
S'AGA'
p1383
tp1384
I1
s(I44
S'CGG'
p1385
tp1386
I21
s(I62
S'GCT'
p1387
tp1388
I366
s(I50
S'GCG'
p1389
tp1390
I8
s(I38
S'CCG'
p1391
tp1392
I55
s(I53
S'AGG'
p1393
tp1394
I37
s(I36
S'ACA'
p1395
tp1396
I7812
s(I6
S'AGT'
p1397
tp1398
I84
s(I69
S'CAA'
p1399
tp1400
I35
s(I72
S'GTG'
p1401
tp1402
I66
s(I62
S'CTG'
p1403
tp1404
I830
s(I61
S'CCG'
p1405
tp1406
I4
s(I37
S'CCA'
p1407
tp1408
I221
s(I37
S'CGA'
p1409
tp1410
I56
s(I59
S'TCC'
p1411
tp1412
I2266
s(I68
S'GAC'
p1413
tp1414
I112
s(I16
S'GGG'
p1415
tp1416
I123
s(I6
S'TTG'
p1417
tp1418
I93
s(I15
S'TCG'
p1419
tp1420
I18
s(I67
S'AGT'
p1421
tp1422
I135
s(I19
S'ATA'
p1423
tp1424
I21
s(I37
S'TTA'
p1425
tp1426
I57
s(I59
S'GCC'
p1427
tp1428
I3204
s(I61
S'TTA'
p1429
tp1430
I619
s(I19
S'CCC'
p1431
tp1432
I140
s(I70
S'TGA'
p1433
tp1434
I6
s(I6
S'CCT'
p1435
tp1436
I5
s(I6
S'CAA'
p1437
tp1438
I100
s(I45
S'GTC'
p1439
tp1440
I11571
s(I40
S'GCT'
p1441
tp1442
I18
s(I10
S'AAC'
p1443
tp1444
I523
s(I53
S'ATC'
p1445
tp1446
I38
s(I25
S'AGC'
p1447
tp1448
I27
s(I63
S'AGT'
p1449
tp1450
I256
s(I21
S'CGC'
p1451
tp1452
I2
s(I9
S'CCA'
p1453
tp1454
I963
s(I23
S'CCG'
p1455
tp1456
I2
s(I60
S'ACC'
p1457
tp1458
I7
s(I57
S'AAG'
p1459
tp1460
I255
s(I34
S'GAG'
p1461
tp1462
I34
s(I15
S'AGA'
p1463
tp1464
I2
s(I19
S'CTG'
p1465
tp1466
I95
s(I76
S'TGG'
p1467
tp1468
I11
s(I22
S'TAG'
p1469
tp1470
I14
s(I20
S'TCG'
p1471
tp1472
I176
s(I71
S'CCG'
p1473
tp1474
I17
s(I41
S'TGT'
p1475
tp1476
I68
s(I7
S'CAC'
p1477
tp1478
I15
s(I62
S'AGG'
p1479
tp1480
I802
s(I19
S'AGA'
p1481
tp1482
I8
s(I10
S'ACT'
p1483
tp1484
I4
s(I35
S'CAG'
p1485
tp1486
I9
s(I15
S'TTA'
p1487
tp1488
I165
s(I10
S'TTA'
p1489
tp1490
I6
s(I72
S'TGC'
p1491
tp1492
I40
s(I60
S'GTG'
p1493
tp1494
I826
s(I11
S'TGA'
p1495
tp1496
I21
s(I46
S'ACC'
p1497
tp1498
I2682
s(I31
S'TGT'
p1499
tp1500
I286
s(I70
S'GAG'
p1501
tp1502
I2
s(I24
S'CAT'
p1503
tp1504
I190
s(I9
S'GGG'
p1505
tp1506
I218
s(I48
S'TAA'
p1507
tp1508
I2
s(I60
S'CAA'
p1509
tp1510
I400
s(I11
S'GGG'
p1511
tp1512
I44
s(I73
S'TAG'
p1513
tp1514
I18
s(I71
S'CAT'
p1515
tp1516
I16
s(I66
S'TGT'
p1517
tp1518
I12
s(I46
S'TCA'
p1519
tp1520
I25
s(I45
S'CAC'
p1521
tp1522
I67
s(I6
S'TGT'
p1523
tp1524
I11
s(I5
S'TGT'
p1525
tp1526
I920
s(I35
S'ACT'
p1527
tp1528
I268
s(I76
S'GCA'
p1529
tp1530
I1
s(I44
S'TCA'
p1531
tp1532
I42
s(I73
S'CAG'
p1533
tp1534
I5
s(I54
S'CGA'
p1535
tp1536
I39
s(I54
S'GCG'
p1537
tp1538
I48
s(I24
S'AGC'
p1539
tp1540
I36
s(I15
S'TGC'
p1541
tp1542
I6
s(I49
S'AAA'
p1543
tp1544
I160
s(I26
S'AAG'
p1545
tp1546
I1
s(I69
S'GAA'
p1547
tp1548
I20
s(I70
S'ATT'
p1549
tp1550
I10
s(I44
S'GGT'
p1551
tp1552
I4
s(I4
S'TAG'
p1553
tp1554
I7
s(I20
S'GAG'
p1555
tp1556
I136
s(I6
S'CAG'
p1557
tp1558
I221
s(I13
S'AAA'
p1559
tp1560
I224
s(I9
S'GTC'
p1561
tp1562
I2
s(I47
S'GAA'
p1563
tp1564
I9
s(I66
S'TTT'
p1565
tp1566
I21
s(I27
S'CGC'
p1567
tp1568
I36
s(I8
S'CGA'
p1569
tp1570
I8
s(I63
S'TTC'
p1571
tp1572
I49
s(I46
S'CTA'
p1573
tp1574
I140
s(I51
S'CTC'
p1575
tp1576
I657
s(I75
S'GGG'
p1577
tp1578
I78
s(I14
S'GCC'
p1579
tp1580
I7
s(I37
S'AAG'
p1581
tp1582
I111
s(I16
S'AAT'
p1583
tp1584
I407
s(I66
S'CGT'
p1585
tp1586
I1
s(I71
S'TGG'
p1587
tp1588
I5
s(I42
S'AAT'
p1589
tp1590
I333
s(I25
S'GGG'
p1591
tp1592
I92
s(I76
S'CAA'
p1593
tp1594
I4
s(I2
S'GGA'
p1595
tp1596
I6
s(I13
S'GTG'
p1597
tp1598
I149
s(I62
S'GAA'
p1599
tp1600
I477
s(I25
S'GCC'
p1601
tp1602
I344
s(I71
S'TCC'
p1603
tp1604
I10
s(I24
S'TTC'
p1605
tp1606
I58
s(I43
S'GTG'
p1607
tp1608
I367
s(I76
S'AGT'
p1609
tp1610
I5
s(I46
S'GAA'
p1611
tp1612
I14837
s(I3
S'GCA'
p1613
tp1614
I3916
s(I20
S'TTT'
p1615
tp1616
I212
s(I51
S'TGC'
p1617
tp1618
I11
s(I65
S'GGA'
p1619
tp1620
I1073
s(I48
S'TGG'
p1621
tp1622
I121
s(I3
S'CCC'
p1623
tp1624
I1
s(I20
S'TGG'
p1625
tp1626
I299
s(I57
S'CTA'
p1627
tp1628
I65
s(I65
S'TCT'
p1629
tp1630
I159
s(I39
S'ACA'
p1631
tp1632
I78
s(I37
S'TGA'
p1633
tp1634
I16
s(I45
S'CGC'
p1635
tp1636
I325
s(I36
S'TAT'
p1637
tp1638
I25
s(I12
S'TGG'
p1639
tp1640
I6
s(I61
S'AAT'
p1641
tp1642
I5
s(I14
S'TGC'
p1643
tp1644
I4
s(I47
S'AAA'
p1645
tp1646
I3
s(I42
S'ACG'
p1647
tp1648
I137
s(I44
S'TAT'
p1649
tp1650
I28
s(I66
S'TCA'
p1651
tp1652
I5
s(I55
S'TGC'
p1653
tp1654
I89
s(I39
S'TTC'
p1655
tp1656
I43
s(I36
S'ACT'
p1657
tp1658
I3603
s(I22
S'TAT'
p1659
tp1660
I67
s(I62
S'TTG'
p1661
tp1662
I14
s(I42
S'CGG'
p1663
tp1664
I245
s(I48
S'GCT'
p1665
tp1666
I35
s(I26
S'GTG'
p1667
tp1668
I50
s(I18
S'CGA'
p1669
tp1670
I24
s(I28
S'TAT'
p1671
tp1672
I75
s(I23
S'GGC'
p1673
tp1674
I5
s(I9
S'TGC'
p1675
tp1676
I2761
s(I28
S'AAA'
p1677
tp1678
I41
s(I69
S'TAT'
p1679
tp1680
I56
s(I57
S'TCC'
p1681
tp1682
I71
s(I42
S'GTG'
p1683
tp1684
I877
s(I50
S'TTC'
p1685
tp1686
I1
s(I25
S'TAG'
p1687
tp1688
I31
s(I56
S'TTT'
p1689
tp1690
I1
s(I14
S'CCG'
p1691
tp1692
I3
s(I5
S'GCT'
p1693
tp1694
I8
s(I72
S'TGT'
p1695
tp1696
I176
s(I58
S'AAG'
p1697
tp1698
I12
s(I38
S'CGT'
p1699
tp1700
I47
s(I32
S'CAA'
p1701
tp1702
I233
s(I62
S'CCG'
p1703
tp1704
I2316
s(I31
S'GTG'
p1705
tp1706
I568
s(I4
S'CTG'
p1707
tp1708
I47
s(I9
S'CTA'
p1709
tp1710
I474
s(I16
S'AGG'
p1711
tp1712
I323
s(I61
S'ACC'
p1713
tp1714
I1
s(I2
S'CGC'
p1715
tp1716
I5
s(I23
S'TTG'
p1717
tp1718
I37
s(I5
S'GTT'
p1719
tp1720
I40
s(I48
S'GTA'
p1721
tp1722
I12
s(I25
S'ACG'
p1723
tp1724
I135
s(I17
S'ACT'
p1725
tp1726
I221
s(I73
S'ATC'
p1727
tp1728
I4380
s(I50
S'CCC'
p1729
tp1730
I4
s(I11
S'ACA'
p1731
tp1732
I1525
s(I68
S'TAG'
p1733
tp1734
I2
s(I54
S'TTA'
p1735
tp1736
I118
s(I66
S'TGA'
p1737
tp1738
I1
s(I72
S'AGA'
p1739
tp1740
I34
s(I76
S'TTA'
p1741
tp1742
I9
s(I27
S'GGG'
p1743
tp1744
I1
s(I70
S'TCT'
p1745
tp1746
I56
s(I57
S'CCG'
p1747
tp1748
I24
s(I17
S'TGG'
p1749
tp1750
I9
s(I6
S'ACT'
p1751
tp1752
I491
s(I54
S'CGT'
p1753
tp1754
I40
s(I60
S'CCG'
p1755
tp1756
I1564
s(I71
S'TTG'
p1757
tp1758
I71
s(I12
S'GAC'
p1759
tp1760
I277
s(I36
S'CAG'
p1761
tp1762
I2409
s(I70
S'ATA'
p1763
tp1764
I5
s(I25
S'AAT'
p1765
tp1766
I58
s(I21
S'TAT'
p1767
tp1768
I58
s(I33
S'CTC'
p1769
tp1770
I21
s(I8
S'GTA'
p1771
tp1772
I214
s(I20
S'AAG'
p1773
tp1774
I93
s(I64
S'CAC'
p1775
tp1776
I1824
s(I53
S'GCC'
p1777
tp1778
I120
s(I29
S'TAT'
p1779
tp1780
I118
s(I45
S'AAC'
p1781
tp1782
I291
s(I47
S'GAT'
p1783
tp1784
I21
s(I42
S'GGA'
p1785
tp1786
I1548
s(I22
S'GAT'
p1787
tp1788
I291
s(I5
S'TAC'
p1789
tp1790
I425
s(I16
S'AAC'
p1791
tp1792
I93
s(I19
S'TGC'
p1793
tp1794
I21
s(I22
S'CTC'
p1795
tp1796
I159
s(I8
S'GCC'
p1797
tp1798
I12
s(I27
S'CTA'
p1799
tp1800
I200
s(I41
S'AAG'
p1801
tp1802
I22
s(I41
S'CGA'
p1803
tp1804
I2
s(I64
S'GAA'
p1805
tp1806
I294
s(I31
S'GGC'
p1807
tp1808
I193
s(I48
S'CAT'
p1809
tp1810
I17
s(I51
S'GTC'
p1811
tp1812
I527
s(I61
S'TCG'
p1813
tp1814
I7
s(I61
S'AGA'
p1815
tp1816
I1
s(I25
S'GCT'
p1817
tp1818
I29
s(I64
S'ATG'
p1819
tp1820
I1095
s(I52
S'TTA'
p1821
tp1822
I41
s(I25
S'GTC'
p1823
tp1824
I100
s(I33
S'GGC'
p1825
tp1826
I2
s(I40
S'GCC'
p1827
tp1828
I3
s(I54
S'AAA'
p1829
tp1830
I73
s(I28
S'CGC'
p1831
tp1832
I136
s(I5
S'AGC'
p1833
tp1834
I1
s(I70
S'AAC'
p1835
tp1836
I9
s(I28
S'GCT'
p1837
tp1838
I126
s(I25
S'ACC'
p1839
tp1840
I17
s(I3
S'CTC'
p1841
tp1842
I47
s(I15
S'AAA'
p1843
tp1844
I2
s(I7
S'GGC'
p1845
tp1846
I3
s(I73
S'TGT'
p1847
tp1848
I3
s(I4
S'TTT'
p1849
tp1850
I216
s(I25
S'CGC'
p1851
tp1852
I89
s(I22
S'GGA'
p1853
tp1854
I279
s(I67
S'GCC'
p1855
tp1856
I8289
s(I40
S'CAC'
p1857
tp1858
I397
s(I21
S'CAA'
p1859
tp1860
I14
s(I66
S'ATT'
p1861
tp1862
I588
s(I9
S'TAA'
p1863
tp1864
I28
s(I27
S'ACT'
p1865
tp1866
I34
s(I25
S'TGT'
p1867
tp1868
I254
s(I16
S'ACT'
p1869
tp1870
I58
s(I29
S'GGT'
p1871
tp1872
I30
s(I3
S'GGG'
p1873
tp1874
I3
s(I44
S'AAT'
p1875
tp1876
I44
s(I73
S'ACG'
p1877
tp1878
I25
s(I45
S'TGA'
p1879
tp1880
I1
s(I44
S'TCC'
p1881
tp1882
I199
s(I49
S'TAC'
p1883
tp1884
I44
s(I73
S'GCG'
p1885
tp1886
I48
s(I14
S'CGA'
p1887
tp1888
I2
s(I7
S'CCT'
p1889
tp1890
I3
s(I30
S'GAT'
p1891
tp1892
I2
s(I32
S'ACC'
p1893
tp1894
I55
s(I28
S'AAT'
p1895
tp1896
I139
s(I13
S'ACC'
p1897
tp1898
I11
s(I69
S'TCT'
p1899
tp1900
I525
s(I42
S'GAG'
p1901
tp1902
I3
s(I53
S'TAA'
p1903
tp1904
I4
s(I54
S'AAT'
p1905
tp1906
I179
s(I43
S'CCT'
p1907
tp1908
I1
s(I37
S'GGG'
p1909
tp1910
I26
s(I53
S'CGT'
p1911
tp1912
I69
s(I33
S'AAA'
p1913
tp1914
I96
s(I32
S'CTT'
p1915
tp1916
I159
s(I7
S'ATC'
p1917
tp1918
I366
s(I45
S'GGG'
p1919
tp1920
I1144
s(I5
S'GCA'
p1921
tp1922
I17
s(I27
S'AGG'
p1923
tp1924
I9
s(I49
S'AGT'
p1925
tp1926
I269
s(I5
S'CTA'
p1927
tp1928
I59
s(I71
S'CGC'
p1929
tp1930
I6
s(I56
S'ATA'
p1931
tp1932
I65
s(I33
S'TAC'
p1933
tp1934
I29
s(I26
S'CGT'
p1935
tp1936
I2
s(I47
S'GCA'
p1937
tp1938
I110
s(I29
S'CTT'
p1939
tp1940
I102
s(I63
S'TGC'
p1941
tp1942
I97
s(I34
S'CTT'
p1943
tp1944
I1
s(I16
S'GCA'
p1945
tp1946
I64
s(I72
S'CGT'
p1947
tp1948
I170
s(I54
S'CCA'
p1949
tp1950
I4
s(I21
S'ACA'
p1951
tp1952
I10
s(I58
S'ACA'
p1953
tp1954
I19
s(I65
S'GAA'
p1955
tp1956
I5079
s(I54
S'CCC'
p1957
tp1958
I250
s(I20
S'CAA'
p1959
tp1960
I57
s(I40
S'GAG'
p1961
tp1962
I5221
s(I48
S'TCA'
p1963
tp1964
I11
s(I36
S'AGG'
p1965
tp1966
I1
s(I58
S'GCA'
p1967
tp1968
I68
s(I2
S'GCT'
p1969
tp1970
I2
s(I58
S'AAC'
p1971
tp1972
I32
s(I70
S'TAA'
p1973
tp1974
I27
s(I21
S'TTA'
p1975
tp1976
I28
s(I24
S'GAG'
p1977
tp1978
I6
s(I5
S'ACC'
p1979
tp1980
I106
s(I42
S'CCG'
p1981
tp1982
I2
s(I36
S'GCC'
p1983
tp1984
I46
s(I46
S'CCT'
p1985
tp1986
I8
s(I35
S'AAT'
p1987
tp1988
I91
s(I64
S'ACA'
p1989
tp1990
I186
s(I27
S'CAC'
p1991
tp1992
I38
s(I61
S'GCG'
p1993
tp1994
I45
s(I33
S'CAT'
p1995
tp1996
I2
s(I24
S'ACT'
p1997
tp1998
I18
s(I41
S'CAT'
p1999
tp2000
I3
s(I46
S'ATT'
p2001
tp2002
I1243
s(I34
S'GGT'
p2003
tp2004
I113
s(I25
S'ATA'
p2005
tp2006
I221
s(I14
S'GTC'
p2007
tp2008
I3
s(I24
S'AAG'
p2009
tp2010
I3
s(I42
S'GGT'
p2011
tp2012
I59
s(I22
S'GAC'
p2013
tp2014
I79
s(I70
S'CTC'
p2015
tp2016
I559
s(I69
S'CTC'
p2017
tp2018
I136
s(I23
S'CAC'
p2019
tp2020
I11
s(I73
S'AGT'
p2021
tp2022
I3
s(I46
S'CAG'
p2023
tp2024
I542
s(I51
S'CAG'
p2025
tp2026
I422
s(I48
S'CGC'
p2027
tp2028
I135
s(I8
S'AGC'
p2029
tp2030
I2
s(I60
S'TCG'
p2031
tp2032
I541
s(I59
S'TAG'
p2033
tp2034
I13
s(I69
S'TTC'
p2035
tp2036
I1540
s(I35
S'GCT'
p2037
tp2038
I460
s(I48
S'ACC'
p2039
tp2040
I21
s(I67
S'TAG'
p2041
tp2042
I3
s(I40
S'GGC'
p2043
tp2044
I500
s(I23
S'GCG'
p2045
tp2046
I4
s(I76
S'CCA'
p2047
tp2048
I4
s(I8
S'ACG'
p2049
tp2050
I3
s(I23
S'ACG'
p2051
tp2052
I181
s(I26
S'CCG'
p2053
tp2054
I62
s(I3
S'ATG'
p2055
tp2056
I82
s(I73
S'AGA'
p2057
tp2058
I123
s(I72
S'GGT'
p2059
tp2060
I2046
s(I48
S'GAA'
p2061
tp2062
I32
s(I60
S'CTT'
p2063
tp2064
I115
s(I54
S'TTT'
p2065
tp2066
I8
s(I51
S'ATT'
p2067
tp2068
I137
s(I39
S'GGG'
p2069
tp2070
I6
s(I61
S'GAT'
p2071
tp2072
I2
s(I11
S'CTC'
p2073
tp2074
I380
s(I21
S'TCT'
p2075
tp2076
I71
s(I61
S'CAC'
p2077
tp2078
I1
s(I70
S'AGC'
p2079
tp2080
I8
s(I36
S'CTA'
p2081
tp2082
I1083
s(I32
S'GAA'
p2083
tp2084
I126
s(I55
S'GCG'
p2085
tp2086
I8
s(I41
S'CTG'
p2087
tp2088
I264
s(I6
S'AGA'
p2089
tp2090
I22
s(I25
S'CGT'
p2091
tp2092
I3
s(I63
S'ATC'
p2093
tp2094
I242
s(I67
S'AGC'
p2095
tp2096
I542
s(I56
S'GCG'
p2097
tp2098
I14
s(I24
S'ACA'
p2099
tp2100
I3
s(I30
S'GAG'
p2101
tp2102
I3
s(I55
S'GTA'
p2103
tp2104
I33
s(I30
S'CTG'
p2105
tp2106
I69
s(I36
S'ACC'
p2107
tp2108
I5200
s(I38
S'AAT'
p2109
tp2110
I320
s(I24
S'GTT'
p2111
tp2112
I52
s(I27
S'CAG'
p2113
tp2114
I69
s(I66
S'ACG'
p2115
tp2116
I181
s(I14
S'CGT'
p2117
tp2118
I3
s(I31
S'GAC'
p2119
tp2120
I14
s(I53
S'TAC'
p2121
tp2122
I189
s(I56
S'GTG'
p2123
tp2124
I153
s(I27
S'GCT'
p2125
tp2126
I68
s(I60
S'CGT'
p2127
tp2128
I19
s(I47
S'ACC'
p2129
tp2130
I39
s(I41
S'CCA'
p2131
tp2132
I2
s(I15
S'GAC'
p2133
tp2134
I1
s(I75
S'CTC'
p2135
tp2136
I2
s(I35
S'TGA'
p2137
tp2138
I14
s(I69
S'TCA'
p2139
tp2140
I55
s(I65
S'AAC'
p2141
tp2142
I368
s(I16
S'CCG'
p2143
tp2144
I110
s(I45
S'GCC'
p2145
tp2146
I2
s(I49
S'AGA'
p2147
tp2148
I4
s(I19
S'TTG'
p2149
tp2150
I8
s(I15
S'ACA'
p2151
tp2152
I156
s(I13
S'GTC'
p2153
tp2154
I620
s(I2
S'AGA'
p2155
tp2156
I2
s(I37
S'CAC'
p2157
tp2158
I254
s(I42
S'CAC'
p2159
tp2160
I60
s(I15
S'CGA'
p2161
tp2162
I1
s(I65
S'CAG'
p2163
tp2164
I132
s(I9
S'TCA'
p2165
tp2166
I36
s(I66
S'GAG'
p2167
tp2168
I260
s(I32
S'GTC'
p2169
tp2170
I44
s(I32
S'TCC'
p2171
tp2172
I55
s(I39
S'CGG'
p2173
tp2174
I1
s(I39
S'CCG'
p2175
tp2176
I7
s(I73
S'TTT'
p2177
tp2178
I2
s(I52
S'GTA'
p2179
tp2180
I22
s(I46
S'AGA'
p2181
tp2182
I1304
s(I72
S'TAA'
p2183
tp2184
I19
s(I62
S'TCA'
p2185
tp2186
I482
s(I75
S'CCG'
p2187
tp2188
I81
s(I38
S'TAC'
p2189
tp2190
I7
s(I59
S'AAC'
p2191
tp2192
I380
s(I34
S'TAA'
p2193
tp2194
I2
s(I34
S'CGG'
p2195
tp2196
I3
s(I8
S'ATC'
p2197
tp2198
I1
s(I43
S'TGA'
p2199
tp2200
I8
s(I64
S'ACT'
p2201
tp2202
I2048
s(I15
S'TTC'
p2203
tp2204
I68
s(I71
S'TAA'
p2205
tp2206
I12
s(I10
S'ATA'
p2207
tp2208
I1
s(I15
S'GCT'
p2209
tp2210
I240
s(I7
S'TAC'
p2211
tp2212
I1
s(I63
S'CAA'
p2213
tp2214
I75
s(I68
S'CAA'
p2215
tp2216
I1002
s(I15
S'TCC'
p2217
tp2218
I81
s(I50
S'GGT'
p2219
tp2220
I1
s(I52
S'AAG'
p2221
tp2222
I1
s(I19
S'TAT'
p2223
tp2224
I194
s(I57
S'ACA'
p2225
tp2226
I42
s(I49
S'TGC'
p2227
tp2228
I103
s(I27
S'TAT'
p2229
tp2230
I147
s(I18
S'GCA'
p2231
tp2232
I115
s(I28
S'ATA'
p2233
tp2234
I69
s(I21
S'GCT'
p2235
tp2236
I58
s(I7
S'AGT'
p2237
tp2238
I207
s(I28
S'TTG'
p2239
tp2240
I321
s(I26
S'CCT'
p2241
tp2242
I4
s(I59
S'TGC'
p2243
tp2244
I1746
s(I13
S'CGT'
p2245
tp2246
I787
s(I60
S'GCA'
p2247
tp2248
I106
s(I5
S'CAT'
p2249
tp2250
I1
s(I25
S'CTA'
p2251
tp2252
I255
s(I51
S'ATC'
p2253
tp2254
I272
s(I76
S'CCT'
p2255
tp2256
I3
s(I24
S'GAT'
p2257
tp2258
I26
s(I21
S'GTT'
p2259
tp2260
I180
s(I49
S'GTG'
p2261
tp2262
I15
s(I15
S'GGA'
p2263
tp2264
I4
s(I42
S'TCT'
p2265
tp2266
I3
s(I12
S'TCG'
p2267
tp2268
I1
s(I75
S'TAC'
p2269
tp2270
I12
s(I53
S'ACG'
p2271
tp2272
I2
s(I38
S'GGC'
p2273
tp2274
I60
s(I67
S'CGC'
p2275
tp2276
I14
s(I45
S'TCA'
p2277
tp2278
I20747
s(I49
S'CGG'
p2279
tp2280
I2
s(I71
S'CCC'
p2281
tp2282
I2
s(I19
S'TCA'
p2283
tp2284
I6
s(I38
S'GTG'
p2285
tp2286
I283
s(I5
S'TAT'
p2287
tp2288
I52
s(I39
S'CAA'
p2289
tp2290
I10
s(I44
S'CAA'
p2291
tp2292
I29
s(I49
S'ACC'
p2293
tp2294
I16
s(I74
S'GCG'
p2295
tp2296
I6
s(I71
S'GCA'
p2297
tp2298
I3
s(I40
S'ATC'
p2299
tp2300
I4
s(I43
S'GAG'
p2301
tp2302
I1
s(I65
S'CGA'
p2303
tp2304
I917
s(I62
S'CGC'
p2305
tp2306
I2
s(I54
S'GTG'
p2307
tp2308
I28
s(I19
S'GGT'
p2309
tp2310
I648
s(I61
S'TGT'
p2311
tp2312
I105
s(I31
S'GAT'
p2313
tp2314
I70
s(I36
S'ATA'
p2315
tp2316
I240
s(I4
S'TTG'
p2317
tp2318
I5
s(I44
S'AGT'
p2319
tp2320
I35
s(I40
S'CCC'
p2321
tp2322
I10
s(I9
S'GCC'
p2323
tp2324
I534
s(I10
S'TGT'
p2325
tp2326
I9
s(I13
S'TTA'
p2327
tp2328
I9
s(I48
S'ATG'
p2329
tp2330
I62
s(I72
S'CCG'
p2331
tp2332
I40
s(I35
S'CGA'
p2333
tp2334
I11
s(I27
S'GTG'
p2335
tp2336
I13
s(I33
S'CGA'
p2337
tp2338
I5
s(I49
S'GTC'
p2339
tp2340
I1
s(I75
S'GTT'
p2341
tp2342
I2
s(I9
S'ATA'
p2343
tp2344
I1699
s(I73
S'GTC'
p2345
tp2346
I520
s(I52
S'GGC'
p2347
tp2348
I9
s(I48
S'AAC'
p2349
tp2350
I1
s(I15
S'TAA'
p2351
tp2352
I43
s(I22
S'CGG'
p2353
tp2354
I2
s(I17
S'TAT'
p2355
tp2356
I572
s(I8
S'CCC'
p2357
tp2358
I3
s(I56
S'AGG'
p2359
tp2360
I1
s(I30
S'TCC'
p2361
tp2362
I9
s(I43
S'GCG'
p2363
tp2364
I1
s(I55
S'TAG'
p2365
tp2366
I15
s(I5
S'TCA'
p2367
tp2368
I6
s(I19
S'GAC'
p2369
tp2370
I291
s(I68
S'GCG'
p2371
tp2372
I24
s(I28
S'TCC'
p2373
tp2374
I91
s(I7
S'TCA'
p2375
tp2376
I634
s(I64
S'GGA'
p2377
tp2378
I1201
s(I72
S'CTG'
p2379
tp2380
I139
s(I75
S'TAG'
p2381
tp2382
I605
s(I62
S'TGA'
p2383
tp2384
I2
s(I63
S'TAT'
p2385
tp2386
I316
s(I30
S'CCT'
p2387
tp2388
I2
s(I23
S'ATT'
p2389
tp2390
I32
s(I64
S'GGT'
p2391
tp2392
I105
s(I12
S'GCT'
p2393
tp2394
I3
s(I58
S'TGG'
p2395
tp2396
I218
s(I66
S'AAC'
p2397
tp2398
I124
s(I71
S'TAT'
p2399
tp2400
I12
s(I24
S'GGG'
p2401
tp2402
I34
s(I6
S'CCA'
p2403
tp2404
I4
s(I7
S'TGT'
p2405
tp2406
I177
s(I72
S'GCA'
p2407
tp2408
I119
s(I67
S'CCC'
p2409
tp2410
I6
s(I12
S'AAC'
p2411
tp2412
I4
s(I69
S'CGG'
p2413
tp2414
I2
s(I38
S'GGG'
p2415
tp2416
I721
s(I3
S'GAA'
p2417
tp2418
I17
s(I68
S'GCC'
p2419
tp2420
I117
s(I74
S'TCG'
p2421
tp2422
I10
s(I19
S'TAC'
p2423
tp2424
I54
s(I18
S'CCC'
p2425
tp2426
I33
s(I44
S'GTC'
p2427
tp2428
I26
s(I58
S'GGG'
p2429
tp2430
I17
s(I53
S'AGA'
p2431
tp2432
I12
s(I27
S'TAC'
p2433
tp2434
I336
s(I4
S'GCG'
p2435
tp2436
I13
s(I66
S'GGG'
p2437
tp2438
I263
s(I72
S'GTA'
p2439
tp2440
I212
s(I64
S'CGG'
p2441
tp2442
I54
s(I65
S'AGT'
p2443
tp2444
I37
s(I37
S'CGG'
p2445
tp2446
I172
s(I64
S'TCT'
p2447
tp2448
I6202
s(I13
S'CGA'
p2449
tp2450
I558
s(I53
S'GAC'
p2451
tp2452
I54
s(I6
S'TTA'
p2453
tp2454
I583
s(I18
S'TCT'
p2455
tp2456
I60
s(I58
S'CAT'
p2457
tp2458
I29
s(I4
S'CAG'
p2459
tp2460
I6
s(I21
S'ATG'
p2461
tp2462
I236
s(I70
S'CGT'
p2463
tp2464
I5
s(I32
S'CGG'
p2465
tp2466
I44
s(I21
S'CTC'
p2467
tp2468
I5
s(I21
S'CTG'
p2469
tp2470
I121
s(I5
S'GGA'
p2471
tp2472
I6
s(I68
S'CCT'
p2473
tp2474
I38
s(I47
S'TCT'
p2475
tp2476
I609
s(I54
S'GAT'
p2477
tp2478
I1
s(I15
S'ATG'
p2479
tp2480
I141
s(I37
S'GCC'
p2481
tp2482
I1
s(I63
S'GGT'
p2483
tp2484
I173
s(I26
S'TTC'
p2485
tp2486
I2
s(I60
S'AGC'
p2487
tp2488
I14
s(I66
S'CTG'
p2489
tp2490
I602
s(I49
S'TTG'
p2491
tp2492
I1
s(I12
S'CTT'
p2493
tp2494
I5
s(I23
S'CCA'
p2495
tp2496
I11
s(I17
S'CTT'
p2497
tp2498
I56
s(I6
S'TGG'
p2499
tp2500
I204
s(I5
S'TGA'
p2501
tp2502
I179
s(I71
S'CCA'
p2503
tp2504
I7
s(I50
S'ACC'
p2505
tp2506
I415
s(I19
S'GGA'
p2507
tp2508
I153
s(I53
S'TTC'
p2509
tp2510
I106
s(I19
S'AGG'
p2511
tp2512
I6
s(I70
S'AAA'
p2513
tp2514
I31
s(I14
S'AAT'
p2515
tp2516
I6
s(I32
S'TAT'
p2517
tp2518
I1
s(I35
S'GTC'
p2519
tp2520
I511
s(I67
S'GGC'
p2521
tp2522
I731
s(I21
S'GGC'
p2523
tp2524
I103
s(I53
S'GTA'
p2525
tp2526
I15
s(I40
S'TAT'
p2527
tp2528
I4
s(I18
S'AAA'
p2529
tp2530
I1
s(I20
S'GAT'
p2531
tp2532
I41
s(I11
S'ACT'
p2533
tp2534
I755
s(I69
S'GGA'
p2535
tp2536
I222
s(I57
S'TAA'
p2537
tp2538
I5
s(I23
S'AGC'
p2539
tp2540
I24
s(I64
S'TGG'
p2541
tp2542
I8
s(I28
S'TCA'
p2543
tp2544
I305
s(I40
S'AGT'
p2545
tp2546
I23
s(I14
S'TTG'
p2547
tp2548
I1
s(I71
S'CTT'
p2549
tp2550
I65
s(I21
S'TGG'
p2551
tp2552
I148
s(I36
S'TCG'
p2553
tp2554
I98
s(I66
S'CGA'
p2555
tp2556
I4
s(I32
S'GGA'
p2557
tp2558
I75
s(I8
S'AAT'
p2559
tp2560
I8
s(I51
S'GCC'
p2561
tp2562
I30
s(I63
S'CGC'
p2563
tp2564
I251
s(I33
S'GCG'
p2565
tp2566
I10
s(I17
S'TCG'
p2567
tp2568
I292
s(I25
S'TTG'
p2569
tp2570
I43
s(I45
S'GAT'
p2571
tp2572
I19
s(I22
S'CAT'
p2573
tp2574
I82
s(I60
S'GGG'
p2575
tp2576
I221
s(I5
S'TCT'
p2577
tp2578
I5
s(I24
S'CCA'
p2579
tp2580
I100
s(I57
S'CTG'
p2581
tp2582
I111
s(I10
S'GGG'
p2583
tp2584
I29
s(I76
S'ATC'
p2585
tp2586
I35
s(I48
S'TCG'
p2587
tp2588
I13
s(I40
S'TTC'
p2589
tp2590
I26
s(I66
S'AGC'
p2591
tp2592
I18
s(I54
S'TCC'
p2593
tp2594
I1
s(I18
S'GGG'
p2595
tp2596
I1
s(I4
S'TAA'
p2597
tp2598
I8
s(I56
S'GGC'
p2599
tp2600
I31
s(I17
S'AGT'
p2601
tp2602
I518
s(I52
S'CGG'
p2603
tp2604
I3
s(I36
S'TGT'
p2605
tp2606
I2149
s(I58
S'TTT'
p2607
tp2608
I112
s(I64
S'GGC'
p2609
tp2610
I1316
s(I7
S'TCC'
p2611
tp2612
I33
s(I15
S'CAC'
p2613
tp2614
I22
s(I36
S'TAG'
p2615
tp2616
I1
s(I46
S'CTG'
p2617
tp2618
I229
s(I19
S'GTG'
p2619
tp2620
I6
s(I11
S'ATC'
p2621
tp2622
I94
s(I19
S'ACA'
p2623
tp2624
I186
s(I44
S'TAG'
p2625
tp2626
I17
s(I18
S'TGA'
p2627
tp2628
I13
s(I60
S'AGA'
p2629
tp2630
I17
s(I28
S'TCT'
p2631
tp2632
I129
s(I66
S'GTC'
p2633
tp2634
I51
s(I42
S'CGT'
p2635
tp2636
I260
s(I20
S'CGG'
p2637
tp2638
I89
s(I22
S'CCC'
p2639
tp2640
I122
s(I59
S'ACC'
p2641
tp2642
I3
s(I32
S'GGC'
p2643
tp2644
I192
s(I2
S'CCC'
p2645
tp2646
I3
s(I2
S'TCT'
p2647
tp2648
I11
s(I19
S'ACG'
p2649
tp2650
I80
s(I29
S'GCT'
p2651
tp2652
I3
s(I40
S'TGC'
p2653
tp2654
I1
s(I25
S'TAT'
p2655
tp2656
I232
s(I72
S'GAG'
p2657
tp2658
I4
s(I18
S'CTG'
p2659
tp2660
I263
s(I54
S'AGG'
p2661
tp2662
I139
s(I26
S'TGC'
p2663
tp2664
I80
s(I11
S'CAC'
p2665
tp2666
I28
s(I14
S'CCT'
p2667
tp2668
I2
s(I16
S'CAC'
p2669
tp2670
I148
s(I12
S'CCT'
p2671
tp2672
I43
s(I53
S'CAC'
p2673
tp2674
I349
s(I58
S'CAC'
p2675
tp2676
I6
s(I10
S'AAT'
p2677
tp2678
I12
s(I48
S'CCT'
p2679
tp2680
I5
s(I20
S'GCC'
p2681
tp2682
I200
s(I40
S'CTT'
p2683
tp2684
I107
s(I36
S'TGC'
p2685
tp2686
I960
s(I16
S'TAC'
p2687
tp2688
I40
s(I39
S'GTA'
p2689
tp2690
I2
s(I70
S'AGT'
p2691
tp2692
I27
s(I54
S'GAC'
p2693
tp2694
I272
s(I65
S'CCC'
p2695
tp2696
I572
s(I67
S'CGG'
p2697
tp2698
I10
s(I68
S'CTT'
p2699
tp2700
I1
s(I37
S'TCA'
p2701
tp2702
I248
s(I63
S'AGG'
p2703
tp2704
I229
s(I74
S'TCT'
p2705
tp2706
I18
s(I36
S'GGG'
p2707
tp2708
I6
s(I60
S'ACT'
p2709
tp2710
I140
s(I18
S'CGG'
p2711
tp2712
I36
s(I70
S'TCG'
p2713
tp2714
I44
s(I9
S'GAT'
p2715
tp2716
I1048
s(I69
S'CCG'
p2717
tp2718
I18
s(I70
S'CAC'
p2719
tp2720
I2
s(I36
S'GTC'
p2721
tp2722
I376
s(I62
S'AAA'
p2723
tp2724
I485
s(I75
S'CAC'
p2725
tp2726
I81
s(I53
S'CAA'
p2727
tp2728
I78
s(I7
S'GTT'
p2729
tp2730
I157
s(I41
S'AGA'
p2731
tp2732
I23
s(I75
S'ATC'
p2733
tp2734
I14
s(I42
S'TTG'
p2735
tp2736
I90
s(I57
S'TAG'
p2737
tp2738
I14
s(I52
S'ATG'
p2739
tp2740
I7
s(I27
S'TGT'
p2741
tp2742
I2
s(I8
S'GTT'
p2743
tp2744
I31
s(I6
S'GTC'
p2745
tp2746
I568
s(I3
S'CTG'
p2747
tp2748
I86
s(I65
S'TAG'
p2749
tp2750
I1
s(I29
S'CAC'
p2751
tp2752
I55
s(I4
S'CTA'
p2753
tp2754
I58
s(I43
S'TTT'
p2755
tp2756
I18
s(I25
S'GTA'
p2757
tp2758
I30
s(I9
S'CTG'
p2759
tp2760
I471
s(I60
S'TAC'
p2761
tp2762
I70
s(I67
S'TTC'
p2763
tp2764
I1905
s(I72
S'TTC'
p2765
tp2766
I814
s(I39
S'ACC'
p2767
tp2768
I15
s(I8
S'TAA'
p2769
tp2770
I53
s(I39
S'GCG'
p2771
tp2772
I21
s(I8
S'GCT'
p2773
tp2774
I8
s(I55
S'CCT'
p2775
tp2776
I22
s(I49
S'CTA'
p2777
tp2778
I17
s(I4
S'GCC'
p2779
tp2780
I1
s(I21
S'CCG'
p2781
tp2782
I1
s(I76
S'TTG'
p2783
tp2784
I1
s(I39
S'AGG'
p2785
tp2786
I1
s(I34
S'ACG'
p2787
tp2788
I31
s(I71
S'GTA'
p2789
tp2790
I19
s(I11
S'TAT'
p2791
tp2792
I13
s(I68
S'TGA'
p2793
tp2794
I2
s(I73
S'GGA'
p2795
tp2796
I3
s(I50
S'GCC'
p2797
tp2798
I12
s(I45
S'CCG'
p2799
tp2800
I1
s(I38
S'CTA'
p2801
tp2802
I90
s(I15
S'TTT'
p2803
tp2804
I430
s(I43
S'CTC'
p2805
tp2806
I219
s(I42
S'GAT'
p2807
tp2808
I33
s(I69
S'TTT'
p2809
tp2810
I8551
s(I63
S'CTC'
p2811
tp2812
I35
s(I55
S'CAA'
p2813
tp2814
I78
s(I28
S'GCA'
p2815
tp2816
I10
s(I76
S'CGT'
p2817
tp2818
I9
s(I28
S'GGT'
p2819
tp2820
I38
s(I20
S'AAA'
p2821
tp2822
I205
s(I6
S'CAT'
p2823
tp2824
I300
s(I17
S'GGG'
p2825
tp2826
I58
s(I38
S'TAA'
p2827
tp2828
I6
s(I35
S'TCG'
p2829
tp2830
I59
s(I3
S'GAC'
p2831
tp2832
I5
s(I66
S'ATG'
p2833
tp2834
I244
s(I23
S'TGG'
p2835
tp2836
I2
s(I29
S'GAG'
p2837
tp2838
I142
s(I5
S'GGT'
p2839
tp2840
I3
s(I69
S'ATG'
p2841
tp2842
I194
s(I35
S'TGC'
p2843
tp2844
I216
s(I11
S'AGC'
p2845
tp2846
I416
s(I59
S'ACT'
p2847
tp2848
I4
s(I17
S'CGA'
p2849
tp2850
I7
s(I45
S'TAC'
p2851
tp2852
I57
s(I13
S'GAG'
p2853
tp2854
I248
s(I30
S'ACA'
p2855
tp2856
I5
s(I38
S'TAG'
p2857
tp2858
I125
s(I65
S'ATC'
p2859
tp2860
I219
s(I52
S'TTG'
p2861
tp2862
I30
s(I53
S'CGC'
p2863
tp2864
I30
s(I75
S'TTC'
p2865
tp2866
I5
s(I11
S'CAT'
p2867
tp2868
I18
s(I54
S'GAA'
p2869
tp2870
I13
s(I10
S'GAC'
p2871
tp2872
I79
s(I6
S'CGG'
p2873
tp2874
I108
s(I57
S'GAT'
p2875
tp2876
I88
s(I71
S'ATT'
p2877
tp2878
I36
s(I36
S'GCT'
p2879
tp2880
I22
s(I22
S'GGG'
p2881
tp2882
I244
s(I13
S'ACG'
p2883
tp2884
I1
s(I15
S'CTG'
p2885
tp2886
I123
s(I6
S'GCC'
p2887
tp2888
I164
s(I9
S'TAG'
p2889
tp2890
I14
s(I55
S'TCA'
p2891
tp2892
I416
s(I61
S'ATC'
p2893
tp2894
I25
s(I72
S'TCG'
p2895
tp2896
I152
s(I17
S'TAG'
p2897
tp2898
I7
s(I62
S'TTT'
p2899
tp2900
I292
s(I73
S'ACA'
p2901
tp2902
I4
s(I15
S'AAC'
p2903
tp2904
I4
s(I51
S'CCA'
p2905
tp2906
I43
s(I36
S'AGT'
p2907
tp2908
I27
s(I28
S'ATC'
p2909
tp2910
I39
s(I2
S'GCA'
p2911
tp2912
I2
s(I46
S'CAA'
p2913
tp2914
I7936
s(I57
S'ATG'
p2915
tp2916
I214
s(I76
S'TCC'
p2917
tp2918
I14
s(I8
S'AAC'
p2919
tp2920
I1
s(I23
S'AAC'
p2921
tp2922
I4
s(I59
S'AGA'
p2923
tp2924
I51
s(I7
S'GTC'
p2925
tp2926
I156
s(I6
S'ATT'
p2927
tp2928
I2245
s(I29
S'CGT'
p2929
tp2930
I44
s(I13
S'CAC'
p2931
tp2932
I33
s(I5
S'GCG'
p2933
tp2934
I1
s(I18
S'CAC'
p2935
tp2936
I291
s(I4
S'CAC'
p2937
tp2938
I5
s(I41
S'CAG'
p2939
tp2940
I32
s(I75
S'CGT'
p2941
tp2942
I3
s(I22
S'ACG'
p2943
tp2944
I249
s(I46
S'ATG'
p2945
tp2946
I2390
s(I71
S'AGG'
p2947
tp2948
I2
s(I46
S'TAT'
p2949
tp2950
I8473
s(I22
S'GCG'
p2951
tp2952
I57
s(I56
S'ATG'
p2953
tp2954
I2
s(I38
S'TGC'
p2955
tp2956
I1
s(I54
S'TAT'
p2957
tp2958
I135
s(I7
S'GCC'
p2959
tp2960
I370
s(I9
S'GGA'
p2961
tp2962
I273
s(I17
S'ACC'
p2963
tp2964
I100
s(I27
S'TGG'
p2965
tp2966
I31
s(I48
S'CGT'
p2967
tp2968
I37
s(I11
S'TAG'
p2969
tp2970
I13
s(I32
S'TGC'
p2971
tp2972
I50
s(I73
S'TCC'
p2973
tp2974
I4
s(I20
S'CAG'
p2975
tp2976
I225
s(I22
S'GTG'
p2977
tp2978
I148
s(I73
S'AAT'
p2979
tp2980
I1
s(I52
S'CTG'
p2981
tp2982
I1
s(I62
S'TAG'
p2983
tp2984
I24
s(I16
S'CGG'
p2985
tp2986
I19
s(I68
S'TAT'
p2987
tp2988
I7
s(I70
S'TAG'
p2989
tp2990
I7
s(I53
S'CTC'
p2991
tp2992
I59
s(I17
S'TGT'
p2993
tp2994
I295
s(I8
S'ACT'
p2995
tp2996
I8
s(I37
S'GAT'
p2997
tp2998
I379
s(I42
S'TGT'
p2999
tp3000
I1652
s(I61
S'TTG'
p3001
tp3002
I2578
s(I65
S'ACG'
p3003
tp3004
I372
s(I72
S'GGA'
p3005
tp3006
I641
s(I52
S'TCC'
p3007
tp3008
I58
s(I65
S'GCG'
p3009
tp3010
I80
s(I69
S'GAG'
p3011
tp3012
I34
s(I76
S'CGC'
p3013
tp3014
I41
s(I24
S'ACC'
p3015
tp3016
I45
s(I24
S'TCT'
p3017
tp3018
I48
s(I39
S'CTA'
p3019
tp3020
I1
s(I47
S'GAG'
p3021
tp3022
I6
s(I17
S'CAG'
p3023
tp3024
I24
s(I76
S'ACC'
p3025
tp3026
I17
s(I65
S'TTA'
p3027
tp3028
I92
s(I36
S'GTA'
p3029
tp3030
I71
s(I16
S'AGT'
p3031
tp3032
I10
s(I57
S'CCT'
p3033
tp3034
I203
s(I57
S'AGT'
p3035
tp3036
I116
s(I24
S'CTC'
p3037
tp3038
I3
s(I37
S'ATG'
p3039
tp3040
I181
s(I5
S'GAC'
p3041
tp3042
I5
s(I60
S'GAG'
p3043
tp3044
I229
s(I16
S'ATT'
p3045
tp3046
I63
s(I4
S'GAT'
p3047
tp3048
I10
s(I63
S'ATG'
p3049
tp3050
I49
s(I17
S'TAA'
p3051
tp3052
I1
s(I50
S'GGC'
p3053
tp3054
I2
s(I75
S'CAA'
p3055
tp3056
I101
s(I27
S'GCG'
p3057
tp3058
I123
s(I60
S'CGA'
p3059
tp3060
I241
s(I73
S'GAA'
p3061
tp3062
I3
s(I59
S'ATC'
p3063
tp3064
I185
s(I75
S'TTT'
p3065
tp3066
I2
s(I62
S'GGG'
p3067
tp3068
I1214
s(I55
S'TTC'
p3069
tp3070
I9
s(I38
S'CTT'
p3071
tp3072
I99
s(I39
S'GGA'
p3073
tp3074
I13
s(I38
S'TGT'
p3075
tp3076
I145
s(I21
S'GAC'
p3077
tp3078
I64
s(I57
S'GAA'
p3079
tp3080
I82
s(I30
S'GCA'
p3081
tp3082
I114
s(I29
S'TGA'
p3083
tp3084
I82
s(I51
S'TTT'
p3085
tp3086
I6
s(I32
S'GAG'
p3087
tp3088
I48
s(I35
S'CCC'
p3089
tp3090
I683
s(I56
S'ACA'
p3091
tp3092
I20
s(I56
S'GCA'
p3093
tp3094
I14
s(I54
S'CTT'
p3095
tp3096
I43
s(I40
S'GTC'
p3097
tp3098
I7
s(I41
S'GCA'
p3099
tp3100
I1
s(I51
S'CCT'
p3101
tp3102
I33
s(I29
S'GGG'
p3103
tp3104
I45
s(I17
S'ATA'
p3105
tp3106
I185
s(I32
S'AAA'
p3107
tp3108
I145
s(I32
S'TCA'
p3109
tp3110
I476
s(I73
S'TTG'
p3111
tp3112
I474
s(I15
S'GTG'
p3113
tp3114
I27
s(I56
S'GTA'
p3115
tp3116
I53
s(I65
S'GGC'
p3117
tp3118
I449
s(I7
S'GAT'
p3119
tp3120
I4
s(I70
S'CTG'
p3121
tp3122
I296
s(I60
S'ATT'
p3123
tp3124
I315
s(I51
S'GGG'
p3125
tp3126
I7
s(I48
S'GAG'
p3127
tp3128
I19
s(I6
S'ATA'
p3129
tp3130
I2403
s(I5
S'ATC'
p3131
tp3132
I144
s(I17
S'CCA'
p3133
tp3134
I10
s(I29
S'GTA'
p3135
tp3136
I59
s(I14
S'TAG'
p3137
tp3138
I4
s(I4
S'AAA'
p3139
tp3140
I1
s(I13
S'GAC'
p3141
tp3142
I15
s(I10
S'ATT'
p3143
tp3144
I1
s(I55
S'CCA'
p3145
tp3146
I259
s(I15
S'GCG'
p3147
tp3148
I119
s(I30
S'GGG'
p3149
tp3150
I1
s(I46
S'TAA'
p3151
tp3152
I5
s(I15
S'ACG'
p3153
tp3154
I6
s(I7
S'ATA'
p3155
tp3156
I16
s(I54
S'TAA'
p3157
tp3158
I14
s(I74
S'ACA'
p3159
tp3160
I1
s(I21
S'CTT'
p3161
tp3162
I163
s(I63
S'TGT'
p3163
tp3164
I158
s(I27
S'ATG'
p3165
tp3166
I238
s(I34
S'CTG'
p3167
tp3168
I9
s(I5
S'CTT'
p3169
tp3170
I174
s(I11
S'CCC'
p3171
tp3172
I428
s(I65
S'CAA'
p3173
tp3174
I183
s(I59
S'AGC'
p3175
tp3176
I782
s(I32
S'CAC'
p3177
tp3178
I280
s(I21
S'GCC'
p3179
tp3180
I108
s(I52
S'CCC'
p3181
tp3182
I37
s(I28
S'TTT'
p3183
tp3184
I49
s(I62
S'ATC'
p3185
tp3186
I116
s(I69
S'GGT'
p3187
tp3188
I3140
s(I39
S'CCA'
p3189
tp3190
I4
s(I63
S'ACC'
p3191
tp3192
I118
s(I51
S'CGC'
p3193
tp3194
I4
s(I22
S'TTC'
p3195
tp3196
I190
s(I76
S'GCC'
p3197
tp3198
I1
s(I9
S'AGT'
p3199
tp3200
I43
s(I21
S'GTA'
p3201
tp3202
I133
s(I38
S'GCT'
p3203
tp3204
I255
s(I15
S'GGT'
p3205
tp3206
I18
s(I74
S'GTT'
p3207
tp3208
I1
s(I20
S'ACA'
p3209
tp3210
I1
s(I39
S'GAC'
p3211
tp3212
I119
s(I37
S'GTA'
p3213
tp3214
I1704
s(I57
S'GGC'
p3215
tp3216
I163
s(I8
S'GAT'
p3217
tp3218
I3
s(I28
S'TGA'
p3219
tp3220
I19
s(I63
S'CAG'
p3221
tp3222
I222
s(I6
S'TAG'
p3223
tp3224
I8
s(I68
S'CAG'
p3225
tp3226
I165
s(I39
S'CTT'
p3227
tp3228
I3
s(I51
S'TAG'
p3229
tp3230
I17
s(I47
S'AAG'
p3231
tp3232
I6
s(I44
S'CTT'
p3233
tp3234
I1893
s(I23
S'GAC'
p3235
tp3236
I2
s(I48
S'TTT'
p3237
tp3238
I10
s(I45
S'ATC'
p3239
tp3240
I2363
s(I23
S'GTT'
p3241
tp3242
I179
s(I74
S'GCT'
p3243
tp3244
I1
s(I18
S'GCG'
p3245
tp3246
I28
s(I30
S'ACG'
p3247
tp3248
I5
s(I34
S'CAT'
p3249
tp3250
I18
s(I46
S'GGA'
p3251
tp3252
I216
s(I24
S'TGA'
p3253
tp3254
I7
s(I29
S'CCA'
p3255
tp3256
I2
s(I46
S'AGG'
p3257
tp3258
I97
s(I34
S'TGC'
p3259
tp3260
I17
s(I59
S'TAT'
p3261
tp3262
I36
s(I54
S'GGA'
p3263
tp3264
I111
s(I35
S'GCC'
p3265
tp3266
I31
s(I8
S'CAC'
p3267
tp3268
I10
s(I60
S'TGC'
p3269
tp3270
I7
s(I67
S'TAT'
p3271
tp3272
I9
s(I36
S'ATT'
p3273
tp3274
I1
s(I7
S'AAC'
p3275
tp3276
I11
s(I25
S'CTG'
p3277
tp3278
I76
s(I17
S'GCG'
p3279
tp3280
I111
s(I6
S'GAA'
p3281
tp3282
I332
s(I6
S'GCT'
p3283
tp3284
I342
s(I24
S'GTC'
p3285
tp3286
I136
s(I34
S'AGC'
p3287
tp3288
I15
s(I46
S'TGG'
p3289
tp3290
I132
s(I35
S'CGT'
p3291
tp3292
I1307
s(I19
S'AGC'
p3293
tp3294
I190
s(I38
S'ATG'
p3295
tp3296
I164
s(I56
S'TGG'
p3297
tp3298
I2
s(I64
S'AAG'
p3299
tp3300
I65
s(I62
S'AGT'
p3301
tp3302
I1368
s(I76
S'TGA'
p3303
tp3304
I11
s(I61
S'GAC'
p3305
tp3306
I3
s(I54
S'ACA'
p3307
tp3308
I46
s(I74
S'CGC'
p3309
tp3310
I159
s(I27
S'ATC'
p3311
tp3312
I280
s(I66
S'GTT'
p3313
tp3314
I109
s(I19
S'TCG'
p3315
tp3316
I182
s(I28
S'AGA'
p3317
tp3318
I66
s(I56
S'ACT'
p3319
tp3320
I9
s(I13
S'CCT'
p3321
tp3322
I1
s(I22
S'TCT'
p3323
tp3324
I7
s(I56
S'GCT'
p3325
tp3326
I17
s(I75
S'ATT'
p3327
tp3328
I1
s(I54
S'CTA'
p3329
tp3330
I35
s(I67
S'GTC'
p3331
tp3332
I215
s(I67
S'CAC'
p3333
tp3334
I10
s(I59
S'CTC'
p3335
tp3336
I321
s(I35
S'GAA'
p3337
tp3338
I36
s(I63
S'CGA'
p3339
tp3340
I29
s(I61
S'CGA'
p3341
tp3342
I6
s(I71
S'TGA'
p3343
tp3344
I21
s(I66
S'GCT'
p3345
tp3346
I1
s(I38
S'CGC'
p3347
tp3348
I27
s(I38
S'GAC'
p3349
tp3350
I30
s(I16
S'GAC'
p3351
tp3352
I106
s(I66
S'ACT'
p3353
tp3354
I41
s(I28
S'CAT'
p3355
tp3356
I91
s(I22
S'AGG'
p3357
tp3358
I226
s(I33
S'TCT'
p3359
tp3360
I57
s(I41
S'AAT'
p3361
tp3362
I133
s(I28
S'ATT'
p3363
tp3364
I49
s(I27
S'GTA'
p3365
tp3366
I1
s(I16
S'CCT'
p3367
tp3368
I324
s(I24
S'ATC'
p3369
tp3370
I36
s(I43
S'TGG'
p3371
tp3372
I2
s(I68
S'TGC'
p3373
tp3374
I129
s(I55
S'ACT'
p3375
tp3376
I11
s(I26
S'TTG'
p3377
tp3378
I32
s(I57
S'GCC'
p3379
tp3380
I35
s(I63
S'CGT'
p3381
tp3382
I391
s(I38
S'AGT'
p3383
tp3384
I54
s(I9
S'GCA'
p3385
tp3386
I272
s(I47
S'CGG'
p3387
tp3388
I1
s(I48
S'CAG'
p3389
tp3390
I4
s(I33
S'CCC'
p3391
tp3392
I11
s(I72
S'CAA'
p3393
tp3394
I763
s(I59
S'GGC'
p3395
tp3396
I2
s(I39
S'ATA'
p3397
tp3398
I9
s(I69
S'ACT'
p3399
tp3400
I128
s(I22
S'TAC'
p3401
tp3402
I281
s(I9
S'GTT'
p3403
tp3404
I343
s(I58
S'GGT'
p3405
tp3406
I10
s(I9
S'CAT'
p3407
tp3408
I4182
s(I46
S'ACG'
p3409
tp3410
I987
s(I45
S'ACG'
p3411
tp3412
I1511
s(I47
S'TAA'
p3413
tp3414
I9
s(I9
S'GGC'
p3415
tp3416
I1189
s(I37
S'ACA'
p3417
tp3418
I58
s(I72
S'GTT'
p3419
tp3420
I257
s(I43
S'GCA'
p3421
tp3422
I1
s(I13
S'TGC'
p3423
tp3424
I246
s(I65
S'AGG'
p3425
tp3426
I603
s(I41
S'GAT'
p3427
tp3428
I3
s(I3
S'TAG'
p3429
tp3430
I1
s(I13
S'TAG'
p3431
tp3432
I32
s(I47
S'CAA'
p3433
tp3434
I774
s(I67
S'GAG'
p3435
tp3436
I14
s(I52
S'CAA'
p3437
tp3438
I17
s(I33
S'AGT'
p3439
tp3440
I20
s(I36
S'CCG'
p3441
tp3442
I373
s(I20
S'GTC'
p3443
tp3444
I20
s(I18
S'ACA'
p3445
tp3446
I126
s(I60
S'TCT'
p3447
tp3448
I173
s(I9
S'TGG'
p3449
tp3450
I1
s(I2
S'ACA'
p3451
tp3452
I2
s(I39
S'AGA'
p3453
tp3454
I1
s(I51
S'GAG'
p3455
tp3456
I39
s(I66
S'CAT'
p3457
tp3458
I2202
s(I74
S'GTA'
p3459
tp3460
I3
s(I22
S'AGC'
p3461
tp3462
I90
s(I52
S'AGT'
p3463
tp3464
I13
s(I36
S'CGT'
p3465
tp3466
I4
s(I74
S'AGG'
p3467
tp3468
I146
s(I3
S'AGC'
p3469
tp3470
I4
s(I63
S'GGG'
p3471
tp3472
I39
s(I71
S'GGG'
p3473
tp3474
I2
s(I23
S'CCT'
p3475
tp3476
I37
s(I17
S'CTA'
p3477
tp3478
I67
s(I51
S'AAG'
p3479
tp3480
I6
s(I22
S'ATT'
p3481
tp3482
I109
s(I37
S'CTA'
p3483
tp3484
I201
s(I33
S'GAC'
p3485
tp3486
I29
s(I42
S'CTC'
p3487
tp3488
I45
s(I34
S'CAC'
p3489
tp3490
I19
s(I64
S'CGA'
p3491
tp3492
I1
s(I7
S'AGG'
p3493
tp3494
I6
s(I18
S'GTT'
p3495
tp3496
I252
s(I57
S'CAG'
p3497
tp3498
I51
s(I40
S'TCG'
p3499
tp3500
I169
s(I75
S'AAA'
p3501
tp3502
I5
s(I64
S'GTT'
p3503
tp3504
I13
s(I13
S'CGG'
p3505
tp3506
I1
s(I14
S'AAA'
p3507
tp3508
I5
s(I13
S'CCG'
p3509
tp3510
I6
s(I49
S'GGT'
p3511
tp3512
I1615
s(I6
S'CTA'
p3513
tp3514
I198
s(I12
S'ATC'
p3515
tp3516
I459
s(I7
S'TTG'
p3517
tp3518
I2
s(I40
S'TAG'
p3519
tp3520
I16
s(I57
S'CGG'
p3521
tp3522
I61
s(I31
S'CTC'
p3523
tp3524
I46
s(I34
S'GCC'
p3525
tp3526
I18
s(I6
S'TAA'
p3527
tp3528
I12
s(I32
S'CGA'
p3529
tp3530
I54
s(I37
S'TTG'
p3531
tp3532
I135
s(I62
S'AGC'
p3533
tp3534
I316
s(I54
S'ACT'
p3535
tp3536
I53
s(I20
S'TGA'
p3537
tp3538
I21
s(I75
S'GAA'
p3539
tp3540
I2
s(I38
S'GGT'
p3541
tp3542
I74
s(I61
S'TAG'
p3543
tp3544
I17
s(I68
S'TAA'
p3545
tp3546
I9
s(I37
S'TGT'
p3547
tp3548
I1042
s(I51
S'TCG'
p3549
tp3550
I26
s(I28
S'AGT'
p3551
tp3552
I63
s(I38
S'CTC'
p3553
tp3554
I21
s(I67
S'TGC'
p3555
tp3556
I196
s(I22
S'TCA'
p3557
tp3558
I797
s(I12
S'ATA'
p3559
tp3560
I47
s(I14
S'ACT'
p3561
tp3562
I82
s(I6
S'TGA'
p3563
tp3564
I37
s(I55
S'AAA'
p3565
tp3566
I537
s(I36
S'ACG'
p3567
tp3568
I4863
s(I68
S'GTC'
p3569
tp3570
I357
s(I45
S'GAG'
p3571
tp3572
I19
s(I51
S'TAA'
p3573
tp3574
I7
s(I4
S'GGA'
p3575
tp3576
I8
s(I5
S'AGT'
p3577
tp3578
I2
s(I10
S'CAC'
p3579
tp3580
I71
s(I57
S'CTT'
p3581
tp3582
I25
s(I55
S'CTA'
p3583
tp3584
I53
s(I28
S'GTA'
p3585
tp3586
I206
s(I18
S'AAT'
p3587
tp3588
I265
s(I33
S'CAG'
p3589
tp3590
I2
s(I33
S'TCC'
p3591
tp3592
I31
s(I53
S'GTG'
p3593
tp3594
I35
s(I44
S'GGC'
p3595
tp3596
I126
s(I8
S'TCG'
p3597
tp3598
I5
s(I41
S'TCT'
p3599
tp3600
I53
s(I7
S'TAA'
p3601
tp3602
I26
s(I27
S'GTT'
p3603
tp3604
I11
s(I69
S'TCG'
p3605
tp3606
I155
s(I55
S'CAC'
p3607
tp3608
I57
s(I72
S'TAT'
p3609
tp3610
I5
s(I10
S'GCT'
p3611
tp3612
I48
s(I61
S'GGC'
p3613
tp3614
I5
s(I39
S'TAG'
p3615
tp3616
I21
s(I14
S'TTA'
p3617
tp3618
I1
s(I40
S'GGG'
p3619
tp3620
I11
s(I28
S'ACC'
p3621
tp3622
I16
s(I8
S'TGC'
p3623
tp3624
I12
s(I38
S'AGC'
p3625
tp3626
I20
s(I20
S'ATA'
p3627
tp3628
I294
s(I4
S'TAT'
p3629
tp3630
I307
s(I72
S'CAT'
p3631
tp3632
I20
s(I44
S'CGA'
p3633
tp3634
I2
s(I46
S'TTG'
p3635
tp3636
I4
s(I40
S'ACC'
p3637
tp3638
I72
s(I55
S'TCC'
p3639
tp3640
I26
s(I27
S'TCG'
p3641
tp3642
I17
s(I18
S'ACT'
p3643
tp3644
I96
s(I27
S'AAC'
p3645
tp3646
I1
s(I76
S'GCG'
p3647
tp3648
I1
s(I25
S'TTA'
p3649
tp3650
I160
s(I42
S'TAC'
p3651
tp3652
I2
s(I60
S'GGA'
p3653
tp3654
I217
s(I29
S'GCC'
p3655
tp3656
I20
s(I67
S'CTG'
p3657
tp3658
I6
s(I16
S'AGA'
p3659
tp3660
I94
s(I68
S'GAA'
p3661
tp3662
I17
s(I57
S'TTG'
p3663
tp3664
I133
s(I31
S'TCC'
p3665
tp3666
I278
s(I67
S'TTT'
p3667
tp3668
I740
s(I51
S'AGC'
p3669
tp3670
I158
s(I48
S'CCA'
p3671
tp3672
I2
s(I11
S'TAC'
p3673
tp3674
I4
s(I40
S'CTG'
p3675
tp3676
I413
s(I45
S'CGT'
p3677
tp3678
I4
s(I61
S'TTC'
p3679
tp3680
I117
s(I70
S'TGC'
p3681
tp3682
I109
s(I19
S'GTA'
p3683
tp3684
I20
s(I42
S'TCA'
p3685
tp3686
I27
s(I45
S'GTA'
p3687
tp3688
I6729
s(I10
S'CGT'
p3689
tp3690
I36
s(I74
S'GAC'
p3691
tp3692
I1
s(I25
S'GAG'
p3693
tp3694
I102
s(I62
S'GCC'
p3695
tp3696
I457
s(I28
S'GAG'
p3697
tp3698
I359
s(I21
S'CGA'
p3699
tp3700
I4
s(I26
S'TCA'
p3701
tp3702
I2
s(I60
S'ACA'
p3703
tp3704
I181
s(I18
S'CGT'
p3705
tp3706
I3
s(I67
S'ACG'
p3707
tp3708
I10994
s(I67
S'CGT'
p3709
tp3710
I12
s(I49
S'TCG'
p3711
tp3712
I1256
s(I37
S'CTT'
p3713
tp3714
I234
s(I70
S'GGC'
p3715
tp3716
I13
s(I22
S'TTG'
p3717
tp3718
I44
s(I9
S'GAG'
p3719
tp3720
I27
s(I64
S'CGT'
p3721
tp3722
I58
s(I18
S'GTA'
p3723
tp3724
I214
s(I3
S'CTA'
p3725
tp3726
I66
s(I23
S'TGA'
p3727
tp3728
I17
s(I13
S'CTC'
p3729
tp3730
I6
s(I7
S'CAA'
p3731
tp3732
I455
s(I55
S'TTG'
p3733
tp3734
I144
s(I56
S'CCA'
p3735
tp3736
I1
s(I69
S'TGT'
p3737
tp3738
I906
s(I9
S'ACA'
p3739
tp3740
I189
s(I60
S'GTA'
p3741
tp3742
I24
s(I50
S'ATG'
p3743
tp3744
I76
s(I11
S'TGG'
p3745
tp3746
I13
s(I65
S'TAT'
p3747
tp3748
I593
s(I2
S'TCA'
p3749
tp3750
I5
s(I32
S'CGT'
p3751
tp3752
I113
s(I35
S'TAG'
p3753
tp3754
I22
s(I68
S'TCC'
p3755
tp3756
I580
s(I31
S'AGC'
p3757
tp3758
I192
s(I17
S'ATC'
p3759
tp3760
I283
s(I66
S'TTG'
p3761
tp3762
I2699
s(I44
S'ACC'
p3763
tp3764
I2168
s(I35
S'AGT'
p3765
tp3766
I17
s(I34
S'TCC'
p3767
tp3768
I137
s(I62
S'TCC'
p3769
tp3770
I243
s(I2
S'TAG'
p3771
tp3772
I22
s(I67
S'CGA'
p3773
tp3774
I21
s(I62
S'AAT'
p3775
tp3776
I669
s(I25
S'AGT'
p3777
tp3778
I415
s(I63
S'GAG'
p3779
tp3780
I40
s(I43
S'CGG'
p3781
tp3782
I2
s(I27
S'AGA'
p3783
tp3784
I369
s(I36
S'GGA'
p3785
tp3786
I2
s(I46
S'TCC'
p3787
tp3788
I587
s(I13
S'GGC'
p3789
tp3790
I2
s(I66
S'CTC'
p3791
tp3792
I439
s(I27
S'GGT'
p3793
tp3794
I1
s(I41
S'GGA'
p3795
tp3796
I497
s(I16
S'TCG'
p3797
tp3798
I158
s(I57
S'TCA'
p3799
tp3800
I33
s(I25
S'TCG'
p3801
tp3802
I19
s(I54
S'CGG'
p3803
tp3804
I163
s(I11
S'CGG'
p3805
tp3806
I13
s(I51
S'ACC'
p3807
tp3808
I173
s(I42
S'AAG'
p3809
tp3810
I48
s(I74
S'AAG'
p3811
tp3812
I282
s(I31
S'TTG'
p3813
tp3814
I15
s(I66
S'GAA'
p3815
tp3816
I285
s(I11
S'ACG'
p3817
tp3818
I142
s(I9
S'GTA'
p3819
tp3820
I257
s(I8
S'CGC'
p3821
tp3822
I3
s(I63
S'TTA'
p3823
tp3824
I197
s(I19
S'CAC'
p3825
tp3826
I72
s(I71
S'CAG'
p3827
tp3828
I19
s(I4
S'GAC'
p3829
tp3830
I6
s(I75
S'GGA'
p3831
tp3832
I31
s(I14
S'GCA'
p3833
tp3834
I18
s(I8
S'TGT'
p3835
tp3836
I14
s(I43
S'ATT'
p3837
tp3838
I31
s(I9
S'AAC'
p3839
tp3840
I102
s(I65
S'GGT'
p3841
tp3842
I106
s(I27
S'CTT'
p3843
tp3844
I31
s(I13
S'AAC'
p3845
tp3846
I16
s(I49
S'CTG'
p3847
tp3848
I1
s(I2
S'GGG'
p3849
tp3850
I1
s(I17
S'CGT'
p3851
tp3852
I3
s(I45
S'CAT'
p3853
tp3854
I1327
s(I15
S'TGT'
p3855
tp3856
I52
s(I48
S'GGC'
p3857
tp3858
I82
s(I25
S'GCA'
p3859
tp3860
I30
s(I58
S'CCC'
p3861
tp3862
I6
s(I70
S'AGG'
p3863
tp3864
I6
s(I20
S'TAG'
p3865
tp3866
I6
s(I73
S'GCT'
p3867
tp3868
I21
s(I73
S'GGG'
p3869
tp3870
I1
s(I52
S'TTT'
p3871
tp3872
I54
s(I77
S'TGG'
p3873
tp3874
I123
s(I68
S'GAT'
p3875
tp3876
I69
s(I14
S'GGC'
p3877
tp3878
I87
s(I9
S'CCG'
p3879
tp3880
I392
s(I70
S'ACG'
p3881
tp3882
I1106
s(I3
S'GCC'
p3883
tp3884
I470
s(I64
S'TTA'
p3885
tp3886
I4116
s(I6
S'CGT'
p3887
tp3888
I116
s(I55
S'CAG'
p3889
tp3890
I371
s(I60
S'CAG'
p3891
tp3892
I886
s(I52
S'CGT'
p3893
tp3894
I2
s(I68
S'ACA'
p3895
tp3896
I76
s(I73
S'TGC'
p3897
tp3898
I1
s(I45
S'CGA'
p3899
tp3900
I75
s(I22
S'GGT'
p3901
tp3902
I93
s(I19
S'GTT'
p3903
tp3904
I199
s(I42
S'ACA'
p3905
tp3906
I52
s(I66
S'ATA'
p3907
tp3908
I127
s(I62
S'GAT'
p3909
tp3910
I534
s(I4
S'AGT'
p3911
tp3912
I1
s(I44
S'ATG'
p3913
tp3914
I663
s(I64
S'CCG'
p3915
tp3916
I60
s(I39
S'TTA'
p3917
tp3918
I9
s(I26
S'AGG'
p3919
tp3920
I3
s(I17
S'TCT'
p3921
tp3922
I93
s(I72
S'ATC'
p3923
tp3924
I25
s(I42
S'AAC'
p3925
tp3926
I305
s(I73
S'ACT'
p3927
tp3928
I8
s(I20
S'CGT'
p3929
tp3930
I88
s(I13
S'GAA'
p3931
tp3932
I194
s(I20
S'TGC'
p3933
tp3934
I42
s(I28
S'AAC'
p3935
tp3936
I59
s(I30
S'TGT'
p3937
tp3938
I1166
s(I56
S'CCT'
p3939
tp3940
I1
s(I31
S'GCG'
p3941
tp3942
I306
s(I54
S'AAG'
p3943
tp3944
I65
s(I42
S'GTA'
p3945
tp3946
I460
s(I30
S'CCA'
p3947
tp3948
I35
s(I54
S'AGT'
p3949
tp3950
I232
s(I54
S'CAA'
p3951
tp3952
I23
s(I31
S'CGG'
p3953
tp3954
I156
s(I76
S'AGC'
p3955
tp3956
I3
s(I29
S'CGC'
p3957
tp3958
I88
s(I21
S'GAG'
p3959
tp3960
I95
s(I61
S'TGG'
p3961
tp3962
I7
s(I11
S'GAG'
p3963
tp3964
I652
s(I10
S'TCG'
p3965
tp3966
I71
s(I71
S'GAC'
p3967
tp3968
I10
s(I20
S'GGG'
p3969
tp3970
I261
s(I11
S'CGT'
p3971
tp3972
I15
s(I40
S'TTA'
p3973
tp3974
I629
s(I42
S'GCC'
p3975
tp3976
I4373
s(I31
S'CAG'
p3977
tp3978
I64
s(I68
S'TCT'
p3979
tp3980
I269
s(I26
S'CGG'
p3981
tp3982
I5
s(I54
S'CAC'
p3983
tp3984
I48
s(I51
S'TCT'
p3985
tp3986
I126
s(I55
S'GAC'
p3987
tp3988
I130
s(I2
S'CGA'
p3989
tp3990
I1
s(I15
S'CTA'
p3991
tp3992
I143
s(I59
S'TCA'
p3993
tp3994
I1406
s(I8
S'CTG'
p3995
tp3996
I150
s(I10
S'CCT'
p3997
tp3998
I4
s(I20
S'CAT'
p3999
tp4000
I1
s(I75
S'ATA'
p4001
tp4002
I16
s(I36
S'GGT'
p4003
tp4004
I27
s(I70
S'GTA'
p4005
tp4006
I79
s(I66
S'TGC'
p4007
tp4008
I38
s(I5
S'CCT'
p4009
tp4010
I17
s(I13
S'GGT'
p4011
tp4012
I5
s(I2
S'GCG'
p4013
tp4014
I6
s(I27
S'GGA'
p4015
tp4016
I3
s(I35
S'ATG'
p4017
tp4018
I359
s(I37
S'GAG'
p4019
tp4020
I380
s(I41
S'ACT'
p4021
tp4022
I373
s(I42
S'TGG'
p4023
tp4024
I771
s(I2
S'AAC'
p4025
tp4026
I2
s(I2
S'AGC'
p4027
tp4028
I5
s(I17
S'GCA'
p4029
tp4030
I4
s(I51
S'ACT'
p4031
tp4032
I297
s(I16
S'CTT'
p4033
tp4034
I37
s(I5
S'CGT'
p4035
tp4036
I8
s(I70
S'ATC'
p4037
tp4038
I16
s(I4
S'TGT'
p4039
tp4040
I4
s(I30
S'AGT'
p4041
tp4042
I3
s(I33
S'CTA'
p4043
tp4044
I1
s(I8
S'GTC'
p4045
tp4046
I59
s(I22
S'ACA'
p4047
tp4048
I14
s(I53
S'CTA'
p4049
tp4050
I4
s(I53
S'GCA'
p4051
tp4052
I56
s(I63
S'CCT'
p4053
tp4054
I4
s(I58
S'CTC'
p4055
tp4056
I14
s(I45
S'AAA'
p4057
tp4058
I71
s(I69
S'ACG'
p4059
tp4060
I24
s(I42
S'GGG'
p4061
tp4062
I889
s(I61
S'ACT'
p4063
tp4064
I51
s(I5
S'TAA'
p4065
tp4066
I10
s(I41
S'ACG'
p4067
tp4068
I1
s(I59
S'ACG'
p4069
tp4070
I1
s(I57
S'AGG'
p4071
tp4072
I13
s(I22
S'CTA'
p4073
tp4074
I88
s(I69
S'TGG'
p4075
tp4076
I1381
s(I48
S'AAT'
p4077
tp4078
I83
s(I27
S'CTC'
p4079
tp4080
I295
s(I55
S'CCC'
p4081
tp4082
I10
s(I41
S'CGG'
p4083
tp4084
I2
s(I47
S'CTC'
p4085
tp4086
I3
s(I63
S'ATT'
p4087
tp4088
I1
s(I19
S'CGT'
p4089
tp4090
I335
s(I52
S'CTA'
p4091
tp4092
I2
s(I16
S'CGA'
p4093
tp4094
I33
s(I53
S'GGA'
p4095
tp4096
I177
s(I34
S'ACT'
p4097
tp4098
I7
s(I61
S'AGC'
p4099
tp4100
I9
s(I33
S'GGA'
p4101
tp4102
I14
s(I57
S'TGC'
p4103
tp4104
I1
s(I65
S'ACA'
p4105
tp4106
I235
s(I12
S'GTT'
p4107
tp4108
I1
s(I62
S'TAA'
p4109
tp4110
I2
s(I30
S'AAG'
p4111
tp4112
I1
s(I21
S'TAC'
p4113
tp4114
I582
s(I62
S'GAG'
p4115
tp4116
I760
s(I26
S'ATC'
p4117
tp4118
I1
s(I29
S'TAC'
p4119
tp4120
I199
s(I24
S'TCA'
p4121
tp4122
I169
s(I17
S'CAA'
p4123
tp4124
I16
s(I31
S'CAC'
p4125
tp4126
I13
s(I25
S'CGA'
p4127
tp4128
I94
s(I71
S'ACT'
p4129
tp4130
I1
s(I21
S'CAC'
p4131
tp4132
I198
s(I26
S'CAC'
p4133
tp4134
I1
s(I65
S'GTC'
p4135
tp4136
I32
s(I72
S'AAG'
p4137
tp4138
I44
s(I19
S'GCG'
p4139
tp4140
I165
s(I14
S'ATC'
p4141
tp4142
I1
s(I48
S'TAT'
p4143
tp4144
I25
s(I14
S'ACG'
p4145
tp4146
I99
s(I11
S'AAG'
p4147
tp4148
I103
s(I37
S'ATA'
p4149
tp4150
I355
s(I3
S'GGA'
p4151
tp4152
I4
s(I45
S'TGC'
p4153
tp4154
I5
s(I33
S'AGG'
p4155
tp4156
I188
s(I70
S'GCC'
p4157
tp4158
I2100
s(I67
S'TCC'
p4159
tp4160
I1
s(I32
S'ACA'
p4161
tp4162
I1
s(I55
S'ATT'
p4163
tp4164
I60
s(I34
S'CCA'
p4165
tp4166
I1
s(I27
S'GCA'
p4167
tp4168
I53
s(I56
S'CCC'
p4169
tp4170
I1
s(I43
S'TAT'
p4171
tp4172
I16
s(I72
S'GAA'
p4173
tp4174
I43
s(I41
S'TGG'
p4175
tp4176
I6
s(I33
S'TGG'
p4177
tp4178
I10
s(I5
S'ATT'
p4179
tp4180
I35
s(I16
S'GTA'
p4181
tp4182
I69
s(I24
S'AAT'
p4183
tp4184
I16
s(I38
S'CAC'
p4185
tp4186
I24
s(I69
S'TAA'
p4187
tp4188
I1
s(I43
S'CAC'
p4189
tp4190
I1
s(I71
S'GAT'
p4191
tp4192
I1
s(I20
S'AGT'
p4193
tp4194
I471
s(I42
S'AGG'
p4195
tp4196
I93
s(I47
S'GCC'
p4197
tp4198
I2
s(I38
S'ACG'
p4199
tp4200
I23
s(I10
S'TGC'
p4201
tp4202
I4
s(I63
S'TGA'
p4203
tp4204
I1
s(I16
S'GCC'
p4205
tp4206
I14
s(I65
S'CAT'
p4207
tp4208
I203
s(I66
S'TAC'
p4209
tp4210
I269
s(I57
S'CTC'
p4211
tp4212
I48
s(I16
S'ACC'
p4213
tp4214
I58
s(I52
S'CCT'
p4215
tp4216
I177
s(I32
S'TCT'
p4217
tp4218
I154
s(I65
S'GAC'
p4219
tp4220
I7382
s(I10
S'CTC'
p4221
tp4222
I1
s(I2
S'CAC'
p4223
tp4224
I1
s(I25
S'CAG'
p4225
tp4226
I116
s(I73
S'TTA'
p4227
tp4228
I397
s(I49
S'GAC'
p4229
tp4230
I32
s(I33
S'ACT'
p4231
tp4232
I49
s(I57
S'ATT'
p4233
tp4234
I76
s(I11
S'AAT'
p4235
tp4236
I158
s(I29
S'ATG'
p4237
tp4238
I51
s(I8
S'ATT'
p4239
tp4240
I1428
s(I12
S'GAT'
p4241
tp4242
I2
s(I64
S'ACG'
p4243
tp4244
I1934
s(I17
S'CCG'
p4245
tp4246
I27
s(I72
S'TAG'
p4247
tp4248
I65
s(I5
S'CGA'
p4249
tp4250
I1
s(I30
S'AGC'
p4251
tp4252
I1
s(I75
S'CGC'
p4253
tp4254
I29
s(I22
S'ACT'
p4255
tp4256
I291
s(I46
S'TAG'
p4257
tp4258
I12
s(I25
S'ATC'
p4259
tp4260
I364
s(I10
S'CGA'
p4261
tp4262
I2
s(I44
S'GCG'
p4263
tp4264
I158
s(I44
S'CTG'
p4265
tp4266
I493
s(I24
S'AAA'
p4267
tp4268
I16
s(I50
S'ATA'
p4269
tp4270
I435
s(I24
S'CGG'
p4271
tp4272
I1
s(I29
S'CTC'
p4273
tp4274
I301
s(I45
S'ATT'
p4275
tp4276
I260
s(I69
S'CTA'
p4277
tp4278
I318
s(I23
S'CAA'
p4279
tp4280
I3
s(I23
S'GTA'
p4281
tp4282
I3
s(I18
S'AGG'
p4283
tp4284
I20
s(I18
S'GCT'
p4285
tp4286
I64
s(I43
S'ATC'
p4287
tp4288
I100
s(I35
S'TTA'
p4289
tp4290
I588
s(I3
S'GCT'
p4291
tp4292
I1303
s(I50
S'TAG'
p4293
tp4294
I9
s(I12
S'ACA'
p4295
tp4296
I14
s(I43
S'TAC'
p4297
tp4298
I37
s(I73
S'AAG'
p4299
tp4300
I11
s(I30
S'AGA'
p4301
tp4302
I3
s(I28
S'CCT'
p4303
tp4304
I3
s(I48
S'ACA'
p4305
tp4306
I68
s(I67
S'TAA'
p4307
tp4308
I6
s(I25
S'CTT'
p4309
tp4310
I20
s(I23
S'GCA'
p4311
tp4312
I22
s(I63
S'TCT'
p4313
tp4314
I438
s(I11
S'TTC'
p4315
tp4316
I22
s(I2
S'GAG'
p4317
tp4318
I126
s(I21
S'GTG'
p4319
tp4320
I192
s(I27
S'TTT'
p4321
tp4322
I1
s(I47
S'CCG'
p4323
tp4324
I2
s(I44
S'TGG'
p4325
tp4326
I2
s(I3
S'CAC'
p4327
tp4328
I3
s(I19
S'AAT'
p4329
tp4330
I432
s(I12
S'GTA'
p4331
tp4332
I10
s(I37
S'GTG'
p4333
tp4334
I447
s(I16
S'CTC'
p4335
tp4336
I13
s(I28
S'TGG'
p4337
tp4338
I164
s(I36
S'CTC'
p4339
tp4340
I2466
s(I34
S'GGC'
p4341
tp4342
I231
s(I55
S'GCA'
p4343
tp4344
I22
s(I20
S'ATC'
p4345
tp4346
I306
s(I6
S'AGC'
p4347
tp4348
I1228
s(I8
S'GGA'
p4349
tp4350
I1
s(I71
S'ACA'
p4351
tp4352
I1
s(I46
S'GGG'
p4353
tp4354
I419
s(I71
S'CTC'
p4355
tp4356
I208
s(I53
S'CCC'
p4357
tp4358
I99
s(I55
S'GTC'
p4359
tp4360
I67
s(I54
S'GGG'
p4361
tp4362
I157
s(I24
S'TCG'
p4363
tp4364
I1
s(I35
S'CTG'
p4365
tp4366
I116
s(I42
S'ATG'
p4367
tp4368
I3
s(I32
S'AGA'
p4369
tp4370
I6
s(I31
S'TGG'
p4371
tp4372
I24
s(I31
S'GAA'
p4373
tp4374
I16
s(I35
S'ATC'
p4375
tp4376
I43
s(I18
S'ATC'
p4377
tp4378
I172
s(I32
S'ACT'
p4379
tp4380
I46
s(I18
S'TAC'
p4381
tp4382
I409
s(I71
S'GTC'
p4383
tp4384
I2
s(I13
S'GCC'
p4385
tp4386
I40
s(I65
S'TTG'
p4387
tp4388
I27
s(I3
S'ACC'
p4389
tp4390
I28
s(I15
S'GAA'
p4391
tp4392
I7
s(I68
S'GAG'
p4393
tp4394
I28
s(I47
S'GTT'
p4395
tp4396
I1
s(I65
S'AAA'
p4397
tp4398
I74
s(I16
S'CCA'
p4399
tp4400
I570
s(I55
S'ACC'
p4401
tp4402
I37
s(I67
S'ATC'
p4403
tp4404
I105
s(I49
S'AGC'
p4405
tp4406
I976
s(I7
S'CCA'
p4407
tp4408
I1379
s(I9
S'ATT'
p4409
tp4410
I2031
s(I34
S'AAT'
p4411
tp4412
I37
s(I67
S'CAT'
p4413
tp4414
I17
s(I51
S'CGT'
p4415
tp4416
I1
s(I15
S'TAC'
p4417
tp4418
I75
s(I13
S'GTA'
p4419
tp4420
I105
s(I66
S'TGG'
p4421
tp4422
I53
s(I10
S'GGC'
p4423
tp4424
I85
s(I42
S'TGC'
p4425
tp4426
I21
s(I71
S'AGC'
p4427
tp4428
I5
s(I69
S'TAG'
p4429
tp4430
I1
s(I56
S'TTG'
p4431
tp4432
I165
s(I9
S'CAG'
p4433
tp4434
I2722
s(I71
S'AGT'
p4435
tp4436
I1
s(I9
S'TCC'
p4437
tp4438
I36
s(I35
S'GGG'
p4439
tp4440
I55
s(I34
S'ATC'
p4441
tp4442
I25
s(I74
S'CAC'
p4443
tp4444
I1
s(I23
S'TTA'
p4445
tp4446
I21
s(I29
S'GAA'
p4447
tp4448
I16
s(I61
S'CGG'
p4449
tp4450
I3
s(I10
S'CTT'
p4451
tp4452
I1
s(I43
S'GGG'
p4453
tp4454
I80
s(I57
S'GTC'
p4455
tp4456
I96
s(I39
S'CGA'
p4457
tp4458
I2
s(I75
S'GCC'
p4459
tp4460
I10
s(I67
S'ACA'
p4461
tp4462
I2130
s(I4
S'TCC'
p4463
tp4464
I2
s(I67
S'AAT'
p4465
tp4466
I2
s(I62
S'ACC'
p4467
tp4468
I2053
s(I25
S'CCC'
p4469
tp4470
I34
s(I15
S'GTT'
p4471
tp4472
I29
s(I13
S'TCG'
p4473
tp4474
I23
s(I75
S'CCA'
p4475
tp4476
I73
s(I2
S'GTA'
p4477
tp4478
I28
s(I32
S'GCG'
p4479
tp4480
I54
s(I63
S'TAC'
p4481
tp4482
I118
s(I8
S'ATA'
p4483
tp4484
I105
s(I23
S'ATG'
p4485
tp4486
I180
s(I46
S'GTC'
p4487
tp4488
I896
s(I58
S'TGT'
p4489
tp4490
I725
s(I71
S'TAC'
p4491
tp4492
I3
s(I2
S'GTT'
p4493
tp4494
I1
s(I7
S'TGG'
p4495
tp4496
I3
s(I7
S'TCT'
p4497
tp4498
I446
s(I62
S'GTC'
p4499
tp4500
I1597
s(I48
S'AAA'
p4501
tp4502
I18
s(I24
S'TTA'
p4503
tp4504
I14
s(I46
S'AAC'
p4505
tp4506
I314
s(I64
S'GCG'
p4507
tp4508
I2724
s(I37
S'CAT'
p4509
tp4510
I160
s(I56
S'AAG'
p4511
tp4512
I22
s(I22
S'ATG'
p4513
tp4514
I356
s(I46
S'ACA'
p4515
tp4516
I28
s(I40
S'CTA'
p4517
tp4518
I1170
s(I3
S'AAG'
p4519
tp4520
I5
s(I64
S'GTG'
p4521
tp4522
I3347
s(I47
S'CAG'
p4523
tp4524
I1122
s(I60
S'GCC'
p4525
tp4526
I27
s(I52
S'CAG'
p4527
tp4528
I35
s(I49
S'GGC'
p4529
tp4530
I1361
s(I37
S'TGG'
p4531
tp4532
I39
s(I18
S'TCA'
p4533
tp4534
I425
s(I27
S'ACG'
p4535
tp4536
I42
s(I29
S'TCC'
p4537
tp4538
I142
s(I76
S'GAC'
p4539
tp4540
I4
s(I43
S'TAG'
p4541
tp4542
I31
s(I37
S'TCT'
p4543
tp4544
I295
s(I15
S'CAG'
p4545
tp4546
I22
s(I15
S'GGC'
p4547
tp4548
I2
s(I74
S'GTG'
p4549
tp4550
I2
s(I6
S'GCG'
p4551
tp4552
I110
s(I53
S'ACA'
p4553
tp4554
I25
s(I38
S'TCG'
p4555
tp4556
I110
s(I30
S'TTC'
p4557
tp4558
I97
s(I38
S'GGA'
p4559
tp4560
I224
s(I10
S'AGA'
p4561
tp4562
I32
s(I18
S'ACG'
p4563
tp4564
I16
s(I37
S'GCT'
p4565
tp4566
I171
s(I63
S'GGA'
p4567
tp4568
I36
s(I40
S'TGT'
p4569
tp4570
I1
s(I55
S'TGT'
p4571
tp4572
I147
s(I4
S'CTT'
p4573
tp4574
I57
s(I22
S'AAT'
p4575
tp4576
I34
s(I71
S'GGA'
p4577
tp4578
I13
s(I58
S'GAG'
p4579
tp4580
I215
s(I17
S'CTG'
p4581
tp4582
I26
s(I63
S'GTG'
p4583
tp4584
I83
s(I31
S'AGA'
p4585
tp4586
I2
s(I18
S'ATT'
p4587
tp4588
I518
s(I65
S'CGG'
p4589
tp4590
I33
s(I62
S'CGA'
p4591
tp4592
I19
s(I9
S'TTG'
p4593
tp4594
I29
s(I32
S'AGT'
p4595
tp4596
I88
s(I46
S'AGT'
p4597
tp4598
I53
s(I68
S'AGC'
p4599
tp4600
I197
s(I10
S'TAT'
p4601
tp4602
I1
s(I70
S'AAT'
p4603
tp4604
I1
s(I14
S'AAG'
p4605
tp4606
I1
s(I42
S'TCC'
p4607
tp4608
I17
s(I6
S'CTG'
p4609
tp4610
I78
s(I18
S'TAT'
p4611
tp4612
I65
s(I37
S'ACG'
p4613
tp4614
I10
s(I75
S'GTC'
p4615
tp4616
I3
s(I13
S'TTC'
p4617
tp4618
I6
s(I35
S'CGC'
p4619
tp4620
I205
s(I33
S'CGG'
p4621
tp4622
I136
s(I38
S'TTC'
p4623
tp4624
I177
s(I33
S'CAA'
p4625
tp4626
I8
s(I52
S'GTG'
p4627
tp4628
I22
s(I20
S'CCA'
p4629
tp4630
I898
s(I59
S'AAA'
p4631
tp4632
I5
s(I75
S'GAG'
p4633
tp4634
I10
s(I9
S'ATC'
p4635
tp4636
I1048
s(I12
S'GGC'
p4637
tp4638
I11
s(I15
S'ATA'
p4639
tp4640
I410
s(I76
S'CTA'
p4641
tp4642
I22
s(I46
S'CGC'
p4643
tp4644
I1156
s(I4
S'AGC'
p4645
tp4646
I1
s(I32
S'CCG'
p4647
tp4648
I119
s(I75
S'GCT'
p4649
tp4650
I3
s(I27
S'TCT'
p4651
tp4652
I4
s(I20
S'TTG'
p4653
tp4654
I77
s(I25
S'TTT'
p4655
tp4656
I222
s(I45
S'GAA'
p4657
tp4658
I37
s(I40
S'AGA'
p4659
tp4660
I54
s(I52
S'TGC'
p4661
tp4662
I185
s(I5
S'TCC'
p4663
tp4664
I10
s(I19
S'GAA'
p4665
tp4666
I111
s(I68
S'GCA'
p4667
tp4668
I197
s(I24
S'CCT'
p4669
tp4670
I190
s(I16
S'GAT'
p4671
tp4672
I73
s(I44
S'CAG'
p4673
tp4674
I6
s(I22
S'AGT'
p4675
tp4676
I51
s(I44
S'AGC'
p4677
tp4678
I47
s(I62
S'CAC'
p4679
tp4680
I97
s(I62
S'TGC'
p4681
tp4682
I541
s(I49
S'TAT'
p4683
tp4684
I98
s(I18
S'TTG'
p4685
tp4686
I241
s(I62
S'GGA'
p4687
tp4688
I174
s(I57
S'GCT'
p4689
tp4690
I75
s(I41
S'TTC'
p4691
tp4692
I486
s(I69
S'ACA'
p4693
tp4694
I113
s(I64
S'TGA'
p4695
tp4696
I8
s(I24
S'GGA'
p4697
tp4698
I3
s(I64
S'GAT'
p4699
tp4700
I1871
s(I27
S'ACC'
p4701
tp4702
I131
s(I12
S'TTT'
p4703
tp4704
I26
s(I72
S'GCC'
p4705
tp4706
I585
s(I31
S'AAA'
p4707
tp4708
I40
s(I20
S'CTT'
p4709
tp4710
I16
s(I26
S'GCC'
p4711
tp4712
I27
s(I30
S'TAT'
p4713
tp4714
I136
s(I45
S'TTG'
p4715
tp4716
I2225
s(I46
S'TTA'
p4717
tp4718
I8
s(I64
S'AGC'
p4719
tp4720
I809
s(I18
S'CCA'
p4721
tp4722
I56
s(I34
S'TAG'
p4723
tp4724
I15
s(I53
S'AGC'
p4725
tp4726
I51
s(I46
S'ACT'
p4727
tp4728
I268
s(I22
S'GTA'
p4729
tp4730
I45
s(I69
S'GTC'
p4731
tp4732
I661
s(I23
S'CTG'
p4733
tp4734
I56
s(I72
S'GTC'
p4735
tp4736
I846
s(I61
S'CCC'
p4737
tp4738
I1
s(I58
S'TGA'
p4739
tp4740
I12
s(I24
S'CAG'
p4741
tp4742
I1
s(I65
S'TAC'
p4743
tp4744
I325
s(I69
S'AGT'
p4745
tp4746
I2
s(I66
S'AAA'
p4747
tp4748
I18
s(I57
S'TTA'
p4749
tp4750
I40
s(I69
S'CAT'
p4751
tp4752
I1203
s(I6
S'TTC'
p4753
tp4754
I140
s(I47
S'GGG'
p4755
tp4756
I217
s(I16
S'CTA'
p4757
tp4758
I25
s(I47
S'AGA'
p4759
tp4760
I22
s(I9
S'TGT'
p4761
tp4762
I1361
s(I55
S'GGG'
p4763
tp4764
I209
s(I40
S'ATT'
p4765
tp4766
I8
s(I63
S'TCC'
p4767
tp4768
I166
s(I16
S'TCT'
p4769
tp4770
I43
s(I52
S'GCT'
p4771
tp4772
I3
s(I10
S'CGC'
p4773
tp4774
I1
s(I26
S'CTC'
p4775
tp4776
I50
s(I19
S'CCG'
p4777
tp4778
I3
s(I5
S'GGG'
p4779
tp4780
I7
s(I19
S'ACC'
p4781
tp4782
I80
s(I17
S'TTC'
p4783
tp4784
I84
s(I29
S'ACT'
p4785
tp4786
I44
s(I65
S'CCT'
p4787
tp4788
I761
s(I9
S'ACG'
p4789
tp4790
I107
s(I55
S'AGT'
p4791
tp4792
I30
s(I25
S'AGG'
p4793
tp4794
I50
s(I9
S'CTC'
p4795
tp4796
I74
s(I23
S'GGG'
p4797
tp4798
I11
s(I74
S'TCA'
p4799
tp4800
I2
s(I65
S'TGG'
p4801
tp4802
I123
s(I23
S'CCC'
p4803
tp4804
I4
s(I60
S'ACG'
p4805
tp4806
I11
s(I46
S'GAC'
p4807
tp4808
I13677
s(I24
S'ATT'
p4809
tp4810
I10
s(I75
S'AGG'
p4811
tp4812
I26
s(I22
S'TTA'
p4813
tp4814
I42
s(I71
S'AAG'
p4815
tp4816
I9
s(I9
S'GGT'
p4817
tp4818
I1393
s(I20
S'ACC'
p4819
tp4820
I29
s(I2
S'ACT'
p4821
tp4822
I1
s(I29
S'AGC'
p4823
tp4824
I238
s(I19
S'GGC'
p4825
tp4826
I144
s(I7
S'CAG'
p4827
tp4828
I119
s(I17
S'CAT'
p4829
tp4830
I143
s(I30
S'CAC'
p4831
tp4832
I1
s(I60
S'CTG'
p4833
tp4834
I222
s(I35
S'CAC'
p4835
tp4836
I104
s(I21
S'GGA'
p4837
tp4838
I36
s(I74
S'AAT'
p4839
tp4840
I3
s(I18
S'AAG'
p4841
tp4842
I190
s(I33
S'TTA'
p4843
tp4844
I44
s(I34
S'GCT'
p4845
tp4846
I13
s(I70
S'CGC'
p4847
tp4848
I4
s(I69
S'GGG'
p4849
tp4850
I1196
s(I29
S'ACG'
p4851
tp4852
I242
s(I43
S'TTA'
p4853
tp4854
I212
s(I25
S'CCT'
p4855
tp4856
I2
s(I8
S'CGT'
p4857
tp4858
I1
s(I64
S'ATA'
p4859
tp4860
I10
s(I5
S'CCA'
p4861
tp4862
I1
s(I39
S'TCC'
p4863
tp4864
I21
s(I48
S'ATT'
p4865
tp4866
I19
s(I22
S'TGG'
p4867
tp4868
I68
s(I66
S'CCG'
p4869
tp4870
I7
s(I75
S'TCA'
p4871
tp4872
I15
s(I2
S'GGT'
p4873
tp4874
I3
s(I37
S'CCG'
p4875
tp4876
I84
s(I45
S'CAG'
p4877
tp4878
I22224
s(I11
S'GTA'
p4879
tp4880
I18
s(I39
S'GCC'
p4881
tp4882
I18
s(I59
S'GCT'
p4883
tp4884
I3305
s(I48
S'TAG'
p4885
tp4886
I14
s(I73
S'ATA'
p4887
tp4888
I4973
s(I64
S'CTG'
p4889
tp4890
I263
s(I32
S'CTC'
p4891
tp4892
I123
s(I45
S'AGG'
p4893
tp4894
I13
s(I39
S'GTT'
p4895
tp4896
I9
s(I23
S'TAG'
p4897
tp4898
I20
s(I54
S'GCC'
p4899
tp4900
I60
s(I57
S'TGA'
p4901
tp4902
I6
s(I34
S'TCA'
p4903
tp4904
I54
s(I52
S'ACA'
p4905
tp4906
I94
s(I76
S'ATA'
p4907
tp4908
I17
s(I67
S'GGT'
p4909
tp4910
I2135
s(I41
S'GGC'
p4911
tp4912
I297
s(I57
S'TCG'
p4913
tp4914
I204
s(I58
S'CAG'
p4915
tp4916
I235
s(I60
S'CAT'
p4917
tp4918
I158
s(I71
S'GCT'
p4919
tp4920
I7
s(I6
S'CAC'
p4921
tp4922
I1320
s(I41
S'TCA'
p4923
tp4924
I37
s(I52
S'CGA'
p4925
tp4926
I18
s(I67
S'AAG'
p4927
tp4928
I18
s(I66
S'AAT'
p4929
tp4930
I717
s(I63
S'TTG'
p4931
tp4932
I154
s(I69
S'AGA'
p4933
tp4934
I10
s(I39
S'TAT'
p4935
tp4936
I12
s(I51
S'CTG'
p4937
tp4938
I527
s(I40
S'GGT'
p4939
tp4940
I836
s(I28
S'ACT'
p4941
tp4942
I53
s(I18
S'TGC'
p4943
tp4944
I205
s(I29
S'GAT'
p4945
tp4946
I1
s(I70
S'GTC'
p4947
tp4948
I359
s(I11
S'AGT'
p4949
tp4950
I999
s(I18
S'CCT'
p4951
tp4952
I18
s(I20
S'CGA'
p4953
tp4954
I73
s(I72
S'ACA'
p4955
tp4956
I302
s(I22
S'CCA'
p4957
tp4958
I92
s(I72
S'AGT'
p4959
tp4960
I1248
s(I76
S'CGA'
p4961
tp4962
I112
s(I21
S'CCA'
p4963
tp4964
I1
s(I72
S'ACT'
p4965
tp4966
I149
s(I62
S'CTT'
p4967
tp4968
I261
s(I8
S'GGT'
p4969
tp4970
I5
s(I68
S'CCA'
p4971
tp4972
I44
s(I66
S'GCC'
p4973
tp4974
I46
s(I52
S'TAC'
p4975
tp4976
I15
s(I28
S'TAA'
p4977
tp4978
I16
s(I36
S'TGG'
p4979
tp4980
I7
s(I70
S'ACA'
p4981
tp4982
I1356
s(I16
S'CAA'
p4983
tp4984
I78
s(I42
S'TAT'
p4985
tp4986
I1
s(I16
S'TAG'
p4987
tp4988
I1
s(I69
S'AGG'
p4989
tp4990
I1
s(I35
S'TTC'
p4991
tp4992
I1
s(I44
S'AGA'
p4993
tp4994
I6
s(I15
S'AAG'
p4995
tp4996
I3
s(I36
S'TGA'
p4997
tp4998
I6
s(I7
S'TGA'
p4999
tp5000
I6
s(I45
S'CGG'
p5001
tp5002
I1034
s(I29
S'CCG'
p5003
tp5004
I11
s(I38
S'TCT'
p5005
tp5006
I532
s(I54
S'CAT'
p5007
tp5008
I95
s(I3
S'GAT'
p5009
tp5010
I2
s(I41
S'TAC'
p5011
tp5012
I7
s(I3
S'TAT'
p5013
tp5014
I5
s(I39
S'ATC'
p5015
tp5016
I1
s(I65
S'CCA'
p5017
tp5018
I544
s(I39
S'TTG'
p5019
tp5020
I54
s(I63
S'TAA'
p5021
tp5022
I1
s(I62
S'TTC'
p5023
tp5024
I64
s(I4
S'CAT'
p5025
tp5026
I95
s(I59
S'TCG'
p5027
tp5028
I36
s(I20
S'ACG'
p5029
tp5030
I181
s(I49
S'TCT'
p5031
tp5032
I3534
s(I70
S'GGT'
p5033
tp5034
I17
s(I70
S'TCA'
p5035
tp5036
I44
s(I76
S'TGT'
p5037
tp5038
I4
s(I68
S'GTT'
p5039
tp5040
I244
s(I48
S'AGT'
p5041
tp5042
I66
s(I44
S'CCC'
p5043
tp5044
I1
s(I61
S'GTC'
p5045
tp5046
I2
s(I15
S'CCG'
p5047
tp5048
I2
s(I35
S'CAT'
p5049
tp5050
I556
s(I62
S'ACA'
p5051
tp5052
I3210
s(I25
S'AAA'
p5053
tp5054
I7
s(I18
S'GAG'
p5055
tp5056
I61
s(I6
S'GTA'
p5057
tp5058
I614
s(I8
S'TAT'
p5059
tp5060
I3
s(I63
S'CCG'
p5061
tp5062
I233
s(I45
S'AAT'
p5063
tp5064
I1871
s(I4
S'CTC'
p5065
tp5066
I61
s(I28
S'GGA'
p5067
tp5068
I63
s(I34
S'GTC'
p5069
tp5070
I2
s(I70
S'CCA'
p5071
tp5072
I47
s(I55
S'TGA'
p5073
tp5074
I15
s(I55
S'AGC'
p5075
tp5076
I75
s(I61
S'ACG'
p5077
tp5078
I44
s(I72
S'TTA'
p5079
tp5080
I23
s(I35
S'AGA'
p5081
tp5082
I43
s(I12
S'CCC'
p5083
tp5084
I181
s(I61
S'AAC'
p5085
tp5086
I18
s(I39
S'GCA'
p5087
tp5088
I22
s(I73
S'ATG'
p5089
tp5090
I92
s(I68
S'ATT'
p5091
tp5092
I23
s(I65
S'GTG'
p5093
tp5094
I202
s(I19
S'CGG'
p5095
tp5096
I122
s(I52
S'CTT'
p5097
tp5098
I2
s(I55
S'AAG'
p5099
tp5100
I111
s(I34
S'ACA'
p5101
tp5102
I1
s(I58
S'ATA'
p5103
tp5104
I32
s(I31
S'AGG'
p5105
tp5106
I28
s(I73
S'TAC'
p5107
tp5108
I1
s(I17
S'TGC'
p5109
tp5110
I71
s(I47
S'TTA'
p5111
tp5112
I16
s(I74
S'CAT'
p5113
tp5114
I9
s(I43
S'AGA'
p5115
tp5116
I2
s(I30
S'TTA'
p5117
tp5118
I179
s(I28
S'CTA'
p5119
tp5120
I295
s(I28
S'GCC'
p5121
tp5122
I24
s(I33
S'CTG'
p5123
tp5124
I6
s(I38
S'ATC'
p5125
tp5126
I25
s(I17
S'AGC'
p5127
tp5128
I42
s(I70
S'GAC'
p5129
tp5130
I22
s(I53
S'GCG'
p5131
tp5132
I55
s(I54
S'ATA'
p5133
tp5134
I26
s(I69
S'GAC'
p5135
tp5136
I61
s(I15
S'CGC'
p5137
tp5138
I2
s(I29
S'GTT'
p5139
tp5140
I20
s(I38
S'GAG'
p5141
tp5142
I83
s(I75
S'AGA'
p5143
tp5144
I2
s(I67
S'TGT'
p5145
tp5146
I24
s(I41
S'ACA'
p5147
tp5148
I181
s(I74
S'TGA'
p5149
tp5150
I22
s(I16
S'AAG'
p5151
tp5152
I116
s(I12
S'TAG'
p5153
tp5154
I26
s(I31
S'TTT'
p5155
tp5156
I101
s(I42
S'TTT'
p5157
tp5158
I111
s(I72
S'CTT'
p5159
tp5160
I295
s(I33
S'TGA'
p5161
tp5162
I13
s(I5
S'TTC'
p5163
tp5164
I287
s(I11
S'AGA'
p5165
tp5166
I14
s(I6
S'GGC'
p5167
tp5168
I421
s(I52
S'TAT'
p5169
tp5170
I47
s(I17
S'CGG'
p5171
tp5172
I11
s(I45
S'TAA'
p5173
tp5174
I14
s(I34
S'ATA'
p5175
tp5176
I4
s(I21
S'CTA'
p5177
tp5178
I154
s(I28
S'GAC'
p5179
tp5180
I663
s(I55
S'GGA'
p5181
tp5182
I4
s(I30
S'ACC'
p5183
tp5184
I1
s(I67
S'ACC'
p5185
tp5186
I39
s(I43
S'CCA'
p5187
tp5188
I1
s(I53
S'CGA'
p5189
tp5190
I7
s(I24
S'GTA'
p5191
tp5192
I65
s(I33
S'GGG'
p5193
tp5194
I16
s(I55
S'TAA'
p5195
tp5196
I1
s(I28
S'CGG'
p5197
tp5198
I46
s(I16
S'CAT'
p5199
tp5200
I170
s(I67
S'ACT'
p5201
tp5202
I5027
s(I23
S'CGA'
p5203
tp5204
I1
s(I42
S'ATC'
p5205
tp5206
I1
s(I29
S'TGT'
p5207
tp5208
I104
s(I48
S'TGT'
p5209
tp5210
I60
s(I26
S'GAC'
p5211
tp5212
I3
s(I65
S'TCG'
p5213
tp5214
I27
s(I20
S'ACT'
p5215
tp5216
I385
s(I8
S'TTC'
p5217
tp5218
I13
s(I61
S'TAC'
p5219
tp5220
I1
s(I16
S'GCT'
p5221
tp5222
I396
s(I47
S'CAT'
p5223
tp5224
I1
s(I19
S'GCA'
p5225
tp5226
I164
s(I69
S'TCC'
p5227
tp5228
I379
s(I45
S'GCA'
p5229
tp5230
I763
s(I75
S'GTG'
p5231
tp5232
I1179
s(I42
S'GGC'
p5233
tp5234
I3
s(I52
S'GAG'
p5235
tp5236
I122
s(I73
S'GCC'
p5237
tp5238
I2
s(I71
S'GGT'
p5239
tp5240
I3
s(I33
S'ACG'
p5241
tp5242
I52
s(I57
S'ATA'
p5243
tp5244
I80
s(I74
S'TAA'
p5245
tp5246
I51
s(I45
S'GTG'
p5247
tp5248
I6268
s(I16
S'TGG'
p5249
tp5250
I60
s(I37
S'GGC'
p5251
tp5252
I92
s(I60
S'ATA'
p5253
tp5254
I108
s(I51
S'GGT'
p5255
tp5256
I337
s(I75
S'GCG'
p5257
tp5258
I4
s(I50
S'GAC'
p5259
tp5260
I5
s(I45
S'GGC'
p5261
tp5262
I2625
s(I7
S'CTA'
p5263
tp5264
I2
s(I29
S'TCA'
p5265
tp5266
I81
s(I37
S'GCA'
p5267
tp5268
I599
s(I26
S'ACT'
p5269
tp5270
I168
s(I60
S'CCA'
p5271
tp5272
I245
s(I72
S'CTA'
p5273
tp5274
I128
s(I71
S'ATC'
p5275
tp5276
I20
s(I48
S'CTC'
p5277
tp5278
I28
s(I50
S'ATT'
p5279
tp5280
I114
s(I74
S'ACT'
p5281
tp5282
I4
s(I2
S'TGT'
p5283
tp5284
I7
s(I63
S'TGG'
p5285
tp5286
I290
s(I72
S'TTT'
p5287
tp5288
I500
s(I61
S'CTG'
p5289
tp5290
I398
s(I18
S'TCG'
p5291
tp5292
I309
s(I27
S'ATA'
p5293
tp5294
I170
s(I32
S'TGA'
p5295
tp5296
I5
s(I23
S'TGC'
p5297
tp5298
I1
s(I25
S'CAA'
p5299
tp5300
I301
s(I74
S'GAG'
p5301
tp5302
I78
s(I36
S'AGC'
p5303
tp5304
I49
s(I47
S'GTG'
p5305
tp5306
I1
s(I76
S'GTC'
p5307
tp5308
I16
s(I50
S'CTC'
p5309
tp5310
I136
s(I21
S'CGG'
p5311
tp5312
I10
s(I5
S'ACG'
p5313
tp5314
I24
s(I42
S'CCC'
p5315
tp5316
I1
s(I71
S'TTT'
p5317
tp5318
I21
s(I30
S'CGT'
p5319
tp5320
I143
s(I72
S'GGC'
p5321
tp5322
I726
s(I52
S'TCA'
p5323
tp5324
I9
s(I29
S'GTC'
p5325
tp5326
I111
s(I24
S'TAG'
p5327
tp5328
I8
s(I33
S'TGC'
p5329
tp5330
I600
s(I5
S'CGG'
p5331
tp5332
I1
s(I45
S'TCC'
p5333
tp5334
I2454
s(I37
S'GTT'
p5335
tp5336
I690
s(I57
S'GGT'
p5337
tp5338
I36
s(I74
S'GGA'
p5339
tp5340
I1
s(I37
S'TAG'
p5341
tp5342
I10
s(I39
S'CTC'
p5343
tp5344
I9
s(I34
S'GAC'
p5345
tp5346
I224
s(I44
S'CTA'
p5347
tp5348
I83
s(I76
S'ACA'
p5349
tp5350
I2
s(I65
S'TTC'
p5351
tp5352
I94
s(I36
S'CCA'
p5353
tp5354
I326
s(I22
S'GAG'
p5355
tp5356
I40
s(I23
S'CAG'
p5357
tp5358
I11
s(I23
S'TTC'
p5359
tp5360
I131
s(I73
S'CGA'
p5361
tp5362
I1
s(I18
S'AGA'
p5363
tp5364
I15
s(I46
S'CAC'
p5365
tp5366
I9292
s(I51
S'CAC'
p5367
tp5368
I112
s(I46
S'GGT'
p5369
tp5370
I342
s(I8
S'AGG'
p5371
tp5372
I3
s(I35
S'TGT'
p5373
tp5374
I135
s(I54
S'GGT'
p5375
tp5376
I21
s(I60
S'TGT'
p5377
tp5378
I169
s(I45
S'TAT'
p5379
tp5380
I395
s(I31
S'GGT'
p5381
tp5382
I235
s(I29
S'TAA'
p5383
tp5384
I15
s(I51
S'CGA'
p5385
tp5386
I1
s(I13
S'TAC'
p5387
tp5388
I1
s(I63
S'GCC'
p5389
tp5390
I283
s(I60
S'CGC'
p5391
tp5392
I367
s(I8
S'ACC'
p5393
tp5394
I42
s(I64
S'ATT'
p5395
tp5396
I1268
s(I73
S'GAC'
p5397
tp5398
I6
s(I46
S'TGT'
p5399
tp5400
I586
s(I47
S'CCA'
p5401
tp5402
I1
s(I15
S'GAT'
p5403
tp5404
I2
s(I52
S'AGA'
p5405
tp5406
I18
s(I39
S'GGC'
p5407
tp5408
I1
s(I31
S'TGC'
p5409
tp5410
I20
s(I57
S'GAC'
p5411
tp5412
I24
s(I25
S'ACT'
p5413
tp5414
I26
s(I29
S'TGC'
p5415
tp5416
I151
s(I61
S'CAG'
p5417
tp5418
I5
s(I51
S'GTA'
p5419
tp5420
I1141
s(I27
S'TTA'
p5421
tp5422
I177
s(I66
S'CAG'
p5423
tp5424
I17
s(I7
S'GGT'
p5425
tp5426
I3585
s(I40
S'TCT'
p5427
tp5428
I23
s(I30
S'GTA'
p5429
tp5430
I106
s(I56
S'ACG'
p5431
tp5432
I8
s(I71
S'ACG'
p5433
tp5434
I2
s(I35
S'TAT'
p5435
tp5436
I78
s(I56
S'GCC'
p5437
tp5438
I4
s(I70
S'AAG'
p5439
tp5440
I37
s(I39
S'TGC'
p5441
tp5442
I1
s(I25
S'TGG'
p5443
tp5444
I261
s(I21
S'AGC'
p5445
tp5446
I154
s(I30
S'GTG'
p5447
tp5448
I1
s(I46
S'TCT'
p5449
tp5450
I837
s(I10
S'GCC'
p5451
tp5452
I21
s(I42
S'TCG'
p5453
tp5454
I3
s(I66
S'GCG'
p5455
tp5456
I14
s(I69
S'AAC'
p5457
tp5458
I14
s(I67
S'TCT'
p5459
tp5460
I754
s(I62
S'ACT'
p5461
tp5462
I1295
s(I15
S'GTA'
p5463
tp5464
I90
s(I41
S'TTA'
p5465
tp5466
I169
s(I37
S'GGT'
p5467
tp5468
I17
s(I55
S'AAC'
p5469
tp5470
I139
s(I25
S'GTG'
p5471
tp5472
I11
s(I51
S'GGA'
p5473
tp5474
I29
s(I75
S'CTG'
p5475
tp5476
I4
s(I6
S'ATC'
p5477
tp5478
I2029
s(I65
S'AAG'
p5479
tp5480
I130
s(I45
S'GGT'
p5481
tp5482
I4196
s(I27
S'AGT'
p5483
tp5484
I54
s(I15
S'GCA'
p5485
tp5486
I18
s(I19
S'TTC'
p5487
tp5488
I60
s(I35
S'CCT'
p5489
tp5490
I490
s(I33
S'CCT'
p5491
tp5492
I93
s(I26
S'CGA'
p5493
tp5494
I17
s(I74
S'ACC'
p5495
tp5496
I2
s(I37
S'CAG'
p5497
tp5498
I268
s(I69
S'GCC'
p5499
tp5500
I10
s(I42
S'CAG'
p5501
tp5502
I155
s(I9
S'CAA'
p5503
tp5504
I1935
s(I72
S'CGG'
p5505
tp5506
I2
s(I65
S'CAC'
p5507
tp5508
I91
s(I29
S'GTG'
p5509
tp5510
I82
s(I66
S'GAC'
p5511
tp5512
I1235
s(I21
S'GCA'
p5513
tp5514
I132
s(I32
S'TCG'
p5515
tp5516
I86
s(I71
S'TGC'
p5517
tp5518
I11
s(I30
S'CGA'
p5519
tp5520
I1
s(I39
S'CCC'
p5521
tp5522
I1
s(I63
S'ACA'
p5523
tp5524
I73
s(I52
S'CAT'
p5525
tp5526
I1
s(I45
S'CTT'
p5527
tp5528
I113
s(I2
S'GTG'
p5529
tp5530
I1
s(I5
S'AGA'
p5531
tp5532
I1
s(I32
S'GCA'
p5533
tp5534
I88
s(I29
S'ATT'
p5535
tp5536
I441
s(I31
S'ACA'
p5537
tp5538
I138
s(I46
S'CCC'
p5539
tp5540
I4
s(I8
S'ATG'
p5541
tp5542
I19
s(I7
S'ATG'
p5543
tp5544
I7
s(I61
S'GCT'
p5545
tp5546
I29
s(I23
S'ATA'
p5547
tp5548
I58
s(I41
S'GCC'
p5549
tp5550
I21
s(I39
S'GAA'
p5551
tp5552
I27
s(I29
S'TAG'
p5553
tp5554
I21
s(I37
S'AGT'
p5555
tp5556
I51
s(I57
S'GGA'
p5557
tp5558
I16
s(I52
S'AGG'
p5559
tp5560
I6
s(I3
S'AGT'
p5561
tp5562
I1
s(I54
S'TGG'
p5563
tp5564
I318
s(I34
S'CCG'
p5565
tp5566
I48
s(I64
S'AGT'
p5567
tp5568
I8703
s(I64
S'GCA'
p5569
tp5570
I4937
s(I36
S'CCT'
p5571
tp5572
I158
s(I17
S'GAA'
p5573
tp5574
I14
s(I11
S'CCT'
p5575
tp5576
I1257
s(I4
S'TGC'
p5577
tp5578
I3
s(I17
S'ATG'
p5579
tp5580
I188
s(I72
S'CCT'
p5581
tp5582
I132
s(I60
S'AAA'
p5583
tp5584
I553
s(I57
S'CAT'
p5585
tp5586
I43
s(I3
S'CAA'
p5587
tp5588
I14
s(I8
S'CAA'
p5589
tp5590
I3
s(I60
S'TGA'
p5591
tp5592
I21
s(I41
S'ATA'
p5593
tp5594
I27
s(I64
S'GTA'
p5595
tp5596
I50
s(I60
S'ATC'
p5597
tp5598
I211
s(I6
S'GAC'
p5599
tp5600
I133
s(I23
S'ACT'
p5601
tp5602
I42
s(I2
S'ACG'
p5603
tp5604
I2
s(I39
S'AGC'
p5605
tp5606
I1
s(I38
S'GCC'
p5607
tp5608
I14
s(I64
S'AAA'
p5609
tp5610
I243
s(I12
S'TCC'
p5611
tp5612
I3
s(I65
S'TCA'
p5613
tp5614
I8
s(I3
S'AAA'
p5615
tp5616
I5
s(I54
S'ACC'
p5617
tp5618
I176
s(I3
S'CGG'
p5619
tp5620
I4
s(I41
S'TCG'
p5621
tp5622
I14
s(I21
S'TCG'
p5623
tp5624
I84
s(I36
S'GAC'
p5625
tp5626
I1
s(I49
S'CGC'
p5627
tp5628
I8
s(I24
S'GCG'
p5629
tp5630
I22
s(I37
S'TAC'
p5631
tp5632
I3
s(I28
S'AGG'
p5633
tp5634
I100
s(I49
S'GCC'
p5635
tp5636
I3634
s(I58
S'GAA'
p5637
tp5638
I67
s(I69
S'CCC'
p5639
tp5640
I34
s(I3
S'TGA'
p5641
tp5642
I39
s(I27
S'ACA'
p5643
tp5644
I5
s(I48
S'CTT'
p5645
tp5646
I7
s(I51
S'CCC'
p5647
tp5648
I308
s(I54
S'GTC'
p5649
tp5650
I82
s(I23
S'TCA'
p5651
tp5652
I73
s(I38
S'AAC'
p5653
tp5654
I159
s(I35
S'CTT'
p5655
tp5656
I383
s(I24
S'TGT'
p5657
tp5658
I30
s(I22
S'GGC'
p5659
tp5660
I71
s(I76
S'CGG'
p5661
tp5662
I3
s(I22
S'AGA'
p5663
tp5664
I41
s(I38
S'ACA'
p5665
tp5666
I74
s(I58
S'TAT'
p5667
tp5668
I40
s(I30
S'AAC'
p5669
tp5670
I1
s(I27
S'GTC'
p5671
tp5672
I55
s(I37
S'AGG'
p5673
tp5674
I174
s(I38
S'TTT'
p5675
tp5676
I258
s(I57
S'ACG'
p5677
tp5678
I41
s(I16
S'TGT'
p5679
tp5680
I286
s(I7
S'GAG'
p5681
tp5682
I98
s(I72
S'GCT'
p5683
tp5684
I1014
s(I71
S'GTT'
p5685
tp5686
I3
s(I49
S'CAC'
p5687
tp5688
I532
s(I47
S'CGA'
p5689
tp5690
I3
s(I33
S'CCA'
p5691
tp5692
I8
s(I72
S'CAG'
p5693
tp5694
I53
s(I44
S'CGT'
p5695
tp5696
I1
s(I22
S'CGC'
p5697
tp5698
I51
s(I44
S'GAT'
p5699
tp5700
I3
s(I8
S'CCG'
p5701
tp5702
I30
s(I22
S'TAA'
p5703
tp5704
I5
s(I73
S'CTT'
p5705
tp5706
I334
s(I41
S'GAG'
p5707
tp5708
I10
s(I45
S'ACA'
p5709
tp5710
I5103
s(I47
S'TAC'
p5711
tp5712
I76
s(I74
S'TGC'
p5713
tp5714
I4
s(I61
S'ATG'
p5715
tp5716
I1386
s(I3
S'TGC'
p5717
tp5718
I408
s(I43
S'GCC'
p5719
tp5720
I1
s(I65
S'AGA'
p5721
tp5722
I112
s(I55
S'TAC'
p5723
tp5724
I33
s(I3
S'TAA'
p5725
tp5726
I12
s(I19
S'GAG'
p5727
tp5728
I143
s(I59
S'TCT'
p5729
tp5730
I49
s(I31
S'TCT'
p5731
tp5732
I271
s(I57
S'TTT'
p5733
tp5734
I166
s(I31
S'ATC'
p5735
tp5736
I272
s(I53
S'TAG'
p5737
tp5738
I13
s(I13
S'TCT'
p5739
tp5740
I15
s(I8
S'TTA'
p5741
tp5742
I9
s(I9
S'AGC'
p5743
tp5744
I262
s(I46
S'CTT'
p5745
tp5746
I42
s(I18
S'ACC'
p5747
tp5748
I276
s(I57
S'GTT'
p5749
tp5750
I116
s(I32
S'GCT'
p5751
tp5752
I61
s(I16
S'TCC'
p5753
tp5754
I56
s(I31
S'CCG'
p5755
tp5756
I14
s(I33
S'ATT'
p5757
tp5758
I24
s(I10
S'ACC'
p5759
tp5760
I7
s(I13
S'AGG'
p5761
tp5762
I252
s(I57
S'GTA'
p5763
tp5764
I66
s(I45
S'GTT'
p5765
tp5766
I2194
s(I3
S'AGA'
p5767
tp5768
I3
s(I26
S'TTA'
p5769
tp5770
I52
s(I19
S'ATT'
p5771
tp5772
I10
s(I25
S'GAT'
p5773
tp5774
I12
s(I64
S'GCT'
p5775
tp5776
I2471
s(I19
S'TAG'
p5777
tp5778
I10
s(I44
S'GTG'
p5779
tp5780
I11
s(I58
S'GGC'
p5781
tp5782
I432
s(I34
S'GAT'
p5783
tp5784
I197
s(I27
S'TAG'
p5785
tp5786
I15
s(I37
S'CTG'
p5787
tp5788
I147
s(I42
S'CTA'
p5789
tp5790
I54
s(I66
S'GGC'
p5791
tp5792
I29
s(I64
S'CGC'
p5793
tp5794
I2
s(I55
S'GAG'
p5795
tp5796
I2
s(I8
S'GAC'
p5797
tp5798
I4
s(I68
S'AAT'
p5799
tp5800
I518
s(I8
S'CAT'
p5801
tp5802
I5
s(I50
S'CAG'
p5803
tp5804
I1
s(I30
S'TTT'
p5805
tp5806
I299
s(I9
S'TGA'
p5807
tp5808
I1
s(I20
S'CCG'
p5809
tp5810
I104
s(I47
S'GGA'
p5811
tp5812
I58
s(I21
S'GGT'
p5813
tp5814
I61
s(I39
S'AAC'
p5815
tp5816
I6
s(I20
S'GTT'
p5817
tp5818
I86
s(I40
S'TAA'
p5819
tp5820
I2
s(I32
S'GTT'
p5821
tp5822
I204
s(I7
S'ATT'
p5823
tp5824
I235
s(I33
S'TTT'
p5825
tp5826
I21
s(I53
S'GAA'
p5827
tp5828
I22
s(I34
S'GCA'
p5829
tp5830
I22
s(I32
S'CGC'
p5831
tp5832
I9
s(I12
S'TCT'
p5833
tp5834
I11
s(I12
S'GCC'
p5835
tp5836
I1
s(I66
S'CCT'
p5837
tp5838
I670
s(I37
S'GCG'
p5839
tp5840
I1
s(I63
S'ACT'
p5841
tp5842
I178
s(I3
S'GAG'
p5843
tp5844
I11
s(I61
S'CTA'
p5845
tp5846
I1033
s(I10
S'GCG'
p5847
tp5848
I4
s(I47
S'TTT'
p5849
tp5850
I24
s(I23
S'GGA'
p5851
tp5852
I1
s(I49
S'TTC'
p5853
tp5854
I22
s(I65
S'TGA'
p5855
tp5856
I2
s(I33
S'GTT'
p5857
tp5858
I14
s(I22
S'TCC'
p5859
tp5860
I125
s(I66
S'TAT'
p5861
tp5862
I45
s(I6
S'TGC'
p5863
tp5864
I872
s(I54
S'GTT'
p5865
tp5866
I142
s(I56
S'TAG'
p5867
tp5868
I51
s(I36
S'CGC'
p5869
tp5870
I2
s(I76
S'TCG'
p5871
tp5872
I4
s(I64
S'TAG'
p5873
tp5874
I1
s(I55
S'CTC'
p5875
tp5876
I1
s(I28
S'GTC'
p5877
tp5878
I166
s(I50
S'AGT'
p5879
tp5880
I19
s(I60
S'CTA'
p5881
tp5882
I46
s(I67
S'GGG'
p5883
tp5884
I538
s(I55
S'GGT'
p5885
tp5886
I26
s(I67
S'ATA'
p5887
tp5888
I310
s(I71
S'CGA'
p5889
tp5890
I1
s(I66
S'ATC'
p5891
tp5892
I278
s(I71
S'GCC'
p5893
tp5894
I11
s(I58
S'GTT'
p5895
tp5896
I107
s(I43
S'AGG'
p5897
tp5898
I1
s(I23
S'CGG'
p5899
tp5900
I3
s(I61
S'GGA'
p5901
tp5902
I22
s(I10
S'TCT'
p5903
tp5904
I714
s(I61
S'TCT'
p5905
tp5906
I6
s(I40
S'GGA'
p5907
tp5908
I308
s(I22
S'TGA'
p5909
tp5910
I3
s(I28
S'ACA'
p5911
tp5912
I20
s(I8
S'TGA'
p5913
tp5914
I70
s(I61
S'CTC'
p5915
tp5916
I272
s(I9
S'AAT'
p5917
tp5918
I1491
s(I44
S'CGC'
p5919
tp5920
I10
s(I8
S'CTT'
p5921
tp5922
I2
s(I15
S'ATT'
p5923
tp5924
I454
s(I43
S'GAC'
p5925
tp5926
I1
s(I25
S'TTC'
p5927
tp5928
I83
s(I62
S'CTC'
p5929
tp5930
I1532
s(I60
S'GGC'
p5931
tp5932
I229
s(I29
S'GCA'
p5933
tp5934
I143
s(I67
S'CTA'
p5935
tp5936
I144
s(I55
S'CGG'
p5937
tp5938
I165
s(I23
S'TAA'
p5939
tp5940
I13
s(I43
S'GTT'
p5941
tp5942
I392
s(I16
S'GGA'
p5943
tp5944
I101
s(I52
S'ACG'
p5945
tp5946
I34
s(I76
S'TCT'
p5947
tp5948
I8
s(I31
S'TCA'
p5949
tp5950
I63
s(I8
S'TTT'
p5951
tp5952
I6
s(I42
S'AAA'
p5953
tp5954
I40
s(I54
S'TCG'
p5955
tp5956
I100
s(I18
S'GGC'
p5957
tp5958
I207
s(I12
S'TTA'
p5959
tp5960
I7
s(I56
S'TGA'
p5961
tp5962
I3
s(I18
S'TTT'
p5963
tp5964
I224
s(I48
S'CCC'
p5965
tp5966
I1
s(I38
S'GCG'
p5967
tp5968
I221
s(I51
S'TTC'
p5969
tp5970
I92
s(I64
S'GGG'
p5971
tp5972
I167
s(I59
S'GCG'
p5973
tp5974
I729
s(I9
S'CGC'
p5975
tp5976
I142
s(I8
S'AGA'
p5977
tp5978
I1
s(I36
S'TAC'
p5979
tp5980
I4
s(I20
S'GAC'
p5981
tp5982
I8
s(I61
S'AAG'
p5983
tp5984
I2
s(I42
S'ACT'
p5985
tp5986
I88
s(I55
S'TAT'
p5987
tp5988
I100
s(I44
S'TAC'
p5989
tp5990
I2
s(I37
S'TCG'
p5991
tp5992
I771
s(I17
S'AAT'
p5993
tp5994
I257
s(I10
S'AAG'
p5995
tp5996
I124
s(I76
S'GCT'
p5997
tp5998
I1
s(I26
S'GCT'
p5999
tp6000
I14
s(I25
S'GAA'
p6001
tp6002
I27
s(I62
S'GCA'
p6003
tp6004
I462
s(I20
S'TTA'
p6005
tp6006
I27
s(I51
S'TTA'
p6007
tp6008
I219
s(I22
S'CCG'
p6009
tp6010
I171
s(I57
S'AAC'
p6011
tp6012
I48
s(I32
S'GGG'
p6013
tp6014
I4
s(I24
S'CCC'
p6015
tp6016
I358
s(I27
S'AAT'
p6017
tp6018
I2
s(I76
S'TGC'
p6019
tp6020
I2
s(I31
S'ACT'
p6021
tp6022
I128
s(I22
S'AAC'
p6023
tp6024
I209
s(I30
S'TGA'
p6025
tp6026
I2
s(I67
S'CTC'
p6027
tp6028
I36
s(I74
S'CGG'
p6029
tp6030
I77
s(I31
S'GCT'
p6031
tp6032
I5
s(I13
S'CTA'
p6033
tp6034
I58
s(I18
S'CTC'
p6035
tp6036
I114
s(I31
S'CGT'
p6037
tp6038
I1
s(I72
S'CTC'
p6039
tp6040
I81
s(I54
S'ACG'
p6041
tp6042
I17
s(I53
S'CAG'
p6043
tp6044
I7
s(I9
S'TTT'
p6045
tp6046
I105
s(I72
S'TGG'
p6047
tp6048
I109
s(I48
S'GGA'
p6049
tp6050
I42
s(I60
S'GTC'
p6051
tp6052
I439
s(I71
S'AAA'
p6053
tp6054
I7
s(I17
S'GCT'
p6055
tp6056
I58
s(I8
S'TAG'
p6057
tp6058
I7
s(I20
S'GCG'
p6059
tp6060
I564
s(I31
S'GTT'
p6061
tp6062
I368
s(I68
S'TCA'
p6063
tp6064
I1296
s(I66
S'TTA'
p6065
tp6066
I1323
s(I4
S'CCA'
p6067
tp6068
I6
s(I74
S'GGC'
p6069
tp6070
I1
s(I54
S'GAG'
p6071
tp6072
I142
s(I10
S'AGG'
p6073
tp6074
I71
s(I65
S'CCG'
p6075
tp6076
I1
s(I76
S'CCC'
p6077
tp6078
I2
s(I14
S'TCG'
p6079
tp6080
I21
s(I36
S'GAG'
p6081
tp6082
I4
s(I14
S'CAC'
p6083
tp6084
I1
s(I11
S'GGC'
p6085
tp6086
I33
s(I71
S'ATA'
p6087
tp6088
I6
s(I63
S'AGC'
p6089
tp6090
I47
s(I36
S'GGC'
p6091
tp6092
I23
s(I58
S'AAT'
p6093
tp6094
I39
s(I13
S'GGA'
p6095
tp6096
I8
s(I70
S'TTC'
p6097
tp6098
I1
s(I61
S'TCC'
p6099
tp6100
I4
s(I29
S'AAC'
p6101
tp6102
I48
s(I36
S'GTG'
p6103
tp6104
I3
s(I60
S'GAA'
p6105
tp6106
I79
s(I25
S'TCA'
p6107
tp6108
I18
s(I42
S'GTC'
p6109
tp6110
I123
s(I19
S'AGT'
p6111
tp6112
I239
s(I15
S'CCA'
p6113
tp6114
I10
s(I37
S'AAC'
p6115
tp6116
I61
s(I51
S'ACA'
p6117
tp6118
I20
s(I75
S'ATG'
p6119
tp6120
I9
s(I25
S'AAG'
p6121
tp6122
I2
s(I72
S'GAT'
p6123
tp6124
I27
s(I9
S'GTG'
p6125
tp6126
I582
s(I63
S'CCA'
p6127
tp6128
I253
s(I27
S'CCG'
p6129
tp6130
I1
s(I27
S'CGG'
p6131
tp6132
I58
s(I45
S'AGA'
p6133
tp6134
I131
s(I19
S'CAA'
p6135
tp6136
I289
s(I24
S'CAA'
p6137
tp6138
I11
s(I75
S'GGC'
p6139
tp6140
I13
s(I14
S'GCG'
p6141
tp6142
I27
s(I35
S'AGG'
p6143
tp6144
I486
s(I69
S'TGA'
p6145
tp6146
I2
s(I62
S'TCT'
p6147
tp6148
I1853
s(I35
S'ATA'
p6149
tp6150
I250
s(I9
S'AAA'
p6151
tp6152
I33
s(I42
S'TTA'
p6153
tp6154
I13
s(I49
S'GCG'
p6155
tp6156
I3356
s(I60
S'AGG'
p6157
tp6158
I70
s(I25
S'GGC'
p6159
tp6160
I28
s(I51
S'GCT'
p6161
tp6162
I14
s(I19
S'CGA'
p6163
tp6164
I623
s(I45
S'ATG'
p6165
tp6166
I2156
s(I27
S'TGC'
p6167
tp6168
I13
s(I35
S'ACC'
p6169
tp6170
I253
s(I56
S'TTC'
p6171
tp6172
I18
s(I61
S'TGC'
p6173
tp6174
I20
s(I30
S'ACT'
p6175
tp6176
I16
s(I58
S'CCA'
p6177
tp6178
I2
s(I42
S'GAC'
p6179
tp6180
I41
s(I47
S'TTG'
p6181
tp6182
I28
s(I51
S'TGG'
p6183
tp6184
I5
s(I16
S'TGA'
p6185
tp6186
I14
s(I14
S'GGA'
p6187
tp6188
I104
s(I48
S'TTG'
p6189
tp6190
I9
s(I68
S'GTA'
p6191
tp6192
I153
s(I43
S'CTG'
p6193
tp6194
I74
s(I2
S'TGC'
p6195
tp6196
I1
s(I55
S'TCG'
p6197
tp6198
I1
s(I38
S'TTA'
p6199
tp6200
I400
s(I30
S'ATA'
p6201
tp6202
I41
s(I60
S'TCC'
p6203
tp6204
I1901
s(I56
S'AGT'
p6205
tp6206
I1
s(I8
S'GAA'
p6207
tp6208
I9
s(I65
S'GAG'
p6209
tp6210
I73
s(I12
S'TGC'
p6211
tp6212
I13
s(I35
S'ACG'
p6213
tp6214
I221
s(I68
S'TTC'
p6215
tp6216
I8
s(I32
S'CAT'
p6217
tp6218
I22
s(I42
S'ACC'
p6219
tp6220
I5
s(I3
S'CCG'
p6221
tp6222
I29
s(I26
S'ACA'
p6223
tp6224
I1
s(I17
S'AAA'
p6225
tp6226
I2
s(I64
S'CCA'
p6227
tp6228
I7
s(I29
S'GAC'
p6229
tp6230
I2
s(I13
S'ACT'
p6231
tp6232
I23
s(I69
S'ATC'
p6233
tp6234
I10
s(I42
S'CGC'
p6235
tp6236
I79
s(I51
S'TGA'
p6237
tp6238
I15
s(I24
S'AAC'
p6239
tp6240
I81
s(I38
S'ATT'
p6241
tp6242
I14
s(I26
S'GTC'
p6243
tp6244
I92
s(I52
S'GAT'
p6245
tp6246
I248
s(I46
S'AAG'
p6247
tp6248
I124
s(I7
S'CCC'
p6249
tp6250
I6359
s(I38
S'AAA'
p6251
tp6252
I113
s(I27
S'GAT'
p6253
tp6254
I3
s(I40
S'ATA'
p6255
tp6256
I31
s(I55
S'ATG'
p6257
tp6258
I258
s(I69
S'AAG'
p6259
tp6260
I17
s(I19
S'ACT'
p6261
tp6262
I171
s(I60
S'AGT'
p6263
tp6264
I134
s(I31
S'GCA'
p6265
tp6266
I242
s(I65
S'ATG'
p6267
tp6268
I394
s(I13
S'CTT'
p6269
tp6270
I114
s(I25
S'TAC'
p6271
tp6272
I165
s(I53
S'CGG'
p6273
tp6274
I80
s(I18
S'CTT'
p6275
tp6276
I115
s(I68
S'ACG'
p6277
tp6278
I732
s(I17
S'GAT'
p6279
tp6280
I7
s(I76
S'AGA'
p6281
tp6282
I3
s(I29
S'CGA'
p6283
tp6284
I152
s(I14
S'CCC'
p6285
tp6286
I2
s(I62
S'TAC'
p6287
tp6288
I164
s(I6
S'CGC'
p6289
tp6290
I176
s(I31
S'ACC'
p6291
tp6292
I13
s(I56
S'GAG'
p6293
tp6294
I1
s(I39
S'ATT'
p6295
tp6296
I10
s(I40
S'TTG'
p6297
tp6298
I258
s(I42
S'GCA'
p6299
tp6300
I1899
s(I33
S'TAT'
p6301
tp6302
I45
s(I55
S'GAA'
p6303
tp6304
I146
s(I59
S'GTA'
p6305
tp6306
I21
s(I4
S'CCT'
p6307
tp6308
I7
s(I15
S'CTC'
p6309
tp6310
I83
s(I44
S'TTC'
p6311
tp6312
I115
s(I45
S'GCG'
p6313
tp6314
I4938
s(I67
S'CTT'
p6315
tp6316
I363
s(I54
S'CCT'
p6317
tp6318
I339
s(I48
S'GCA'
p6319
tp6320
I7
s(I67
S'TTG'
p6321
tp6322
I65
s(I14
S'AGA'
p6323
tp6324
I10
s(I29
S'AGT'
p6325
tp6326
I41
s(I56
S'CTT'
p6327
tp6328
I36
s(I48
S'AGA'
p6329
tp6330
I46
s(I27
S'GGC'
p6331
tp6332
I1
s(I33
S'ACA'
p6333
tp6334
I25
s(I29
S'AAT'
p6335
tp6336
I77
s(I55
S'CGT'
p6337
tp6338
I220
s(I37
S'CCC'
p6339
tp6340
I217
s(I8
S'AAG'
p6341
tp6342
I103
s(I63
S'GTA'
p6343
tp6344
I97
s(I50
S'TTT'
p6345
tp6346
I6
s(I40
S'TGG'
p6347
tp6348
I1
s(I61
S'GTT'
p6349
tp6350
I154
s(I72
S'GAC'
p6351
tp6352
I104
s(I42
S'TGA'
p6353
tp6354
I3
s(I47
S'TCA'
p6355
tp6356
I1128
s(I43
S'GTC'
p6357
tp6358
I218
s(I75
S'GCA'
p6359
tp6360
I2
s(I13
S'CAG'
p6361
tp6362
I22
s(I66
S'GCA'
p6363
tp6364
I140
s(I18
S'CAG'
p6365
tp6366
I58
s(I36
S'CAC'
p6367
tp6368
I18
s(I52
S'ATT'
p6369
tp6370
I215
s(I41
S'CAC'
p6371
tp6372
I65
s(I18
S'GAT'
p6373
tp6374
I35
s(I53
S'CTG'
p6375
tp6376
I94
s(I16
S'GGT'
p6377
tp6378
I6
s(I58
S'CTA'
p6379
tp6380
I8
s(I22
S'GCC'
p6381
tp6382
I28
s(I45
S'AAG'
p6383
tp6384
I366
s(I49
S'GCT'
p6385
tp6386
I1404
s(I7
S'GCG'
p6387
tp6388
I31
s(I50
S'AGG'
p6389
tp6390
I1
s(I5
S'TAG'
p6391
tp6392
I31
s(I6
S'GAT'
p6393
tp6394
I298
s(I46
S'CAT'
p6395
tp6396
I2411
s(I8
S'GCG'
p6397
tp6398
I5
s(I12
S'ACT'
p6399
tp6400
I16
s(I68
S'ATG'
p6401
tp6402
I28
s(I73
S'TCG'
p6403
tp6404
I4
s(I33
S'GCC'
p6405
tp6406
I8
s(I52
S'CTC'
p6407
tp6408
I3
s(I76
S'GGA'
p6409
tp6410
I96
s(I16
S'CGC'
p6411
tp6412
I149
s(I31
S'GGG'
p6413
tp6414
I283
s(I52
S'GTT'
p6415
tp6416
I49
s(I51
S'GTG'
p6417
tp6418
I55
s(I11
S'GCA'
p6419
tp6420
I2133
s(I4
S'TGG'
p6421
tp6422
I14
s(I6
S'ACA'
p6423
tp6424
I49
s(I64
S'ATC'
p6425
tp6426
I1404
s(I40
S'GCG'
p6427
tp6428
I1
s(I65
S'ACC'
p6429
tp6430
I1
s(I38
S'CCT'
p6431
tp6432
I325
s(I5
S'AGG'
p6433
tp6434
I1
s(I65
S'GCC'
p6435
tp6436
I58
s(I40
S'CCT'
p6437
tp6438
I26
s(I33
S'GAT'
p6439
tp6440
I5
s(I21
S'TAA'
p6441
tp6442
I3
s(I30
S'GCT'
p6443
tp6444
I36
s(I32
S'TGT'
p6445
tp6446
I366
s(I26
S'TAT'
p6447
tp6448
I1
s(I55
S'AGG'
p6449
tp6450
I18
s(I17
S'GGT'
p6451
tp6452
I313
s(I7
S'GGG'
p6453
tp6454
I1646
s(I63
S'AAC'
p6455
tp6456
I285
s(I18
S'CAT'
p6457
tp6458
I73
s(I17
S'CAC'
p6459
tp6460
I1
s(I75
S'GTA'
p6461
tp6462
I3
s(I40
S'TCC'
p6463
tp6464
I509
s(I60
S'TAG'
p6465
tp6466
I1
s(I40
S'GTG'
p6467
tp6468
I18
s(I40
S'CAG'
p6469
tp6470
I144
s(I65
S'GTA'
p6471
tp6472
I38
s(I19
S'CTA'
p6473
tp6474
I387
s(I48
S'TGC'
p6475
tp6476
I14
s(I24
S'CTG'
p6477
tp6478
I170
s(I20
S'CTA'
p6479
tp6480
I120
s(I13
S'ACA'
p6481
tp6482
I10
s(I37
S'ATC'
p6483
tp6484
I352
s(I3
S'GGC'
p6485
tp6486
I5
s(I6
S'GGT'
p6487
tp6488
I1525
s(I36
S'AAA'
p6489
tp6490
I7
s(I42
S'TAG'
p6491
tp6492
I1
s(I70
S'GCA'
p6493
tp6494
I2412
s(I42
S'ATT'
p6495
tp6496
I7
s(I67
S'TCA'
p6497
tp6498
I172
s(I14
S'AGT'
p6499
tp6500
I53
s(I69
S'CAC'
p6501
tp6502
I5
s(I44
S'AAG'
p6503
tp6504
I2
s(I32
S'ACG'
p6505
tp6506
I187
s(I16
S'ATC'
p6507
tp6508
I11
s(I27
S'GCC'
p6509
tp6510
I23
s(I13
S'GCT'
p6511
tp6512
I197
s(I11
S'GTG'
p6513
tp6514
I66
s(I32
S'TTT'
p6515
tp6516
I50
s(I54
S'GGC'
p6517
tp6518
I209
s(I71
S'CAC'
p6519
tp6520
I5
s(I24
S'CGT'
p6521
tp6522
I19
s(I43
S'CAA'
p6523
tp6524
I6
s(I13
S'GTT'
p6525
tp6526
I163
s(I52
S'AAC'
p6527
tp6528
I31
s(I58
S'TAA'
p6529
tp6530
I1
s(I23
S'CGT'
p6531
tp6532
I4
s(I62
S'CCC'
p6533
tp6534
I772
s(I69
S'CCT'
p6535
tp6536
I1
s(I11
S'TTT'
p6537
tp6538
I28
s(I66
S'TAA'
p6539
tp6540
I18
s(I25
S'TGA'
p6541
tp6542
I1
s(I30
S'TAC'
p6543
tp6544
I33
s(I16
S'ACA'
p6545
tp6546
I125
s(I5
S'CTG'
p6547
tp6548
I51
s(I29
S'GGC'
p6549
tp6550
I337
s(I44
S'AAA'
p6551
tp6552
I122
s(I40
S'GAC'
p6553
tp6554
I1093
s(I50
S'CCG'
p6555
tp6556
I1
s(I57
S'CCC'
p6557
tp6558
I50
s(I73
S'TTC'
p6559
tp6560
I1
s(I17
S'GTC'
p6561
tp6562
I176
s(I18
S'ATA'
p6563
tp6564
I38
s(I53
S'TAT'
p6565
tp6566
I15
s(I4
S'CCG'
p6567
tp6568
I6
s(I33
S'AAT'
p6569
tp6570
I9
s(I24
S'CGC'
p6571
tp6572
I68
s(I34
S'AAA'
p6573
tp6574
I7
s(I26
S'TAA'
p6575
tp6576
I28
s(I61
S'GCC'
p6577
tp6578
I16
s(I18
S'TAG'
p6579
tp6580
I37
s(I4
S'GGC'
p6581
tp6582
I3
s(I31
S'GTC'
p6583
tp6584
I47
s(I4
S'TAC'
p6585
tp6586
I41
s(I34
S'CCT'
p6587
tp6588
I15
s(I44
S'GCA'
p6589
tp6590
I86
s(I71
S'TTC'
p6591
tp6592
I46
s(I50
S'ATC'
p6593
tp6594
I284
s(I47
S'GCT'
p6595
tp6596
I247
s(I29
S'CTA'
p6597
tp6598
I215
s(I72
S'ATA'
p6599
tp6600
I29
s(I35
S'GAT'
p6601
tp6602
I1
s(I34
S'CTC'
p6603
tp6604
I48
s(I23
S'GTC'
p6605
tp6606
I6
s(I11
S'CCG'
p6607
tp6608
I279
s(I72
S'CGA'
p6609
tp6610
I32
s(I72
S'CCA'
p6611
tp6612
I128
s(I21
S'GCG'
p6613
tp6614
I269
s(I48
S'CGG'
p6615
tp6616
I47
s(I67
S'CCT'
p6617
tp6618
I44
s(I18
S'AGC'
p6619
tp6620
I171
s(I7
S'CCG'
p6621
tp6622
I1235
s(I22
S'GTT'
p6623
tp6624
I78
s(I62
S'ATG'
p6625
tp6626
I1045
s(I34
S'AGA'
p6627
tp6628
I5
s(I74
S'GAT'
p6629
tp6630
I5
s(I62
S'TAT'
p6631
tp6632
I489
s(I63
S'ACG'
p6633
tp6634
I11
s(I67
S'TAC'
p6635
tp6636
I20
s(I70
S'TAT'
p6637
tp6638
I6
s(I23
S'GCC'
p6639
tp6640
I6
s(I40
S'CCG'
p6641
tp6642
I136
s(I11
S'TTA'
p6643
tp6644
I97
s(I23
S'ACC'
p6645
tp6646
I217
s(I26
S'TGA'
p6647
tp6648
I5
s(I65
S'GCT'
p6649
tp6650
I775
s(I57
S'GGG'
p6651
tp6652
I178
s(I34
S'GGA'
p6653
tp6654
I95
s(I55
S'GCC'
p6655
tp6656
I20
s(I70
S'CCC'
p6657
tp6658
I1
s(I54
S'TGA'
p6659
tp6660
I21
s(I40
S'TGA'
p6661
tp6662
I35
s(I20
S'TAA'
p6663
tp6664
I18
s(I32
S'TAG'
p6665
tp6666
I47
s(I65
S'GTT'
p6667
tp6668
I1117
s(I27
S'CCA'
p6669
tp6670
I2
s(I5
S'GAT'
p6671
tp6672
I3
s(I43
S'AAG'
p6673
tp6674
I2
s(I30
S'CTC'
p6675
tp6676
I78
s(I35
S'CTA'
p6677
tp6678
I519
s(I10
S'TAA'
p6679
tp6680
I6
s(I31
S'GAG'
p6681
tp6682
I1
s(I18
S'TAA'
p6683
tp6684
I13
s(I37
S'ACT'
p6685
tp6686
I226
s(I13
S'GCA'
p6687
tp6688
I1
s(I46
S'TGC'
p6689
tp6690
I720
s(I15
S'GAG'
p6691
tp6692
I11
s(I53
S'TCG'
p6693
tp6694
I82
s(I56
S'TGC'
p6695
tp6696
I81
s(I16
S'CCC'
p6697
tp6698
I142
s(I55
S'ACA'
p6699
tp6700
I381
s(I6
S'GCA'
p6701
tp6702
I209
s(I3
S'CGA'
p6703
tp6704
I3
s(I33
S'GTC'
p6705
tp6706
I8
s(I56
S'TGT'
p6707
tp6708
I10
s(I24
S'GCA'
p6709
tp6710
I54
s(I61
S'AAA'
p6711
tp6712
I1
s(I3
S'GTC'
p6713
tp6714
I46
s(I68
S'AAA'
p6715
tp6716
I4
s(I39
S'TGT'
p6717
tp6718
I13
s(I59
S'CTG'
p6719
tp6720
I2368
s(I32
S'GTG'
p6721
tp6722
I106
s(I34
S'TAC'
p6723
tp6724
I8
s(I24
S'TGC'
p6725
tp6726
I23
s(I41
S'GAA'
p6727
tp6728
I4
s(I46
S'GCA'
p6729
tp6730
I34
s(I39
S'CGC'
p6731
tp6732
I2
s(I68
S'GGA'
p6733
tp6734
I20
s(I43
S'AAT'
p6735
tp6736
I1
s(I58
S'TCC'
p6737
tp6738
I49
s(I50
S'TTG'
p6739
tp6740
I64
s(I44
S'TAA'
p6741
tp6742
I1
s(I28
S'CAG'
p6743
tp6744
I133
s(I75
S'CCC'
p6745
tp6746
I33
s(I55
S'TCT'
p6747
tp6748
I98
s(I70
S'CTT'
p6749
tp6750
I740
s(I11
S'TCC'
p6751
tp6752
I242
s(I75
S'CTT'
p6753
tp6754
I30
s(I10
S'ACA'
p6755
tp6756
I8
s(I57
S'GCA'
p6757
tp6758
I84
s(I54
S'ATT'
p6759
tp6760
I48
s(I33
S'ATA'
p6761
tp6762
I13
s(I24
S'GGT'
p6763
tp6764
I5
s(I6
S'AAT'
p6765
tp6766
I947
s(I2
S'GAC'
p6767
tp6768
I1
s(I65
S'CTG'
p6769
tp6770
I51
s(I62
S'GTA'
p6771
tp6772
I400
s(I28
S'AGC'
p6773
tp6774
I27
s(I15
S'ACT'
p6775
tp6776
I9
s(I24
S'TTG'
p6777
tp6778
I8
s(I33
S'CCG'
p6779
tp6780
I91
s(I46
S'AAA'
p6781
tp6782
I23
s(I59
S'GGG'
p6783
tp6784
I3
s(I42
S'CAT'
p6785
tp6786
I3022
s(I49
S'TGG'
p6787
tp6788
I4
s(I15
S'CGT'
p6789
tp6790
I6
s(I22
S'ATA'
p6791
tp6792
I113
s(I21
S'ATC'
p6793
tp6794
I6
s(I7
S'GAC'
p6795
tp6796
I60
s(I3
S'ACT'
p6797
tp6798
I26
s(I4
S'GCT'
p6799
tp6800
I2
s(I57
S'AGA'
p6801
tp6802
I9
s(I5
S'TTG'
p6803
tp6804
I95
s(I34
S'CGA'
p6805
tp6806
I2
s(I47
S'CCC'
p6807
tp6808
I1
s(I28
S'TTC'
p6809
tp6810
I2
s(I52
S'ACT'
p6811
tp6812
I2
s(I5
S'CTC'
p6813
tp6814
I262
s(I59
S'TGG'
p6815
tp6816
I3
s(I49
S'GGA'
p6817
tp6818
I1527
s(I35
S'TAA'
p6819
tp6820
I11
s(I20
S'GTG'
p6821
tp6822
I257
s(I62
S'CAA'
p6823
tp6824
I213
s(I76
S'GAA'
p6825
tp6826
I14
s(I53
S'GAT'
p6827
tp6828
I1
s(I7
S'GTG'
p6829
tp6830
I168
s(I62
S'GGC'
p6831
tp6832
I453
s(I8
S'AGT'
p6833
tp6834
I1
s(I31
S'CCA'
p6835
tp6836
I2
s(I64
S'TGC'
p6837
tp6838
I1790
s(I63
S'GCG'
p6839
tp6840
I12
s(I19
S'CCT'
p6841
tp6842
I36
s(I53
S'ACC'
p6843
tp6844
I169
s(I13
S'AGA'
p6845
tp6846
I171
s(I41
S'AAC'
p6847
tp6848
I98
s(I63
S'CAT'
p6849
tp6850
I292
s(I9
S'ACT'
p6851
tp6852
I185
s(I3
S'AGG'
p6853
tp6854
I1
s(I63
S'GGC'
p6855
tp6856
I11
s(I43
S'TGT'
p6857
tp6858
I5
s(I64
S'CAG'
p6859
tp6860
I446
s(I23
S'GGT'
p6861
tp6862
I16
s(I12
S'CTC'
p6863
tp6864
I2
s(I24
S'TAT'
p6865
tp6866
I90
s(I51
S'CCG'
p6867
tp6868
I99
s(I49
S'ACG'
p6869
tp6870
I85
s(I74
S'GCC'
p6871
tp6872
I1
s(I22
S'GTC'
p6873
tp6874
I57
s(I33
S'GAG'
p6875
tp6876
I38
s(I20
S'GGA'
p6877
tp6878
I1
s(I34
S'CAG'
p6879
tp6880
I53
s(I62
S'CGG'
p6881
tp6882
I248
s(I7
S'AGC'
p6883
tp6884
I35
s(I57
S'CAC'
p6885
tp6886
I379
s(I11
S'CTA'
p6887
tp6888
I13
s(I75
S'CTA'
p6889
tp6890
I1
s(I68
S'AGA'
p6891
tp6892
I1
s(I74
S'GAA'
p6893
tp6894
I11
s(I51
S'CGG'
p6895
tp6896
I2
s(I42
S'CTT'
p6897
tp6898
I26
s(I13
S'CCC'
p6899
tp6900
I6
s(I60
S'AAT'
p6901
tp6902
I1
s(I46
S'GCG'
p6903
tp6904
I319
s(I9
S'GCG'
p6905
tp6906
I153
s(I16
S'CTG'
p6907
tp6908
I15
s(I16
S'TGC'
p6909
tp6910
I67
s(I68
S'TGT'
p6911
tp6912
I136
s(I57
S'CGC'
p6913
tp6914
I17
s(I34
S'GCG'
p6915
tp6916
I25
s(I48
S'TTA'
p6917
tp6918
I73
s(I24
S'AGT'
p6919
tp6920
I65
s(I57
S'TGT'
p6921
tp6922
I73
s(I60
S'TTT'
p6923
tp6924
I83
s(I32
S'ATA'
p6925
tp6926
I125
s(I61
S'GGT'
p6927
tp6928
I2
s(I11
S'ATG'
p6929
tp6930
I126
s(I18
S'TCC'
p6931
tp6932
I126
s(I22
S'TGT'
p6933
tp6934
I91
s(I21
S'TGT'
p6935
tp6936
I102
s(I52
S'GGG'
p6937
tp6938
I4
s(I76
S'CTC'
p6939
tp6940
I23
s(I15
S'AAT'
p6941
tp6942
I6
s(I24
S'GCT'
p6943
tp6944
I4
s(I46
S'CGA'
p6945
tp6946
I1479
s(I32
S'CCA'
p6947
tp6948
I498
s(I39
S'CAT'
p6949
tp6950
I102
s(I37
S'TCC'
p6951
tp6952
I157
s(I23
S'CTA'
p6953
tp6954
I99
s(I45
S'GAC'
p6955
tp6956
I4
s(I60
S'GGT'
p6957
tp6958
I375
s(I29
S'ACC'
p6959
tp6960
I10
s(I46
S'GCT'
p6961
tp6962
I7
s(I3
S'GTG'
p6963
tp6964
I111
s(I5
S'CAG'
p6965
tp6966
I2
s(I24
S'TGG'
p6967
tp6968
I7
s(I10
S'CAG'
p6969
tp6970
I47
s(I28
S'CAC'
p6971
tp6972
I6
s(I10
S'TCA'
p6973
tp6974
I283
s(I33
S'CAC'
p6975
tp6976
I46
s(I33
S'TCG'
p6977
tp6978
I25
s(I58
S'CGT'
p6979
tp6980
I126
s(I13
S'TTT'
p6981
tp6982
I4
s(I32
S'TAC'
p6983
tp6984
I65
s(I18
S'TTA'
p6985
tp6986
I665
s(I64
S'TCG'
p6987
tp6988
I3198
s(I47
S'CGT'
p6989
tp6990
I2
s(I48
S'ATA'
p6991
tp6992
I15
s(I67
S'AAC'
p6993
tp6994
I5
s(I30
S'CCC'
p6995
tp6996
I2
s(I24
S'GGC'
p6997
tp6998
I10
s(I39
S'TAC'
p6999
tp7000
I9
s(I33
S'CGT'
p7001
tp7002
I58
s(I31
S'AAC'
p7003
tp7004
I113
s(I28
S'ACG'
p7005
tp7006
I204
s(I69
S'CGC'
p7007
tp7008
I6
s(I38
S'AGG'
p7009
tp7010
I93
s(I37
S'TTT'
p7011
tp7012
I397
s(I26
S'GCA'
p7013
tp7014
I23
s(I45
S'TTA'
p7015
tp7016
I2645
s(I46
S'TTC'
p7017
tp7018
I4968
s(I18
S'CCG'
p7019
tp7020
I66
s(I8
S'CCT'
p7021
tp7022
I26
s(I64
S'TGT'
p7023
tp7024
I915
s(I22
S'CCT'
p7025
tp7026
I2
s(I3
S'TGT'
p7027
tp7028
I1259
s(I67
S'GTG'
p7029
tp7030
I17
s(I69
S'GTA'
p7031
tp7032
I13
s(I69
S'CAG'
p7033
tp7034
I17
s(I29
S'GCG'
p7035
tp7036
I119
s(I61
S'CCA'
p7037
tp7038
I21
s(I37
S'CGC'
p7039
tp7040
I93
s(I34
S'TTG'
p7041
tp7042
I1
s(I57
S'TTC'
p7043
tp7044
I146
s(I29
S'AGG'
p7045
tp7046
I246
s(I67
S'GAT'
p7047
tp7048
I3
s(I39
S'ACG'
p7049
tp7050
I35
s(I47
S'ACT'
p7051
tp7052
I200
s(I47
S'AGG'
p7053
tp7054
I3
s(I74
S'GGT'
p7055
tp7056
I1
s(I11
S'TCA'
p7057
tp7058
I210
s(I63
S'TCA'
p7059
tp7060
I261
s(I72
S'ACG'
p7061
tp7062
I224
s(I32
S'GGT'
p7063
tp7064
I235
s(I26
S'CTA'
p7065
tp7066
I156
s(I19
S'CCA'
p7067
tp7068
I60
s(I46
S'GTG'
p7069
tp7070
I578
s(I74
S'TTG'
p7071
tp7072
I1
s(I22
S'CTT'
p7073
tp7074
I131
s(I25
S'AGA'
p7075
tp7076
I1
s(I74
S'CAA'
p7077
tp7078
I3
s(I74
S'TCC'
p7079
tp7080
I2
s(I24
S'TAA'
p7081
tp7082
I3
s(I25
S'GTT'
p7083
tp7084
I106
s(I70
S'GGG'
p7085
tp7086
I2
s(I41
S'GTT'
p7087
tp7088
I36
s(I30
S'GCG'
p7089
tp7090
I176
s(I71
S'TAG'
p7091
tp7092
I1
s(I31
S'TGA'
p7093
tp7094
I19
s(I20
S'TCA'
p7095
tp7096
I708
s(I6
S'TCC'
p7097
tp7098
I340
s(I23
S'CGC'
p7099
tp7100
I5
s(I52
S'TAA'
p7101
tp7102
I4
s(I8
S'GGG'
p7103
tp7104
I16
s(I15
S'CCT'
p7105
tp7106
I2
s(I35
S'GTG'
p7107
tp7108
I252
s(I35
S'CAA'
p7109
tp7110
I24
s(I21
S'GGG'
p7111
tp7112
I162
s(I10
S'TTG'
p7113
tp7114
I10
s(I57
S'CGT'
p7115
tp7116
I298
s(I33
S'TTC'
p7117
tp7118
I20
s(I11
S'TGC'
p7119
tp7120
I58
s(I70
S'CGA'
p7121
tp7122
I2
s(I17
S'GAC'
p7123
tp7124
I5
s(I23
S'AGG'
p7125
tp7126
I1
s(I27
S'CAA'
p7127
tp7128
I4
s(I45
S'AGT'
p7129
tp7130
I1512
s(I27
S'CCC'
p7131
tp7132
I1
s(I44
S'ACG'
p7133
tp7134
I1079
s(I39
S'TCA'
p7135
tp7136
I21
s(I71
S'ATG'
p7137
tp7138
I819
s(I21
S'TGC'
p7139
tp7140
I41
s(I62
S'TCG'
p7141
tp7142
I908
s(I50
S'GTT'
p7143
tp7144
I1640
s(I46
S'CGT'
p7145
tp7146
I1107
s(I63
S'GAC'
p7147
tp7148
I45
s(I25
S'CCG'
p7149
tp7150
I1
s(I43
S'CGC'
p7151
tp7152
I2
s(I51
S'GCG'
p7153
tp7154
I19
s(I70
S'TTG'
p7155
tp7156
I21
s(I46
S'TCG'
p7157
tp7158
I617
s(I45
S'CAA'
p7159
tp7160
I5420
s(I11
S'GTC'
p7161
tp7162
I11
s(I19
S'AAC'
p7163
tp7164
I14
s(I13
S'ATC'
p7165
tp7166
I148
s(I56
S'TCA'
p7167
tp7168
I65
s(I25
S'CGG'
p7169
tp7170
I2
s(I50
S'GCT'
p7171
tp7172
I20
s(I54
S'CGC'
p7173
tp7174
I200
s(I54
S'GCA'
p7175
tp7176
I171
s(I55
S'TTT'
p7177
tp7178
I77
s(I11
S'CGC'
p7179
tp7180
I12
s(I49
S'AAC'
p7181
tp7182
I654
s(I67
S'GCG'
p7183
tp7184
I204
s(I51
S'TGT'
p7185
tp7186
I267
s(I39
S'GTC'
p7187
tp7188
I14
s(I66
S'AGG'
p7189
tp7190
I3
s(I74
S'AAC'
p7191
tp7192
I5
s(I6
S'TCA'
p7193
tp7194
I407
s(I20
S'GAA'
p7195
tp7196
I295
s(I11
S'ACC'
p7197
tp7198
I266
s(I52
S'CGC'
p7199
tp7200
I9
s(I72
S'CAC'
p7201
tp7202
I1941
s(I48
S'TAC'
p7203
tp7204
I141
s(I27
S'CGA'
p7205
tp7206
I128
s(I46
S'CTC'
p7207
tp7208
I128
s(I51
S'CTA'
p7209
tp7210
I337
s(I37
S'AAA'
p7211
tp7212
I158
s(I12
S'CCA'
p7213
tp7214
I128
s(I17
S'TCC'
p7215
tp7216
I210
s(I0
S'WT'
p7217
tp7218
I29
s(I69
S'ATT'
p7219
tp7220
I29
s(I76
S'CAC'
p7221
tp7222
I14
s(I20
S'CGC'
p7223
tp7224
I501
s(I2
S'GGC'
p7225
tp7226
I4
s(I70
S'CCG'
p7227
tp7228
I6
s(I55
S'TGG'
p7229
tp7230
I10
s(I15
S'AGG'
p7231
tp7232
I2
s(I72
S'AAA'
p7233
tp7234
I107
s(I48
S'GGG'
p7235
tp7236
I25
s(I33
S'ATG'
p7237
tp7238
I70
s(I35
S'TCA'
p7239
tp7240
I50
s(I73
S'CCG'
p7241
tp7242
I2
s(I20
S'TAC'
p7243
tp7244
I11
s(I54
S'AGC'
p7245
tp7246
I853
s(I28
S'TAC'
p7247
tp7248
I51
s(I14
S'GGG'
p7249
tp7250
I97
s(I11
S'CAG'
p7251
tp7252
I473
s(I46
S'GAG'
p7253
tp7254
I1211
s(I31
S'GTA'
p7255
tp7256
I50
s(I11
S'CGA'
p7257
tp7258
I67
s(I38
S'ATA'
p7259
tp7260
I354
s(I48
S'TGA'
p7261
tp7262
I2
s(I3
S'TGG'
p7263
tp7264
I15
s(I7
S'ACA'
p7265
tp7266
I160
s(I4
S'GGG'
p7267
tp7268
I7
s(I21
S'GAA'
p7269
tp7270
I1
s(I55
S'GAT'
p7271
tp7272
I214
s(I43
S'ACA'
p7273
tp7274
I23
s(I15
S'CTT'
p7275
tp7276
I54
s(I17
S'AAG'
p7277
tp7278
I10
s(I18
S'TGT'
p7279
tp7280
I230
s(I38
S'TTG'
p7281
tp7282
I37
s(I30
S'TCA'
p7283
tp7284
I17
s(I40
S'ACG'
p7285
tp7286
I172
s(I18
S'CGC'
p7287
tp7288
I291
s(I72
S'ACC'
p7289
tp7290
I124
s(I58
S'GTA'
p7291
tp7292
I27
s(I70
S'TCC'
p7293
tp7294
I22
s(I17
S'GTG'
p7295
tp7296
I461
s(I31
S'ACG'
p7297
tp7298
I17
s(I70
S'CAG'
p7299
tp7300
I44
s(I67
S'CAA'
p7301
tp7302
I168
s(I75
S'CAG'
p7303
tp7304
I2
s(I67
S'CCG'
p7305
tp7306
I64
s(I61
S'GTA'
p7307
tp7308
I162
s(I35
S'GAC'
p7309
tp7310
I33
s(I48
S'GTT'
p7311
tp7312
I30
s(I29
S'CGG'
p7313
tp7314
I320
s(I11
S'GGA'
p7315
tp7316
I819
s(I31
S'CAT'
p7317
tp7318
I34
s(I57
S'TAC'
p7319
tp7320
I36
s(I6
S'GTG'
p7321
tp7322
I3382
s(I20
S'GGC'
p7323
tp7324
I63
s(I64
S'CAT'
p7325
tp7326
I493
s(I50
S'AAG'
p7327
tp7328
I1
s(I20
S'GCT'
p7329
tp7330
I66
s(I42
S'GCG'
p7331
tp7332
I11
s(I28
S'GGC'
p7333
tp7334
I51
s(I34
S'GTA'
p7335
tp7336
I24
s(I38
S'CCC'
p7337
tp7338
I370
s(I27
S'TTC'
p7339
tp7340
I275
s(I61
S'ACA'
p7341
tp7342
I10
s(I39
S'TCT'
p7343
tp7344
I13
s(I72
S'TTG'
p7345
tp7346
I39
s(I27
S'CGT'
p7347
tp7348
I659
s(I50
S'GTA'
p7349
tp7350
I84
s(I62
S'AAC'
p7351
tp7352
I323
s(I63
S'GAT'
p7353
tp7354
I111
s(I73
S'TAT'
p7355
tp7356
I7
s(I60
S'GAC'
p7357
tp7358
I453
s(I27
S'GAA'
p7359
tp7360
I2
s(I75
S'AAC'
p7361
tp7362
I2
s(I38
S'GAT'
p7363
tp7364
I330
s(I43
S'GCT'
p7365
tp7366
I1
s(I29
S'CAG'
p7367
tp7368
I172
s(I16
S'CGT'
p7369
tp7370
I125
s(I76
S'TTC'
p7371
tp7372
I23
s(I34
S'ACC'
p7373
tp7374
I103
s(I73
S'CGT'
p7375
tp7376
I7
s(I15
S'TCT'
p7377
tp7378
I31
s(I11
S'GCT'
p7379
tp7380
I24
s(I58
S'AGT'
p7381
tp7382
I6
s(I37
S'GAC'
p7383
tp7384
I40
s(I5
S'ACT'
p7385
tp7386
I8
s(I19
S'CTC'
p7387
tp7388
I86
s(I54
S'GCT'
p7389
tp7390
I398
s(I36
S'TTT'
p7391
tp7392
I2
s(I63
S'CTG'
p7393
tp7394
I430
s(I28
S'CTC'
p7395
tp7396
I958
s(I27
S'TGA'
p7397
tp7398
I41
s(I47
S'ATG'
p7399
tp7400
I2
s(I17
S'GGC'
p7401
tp7402
I134
s(I35
S'TCC'
p7403
tp7404
I144
s(I37
S'CAA'
p7405
tp7406
I373
s(I76
S'ACT'
p7407
tp7408
I13
s(I44
S'GAC'
p7409
tp7410
I8
s(I41
S'ACC'
p7411
tp7412
I10
s(I11
S'GAA'
p7413
tp7414
I1526
s(I16
S'AAA'
p7415
tp7416
I14
s(I65
S'TTT'
p7417
tp7418
I17
s(I71
S'TGT'
p7419
tp7420
I6
s(I8
S'GCA'
p7421
tp7422
I11
s(I37
S'ATT'
p7423
tp7424
I289
s(I27
S'CTG'
p7425
tp7426
I350
s(I35
S'TGG'
p7427
tp7428
I51
s(I41
S'CGC'
p7429
tp7430
I1
s(I45
S'TAG'
p7431
tp7432
I22
s(I31
S'GGA'
p7433
tp7434
I495
s(I20
S'AGC'
p7435
tp7436
I219
s(I28
S'ATG'
p7437
tp7438
I438
s(I28
S'TTA'
p7439
tp7440
I166
s(I15
S'CGG'
p7441
tp7442
I1
s(I19
S'TGG'
p7443
tp7444
I94
s(I22
S'CTG'
p7445
tp7446
I18
s(I73
S'GGT'
p7447
tp7448
I1
s(I43
S'CCC'
p7449
tp7450
I3
s(I52
S'TTC'
p7451
tp7452
I42
s(I48
S'GCG'
p7453
tp7454
I11
s(I51
S'ATA'
p7455
tp7456
I45
s(I40
S'GCA'
p7457
tp7458
I26
s(I75
S'TTG'
p7459
tp7460
I7
s(I9
S'CCT'
p7461
tp7462
I1225
s(I59
S'CTT'
p7463
tp7464
I2900
s(I28
S'CGA'
p7465
tp7466
I126
s(I43
S'CTT'
p7467
tp7468
I28
s(I10
S'GAG'
p7469
tp7470
I325
s(I25
S'ACA'
p7471
tp7472
I276
s(I61
S'CAT'
p7473
tp7474
I3
s(I37
S'TAA'
p7475
tp7476
I17
s(I7
S'GGA'
p7477
tp7478
I526
s(I32
S'GTA'
p7479
tp7480
I1
s(I67
S'GTA'
p7481
tp7482
I232
s(I65
S'CTC'
p7483
tp7484
I39
s(I40
S'GTA'
p7485
tp7486
I18
s(I27
S'AGC'
p7487
tp7488
I8
s(I21
S'CAG'
p7489
tp7490
I27
s(I67
S'GTT'
p7491
tp7492
I9
s(I61
S'TAA'
p7493
tp7494
I16
s(I9
S'TAC'
p7495
tp7496
I21
s(I30
S'GAC'
p7497
tp7498
I1
s(I65
S'CTT'
p7499
tp7500
I85
s(I72
S'TCC'
p7501
tp7502
I384
s(I14
S'ACC'
p7503
tp7504
I313
s(I17
S'TAC'
p7505
tp7506
I132
s(I23
S'TCC'
p7507
tp7508
I7
s(I45
S'TGG'
p7509
tp7510
I718
s(I54
S'TTC'
p7511
tp7512
I48
s(I73
S'GCA'
p7513
tp7514
I2
s(I14
S'CGC'
p7515
tp7516
I1
s(I27
S'GAG'
p7517
tp7518
I1
s(I57
S'ATC'
p7519
tp7520
I29
s(I74
S'TAG'
p7521
tp7522
I18
s(I56
S'CCG'
p7523
tp7524
I1
s(I34
S'ATG'
p7525
tp7526
I5
s(I65
S'ATT'
p7527
tp7528
I184
s(I37
S'GGA'
p7529
tp7530
I73
s(I33
S'AAC'
p7531
tp7532
I12
s(I41
S'TGC'
p7533
tp7534
I64
s(I45
S'GGA'
p7535
tp7536
I2831
s(I5
S'GCC'
p7537
tp7538
I3
s(I7
S'CTC'
p7539
tp7540
I41
s(I73
S'GTG'
p7541
tp7542
I479
s(I23
S'CAT'
p7543
tp7544
I2
s(I60
S'CCC'
p7545
tp7546
I1
s(I46
S'ATC'
p7547
tp7548
I187
s(I62
S'CCT'
p7549
tp7550
I1715
s(I56
S'ATC'
p7551
tp7552
I323
s(I42
S'AGC'
p7553
tp7554
I4
s(I38
S'TGG'
p7555
tp7556
I268
s(I29
S'AGA'
p7557
tp7558
I18
s(I47
S'GCG'
p7559
tp7560
I167
s(I69
S'GCT'
p7561
tp7562
I1
s(I5
S'GTA'
p7563
tp7564
I66
s(I66
S'GGT'
p7565
tp7566
I341
s(I35
S'CCG'
p7567
tp7568
I267
s(I17
S'ACG'
p7569
tp7570
I41
s(I19
S'TGA'
p7571
tp7572
I17
s(I46
S'ATA'
p7573
tp7574
I271
s(I44
S'TTT'
p7575
tp7576
I49
s(I35
S'TAC'
p7577
tp7578
I8
s(I73
S'TGA'
p7579
tp7580
I12
s(I20
S'CAC'
p7581
tp7582
I97
s(I25
S'CAC'
p7583
tp7584
I110
s(I48
S'TCC'
p7585
tp7586
I224
s(I48
S'ACT'
p7587
tp7588
I8
s(I47
S'TCG'
p7589
tp7590
I557
s(I24
S'CAC'
p7591
tp7592
I19
s(I70
S'TAC'
p7593
tp7594
I2
s(I64
S'TAC'
p7595
tp7596
I10
s(I68
S'ACT'
p7597
tp7598
I157
s(I5
S'ACA'
p7599
tp7600
I48
s(I42
S'CCA'
p7601
tp7602
I2
s(I36
S'GCA'
p7603
tp7604
I14
s(I73
S'CCC'
p7605
tp7606
I2
s(I64
S'ACC'
p7607
tp7608
I7625
s(I52
S'TCG'
p7609
tp7610
I23
s(I55
S'CTG'
p7611
tp7612
I107
s(I53
S'TTA'
p7613
tp7614
I136
s(I53
S'AAG'
p7615
tp7616
I6
s(I36
S'CAT'
p7617
tp7618
I34
s(I48
S'TTC'
p7619
tp7620
I11
s(I24
S'ACG'
p7621
tp7622
I83
s(I25
S'ATG'
p7623
tp7624
I387
s(I74
S'ATG'
p7625
tp7626
I1
s(I54
S'TGT'
p7627
tp7628
I3
s(I51
S'TAT'
p7629
tp7630
I126
s(I30
S'CAT'
p7631
tp7632
I1
s(I44
S'CTC'
p7633
tp7634
I181
s(I64
S'AGG'
p7635
tp7636
I2
s(I36
S'CCC'
p7637
tp7638
I568
s(I22
S'GAA'
p7639
tp7640
I190
s(I77
S'TGT'
p7641
tp7642
I68
s(I73
S'CGG'
p7643
tp7644
I4
s(I8
S'CTC'
p7645
tp7646
I87
s(I68
S'TTT'
p7647
tp7648
I9
s(I51
S'CAA'
p7649
tp7650
I136
s(I48
S'CGA'
p7651
tp7652
I12
s(I5
S'GAG'
p7653
tp7654
I17
s(I41
S'CCG'
p7655
tp7656
I1
s(I73
S'TCT'
p7657
tp7658
I1
s(I64
S'TTG'
p7659
tp7660
I118
s(I14
S'ATG'
p7661
tp7662
I3
s(I69
S'TTA'
p7663
tp7664
I85
s(I50
S'GGG'
p7665
tp7666
I14
s(I41
S'ATT'
p7667
tp7668
I57
s(I51
S'GTT'
p7669
tp7670
I631
s(I13
S'TAA'
p7671
tp7672
I1
s(I61
S'AGT'
p7673
tp7674
I21
s(I32
S'ATT'
p7675
tp7676
I119
s(I8
S'ACA'
p7677
tp7678
I21
s(I66
S'GAT'
p7679
tp7680
I8511
s(I73
S'AGG'
p7681
tp7682
I7
s(I16
S'GTT'
p7683
tp7684
I66
s(I48
S'GAC'
p7685
tp7686
I40
s(I40
S'AAC'
p7687
tp7688
I160
s(I43
S'TGC'
p7689
tp7690
I60
s(I63
S'GTC'
p7691
tp7692
I218
s(I74
S'CGT'
p7693
tp7694
I84
s(I26
S'TAG'
p7695
tp7696
I87
s(I71
S'AAT'
p7697
tp7698
I1
s(I26
S'ATT'
p7699
tp7700
I321
s(I66
S'GTG'
p7701
tp7702
I116
s(I37
S'CTC'
p7703
tp7704
I399
s(I6
S'AGG'
p7705
tp7706
I10
s(I7
S'TAG'
p7707
tp7708
I26
s(I17
S'GAG'
p7709
tp7710
I1
s(I39
S'TGA'
p7711
tp7712
I33
s(I41
S'AGC'
p7713
tp7714
I162
s(I69
S'TGC'
p7715
tp7716
I167
s(I10
S'GCA'
p7717
tp7718
I20
s(I55
S'GTG'
p7719
tp7720
I138
s(I69
S'AAA'
p7721
tp7722
I12
s(I73
S'AAA'
p7723
tp7724
I1
s(I17
S'TTA'
p7725
tp7726
I53
s(I56
S'GAA'
p7727
tp7728
I1
s(I15
S'GTC'
p7729
tp7730
I185
s(I13
S'GCG'
p7731
tp7732
I201
s(I43
S'TTC'
p7733
tp7734
I16
s(I73
S'GAT'
p7735
tp7736
I1
s(I41
S'CCC'
p7737
tp7738
I5
s(I51
S'GGC'
p7739
tp7740
I226
s(I57
S'TGG'
p7741
tp7742
I75
s(I5
S'ATG'
p7743
tp7744
I169
s(I31
S'ATG'
p7745
tp7746
I69
s(I49
S'AGG'
p7747
tp7748
I9
s(I16
S'TAT'
p7749
tp7750
I5
s(I15
S'GCC'
p7751
tp7752
I29
s(I62
S'GAC'
p7753
tp7754
I87
s(I62
S'GTT'
p7755
tp7756
I3167
s(I50
S'CGG'
p7757
tp7758
I1
s(I15
S'ACC'
p7759
tp7760
I53
s(I16
S'TAA'
p7761
tp7762
I28
s(I24
S'TTT'
p7763
tp7764
I1
s(I48
S'CTA'
p7765
tp7766
I53
s(I69
S'GCA'
p7767
tp7768
I1837
s(I42
S'CAA'
p7769
tp7770
I194
s(I74
S'AGT'
p7771
tp7772
I1
s(I9
S'CAC'
p7773
tp7774
I1734
s(I73
S'CTG'
p7775
tp7776
I51
s(I65
S'CTA'
p7777
tp7778
I12
s(I9
S'TCG'
p7779
tp7780
I11
s(I32
S'CAG'
p7781
tp7782
I18
s(I44
S'TCG'
p7783
tp7784
I240
s(I52
S'CCG'
p7785
tp7786
I77
s(I54
S'TTG'
p7787
tp7788
I5
s(I40
S'GAT'
p7789
tp7790
I314
s(I59
S'TGT'
p7791
tp7792
I373
s(I6
S'TCT'
p7793
tp7794
I69
s(I58
S'AGG'
p7795
tp7796
I75
s(I53
S'TGC'
p7797
tp7798
I68
s(I36
S'TCA'
p7799
tp7800
I30
s(I14
S'AAC'
p7801
tp7802
I1
s(I3
S'ATA'
p7803
tp7804
I37
s(I32
S'GCC'
p7805
tp7806
I15
s(I42
S'CCT'
p7807
tp7808
I3
s(I46
S'CCA'
p7809
tp7810
I1
s(I35
S'AAG'
p7811
tp7812
I214
s(I34
S'AAC'
p7813
tp7814
I1
s(I17
S'CCT'
p7815
tp7816
I37
s(I58
S'ACC'
p7817
tp7818
I216
s(I34
S'ATT'
p7819
tp7820
I21
s(I39
S'GAG'
p7821
tp7822
I10
s(I13
S'CCA'
p7823
tp7824
I1
s(I33
S'GGT'
p7825
tp7826
I2
s(I3
S'CCT'
p7827
tp7828
I8
s(I63
S'CAC'
p7829
tp7830
I937
s(I28
S'TAG'
p7831
tp7832
I8
s(I51
S'TAC'
p7833
tp7834
I55
s(I19
S'ATG'
p7835
tp7836
I100
s(I23
S'GAG'
p7837
tp7838
I1
s(I64
S'GCC'
p7839
tp7840
I3069
s.