(dp0
(I38
S'CTG'
p1
tp2
I352
s(I49
S'TGA'
p3
tp4
I24
s(I47
S'ACA'
p5
tp6
I20
s(I70
S'ACG'
p7
tp8
I12986
s(I68
S'GTG'
p9
tp10
I312
s(I62
S'CGT'
p11
tp12
I1201
s(I46
S'AGC'
p13
tp14
I2209
s(I3
S'CAG'
p15
tp16
I30
s(I8
S'CAG'
p17
tp18
I2
s(I41
S'ATC'
p19
tp20
I163
s(I19
S'AAA'
p21
tp22
I1943
s(I60
S'GCG'
p23
tp24
I309
s(I7
S'AAG'
p25
tp26
I4
s(I51
S'TGA'
p27
tp28
I6
s(I49
S'GGG'
p29
tp30
I4010
s(I31
S'CTA'
p31
tp32
I23
s(I4
S'TGA'
p33
tp34
I147
s(I24
S'GTG'
p35
tp36
I9
s(I34
S'AGG'
p37
tp38
I1
s(I24
S'AGA'
p39
tp40
I23
s(I18
S'GCC'
p41
tp42
I33
s(I38
S'GCA'
p43
tp44
I341
s(I4
S'GGT'
p45
tp46
I3
s(I64
S'AAC'
p47
tp48
I2645
s(I12
S'TCA'
p49
tp50
I3
s(I20
S'CCT'
p51
tp52
I827
s(I4
S'GAC'
p53
tp54
I4
s(I3
S'AAC'
p55
tp56
I5
s(I75
S'TAA'
p57
tp58
I1
s(I14
S'CTC'
p59
tp60
I109
s(I36
S'GAA'
p61
tp62
I6
s(I6
S'AAA'
p63
tp64
I78
s(I36
S'CTT'
p65
tp66
I2376
s(I14
S'CGG'
p67
tp68
I33
s(I70
S'CCT'
p69
tp70
I1
s(I10
S'AGA'
p71
tp72
I46
s(I19
S'TCC'
p73
tp74
I137
s(I49
S'GCA'
p75
tp76
I1049
s(I30
S'GCT'
p77
tp78
I4
s(I39
S'CAC'
p79
tp80
I28
s(I58
S'GAC'
p81
tp82
I623
s(I44
S'CAC'
p83
tp84
I1
s(I49
S'ACA'
p85
tp86
I654
s(I67
S'CAG'
p87
tp88
I33
s(I34
S'TTA'
p89
tp90
I22
s(I65
S'CGC'
p91
tp92
I384
s(I54
S'GTA'
p93
tp94
I26
s(I23
S'TCG'
p95
tp96
I69
s(I38
S'AAA'
p97
tp98
I140
s(I64
S'TAT'
p99
tp100
I15
s(I52
S'GTC'
p101
tp102
I55
s(I63
S'AAA'
p103
tp104
I581
s(I31
S'TAG'
p105
tp106
I3
s(I13
S'ATC'
p107
tp108
I288
s(I3
S'TTC'
p109
tp110
I18
s(I58
S'CGA'
p111
tp112
I92
s(I13
S'TTG'
p113
tp114
I66
s(I36
S'TTC'
p115
tp116
I1
s(I33
S'CGC'
p117
tp118
I201
s(I53
S'ATT'
p119
tp120
I293
s(I32
S'ATG'
p121
tp122
I127
s(I53
S'ACT'
p123
tp124
I1
s(I9
S'ATG'
p125
tp126
I131
s(I11
S'CGT'
p127
tp128
I18
s(I52
S'GGA'
p129
tp130
I13
s(I46
S'TTT'
p131
tp132
I3230
s(I22
S'CGA'
p133
tp134
I193
s(I8
S'CCA'
p135
tp136
I1
s(I32
S'CTA'
p137
tp138
I647
s(I65
S'CTT'
p139
tp140
I109
s(I45
S'ACC'
p141
tp142
I3
s(I61
S'CGT'
p143
tp144
I70
s(I65
S'AGC'
p145
tp146
I18
s(I52
S'TGG'
p147
tp148
I97
s(I61
S'CCT'
p149
tp150
I31
s(I36
S'CGA'
p151
tp152
I37
s(I6
S'TAT'
p153
tp154
I972
s(I67
S'GAC'
p155
tp156
I16
s(I18
S'ATG'
p157
tp158
I162
s(I51
S'ATA'
p159
tp160
I67
s(I25
S'CTC'
p161
tp162
I64
s(I26
S'CAT'
p163
tp164
I1
s(I34
S'CGT'
p165
tp166
I1
s(I57
S'CTG'
p167
tp168
I279
s(I28
S'GAT'
p169
tp170
I252
s(I26
S'CTT'
p171
tp172
I300
s(I51
S'AAA'
p173
tp174
I4
s(I6
S'CCC'
p175
tp176
I1
s(I37
S'GGC'
p177
tp178
I90
s(I29
S'ACA'
p179
tp180
I174
s(I15
S'TAG'
p181
tp182
I2
s(I17
S'AAC'
p183
tp184
I471
s(I26
S'GCG'
p185
tp186
I50
s(I19
S'TAA'
p187
tp188
I7
s(I51
S'GGT'
p189
tp190
I598
s(I44
S'GTA'
p191
tp192
I91
s(I58
S'GGA'
p193
tp194
I84
s(I24
S'ATA'
p195
tp196
I34
s(I27
S'TAA'
p197
tp198
I26
s(I70
S'GAT'
p199
tp200
I14
s(I69
S'GTG'
p201
tp202
I224
s(I42
S'CTG'
p203
tp204
I4
s(I66
S'GGA'
p205
tp206
I221
s(I3
S'GGT'
p207
tp208
I1
s(I35
S'AGA'
p209
tp210
I123
s(I13
S'TGT'
p211
tp212
I226
s(I2
S'ACC'
p213
tp214
I8
s(I48
S'GTG'
p215
tp216
I13
s(I26
S'TGT'
p217
tp218
I81
s(I13
S'CGC'
p219
tp220
I7
s(I66
S'AGC'
p221
tp222
I16
s(I15
S'CAA'
p223
tp224
I11
s(I47
S'GGC'
p225
tp226
I336
s(I69
S'ATA'
p227
tp228
I85
s(I12
S'ATG'
p229
tp230
I4
s(I40
S'TAC'
p231
tp232
I48
s(I31
S'CTG'
p233
tp234
I3
s(I55
S'GGC'
p235
tp236
I48
s(I49
S'CCC'
p237
tp238
I606
s(I22
S'TCG'
p239
tp240
I162
s(I44
S'TGT'
p241
tp242
I2453
s(I64
S'GTC'
p243
tp244
I402
s(I10
S'CGG'
p245
tp246
I59
s(I48
S'TGG'
p247
tp248
I55
s(I75
S'CAT'
p249
tp250
I1
s(I5
S'GGC'
p251
tp252
I15
s(I44
S'ACT'
p253
tp254
I451
s(I52
S'TAC'
p255
tp256
I23
s(I20
S'CGT'
p257
tp258
I190
s(I14
S'TCT'
p259
tp260
I98
s(I11
S'GAT'
p261
tp262
I276
s(I20
S'AGG'
p263
tp264
I51
s(I51
S'TCC'
p265
tp266
I84
s(I23
S'GGC'
p267
tp268
I16
s(I20
S'TTC'
p269
tp270
I78
s(I65
S'TGC'
p271
tp272
I136
s(I58
S'AAG'
p273
tp274
I31
s(I43
S'CCA'
p275
tp276
I1
s(I11
S'GTT'
p277
tp278
I115
s(I65
S'CGT'
p279
tp280
I401
s(I36
S'GTT'
p281
tp282
I179
s(I25
S'TCT'
p283
tp284
I289
s(I19
S'GGG'
p285
tp286
I210
s(I69
S'TGT'
p287
tp288
I1801
s(I30
S'ATC'
p289
tp290
I59
s(I33
S'GCT'
p291
tp292
I7
s(I21
S'ACA'
p293
tp294
I27
s(I60
S'CTC'
p295
tp296
I47
s(I35
S'GTA'
p297
tp298
I35
s(I67
S'GGA'
p299
tp300
I2206
s(I6
S'CTT'
p301
tp302
I54
s(I53
S'GTC'
p303
tp304
I16
s(I42
S'GAG'
p305
tp306
I1
s(I18
S'AAC'
p307
tp308
I111
s(I8
S'TCC'
p309
tp310
I2
s(I71
S'CGC'
p311
tp312
I3
s(I69
S'GGC'
p313
tp314
I3
s(I9
S'CGG'
p315
tp316
I310
s(I29
S'CAT'
p317
tp318
I20
s(I48
S'TCT'
p319
tp320
I119
s(I26
S'GAG'
p321
tp322
I4
s(I61
S'GGG'
p323
tp324
I8
s(I38
S'TCC'
p325
tp326
I412
s(I62
S'GGT'
p327
tp328
I1290
s(I5
S'TCG'
p329
tp330
I5
s(I37
S'AAT'
p331
tp332
I101
s(I22
S'TGC'
p333
tp334
I77
s(I3
S'ATG'
p335
tp336
I121
s(I8
S'TGG'
p337
tp338
I9
s(I68
S'CGG'
p339
tp340
I1
s(I28
S'AAC'
p341
tp342
I58
s(I46
S'CTG'
p343
tp344
I344
s(I33
S'TAG'
p345
tp346
I38
s(I25
S'GGT'
p347
tp348
I4
s(I22
S'CGT'
p349
tp350
I31
s(I51
S'GCA'
p351
tp352
I236
s(I27
S'TCC'
p353
tp354
I7
s(I62
S'CTA'
p355
tp356
I2134
s(I8
S'GGC'
p357
tp358
I4
s(I55
S'CGA'
p359
tp360
I95
s(I36
S'CGG'
p361
tp362
I3
s(I10
S'CAT'
p363
tp364
I68
s(I58
S'GTG'
p365
tp366
I94
s(I14
S'GGT'
p367
tp368
I206
s(I28
S'GTT'
p369
tp370
I113
s(I70
S'ACT'
p371
tp372
I4684
s(I10
S'GGA'
p373
tp374
I15
s(I31
S'TCG'
p375
tp376
I116
s(I41
S'GGG'
p377
tp378
I3679
s(I66
S'AGA'
p379
tp380
I1
s(I29
S'TTA'
p381
tp382
I138
s(I10
S'TCC'
p383
tp384
I49
s(I62
S'TGT'
p385
tp386
I696
s(I21
S'TCT'
p387
tp388
I154
s(I29
S'ATC'
p389
tp390
I7
s(I40
S'CTC'
p391
tp392
I1942
s(I41
S'TTT'
p393
tp394
I409
s(I30
S'CCT'
p395
tp396
I1
s(I38
S'TCA'
p397
tp398
I82
s(I10
S'AGC'
p399
tp400
I1
s(I3
S'GAA'
p401
tp402
I7
s(I14
S'TGT'
p403
tp404
I87
s(I43
S'ACT'
p405
tp406
I32
s(I67
S'ATT'
p407
tp408
I901
s(I64
S'CCT'
p409
tp410
I5
s(I26
S'ATA'
p411
tp412
I34
s(I18
S'TGG'
p413
tp414
I12
s(I60
S'AGC'
p415
tp416
I640
s(I25
S'GAC'
p417
tp418
I186
s(I62
S'GCG'
p419
tp420
I2859
s(I76
S'AGC'
p421
tp422
I1
s(I20
S'TGG'
p423
tp424
I496
s(I57
S'AAA'
p425
tp426
I800
s(I53
S'AGT'
p427
tp428
I63
s(I49
S'TCC'
p429
tp430
I2854
s(I49
S'GCG'
p431
tp432
I5825
s(I6
S'GCT'
p433
tp434
I1010
s(I61
S'GAG'
p435
tp436
I14
s(I19
S'ACA'
p437
tp438
I308
s(I44
S'GGA'
p439
tp440
I6
s(I42
S'GTT'
p441
tp442
I951
s(I13
S'CTG'
p443
tp444
I61
s(I18
S'CTA'
p445
tp446
I865
s(I64
S'TCC'
p447
tp448
I9475
s(I10
S'CCA'
p449
tp450
I3
s(I64
S'CTA'
p451
tp452
I1370
s(I66
S'CGG'
p453
tp454
I3
s(I4
S'CAT'
p455
tp456
I102
s(I8
S'TAA'
p457
tp458
I7
s(I20
S'GCA'
p459
tp460
I79
s(I7
S'ACG'
p461
tp462
I56
s(I68
S'TCG'
p463
tp464
I2738
s(I18
S'TTC'
p465
tp466
I1144
s(I5
S'GGT'
p467
tp468
I8
s(I32
S'AGG'
p469
tp470
I179
s(I4
S'CCC'
p471
tp472
I1
s(I54
S'GAA'
p473
tp474
I456
s(I14
S'TCA'
p475
tp476
I187
s(I73
S'TAA'
p477
tp478
I12
s(I63
S'AGA'
p479
tp480
I115
s(I21
S'CGT'
p481
tp482
I20
s(I38
S'GAA'
p483
tp484
I12
s(I27
S'GTG'
p485
tp486
I138
s(I13
S'GGG'
p487
tp488
I5
s(I74
S'GAT'
p489
tp490
I9
s(I69
S'CCA'
p491
tp492
I1
s(I70
S'CAA'
p493
tp494
I1
s(I27
S'TTG'
p495
tp496
I5
s(I9
S'TTC'
p497
tp498
I11
s(I71
S'CCT'
p499
tp500
I22
s(I25
S'TCC'
p501
tp502
I90
s(I61
S'GTG'
p503
tp504
I377
s(I64
S'TTT'
p505
tp506
I220
s(I7
S'CAT'
p507
tp508
I18
s(I74
S'GAG'
p509
tp510
I8
s(I41
S'AGG'
p511
tp512
I2
s(I50
S'ACG'
p513
tp514
I28
s(I40
S'TTA'
p515
tp516
I1374
s(I10
S'TTT'
p517
tp518
I2
s(I52
S'ATA'
p519
tp520
I3
s(I60
S'GTT'
p521
tp522
I1238
s(I31
S'TTC'
p523
tp524
I14
s(I18
S'GAC'
p525
tp526
I137
s(I29
S'TCG'
p527
tp528
I277
s(I63
S'CCC'
p529
tp530
I189
s(I31
S'GTA'
p531
tp532
I131
s(I29
S'CAA'
p533
tp534
I146
s(I64
S'GAC'
p535
tp536
I2932
s(I34
S'GTG'
p537
tp538
I4
s(I8
S'CGG'
p539
tp540
I2
s(I45
S'AGC'
p541
tp542
I1137
s(I7
S'GCT'
p543
tp544
I669
s(I19
S'CAG'
p545
tp546
I325
s(I28
S'GGG'
p547
tp548
I190
s(I50
S'GTG'
p549
tp550
I296
s(I42
S'TTC'
p551
tp552
I288
s(I11
S'GGT'
p553
tp554
I217
s(I33
S'TGT'
p555
tp556
I11
s(I41
S'AAT'
p557
tp558
I172
s(I25
S'GGA'
p559
tp560
I16
s(I19
S'CGC'
p561
tp562
I110
s(I41
S'CTC'
p563
tp564
I1530
s(I35
S'ACA'
p565
tp566
I972
s(I19
S'TGT'
p567
tp568
I139
s(I17
S'AGA'
p569
tp570
I8
s(I73
S'GGC'
p571
tp572
I6
s(I39
S'GTG'
p573
tp574
I2
s(I53
S'GGC'
p575
tp576
I412
s(I45
S'CCA'
p577
tp578
I2
s(I43
S'GTA'
p579
tp580
I238
s(I9
S'CCC'
p581
tp582
I535
s(I76
S'GTC'
p583
tp584
I9
s(I68
S'GTC'
p585
tp586
I526
s(I43
S'CTA'
p587
tp588
I620
s(I63
S'CTA'
p589
tp590
I228
s(I55
S'CAC'
p591
tp592
I68
s(I28
S'GCG'
p593
tp594
I4
s(I18
S'GGT'
p595
tp596
I746
s(I4
S'TAT'
p597
tp598
I79
s(I66
S'GAT'
p599
tp600
I23510
s(I46
S'GCT'
p601
tp602
I114
s(I64
S'TCA'
p603
tp604
I17837
s(I58
S'TTA'
p605
tp606
I98
s(I73
S'TGG'
p607
tp608
I1
s(I45
S'CCG'
p609
tp610
I8
s(I63
S'TTT'
p611
tp612
I27
s(I12
S'TGA'
p613
tp614
I23
s(I40
S'GTT'
p615
tp616
I5
s(I68
S'TTA'
p617
tp618
I2
s(I29
S'ATA'
p619
tp620
I125
s(I66
S'TCG'
p621
tp622
I51
s(I19
S'CTT'
p623
tp624
I14
s(I64
S'CCC'
p625
tp626
I7
s(I12
S'TAC'
p627
tp628
I20
s(I24
S'CTT'
p629
tp630
I24
s(I36
S'GCG'
p631
tp632
I5
s(I42
S'CGA'
p633
tp634
I298
s(I6
S'GGG'
p635
tp636
I3236
s(I62
S'GCT'
p637
tp638
I802
s(I26
S'GTA'
p639
tp640
I410
s(I72
S'AGC'
p641
tp642
I270
s(I17
S'CGC'
p643
tp644
I7
s(I6
S'TTT'
p645
tp646
I587
s(I48
S'GGT'
p647
tp648
I26
s(I28
S'AAG'
p649
tp650
I5
s(I64
S'CTC'
p651
tp652
I3039
s(I31
S'GCC'
p653
tp654
I192
s(I65
S'ATA'
p655
tp656
I1
s(I53
S'AAC'
p657
tp658
I31
s(I40
S'TGA'
p659
tp660
I17
s(I34
S'AAG'
p661
tp662
I18
s(I19
S'GAT'
p663
tp664
I63
s(I10
S'CCT'
p665
tp666
I2
s(I76
S'AGG'
p667
tp668
I9
s(I14
S'CCA'
p669
tp670
I3
s(I41
S'CTT'
p671
tp672
I1071
s(I73
S'GTT'
p673
tp674
I4908
s(I58
S'CAC'
p675
tp676
I17
s(I26
S'ACC'
p677
tp678
I44
s(I60
S'CCT'
p679
tp680
I82
s(I63
S'ATG'
p681
tp682
I79
s(I62
S'CCA'
p683
tp684
I256
s(I58
S'GCG'
p685
tp686
I12
s(I31
S'CAC'
p687
tp688
I46
s(I26
S'CGC'
p689
tp690
I1
s(I54
S'CAG'
p691
tp692
I224
s(I53
S'GGG'
p693
tp694
I477
s(I59
S'GTC'
p695
tp696
I81
s(I70
S'AGA'
p697
tp698
I551
s(I61
S'ATA'
p699
tp700
I231
s(I39
S'TTT'
p701
tp702
I39
s(I48
S'GCC'
p703
tp704
I9
s(I14
S'AGG'
p705
tp706
I17
s(I48
S'CCT'
p707
tp708
I5
s(I20
S'GCC'
p709
tp710
I103
s(I69
S'CAA'
p711
tp712
I94
s(I33
S'ACC'
p713
tp714
I5
s(I7
S'CGT'
p715
tp716
I1
s(I70
S'CAT'
p717
tp718
I4
s(I57
S'CCA'
p719
tp720
I97
s(I8
S'AAA'
p721
tp722
I9
s(I16
S'TGC'
p723
tp724
I107
s(I40
S'CTT'
p725
tp726
I215
s(I42
S'TGC'
p727
tp728
I28
s(I56
S'TTG'
p729
tp730
I32
s(I48
S'GTC'
p731
tp732
I15
s(I13
S'CAA'
p733
tp734
I19
s(I18
S'CAA'
p735
tp736
I699
s(I70
S'ACC'
p737
tp738
I666
s(I36
S'CAA'
p739
tp740
I1
s(I49
S'TAG'
p741
tp742
I4
s(I22
S'CTA'
p743
tp744
I270
s(I8
S'GTG'
p745
tp746
I335
s(I58
S'CTG'
p747
tp748
I5
s(I22
S'GCA'
p749
tp750
I214
s(I60
S'TTC'
p751
tp752
I14
s(I38
S'TGA'
p753
tp754
I3
s(I9
S'CTT'
p755
tp756
I902
s(I7
S'GCA'
p757
tp758
I383
s(I33
S'CTG'
p759
tp760
I1
s(I5
S'GTG'
p761
tp762
I255
s(I18
S'AGT'
p763
tp764
I59
s(I57
S'AGC'
p765
tp766
I21
s(I17
S'ACA'
p767
tp768
I1772
s(I51
S'CAT'
p769
tp770
I272
s(I41
S'AAA'
p771
tp772
I1
s(I73
S'TCA'
p773
tp774
I1
s(I66
S'CAC'
p775
tp776
I8527
s(I47
S'CTG'
p777
tp778
I4
s(I33
S'GCA'
p779
tp780
I3
s(I59
S'TCC'
p781
tp782
I4543
s(I76
S'GGC'
p783
tp784
I164
s(I76
S'TTT'
p785
tp786
I14
s(I11
S'GCC'
p787
tp788
I1014
s(I26
S'GGC'
p789
tp790
I1
s(I6
S'ACC'
p791
tp792
I178
s(I64
S'ATA'
p793
tp794
I45
s(I24
S'CGA'
p795
tp796
I5
s(I72
S'GGG'
p797
tp798
I1561
s(I65
S'GCA'
p799
tp800
I1036
s(I63
S'CTT'
p801
tp802
I52
s(I22
S'GAG'
p803
tp804
I968
s(I49
S'ATC'
p805
tp806
I235
s(I4
S'GGA'
p807
tp808
I4
s(I53
S'TCT'
p809
tp810
I107
s(I53
S'GCT'
p811
tp812
I132
s(I26
S'ATG'
p813
tp814
I106
s(I69
S'GAT'
p815
tp816
I52
s(I74
S'ATA'
p817
tp818
I56
s(I50
S'GAT'
p819
tp820
I2
s(I35
S'TCT'
p821
tp822
I34
s(I40
S'TCA'
p823
tp824
I72
s(I56
S'TTC'
p825
tp826
I21
s(I14
S'TCC'
p827
tp828
I46
s(I65
S'GTG'
p829
tp830
I216
s(I19
S'CTC'
p831
tp832
I126
s(I24
S'CTA'
p833
tp834
I304
s(I38
S'ATC'
p835
tp836
I163
s(I5
S'GAA'
p837
tp838
I5
s(I34
S'TGT'
p839
tp840
I3
s(I65
S'GGG'
p841
tp842
I584
s(I36
S'AAC'
p843
tp844
I100
s(I33
S'AGC'
p845
tp846
I1
s(I70
S'GCG'
p847
tp848
I760
s(I67
S'ACT'
p849
tp850
I17301
s(I60
S'CGG'
p851
tp852
I130
s(I53
S'AAT'
p853
tp854
I7
s(I32
S'AAG'
p855
tp856
I25
s(I36
S'AAA'
p857
tp858
I1
s(I10
S'GAT'
p859
tp860
I91
s(I27
S'AGA'
p861
tp862
I95
s(I67
S'AAA'
p863
tp864
I1
s(I38
S'CAG'
p865
tp866
I1
s(I57
S'GAG'
p867
tp868
I663
s(I41
S'GTC'
p869
tp870
I231
s(I43
S'CAG'
p871
tp872
I4
s(I29
S'TGG'
p873
tp874
I312
s(I19
S'TTT'
p875
tp876
I132
s(I12
S'ACG'
p877
tp878
I314
s(I35
S'CCA'
p879
tp880
I203
s(I28
S'CTG'
p881
tp882
I143
s(I38
S'GAC'
p883
tp884
I3195
s(I56
S'ACC'
p885
tp886
I5
s(I9
S'TAT'
p887
tp888
I1
s(I25
S'TGC'
p889
tp890
I411
s(I32
S'CAT'
p891
tp892
I35
s(I16
S'ACG'
p893
tp894
I129
s(I30
S'GTC'
p895
tp896
I189
s(I29
S'GGA'
p897
tp898
I68
s(I63
S'TCG'
p899
tp900
I42
s(I44
S'AAC'
p901
tp902
I4
s(I45
S'TGT'
p903
tp904
I2957
s(I40
S'GAA'
p905
tp906
I1801
s(I64
S'GGA'
p907
tp908
I26073
s(I55
S'ACA'
p909
tp910
I81
s(I51
S'GAT'
p911
tp912
I38
s(I35
S'AGC'
p913
tp914
I87
s(I7
S'CGA'
p915
tp916
I83
s(I69
S'TTG'
p917
tp918
I408
s(I64
S'CAA'
p919
tp920
I7272
s(I24
S'GAA'
p921
tp922
I34
s(I40
S'AAG'
p923
tp924
I431
s(I26
S'CTG'
p925
tp926
I2
s(I5
S'ATA'
p927
tp928
I65
s(I17
S'CCC'
p929
tp930
I70
s(I61
S'GCA'
p931
tp932
I44
s(I21
S'TCA'
p933
tp934
I633
s(I75
S'CGG'
p935
tp936
I4
s(I69
S'CCG'
p937
tp938
I43
s(I46
S'TAC'
p939
tp940
I3833
s(I22
S'GCT'
p941
tp942
I66
s(I32
S'TTC'
p943
tp944
I9
s(I44
S'GCC'
p945
tp946
I58
s(I3
S'GTA'
p947
tp948
I981
s(I54
S'TAC'
p949
tp950
I380
s(I74
S'ACG'
p951
tp952
I1
s(I29
S'CTG'
p953
tp954
I589
s(I69
S'GCG'
p955
tp956
I260
s(I11
S'CCA'
p957
tp958
I3164
s(I72
S'CGC'
p959
tp960
I6
s(I72
S'CCC'
p961
tp962
I1
s(I69
S'GGT'
p963
tp964
I2752
s(I13
S'TAC'
p965
tp966
I4
s(I44
S'GAG'
p967
tp968
I2
s(I73
S'AAC'
p969
tp970
I155
s(I58
S'AGA'
p971
tp972
I22
s(I38
S'TCG'
p973
tp974
I821
s(I76
S'CCG'
p975
tp976
I10
s(I11
S'TTG'
p977
tp978
I38
s(I23
S'ACA'
p979
tp980
I13
s(I21
S'GTC'
p981
tp982
I341
s(I46
S'CCG'
p983
tp984
I13
s(I44
S'TGC'
p985
tp986
I6436
s(I50
S'GAG'
p987
tp988
I1971
s(I63
S'GCT'
p989
tp990
I267
s(I37
S'GTC'
p991
tp992
I724
s(I7
S'GTT'
p993
tp994
I44
s(I16
S'CCG'
p995
tp996
I163
s(I52
S'AGC'
p997
tp998
I5
s(I28
S'TGC'
p999
tp1000
I86
s(I41
S'ACG'
p1001
tp1002
I249
s(I36
S'CTG'
p1003
tp1004
I1875
s(I34
S'GGG'
p1005
tp1006
I25
s(I25
S'ATT'
p1007
tp1008
I234
s(I69
S'AAT'
p1009
tp1010
I269
s(I54
S'TGC'
p1011
tp1012
I336
s(I34
S'CCC'
p1013
tp1014
I11
s(I20
S'ATG'
p1015
tp1016
I24
s(I64
S'ATT'
p1017
tp1018
I2708
s(I38
S'GTT'
p1019
tp1020
I376
s(I45
S'ATA'
p1021
tp1022
I65
s(I63
S'GTT'
p1023
tp1024
I433
s(I30
S'CAT'
p1025
tp1026
I2
s(I52
S'GCA'
p1027
tp1028
I115
s(I46
S'GGC'
p1029
tp1030
I2663
s(I29
S'TTT'
p1031
tp1032
I55
s(I53
S'CCG'
p1033
tp1034
I186
s(I53
S'GAG'
p1035
tp1036
I69
s(I38
S'CGT'
p1037
tp1038
I233
s(I74
S'CAC'
p1039
tp1040
I6
s(I35
S'GCA'
p1041
tp1042
I192
s(I35
S'CTC'
p1043
tp1044
I121
s(I75
S'ATC'
p1045
tp1046
I5
s(I10
S'TAG'
p1047
tp1048
I2
s(I7
S'AAA'
p1049
tp1050
I1
s(I23
S'GCT'
p1051
tp1052
I2
s(I18
S'TAG'
p1053
tp1054
I26
s(I6
S'GAG'
p1055
tp1056
I92
s(I24
S'GTA'
p1057
tp1058
I94
s(I16
S'TTC'
p1059
tp1060
I96
s(I3
S'ACG'
p1061
tp1062
I2
s(I48
S'GAT'
p1063
tp1064
I8
s(I24
S'AGG'
p1065
tp1066
I58
s(I24
S'TAC'
p1067
tp1068
I47
s(I27
S'CTC'
p1069
tp1070
I235
s(I50
S'ACC'
p1071
tp1072
I768
s(I3
S'CGC'
p1073
tp1074
I6
s(I21
S'TCC'
p1075
tp1076
I248
s(I59
S'CTG'
p1077
tp1078
I92
s(I55
S'GCT'
p1079
tp1080
I73
s(I24
S'GCC'
p1081
tp1082
I10
s(I32
S'CCT'
p1083
tp1084
I323
s(I15
S'ATC'
p1085
tp1086
I946
s(I38
S'GTC'
p1087
tp1088
I92
s(I17
S'GCC'
p1089
tp1090
I13
s(I62
S'CAA'
p1091
tp1092
I365
s(I54
S'CTC'
p1093
tp1094
I110
s(I16
S'TCA'
p1095
tp1096
I47
s(I35
S'GGC'
p1097
tp1098
I14
s(I21
S'AGT'
p1099
tp1100
I263
s(I51
S'CCG'
p1101
tp1102
I201
s(I61
S'CGC'
p1103
tp1104
I5
s(I41
S'GAC'
p1105
tp1106
I2
s(I46
S'GCG'
p1107
tp1108
I203
s(I68
S'GGT'
p1109
tp1110
I18
s(I38
S'AAG'
p1111
tp1112
I159
s(I6
S'TAC'
p1113
tp1114
I1634
s(I10
S'GTT'
p1115
tp1116
I1
s(I51
S'TCA'
p1117
tp1118
I165
s(I62
S'ACG'
p1119
tp1120
I1814
s(I25
S'ACT'
p1121
tp1122
I326
s(I46
S'GCA'
p1123
tp1124
I34
s(I58
S'CGG'
p1125
tp1126
I55
s(I45
S'CTC'
p1127
tp1128
I205
s(I48
S'AGT'
p1129
tp1130
I21
s(I55
S'AAT'
p1131
tp1132
I40
s(I11
S'TCA'
p1133
tp1134
I2016
s(I37
S'AGC'
p1135
tp1136
I1557
s(I46
S'GTG'
p1137
tp1138
I853
s(I65
S'AAT'
p1139
tp1140
I563
s(I41
S'TAT'
p1141
tp1142
I24
s(I33
S'ATC'
p1143
tp1144
I73
s(I57
S'ACC'
p1145
tp1146
I206
s(I40
S'TTT'
p1147
tp1148
I45
s(I23
S'AGT'
p1149
tp1150
I51
s(I18
S'GTC'
p1151
tp1152
I497
s(I62
S'GTG'
p1153
tp1154
I5566
s(I69
S'CGT'
p1155
tp1156
I8
s(I68
S'GGA'
p1157
tp1158
I10
s(I59
S'GGA'
p1159
tp1160
I2
s(I60
S'GAT'
p1161
tp1162
I1356
s(I43
S'TGT'
p1163
tp1164
I22
s(I27
S'ATT'
p1165
tp1166
I100
s(I70
S'GAA'
p1167
tp1168
I3
s(I9
S'TCT'
p1169
tp1170
I187
s(I69
S'GTT'
p1171
tp1172
I407
s(I30
S'TCA'
p1173
tp1174
I1
s(I13
S'TGA'
p1175
tp1176
I14
s(I28
S'TTA'
p1177
tp1178
I186
s(I37
S'CGT'
p1179
tp1180
I122
s(I39
S'CCT'
p1181
tp1182
I17
s(I33
S'GCG'
p1183
tp1184
I745
s(I47
S'CAC'
p1185
tp1186
I70
s(I64
S'TTC'
p1187
tp1188
I146
s(I52
S'CAC'
p1189
tp1190
I33
s(I37
S'TGC'
p1191
tp1192
I62
s(I9
S'AGG'
p1193
tp1194
I5
s(I75
S'CCT'
p1195
tp1196
I5
s(I20
S'GTA'
p1197
tp1198
I145
s(I38
S'TAT'
p1199
tp1200
I111
s(I74
S'GGG'
p1201
tp1202
I1
s(I41
S'TCC'
p1203
tp1204
I328
s(I15
S'GGG'
p1205
tp1206
I4
s(I56
S'TGT'
p1207
tp1208
I20
s(I16
S'TCG'
p1209
tp1210
I261
s(I48
S'ATC'
p1211
tp1212
I24
s(I10
S'CGT'
p1213
tp1214
I14
s(I61
S'TTT'
p1215
tp1216
I1056
s(I63
S'GCA'
p1217
tp1218
I399
s(I53
S'TGA'
p1219
tp1220
I31
s(I13
S'AGC'
p1221
tp1222
I110
s(I56
S'CGT'
p1223
tp1224
I1
s(I17
S'GGA'
p1225
tp1226
I506
s(I45
S'TCG'
p1227
tp1228
I12357
s(I11
S'GAC'
p1229
tp1230
I4822
s(I61
S'CTT'
p1231
tp1232
I454
s(I66
S'CTT'
p1233
tp1234
I8568
s(I65
S'TGT'
p1235
tp1236
I548
s(I17
S'CTC'
p1237
tp1238
I80
s(I24
S'ATG'
p1239
tp1240
I1
s(I63
S'GTC'
p1241
tp1242
I270
s(I54
S'ATC'
p1243
tp1244
I28
s(I48
S'CAC'
p1245
tp1246
I44
s(I33
S'GAA'
p1247
tp1248
I46
s(I34
S'CAA'
p1249
tp1250
I25
s(I21
S'TAG'
p1251
tp1252
I2
s(I8
S'GAG'
p1253
tp1254
I2
s(I34
S'CAG'
p1255
tp1256
I134
s(I25
S'CAT'
p1257
tp1258
I23
s(I21
S'TTC'
p1259
tp1260
I48
s(I68
S'AGG'
p1261
tp1262
I20
s(I75
S'AAG'
p1263
tp1264
I18
s(I10
S'TTA'
p1265
tp1266
I8
s(I60
S'GCT'
p1267
tp1268
I35
s(I7
S'GAA'
p1269
tp1270
I373
s(I29
S'CCG'
p1271
tp1272
I8
s(I6
S'CTC'
p1273
tp1274
I29
s(I37
S'ACC'
p1275
tp1276
I3275
s(I49
S'TGT'
p1277
tp1278
I327
s(I11
S'TCC'
p1279
tp1280
I1069
s(I34
S'AGT'
p1281
tp1282
I49
s(I35
S'CGG'
p1283
tp1284
I479
s(I51
S'AAC'
p1285
tp1286
I85
s(I72
S'TAC'
p1287
tp1288
I341
s(I62
S'AGA'
p1289
tp1290
I1324
s(I72
S'TCA'
p1291
tp1292
I110
s(I30
S'GTG'
p1293
tp1294
I449
s(I32
S'TTG'
p1295
tp1296
I564
s(I75
S'GAC'
p1297
tp1298
I2
s(I44
S'TGA'
p1299
tp1300
I2
s(I11
S'TGA'
p1301
tp1302
I5
s(I71
S'CTG'
p1303
tp1304
I283
s(I68
S'GTT'
p1305
tp1306
I382
s(I46
S'CGG'
p1307
tp1308
I660
s(I32
S'CCC'
p1309
tp1310
I268
s(I70
S'CGG'
p1311
tp1312
I17
s(I24
S'GGT'
p1313
tp1314
I72
s(I9
S'TTA'
p1315
tp1316
I108
s(I15
S'CCC'
p1317
tp1318
I5
s(I53
S'TAG'
p1319
tp1320
I7
s(I44
S'CAT'
p1321
tp1322
I10
s(I74
S'TGT'
p1323
tp1324
I6
s(I62
S'CAT'
p1325
tp1326
I973
s(I46
S'TGA'
p1327
tp1328
I32
s(I40
S'AGC'
p1329
tp1330
I111
s(I37
S'TAT'
p1331
tp1332
I17
s(I50
S'TGC'
p1333
tp1334
I86
s(I30
S'TTG'
p1335
tp1336
I140
s(I10
S'GTA'
p1337
tp1338
I2
s(I10
S'CAA'
p1339
tp1340
I179
s(I55
S'ATC'
p1341
tp1342
I777
s(I28
S'CAA'
p1343
tp1344
I430
s(I28
S'GTG'
p1345
tp1346
I479
s(I33
S'TCA'
p1347
tp1348
I21
s(I42
S'GAA'
p1349
tp1350
I1
s(I32
S'CGA'
p1351
tp1352
I80
s(I62
S'TGG'
p1353
tp1354
I1073
s(I20
S'TCT'
p1355
tp1356
I95
s(I35
S'ACG'
p1357
tp1358
I267
s(I71
S'GCG'
p1359
tp1360
I1
s(I15
S'AAC'
p1361
tp1362
I1
s(I41
S'TTG'
p1363
tp1364
I4423
s(I9
S'CGT'
p1365
tp1366
I206
s(I10
S'AGT'
p1367
tp1368
I66
s(I72
S'ATT'
p1369
tp1370
I19
s(I41
S'CTA'
p1371
tp1372
I301
s(I51
S'CTT'
p1373
tp1374
I458
s(I4
S'ATG'
p1375
tp1376
I88
s(I69
S'CGA'
p1377
tp1378
I1
s(I38
S'AGA'
p1379
tp1380
I212
s(I44
S'CGG'
p1381
tp1382
I5
s(I45
S'TTC'
p1383
tp1384
I3
s(I29
S'AAC'
p1385
tp1386
I180
s(I50
S'GCG'
p1387
tp1388
I1
s(I9
S'CTG'
p1389
tp1390
I85
s(I53
S'AGG'
p1391
tp1392
I70
s(I36
S'ACA'
p1393
tp1394
I52728
s(I6
S'AGT'
p1395
tp1396
I2370
s(I27
S'AAA'
p1397
tp1398
I87
s(I72
S'GTG'
p1399
tp1400
I32
s(I62
S'CTG'
p1401
tp1402
I116
s(I61
S'CCG'
p1403
tp1404
I2
s(I25
S'CGA'
p1405
tp1406
I155
s(I37
S'CGA'
p1407
tp1408
I82
s(I16
S'AGC'
p1409
tp1410
I345
s(I68
S'GAC'
p1411
tp1412
I42
s(I55
S'GAG'
p1413
tp1414
I7
s(I12
S'CCG'
p1415
tp1416
I175
s(I24
S'TTG'
p1417
tp1418
I31
s(I19
S'ATA'
p1419
tp1420
I292
s(I62
S'TCA'
p1421
tp1422
I901
s(I59
S'GCC'
p1423
tp1424
I5811
s(I61
S'TTA'
p1425
tp1426
I1009
s(I19
S'CCC'
p1427
tp1428
I228
s(I70
S'TGA'
p1429
tp1430
I10
s(I6
S'CCT'
p1431
tp1432
I8
s(I17
S'TTG'
p1433
tp1434
I194
s(I45
S'GTC'
p1435
tp1436
I25586
s(I67
S'GTT'
p1437
tp1438
I8
s(I10
S'AAC'
p1439
tp1440
I622
s(I67
S'CTT'
p1441
tp1442
I128
s(I25
S'AGC'
p1443
tp1444
I70
s(I63
S'AGT'
p1445
tp1446
I338
s(I21
S'CGC'
p1447
tp1448
I13
s(I38
S'CTA'
p1449
tp1450
I128
s(I23
S'CCG'
p1451
tp1452
I16
s(I60
S'ACC'
p1453
tp1454
I245
s(I57
S'AAG'
p1455
tp1456
I169
s(I34
S'GAG'
p1457
tp1458
I70
s(I55
S'AAC'
p1459
tp1460
I629
s(I72
S'AAG'
p1461
tp1462
I158
s(I76
S'TGG'
p1463
tp1464
I5
s(I42
S'CAT'
p1465
tp1466
I5041
s(I20
S'TCG'
p1467
tp1468
I295
s(I71
S'CCG'
p1469
tp1470
I43
s(I41
S'TGT'
p1471
tp1472
I1
s(I7
S'CAC'
p1473
tp1474
I130
s(I19
S'AGA'
p1475
tp1476
I28
s(I35
S'CAG'
p1477
tp1478
I181
s(I28
S'TGA'
p1479
tp1480
I12
s(I30
S'GTT'
p1481
tp1482
I1
s(I72
S'TGC'
p1483
tp1484
I86
s(I60
S'GTG'
p1485
tp1486
I1240
s(I38
S'ATG'
p1487
tp1488
I232
s(I21
S'ATC'
p1489
tp1490
I3
s(I31
S'TGT'
p1491
tp1492
I440
s(I70
S'GAG'
p1493
tp1494
I2
s(I24
S'CAT'
p1495
tp1496
I29
s(I48
S'TAA'
p1497
tp1498
I20
s(I60
S'CAA'
p1499
tp1500
I505
s(I11
S'GGG'
p1501
tp1502
I126
s(I73
S'TAG'
p1503
tp1504
I7
s(I27
S'AGT'
p1505
tp1506
I75
s(I66
S'TGT'
p1507
tp1508
I72
s(I46
S'TCA'
p1509
tp1510
I2703
s(I45
S'CAC'
p1511
tp1512
I118
s(I6
S'TGT'
p1513
tp1514
I16
s(I5
S'TGT'
p1515
tp1516
I1680
s(I35
S'ACT'
p1517
tp1518
I343
s(I44
S'TCA'
p1519
tp1520
I25
s(I73
S'CAG'
p1521
tp1522
I1
s(I54
S'CGA'
p1523
tp1524
I40
s(I54
S'GCG'
p1525
tp1526
I85
s(I57
S'CTA'
p1527
tp1528
I105
s(I28
S'TTC'
p1529
tp1530
I1
s(I49
S'AAA'
p1531
tp1532
I283
s(I10
S'ACA'
p1533
tp1534
I20
s(I57
S'TCC'
p1535
tp1536
I31
s(I70
S'ATT'
p1537
tp1538
I16
s(I44
S'GGT'
p1539
tp1540
I15
s(I4
S'TAG'
p1541
tp1542
I3
s(I20
S'GAG'
p1543
tp1544
I178
s(I6
S'CAG'
p1545
tp1546
I491
s(I13
S'AAA'
p1547
tp1548
I364
s(I9
S'GTC'
p1549
tp1550
I4
s(I47
S'GAA'
p1551
tp1552
I9
s(I66
S'TTT'
p1553
tp1554
I19
s(I69
S'ACG'
p1555
tp1556
I735
s(I8
S'CGA'
p1557
tp1558
I2
s(I63
S'TTC'
p1559
tp1560
I85
s(I46
S'CTA'
p1561
tp1562
I215
s(I61
S'TCG'
p1563
tp1564
I9
s(I75
S'GGG'
p1565
tp1566
I45
s(I25
S'GTC'
p1567
tp1568
I208
s(I37
S'AAG'
p1569
tp1570
I1309
s(I16
S'AAT'
p1571
tp1572
I798
s(I66
S'CGT'
p1573
tp1574
I3
s(I71
S'TGG'
p1575
tp1576
I7
s(I42
S'AAT'
p1577
tp1578
I433
s(I25
S'GGG'
p1579
tp1580
I93
s(I76
S'CAA'
p1581
tp1582
I15
s(I59
S'TGG'
p1583
tp1584
I5
s(I47
S'TCA'
p1585
tp1586
I2177
s(I2
S'GGA'
p1587
tp1588
I3
s(I13
S'GTG'
p1589
tp1590
I287
s(I62
S'GAA'
p1591
tp1592
I929
s(I14
S'GTC'
p1593
tp1594
I13
s(I71
S'TCC'
p1595
tp1596
I18
s(I24
S'TTC'
p1597
tp1598
I90
s(I43
S'GTG'
p1599
tp1600
I691
s(I76
S'AGT'
p1601
tp1602
I2
s(I46
S'GAA'
p1603
tp1604
I12339
s(I3
S'GCA'
p1605
tp1606
I209
s(I2
S'TGG'
p1607
tp1608
I1
s(I51
S'TGC'
p1609
tp1610
I18
s(I35
S'TTG'
p1611
tp1612
I91
s(I74
S'ACC'
p1613
tp1614
I6
s(I65
S'TCT'
p1615
tp1616
I260
s(I73
S'TGA'
p1617
tp1618
I3
s(I45
S'CGC'
p1619
tp1620
I635
s(I36
S'TAT'
p1621
tp1622
I27
s(I12
S'TGG'
p1623
tp1624
I1
s(I61
S'AAT'
p1625
tp1626
I83
s(I14
S'TGC'
p1627
tp1628
I93
s(I47
S'AAA'
p1629
tp1630
I1
s(I42
S'ACG'
p1631
tp1632
I56
s(I44
S'TAT'
p1633
tp1634
I3
s(I66
S'TCA'
p1635
tp1636
I2
s(I26
S'TTA'
p1637
tp1638
I60
s(I39
S'TTC'
p1639
tp1640
I118
s(I36
S'ACT'
p1641
tp1642
I29166
s(I22
S'TAT'
p1643
tp1644
I94
s(I37
S'TCG'
p1645
tp1646
I1489
s(I42
S'CGG'
p1647
tp1648
I368
s(I48
S'GCT'
p1649
tp1650
I6
s(I41
S'TGG'
p1651
tp1652
I8
s(I26
S'GTG'
p1653
tp1654
I113
s(I18
S'CGA'
p1655
tp1656
I243
s(I28
S'TAT'
p1657
tp1658
I118
s(I66
S'CTA'
p1659
tp1660
I3277
s(I76
S'GAA'
p1661
tp1662
I3
s(I28
S'AAA'
p1663
tp1664
I35
s(I69
S'TAT'
p1665
tp1666
I166
s(I42
S'GTG'
p1667
tp1668
I22
s(I44
S'CCG'
p1669
tp1670
I2
s(I25
S'TAG'
p1671
tp1672
I12
s(I51
S'TTG'
p1673
tp1674
I37
s(I56
S'TTT'
p1675
tp1676
I1234
s(I14
S'CCG'
p1677
tp1678
I9
s(I5
S'GCT'
p1679
tp1680
I10
s(I72
S'TGT'
p1681
tp1682
I483
s(I67
S'TGG'
p1683
tp1684
I12
s(I66
S'GAC'
p1685
tp1686
I3444
s(I65
S'TAA'
p1687
tp1688
I3
s(I40
S'TTC'
p1689
tp1690
I2
s(I31
S'GTG'
p1691
tp1692
I982
s(I4
S'CTG'
p1693
tp1694
I4
s(I9
S'CTA'
p1695
tp1696
I1015
s(I2
S'CCC'
p1697
tp1698
I4
s(I61
S'ACC'
p1699
tp1700
I4
s(I2
S'CGC'
p1701
tp1702
I4
s(I23
S'TTG'
p1703
tp1704
I54
s(I5
S'GTT'
p1705
tp1706
I91
s(I21
S'CTA'
p1707
tp1708
I224
s(I25
S'ACG'
p1709
tp1710
I265
s(I17
S'ACT'
p1711
tp1712
I381
s(I73
S'ATC'
p1713
tp1714
I8618
s(I11
S'ACA'
p1715
tp1716
I2638
s(I68
S'TAG'
p1717
tp1718
I5
s(I54
S'TTA'
p1719
tp1720
I233
s(I59
S'ACT'
p1721
tp1722
I4
s(I76
S'TTA'
p1723
tp1724
I6
s(I70
S'TCT'
p1725
tp1726
I47
s(I57
S'CCG'
p1727
tp1728
I131
s(I17
S'TGG'
p1729
tp1730
I1
s(I6
S'ACT'
p1731
tp1732
I1385
s(I54
S'CGT'
p1733
tp1734
I741
s(I60
S'CCG'
p1735
tp1736
I56
s(I71
S'TTG'
p1737
tp1738
I43
s(I12
S'GAC'
p1739
tp1740
I762
s(I40
S'GGC'
p1741
tp1742
I45
s(I36
S'CAG'
p1743
tp1744
I6824
s(I70
S'ATA'
p1745
tp1746
I4
s(I13
S'GAG'
p1747
tp1748
I717
s(I21
S'TAT'
p1749
tp1750
I96
s(I33
S'CTC'
p1751
tp1752
I3
s(I8
S'GTA'
p1753
tp1754
I423
s(I20
S'AAG'
p1755
tp1756
I314
s(I64
S'CAC'
p1757
tp1758
I253
s(I53
S'GCC'
p1759
tp1760
I140
s(I27
S'CGC'
p1761
tp1762
I2
s(I69
S'GAG'
p1763
tp1764
I70
s(I74
S'ATT'
p1765
tp1766
I2
s(I45
S'AAC'
p1767
tp1768
I11108
s(I47
S'GAT'
p1769
tp1770
I22
s(I27
S'ATC'
p1771
tp1772
I303
s(I22
S'GAT'
p1773
tp1774
I522
s(I5
S'TAC'
p1775
tp1776
I711
s(I16
S'AAC'
p1777
tp1778
I620
s(I19
S'TGC'
p1779
tp1780
I34
s(I65
S'GGC'
p1781
tp1782
I3
s(I8
S'GCC'
p1783
tp1784
I23
s(I27
S'CTA'
p1785
tp1786
I5
s(I8
S'GGG'
p1787
tp1788
I2
s(I41
S'CGA'
p1789
tp1790
I20
s(I64
S'GAA'
p1791
tp1792
I557
s(I31
S'GGC'
p1793
tp1794
I16
s(I51
S'GTC'
p1795
tp1796
I789
s(I51
S'CTC'
p1797
tp1798
I1013
s(I61
S'AGA'
p1799
tp1800
I1
s(I25
S'GCT'
p1801
tp1802
I33
s(I64
S'ATG'
p1803
tp1804
I316
s(I52
S'TTA'
p1805
tp1806
I44
s(I14
S'GCC'
p1807
tp1808
I14
s(I74
S'TCG'
p1809
tp1810
I7
s(I40
S'GCC'
p1811
tp1812
I10
s(I65
S'ATC'
p1813
tp1814
I279
s(I28
S'CGC'
p1815
tp1816
I193
s(I5
S'AGC'
p1817
tp1818
I9
s(I70
S'AAC'
p1819
tp1820
I6
s(I22
S'TAG'
p1821
tp1822
I8
s(I64
S'AAA'
p1823
tp1824
I4
s(I28
S'GCT'
p1825
tp1826
I53
s(I25
S'ACC'
p1827
tp1828
I13
s(I43
S'TGA'
p1829
tp1830
I20
s(I33
S'GTT'
p1831
tp1832
I38
s(I3
S'CTC'
p1833
tp1834
I47
s(I15
S'AAA'
p1835
tp1836
I3
s(I22
S'CTC'
p1837
tp1838
I449
s(I73
S'TGT'
p1839
tp1840
I6
s(I4
S'TTT'
p1841
tp1842
I107
s(I25
S'CGC'
p1843
tp1844
I62
s(I22
S'GGA'
p1845
tp1846
I495
s(I67
S'GCC'
p1847
tp1848
I19514
s(I40
S'CAC'
p1849
tp1850
I736
s(I21
S'CAA'
p1851
tp1852
I25
s(I30
S'AAC'
p1853
tp1854
I1
s(I66
S'ATT'
p1855
tp1856
I1298
s(I8
S'CTA'
p1857
tp1858
I239
s(I25
S'TGT'
p1859
tp1860
I469
s(I16
S'ACT'
p1861
tp1862
I597
s(I29
S'GGT'
p1863
tp1864
I71
s(I3
S'GGG'
p1865
tp1866
I4
s(I44
S'AAT'
p1867
tp1868
I17
s(I73
S'ACG'
p1869
tp1870
I7
s(I45
S'TGA'
p1871
tp1872
I4
s(I44
S'TCC'
p1873
tp1874
I24
s(I29
S'ATT'
p1875
tp1876
I793
s(I73
S'GCG'
p1877
tp1878
I47
s(I14
S'CGA'
p1879
tp1880
I7
s(I7
S'CCT'
p1881
tp1882
I24221
s(I30
S'GAT'
p1883
tp1884
I2
s(I32
S'ACC'
p1885
tp1886
I29
s(I28
S'AAT'
p1887
tp1888
I205
s(I13
S'ACC'
p1889
tp1890
I6
s(I44
S'GGG'
p1891
tp1892
I2
s(I54
S'AAT'
p1893
tp1894
I276
s(I37
S'GGG'
p1895
tp1896
I154
s(I53
S'CGT'
p1897
tp1898
I95
s(I33
S'AAA'
p1899
tp1900
I144
s(I32
S'CTT'
p1901
tp1902
I28
s(I7
S'ATC'
p1903
tp1904
I15
s(I45
S'GGG'
p1905
tp1906
I2096
s(I5
S'GCA'
p1907
tp1908
I9
s(I27
S'AGG'
p1909
tp1910
I3
s(I49
S'AGT'
p1911
tp1912
I649
s(I5
S'CTA'
p1913
tp1914
I94
s(I56
S'ACG'
p1915
tp1916
I21
s(I56
S'ATA'
p1917
tp1918
I86
s(I33
S'TAC'
p1919
tp1920
I46
s(I47
S'GCA'
p1921
tp1922
I123
s(I29
S'CTT'
p1923
tp1924
I48
s(I63
S'TGC'
p1925
tp1926
I205
s(I16
S'GCA'
p1927
tp1928
I97
s(I72
S'CGT'
p1929
tp1930
I293
s(I33
S'CGT'
p1931
tp1932
I110
s(I27
S'ACT'
p1933
tp1934
I74
s(I58
S'ACA'
p1935
tp1936
I38
s(I65
S'GAA'
p1937
tp1938
I4850
s(I54
S'CCC'
p1939
tp1940
I1391
s(I20
S'CAA'
p1941
tp1942
I17
s(I21
S'CCA'
p1943
tp1944
I1
s(I40
S'GAG'
p1945
tp1946
I16754
s(I48
S'TCA'
p1947
tp1948
I84
s(I36
S'AGG'
p1949
tp1950
I1
s(I58
S'GCA'
p1951
tp1952
I69
s(I49
S'TAT'
p1953
tp1954
I86
s(I21
S'TAA'
p1955
tp1956
I3
s(I70
S'TAA'
p1957
tp1958
I9
s(I24
S'GAG'
p1959
tp1960
I91
s(I5
S'ACC'
p1961
tp1962
I11
s(I42
S'CCG'
p1963
tp1964
I1
s(I36
S'GCC'
p1965
tp1966
I33
s(I46
S'CCT'
p1967
tp1968
I13
s(I35
S'AAT'
p1969
tp1970
I124
s(I64
S'ACA'
p1971
tp1972
I4006
s(I27
S'CAA'
p1973
tp1974
I50
s(I61
S'GCG'
p1975
tp1976
I43
s(I33
S'CAT'
p1977
tp1978
I6
s(I57
S'GGA'
p1979
tp1980
I38
s(I41
S'CAT'
p1981
tp1982
I18
s(I46
S'ATT'
p1983
tp1984
I599
s(I34
S'GGT'
p1985
tp1986
I82
s(I25
S'ATA'
p1987
tp1988
I338
s(I25
S'GCC'
p1989
tp1990
I24
s(I24
S'AAG'
p1991
tp1992
I12
s(I42
S'GGT'
p1993
tp1994
I216
s(I22
S'GAC'
p1995
tp1996
I535
s(I69
S'CTC'
p1997
tp1998
I255
s(I23
S'CAC'
p1999
tp2000
I7
s(I46
S'CAG'
p2001
tp2002
I1172
s(I51
S'CAG'
p2003
tp2004
I729
s(I48
S'CGC'
p2005
tp2006
I8
s(I48
S'AAA'
p2007
tp2008
I46
s(I33
S'ACT'
p2009
tp2010
I36
s(I59
S'TAG'
p2011
tp2012
I10
s(I69
S'TTC'
p2013
tp2014
I21955
s(I35
S'GCT'
p2015
tp2016
I288
s(I48
S'ACC'
p2017
tp2018
I7
s(I18
S'ATT'
p2019
tp2020
I2
s(I23
S'GCG'
p2021
tp2022
I13
s(I51
S'TAA'
p2023
tp2024
I3
s(I8
S'ACG'
p2025
tp2026
I2
s(I23
S'ACG'
p2027
tp2028
I61
s(I66
S'CCC'
p2029
tp2030
I1658
s(I73
S'AGA'
p2031
tp2032
I7
s(I72
S'GGT'
p2033
tp2034
I947
s(I62
S'GGA'
p2035
tp2036
I604
s(I60
S'CTT'
p2037
tp2038
I160
s(I51
S'ATT'
p2039
tp2040
I254
s(I39
S'GGG'
p2041
tp2042
I15
s(I61
S'GAT'
p2043
tp2044
I10
s(I11
S'CTC'
p2045
tp2046
I382
s(I16
S'CTA'
p2047
tp2048
I25
s(I61
S'CAC'
p2049
tp2050
I16
s(I70
S'AGC'
p2051
tp2052
I5
s(I36
S'CTA'
p2053
tp2054
I2115
s(I55
S'AGT'
p2055
tp2056
I33
s(I55
S'GCG'
p2057
tp2058
I18
s(I70
S'CCG'
p2059
tp2060
I1
s(I6
S'AGA'
p2061
tp2062
I41
s(I25
S'CGT'
p2063
tp2064
I87
s(I67
S'AGC'
p2065
tp2066
I278
s(I70
S'GTT'
p2067
tp2068
I241
s(I56
S'GCG'
p2069
tp2070
I18
s(I61
S'ATC'
p2071
tp2072
I72
s(I55
S'GTA'
p2073
tp2074
I67
s(I30
S'CTG'
p2075
tp2076
I87
s(I42
S'TAT'
p2077
tp2078
I2
s(I38
S'AAT'
p2079
tp2080
I578
s(I24
S'GTT'
p2081
tp2082
I43
s(I27
S'CAG'
p2083
tp2084
I33
s(I66
S'ACG'
p2085
tp2086
I63
s(I14
S'CGT'
p2087
tp2088
I13
s(I31
S'GAC'
p2089
tp2090
I53
s(I6
S'GTA'
p2091
tp2092
I1994
s(I55
S'TCC'
p2093
tp2094
I47
s(I56
S'GTG'
p2095
tp2096
I167
s(I71
S'GTA'
p2097
tp2098
I31
s(I60
S'CGT'
p2099
tp2100
I29
s(I47
S'ACC'
p2101
tp2102
I56
s(I70
S'CTA'
p2103
tp2104
I451
s(I55
S'GAA'
p2105
tp2106
I255
s(I15
S'GAC'
p2107
tp2108
I4
s(I75
S'CTC'
p2109
tp2110
I9
s(I69
S'TCA'
p2111
tp2112
I1194
s(I65
S'AAC'
p2113
tp2114
I1486
s(I53
S'ATC'
p2115
tp2116
I53
s(I62
S'TTT'
p2117
tp2118
I528
s(I54
S'GAT'
p2119
tp2120
I154
s(I49
S'AGA'
p2121
tp2122
I2
s(I19
S'TTG'
p2123
tp2124
I26
s(I15
S'ACA'
p2125
tp2126
I291
s(I13
S'GTC'
p2127
tp2128
I1064
s(I2
S'AGA'
p2129
tp2130
I2
s(I23
S'TTA'
p2131
tp2132
I153
s(I37
S'CAC'
p2133
tp2134
I21
s(I42
S'CAC'
p2135
tp2136
I2287
s(I15
S'CGA'
p2137
tp2138
I2
s(I65
S'CAG'
p2139
tp2140
I467
s(I9
S'TCA'
p2141
tp2142
I100
s(I66
S'GAG'
p2143
tp2144
I1156
s(I32
S'GTC'
p2145
tp2146
I87
s(I32
S'TCC'
p2147
tp2148
I214
s(I39
S'CGG'
p2149
tp2150
I1
s(I39
S'CCG'
p2151
tp2152
I1
s(I73
S'TTT'
p2153
tp2154
I3
s(I57
S'TGT'
p2155
tp2156
I103
s(I46
S'AGA'
p2157
tp2158
I2521
s(I62
S'AGG'
p2159
tp2160
I1306
s(I75
S'CCG'
p2161
tp2162
I3
s(I38
S'TAC'
p2163
tp2164
I29
s(I32
S'ATA'
p2165
tp2166
I241
s(I34
S'TAA'
p2167
tp2168
I1
s(I34
S'CGG'
p2169
tp2170
I2
s(I8
S'ATC'
p2171
tp2172
I8
s(I34
S'AAA'
p2173
tp2174
I5
s(I64
S'ACT'
p2175
tp2176
I4216
s(I11
S'CGG'
p2177
tp2178
I12
s(I15
S'TTC'
p2179
tp2180
I686
s(I71
S'TAA'
p2181
tp2182
I1
s(I2
S'GCT'
p2183
tp2184
I7
s(I15
S'GCT'
p2185
tp2186
I402
s(I7
S'TAC'
p2187
tp2188
I2
s(I63
S'CAA'
p2189
tp2190
I370
s(I68
S'CAA'
p2191
tp2192
I87
s(I15
S'TCC'
p2193
tp2194
I137
s(I67
S'CTC'
p2195
tp2196
I65
s(I19
S'TAT'
p2197
tp2198
I296
s(I49
S'TGC'
p2199
tp2200
I164
s(I27
S'TAT'
p2201
tp2202
I522
s(I18
S'GCA'
p2203
tp2204
I793
s(I28
S'ATA'
p2205
tp2206
I54
s(I21
S'GCT'
p2207
tp2208
I57
s(I7
S'AGT'
p2209
tp2210
I32
s(I28
S'TTG'
p2211
tp2212
I40
s(I74
S'TAC'
p2213
tp2214
I1
s(I59
S'TGC'
p2215
tp2216
I470
s(I13
S'CGT'
p2217
tp2218
I1200
s(I60
S'GCA'
p2219
tp2220
I822
s(I25
S'CTA'
p2221
tp2222
I440
s(I51
S'ATC'
p2223
tp2224
I438
s(I76
S'CCT'
p2225
tp2226
I5
s(I23
S'AAC'
p2227
tp2228
I1
s(I75
S'ACC'
p2229
tp2230
I3
s(I21
S'GTT'
p2231
tp2232
I211
s(I16
S'GGC'
p2233
tp2234
I194
s(I15
S'GGA'
p2235
tp2236
I5
s(I12
S'TCG'
p2237
tp2238
I9
s(I54
S'ACG'
p2239
tp2240
I223
s(I53
S'ACG'
p2241
tp2242
I206
s(I14
S'CTA'
p2243
tp2244
I1
s(I9
S'GCT'
p2245
tp2246
I2802
s(I67
S'CGC'
p2247
tp2248
I13
s(I45
S'TCA'
p2249
tp2250
I41102
s(I49
S'CGG'
p2251
tp2252
I1
s(I66
S'CGC'
p2253
tp2254
I2
s(I71
S'CCC'
p2255
tp2256
I14
s(I19
S'TCA'
p2257
tp2258
I102
s(I38
S'GTG'
p2259
tp2260
I19
s(I5
S'TAT'
p2261
tp2262
I90
s(I39
S'CAA'
p2263
tp2264
I9
s(I44
S'CAA'
p2265
tp2266
I4
s(I49
S'ACC'
p2267
tp2268
I31
s(I74
S'GCG'
p2269
tp2270
I11
s(I43
S'GGC'
p2271
tp2272
I1
s(I43
S'GAG'
p2273
tp2274
I10
s(I65
S'CGA'
p2275
tp2276
I3309
s(I62
S'CGC'
p2277
tp2278
I180
s(I54
S'GTG'
p2279
tp2280
I23
s(I19
S'GGT'
p2281
tp2282
I10
s(I61
S'TGT'
p2283
tp2284
I154
s(I31
S'GAT'
p2285
tp2286
I87
s(I29
S'GGG'
p2287
tp2288
I49
s(I48
S'GGA'
p2289
tp2290
I24
s(I44
S'AGT'
p2291
tp2292
I13
s(I40
S'CCC'
p2293
tp2294
I9
s(I9
S'GCC'
p2295
tp2296
I929
s(I10
S'TGT'
p2297
tp2298
I1
s(I13
S'TTA'
p2299
tp2300
I28
s(I35
S'AGG'
p2301
tp2302
I862
s(I18
S'GGA'
p2303
tp2304
I495
s(I35
S'CGA'
p2305
tp2306
I27
s(I36
S'TTA'
p2307
tp2308
I4707
s(I33
S'CGA'
p2309
tp2310
I10
s(I49
S'GTC'
p2311
tp2312
I32
s(I9
S'ATA'
p2313
tp2314
I12141
s(I52
S'GGC'
p2315
tp2316
I31
s(I8
S'AGA'
p2317
tp2318
I1
s(I15
S'TAA'
p2319
tp2320
I18
s(I22
S'CGG'
p2321
tp2322
I48
s(I8
S'CCC'
p2323
tp2324
I5
s(I30
S'TCC'
p2325
tp2326
I2
s(I53
S'TCG'
p2327
tp2328
I79
s(I5
S'TCA'
p2329
tp2330
I11
s(I19
S'GAC'
p2331
tp2332
I84
s(I3
S'GTC'
p2333
tp2334
I87
s(I24
S'TGC'
p2335
tp2336
I24
s(I7
S'TCA'
p2337
tp2338
I1327
s(I28
S'CAG'
p2339
tp2340
I251
s(I46
S'ATG'
p2341
tp2342
I5383
s(I75
S'TAG'
p2343
tp2344
I25
s(I62
S'TGA'
p2345
tp2346
I3
s(I50
S'TGA'
p2347
tp2348
I1
s(I63
S'TAT'
p2349
tp2350
I397
s(I9
S'CGA'
p2351
tp2352
I7
s(I34
S'AAT'
p2353
tp2354
I18
s(I41
S'TTA'
p2355
tp2356
I550
s(I12
S'GCT'
p2357
tp2358
I5
s(I58
S'TGG'
p2359
tp2360
I563
s(I66
S'AAC'
p2361
tp2362
I249
s(I71
S'TAT'
p2363
tp2364
I6
s(I24
S'GGG'
p2365
tp2366
I23
s(I6
S'CCA'
p2367
tp2368
I4
s(I7
S'TGT'
p2369
tp2370
I198
s(I72
S'GCA'
p2371
tp2372
I576
s(I67
S'CCC'
p2373
tp2374
I24
s(I39
S'ATA'
p2375
tp2376
I7
s(I69
S'CGG'
p2377
tp2378
I2
s(I36
S'GAC'
p2379
tp2380
I2
s(I15
S'AAG'
p2381
tp2382
I2
s(I3
S'GTG'
p2383
tp2384
I780
s(I19
S'TAC'
p2385
tp2386
I57
s(I18
S'CCC'
p2387
tp2388
I67
s(I44
S'GTC'
p2389
tp2390
I133
s(I58
S'GGG'
p2391
tp2392
I13
s(I32
S'GGT'
p2393
tp2394
I373
s(I27
S'TAC'
p2395
tp2396
I433
s(I9
S'GGT'
p2397
tp2398
I3
s(I66
S'GGG'
p2399
tp2400
I606
s(I72
S'GTA'
p2401
tp2402
I29
s(I64
S'CGG'
p2403
tp2404
I101
s(I65
S'AGT'
p2405
tp2406
I92
s(I37
S'CGG'
p2407
tp2408
I222
s(I64
S'TCT'
p2409
tp2410
I13995
s(I13
S'CGA'
p2411
tp2412
I1069
s(I24
S'GCG'
p2413
tp2414
I147
s(I53
S'GAC'
p2415
tp2416
I39
s(I6
S'TTA'
p2417
tp2418
I242
s(I39
S'AAG'
p2419
tp2420
I1
s(I36
S'ACC'
p2421
tp2422
I12096
s(I58
S'CAT'
p2423
tp2424
I28
s(I4
S'CAG'
p2425
tp2426
I11
s(I70
S'CGT'
p2427
tp2428
I2
s(I38
S'TTG'
p2429
tp2430
I69
s(I72
S'ACC'
p2431
tp2432
I139
s(I21
S'CTG'
p2433
tp2434
I464
s(I5
S'GGA'
p2435
tp2436
I10
s(I68
S'CCT'
p2437
tp2438
I15
s(I47
S'TCT'
p2439
tp2440
I628
s(I17
S'TTA'
p2441
tp2442
I3
s(I20
S'TCA'
p2443
tp2444
I1177
s(I50
S'GAA'
p2445
tp2446
I2
s(I37
S'GCC'
p2447
tp2448
I1436
s(I63
S'GGT'
p2449
tp2450
I267
s(I26
S'TTC'
p2451
tp2452
I1
s(I69
S'TAC'
p2453
tp2454
I659
s(I66
S'CTG'
p2455
tp2456
I5907
s(I49
S'TTG'
p2457
tp2458
I6
s(I12
S'CTT'
p2459
tp2460
I9
s(I23
S'CCA'
p2461
tp2462
I11
s(I17
S'CTT'
p2463
tp2464
I72
s(I6
S'TGG'
p2465
tp2466
I202
s(I5
S'TGA'
p2467
tp2468
I234
s(I66
S'CAT'
p2469
tp2470
I12057
s(I2
S'AAC'
p2471
tp2472
I5
s(I71
S'CCA'
p2473
tp2474
I5
s(I19
S'GGA'
p2475
tp2476
I155
s(I53
S'TTC'
p2477
tp2478
I97
s(I19
S'AGG'
p2479
tp2480
I11
s(I70
S'AAA'
p2481
tp2482
I15
s(I14
S'AAT'
p2483
tp2484
I11
s(I32
S'TAT'
p2485
tp2486
I23
s(I35
S'GTC'
p2487
tp2488
I690
s(I67
S'GGC'
p2489
tp2490
I3494
s(I60
S'TTT'
p2491
tp2492
I98
s(I21
S'GGC'
p2493
tp2494
I16
s(I53
S'GTA'
p2495
tp2496
I1
s(I40
S'TAT'
p2497
tp2498
I164
s(I18
S'AAA'
p2499
tp2500
I170
s(I20
S'GAT'
p2501
tp2502
I90
s(I11
S'ACT'
p2503
tp2504
I1258
s(I69
S'GGA'
p2505
tp2506
I2999
s(I57
S'TAA'
p2507
tp2508
I21
s(I23
S'AGC'
p2509
tp2510
I1
s(I57
S'TGG'
p2511
tp2512
I252
s(I27
S'ACA'
p2513
tp2514
I22
s(I14
S'TTG'
p2515
tp2516
I2
s(I71
S'CTT'
p2517
tp2518
I10
s(I21
S'TGG'
p2519
tp2520
I36
s(I66
S'CGA'
p2521
tp2522
I1
s(I32
S'GGA'
p2523
tp2524
I134
s(I51
S'GCC'
p2525
tp2526
I34
s(I63
S'CGC'
p2527
tp2528
I333
s(I27
S'TCA'
p2529
tp2530
I24
s(I25
S'TTG'
p2531
tp2532
I77
s(I45
S'GAT'
p2533
tp2534
I6
s(I22
S'CAT'
p2535
tp2536
I151
s(I60
S'GGG'
p2537
tp2538
I1579
s(I5
S'TCT'
p2539
tp2540
I3
s(I24
S'CCA'
p2541
tp2542
I136
s(I66
S'AAG'
p2543
tp2544
I25
s(I52
S'ACC'
p2545
tp2546
I383
s(I76
S'ATC'
p2547
tp2548
I11
s(I48
S'TCG'
p2549
tp2550
I18
s(I62
S'CCG'
p2551
tp2552
I1035
s(I9
S'GAC'
p2553
tp2554
I287
s(I54
S'TCC'
p2555
tp2556
I128
s(I18
S'GGG'
p2557
tp2558
I70
s(I4
S'TAA'
p2559
tp2560
I4
s(I56
S'GGC'
p2561
tp2562
I75
s(I17
S'AGT'
p2563
tp2564
I226
s(I52
S'CGG'
p2565
tp2566
I7
s(I36
S'TGT'
p2567
tp2568
I1038
s(I58
S'TTT'
p2569
tp2570
I206
s(I64
S'GGC'
p2571
tp2572
I3059
s(I7
S'TCC'
p2573
tp2574
I98
s(I15
S'CAC'
p2575
tp2576
I25
s(I36
S'TAG'
p2577
tp2578
I17
s(I72
S'ATG'
p2579
tp2580
I581
s(I19
S'GTG'
p2581
tp2582
I1
s(I11
S'ATC'
p2583
tp2584
I225
s(I62
S'TTG'
p2585
tp2586
I630
s(I30
S'TGC'
p2587
tp2588
I1545
s(I42
S'TCG'
p2589
tp2590
I3
s(I18
S'TGA'
p2591
tp2592
I3
s(I17
S'TCG'
p2593
tp2594
I442
s(I28
S'TCT'
p2595
tp2596
I109
s(I66
S'GTC'
p2597
tp2598
I93
s(I42
S'CGT'
p2599
tp2600
I472
s(I20
S'CGG'
p2601
tp2602
I212
s(I22
S'CCC'
p2603
tp2604
I206
s(I59
S'ACC'
p2605
tp2606
I2
s(I32
S'GGC'
p2607
tp2608
I269
s(I54
S'CAA'
p2609
tp2610
I42
s(I19
S'ACG'
p2611
tp2612
I98
s(I29
S'GCT'
p2613
tp2614
I2
s(I40
S'TGC'
p2615
tp2616
I3
s(I25
S'TAT'
p2617
tp2618
I85
s(I72
S'GAG'
p2619
tp2620
I5
s(I18
S'CTG'
p2621
tp2622
I457
s(I54
S'AGG'
p2623
tp2624
I320
s(I26
S'TGC'
p2625
tp2626
I84
s(I11
S'CAC'
p2627
tp2628
I6
s(I14
S'CCT'
p2629
tp2630
I8
s(I16
S'CAC'
p2631
tp2632
I160
s(I12
S'CCT'
p2633
tp2634
I139
s(I53
S'CAC'
p2635
tp2636
I566
s(I47
S'AGT'
p2637
tp2638
I754
s(I27
S'CAC'
p2639
tp2640
I14
s(I26
S'TGA'
p2641
tp2642
I72
s(I72
S'TAA'
p2643
tp2644
I2
s(I36
S'TGC'
p2645
tp2646
I1455
s(I16
S'TAC'
p2647
tp2648
I81
s(I70
S'AGT'
p2649
tp2650
I6
s(I54
S'GAC'
p2651
tp2652
I420
s(I65
S'CCC'
p2653
tp2654
I220
s(I67
S'CGG'
p2655
tp2656
I4
s(I14
S'CAG'
p2657
tp2658
I1
s(I37
S'TCA'
p2659
tp2660
I661
s(I63
S'AGG'
p2661
tp2662
I319
s(I33
S'TGC'
p2663
tp2664
I1
s(I74
S'TCT'
p2665
tp2666
I4
s(I36
S'GGG'
p2667
tp2668
I10
s(I60
S'ACT'
p2669
tp2670
I773
s(I18
S'CGG'
p2671
tp2672
I52
s(I70
S'TCG'
p2673
tp2674
I30
s(I9
S'GAT'
p2675
tp2676
I813
s(I29
S'AAG'
p2677
tp2678
I87
s(I70
S'CAC'
p2679
tp2680
I21
s(I36
S'GTC'
p2681
tp2682
I29
s(I62
S'AAA'
p2683
tp2684
I958
s(I8
S'AAT'
p2685
tp2686
I13
s(I53
S'CAA'
p2687
tp2688
I23
s(I16
S'ACA'
p2689
tp2690
I483
s(I41
S'AGA'
p2691
tp2692
I8
s(I51
S'TTT'
p2693
tp2694
I23
s(I42
S'TTG'
p2695
tp2696
I84
s(I57
S'TAG'
p2697
tp2698
I9
s(I52
S'ATG'
p2699
tp2700
I7
s(I27
S'TGT'
p2701
tp2702
I179
s(I8
S'GTT'
p2703
tp2704
I747
s(I6
S'GTC'
p2705
tp2706
I1920
s(I29
S'CAC'
p2707
tp2708
I108
s(I4
S'CTA'
p2709
tp2710
I113
s(I43
S'TTT'
p2711
tp2712
I118
s(I25
S'GTA'
p2713
tp2714
I101
s(I38
S'CCG'
p2715
tp2716
I116
s(I60
S'TAC'
p2717
tp2718
I89
s(I67
S'TTC'
p2719
tp2720
I3714
s(I72
S'TTC'
p2721
tp2722
I3786
s(I39
S'ACC'
p2723
tp2724
I12
s(I20
S'GGT'
p2725
tp2726
I107
s(I39
S'GCG'
p2727
tp2728
I3
s(I8
S'GCT'
p2729
tp2730
I6
s(I55
S'CCT'
p2731
tp2732
I114
s(I24
S'CGG'
p2733
tp2734
I5
s(I49
S'CTA'
p2735
tp2736
I2
s(I34
S'AGA'
p2737
tp2738
I6
s(I64
S'TTA'
p2739
tp2740
I7857
s(I4
S'GCC'
p2741
tp2742
I5
s(I76
S'TTG'
p2743
tp2744
I8
s(I39
S'AGG'
p2745
tp2746
I10
s(I34
S'ACG'
p2747
tp2748
I57
s(I11
S'TAT'
p2749
tp2750
I22
s(I68
S'TGA'
p2751
tp2752
I1
s(I73
S'GGA'
p2753
tp2754
I2
s(I39
S'GTA'
p2755
tp2756
I34
s(I40
S'GCT'
p2757
tp2758
I34
s(I9
S'CCA'
p2759
tp2760
I3001
s(I15
S'TTT'
p2761
tp2762
I135
s(I43
S'CTC'
p2763
tp2764
I172
s(I42
S'GAT'
p2765
tp2766
I36
s(I69
S'TTT'
p2767
tp2768
I31502
s(I63
S'CTC'
p2769
tp2770
I67
s(I55
S'CAA'
p2771
tp2772
I122
s(I28
S'GCA'
p2773
tp2774
I23
s(I76
S'CGT'
p2775
tp2776
I8
s(I28
S'GGT'
p2777
tp2778
I2
s(I20
S'AAA'
p2779
tp2780
I363
s(I60
S'TCG'
p2781
tp2782
I894
s(I69
S'GAA'
p2783
tp2784
I37
s(I38
S'TAA'
p2785
tp2786
I8
s(I35
S'TCG'
p2787
tp2788
I76
s(I66
S'ATG'
p2789
tp2790
I621
s(I43
S'ATG'
p2791
tp2792
I3
s(I29
S'GAG'
p2793
tp2794
I222
s(I66
S'TTC'
p2795
tp2796
I83
s(I69
S'ATG'
p2797
tp2798
I286
s(I35
S'TGC'
p2799
tp2800
I323
s(I11
S'AGC'
p2801
tp2802
I3036
s(I72
S'AGA'
p2803
tp2804
I201
s(I17
S'CGA'
p2805
tp2806
I10
s(I45
S'TAC'
p2807
tp2808
I2
s(I7
S'CCG'
p2809
tp2810
I3095
s(I18
S'GTA'
p2811
tp2812
I367
s(I30
S'ACA'
p2813
tp2814
I1
s(I36
S'TCC'
p2815
tp2816
I28
s(I54
S'AAA'
p2817
tp2818
I257
s(I52
S'TTG'
p2819
tp2820
I42
s(I53
S'CGC'
p2821
tp2822
I15
s(I75
S'TTC'
p2823
tp2824
I4
s(I11
S'CAT'
p2825
tp2826
I15
s(I10
S'GAC'
p2827
tp2828
I61
s(I6
S'CGG'
p2829
tp2830
I170
s(I57
S'GAT'
p2831
tp2832
I171
s(I71
S'ATT'
p2833
tp2834
I15
s(I36
S'GCT'
p2835
tp2836
I24
s(I22
S'GGG'
p2837
tp2838
I1187
s(I15
S'CTG'
p2839
tp2840
I570
s(I6
S'GCC'
p2841
tp2842
I346
s(I9
S'TAG'
p2843
tp2844
I4
s(I30
S'GAG'
p2845
tp2846
I1
s(I72
S'TCG'
p2847
tp2848
I246
s(I17
S'TAG'
p2849
tp2850
I6
s(I45
S'GCC'
p2851
tp2852
I6860
s(I31
S'TGC'
p2853
tp2854
I34
s(I73
S'ACA'
p2855
tp2856
I1
s(I51
S'CCA'
p2857
tp2858
I1147
s(I36
S'AGT'
p2859
tp2860
I13
s(I28
S'ATC'
p2861
tp2862
I43
s(I2
S'GCA'
p2863
tp2864
I20
s(I46
S'CAA'
p2865
tp2866
I15741
s(I57
S'ATG'
p2867
tp2868
I365
s(I76
S'TCC'
p2869
tp2870
I5
s(I35
S'ATA'
p2871
tp2872
I366
s(I24
S'GAT'
p2873
tp2874
I50
s(I44
S'CCT'
p2875
tp2876
I1
s(I60
S'ATC'
p2877
tp2878
I275
s(I7
S'GTC'
p2879
tp2880
I51
s(I6
S'ATT'
p2881
tp2882
I6710
s(I29
S'CGT'
p2883
tp2884
I25
s(I13
S'CAC'
p2885
tp2886
I52
s(I5
S'GCG'
p2887
tp2888
I1
s(I18
S'CAC'
p2889
tp2890
I559
s(I75
S'GCC'
p2891
tp2892
I2
s(I73
S'GTC'
p2893
tp2894
I3469
s(I41
S'CAG'
p2895
tp2896
I170
s(I75
S'CGT'
p2897
tp2898
I3
s(I22
S'ACG'
p2899
tp2900
I10
s(I19
S'AAG'
p2901
tp2902
I62
s(I46
S'TAT'
p2903
tp2904
I20876
s(I22
S'GCG'
p2905
tp2906
I288
s(I56
S'ATG'
p2907
tp2908
I6
s(I38
S'TGC'
p2909
tp2910
I2
s(I54
S'TAT'
p2911
tp2912
I104
s(I7
S'GCC'
p2913
tp2914
I626
s(I25
S'AAT'
p2915
tp2916
I344
s(I74
S'TGC'
p2917
tp2918
I6
s(I17
S'ACC'
p2919
tp2920
I630
s(I32
S'GTT'
p2921
tp2922
I141
s(I48
S'CGT'
p2923
tp2924
I26
s(I11
S'TAG'
p2925
tp2926
I2
s(I32
S'TGC'
p2927
tp2928
I114
s(I73
S'TCC'
p2929
tp2930
I3
s(I63
S'GTA'
p2931
tp2932
I139
s(I20
S'CAG'
p2933
tp2934
I2
s(I22
S'GTG'
p2935
tp2936
I150
s(I73
S'AAT'
p2937
tp2938
I1
s(I52
S'CTG'
p2939
tp2940
I3
s(I62
S'TAG'
p2941
tp2942
I32
s(I16
S'CGG'
p2943
tp2944
I335
s(I72
S'ACG'
p2945
tp2946
I541
s(I70
S'TAG'
p2947
tp2948
I1
s(I53
S'CTC'
p2949
tp2950
I2
s(I17
S'TGT'
p2951
tp2952
I128
s(I8
S'ACT'
p2953
tp2954
I3
s(I37
S'GAT'
p2955
tp2956
I745
s(I42
S'TGT'
p2957
tp2958
I1540
s(I61
S'TTG'
p2959
tp2960
I4359
s(I65
S'ACG'
p2961
tp2962
I70
s(I72
S'GGA'
p2963
tp2964
I6701
s(I52
S'TCC'
p2965
tp2966
I18
s(I65
S'GCG'
p2967
tp2968
I60
s(I29
S'TAT'
p2969
tp2970
I191
s(I76
S'CGC'
p2971
tp2972
I1
s(I24
S'ACC'
p2973
tp2974
I229
s(I24
S'TCT'
p2975
tp2976
I60
s(I39
S'CTA'
p2977
tp2978
I32
s(I47
S'GAG'
p2979
tp2980
I34
s(I17
S'CAG'
p2981
tp2982
I23
s(I76
S'ACC'
p2983
tp2984
I9
s(I65
S'TTA'
p2985
tp2986
I51
s(I36
S'GTA'
p2987
tp2988
I1218
s(I20
S'AGA'
p2989
tp2990
I264
s(I16
S'AGT'
p2991
tp2992
I19
s(I57
S'CCT'
p2993
tp2994
I324
s(I73
S'CGC'
p2995
tp2996
I1
s(I57
S'AGT'
p2997
tp2998
I181
s(I24
S'CTC'
p2999
tp3000
I7
s(I37
S'ATG'
p3001
tp3002
I789
s(I5
S'GAC'
p3003
tp3004
I2
s(I29
S'AGT'
p3005
tp3006
I56
s(I16
S'ATT'
p3007
tp3008
I104
s(I4
S'GAT'
p3009
tp3010
I4
s(I42
S'GGA'
p3011
tp3012
I261
s(I17
S'TAA'
p3013
tp3014
I12
s(I50
S'GGC'
p3015
tp3016
I9
s(I52
S'TGT'
p3017
tp3018
I48
s(I27
S'GCG'
p3019
tp3020
I1
s(I60
S'CGA'
p3021
tp3022
I301
s(I73
S'GAA'
p3023
tp3024
I3
s(I59
S'ATC'
p3025
tp3026
I151
s(I40
S'CCG'
p3027
tp3028
I112
s(I62
S'GGG'
p3029
tp3030
I1852
s(I55
S'TTC'
p3031
tp3032
I102
s(I39
S'GGA'
p3033
tp3034
I15
s(I43
S'AAA'
p3035
tp3036
I1
s(I21
S'GAC'
p3037
tp3038
I93
s(I57
S'GAA'
p3039
tp3040
I76
s(I30
S'GCA'
p3041
tp3042
I75
s(I29
S'TGA'
p3043
tp3044
I10
s(I59
S'CTT'
p3045
tp3046
I4447
s(I32
S'GAG'
p3047
tp3048
I24
s(I35
S'CCC'
p3049
tp3050
I1564
s(I28
S'CCG'
p3051
tp3052
I2
s(I56
S'ACA'
p3053
tp3054
I58
s(I56
S'GCA'
p3055
tp3056
I1
s(I2
S'GCC'
p3057
tp3058
I2
s(I54
S'CTT'
p3059
tp3060
I107
s(I40
S'GTC'
p3061
tp3062
I17
s(I41
S'GCA'
p3063
tp3064
I28
s(I51
S'CCT'
p3065
tp3066
I255
s(I69
S'TCT'
p3067
tp3068
I160
s(I17
S'ATA'
p3069
tp3070
I1
s(I33
S'AGT'
p3071
tp3072
I31
s(I64
S'TGG'
p3073
tp3074
I11
s(I73
S'TTG'
p3075
tp3076
I809
s(I58
S'CAA'
p3077
tp3078
I214
s(I15
S'CGC'
p3079
tp3080
I1
s(I56
S'GTA'
p3081
tp3082
I42
s(I76
S'TCT'
p3083
tp3084
I17
s(I7
S'GAT'
p3085
tp3086
I6
s(I55
S'AAA'
p3087
tp3088
I822
s(I60
S'ATT'
p3089
tp3090
I414
s(I51
S'GGG'
p3091
tp3092
I14
s(I48
S'GAG'
p3093
tp3094
I21
s(I6
S'ATA'
p3095
tp3096
I11383
s(I5
S'ATC'
p3097
tp3098
I104
s(I17
S'CCA'
p3099
tp3100
I14
s(I29
S'GTA'
p3101
tp3102
I107
s(I67
S'ATC'
p3103
tp3104
I173
s(I40
S'ACC'
p3105
tp3106
I55
s(I32
S'TTT'
p3107
tp3108
I91
s(I55
S'CCA'
p3109
tp3110
I230
s(I15
S'GCG'
p3111
tp3112
I107
s(I46
S'TAA'
p3113
tp3114
I3
s(I15
S'ACG'
p3115
tp3116
I5
s(I7
S'ATA'
p3117
tp3118
I258
s(I54
S'TAA'
p3119
tp3120
I6
s(I74
S'ACA'
p3121
tp3122
I1
s(I21
S'CTT'
p3123
tp3124
I211
s(I63
S'TGT'
p3125
tp3126
I308
s(I27
S'ATG'
p3127
tp3128
I114
s(I34
S'CTG'
p3129
tp3130
I18
s(I5
S'CTT'
p3131
tp3132
I299
s(I11
S'CCC'
p3133
tp3134
I445
s(I65
S'CAA'
p3135
tp3136
I315
s(I59
S'AGC'
p3137
tp3138
I1565
s(I32
S'CAC'
p3139
tp3140
I136
s(I21
S'GCC'
p3141
tp3142
I244
s(I52
S'CCC'
p3143
tp3144
I227
s(I28
S'TTT'
p3145
tp3146
I6
s(I73
S'AAA'
p3147
tp3148
I2
s(I54
S'TTG'
p3149
tp3150
I2
s(I39
S'CCA'
p3151
tp3152
I1
s(I63
S'ACC'
p3153
tp3154
I8
s(I47
S'CAT'
p3155
tp3156
I5
s(I41
S'GTA'
p3157
tp3158
I61
s(I9
S'AGT'
p3159
tp3160
I262
s(I21
S'GTA'
p3161
tp3162
I202
s(I38
S'GCT'
p3163
tp3164
I237
s(I15
S'GGT'
p3165
tp3166
I40
s(I37
S'GCT'
p3167
tp3168
I383
s(I74
S'GTT'
p3169
tp3170
I1
s(I27
S'TTT'
p3171
tp3172
I26
s(I39
S'GAC'
p3173
tp3174
I29
s(I37
S'GTA'
p3175
tp3176
I1059
s(I57
S'GGC'
p3177
tp3178
I294
s(I52
S'AGA'
p3179
tp3180
I8
s(I24
S'TCA'
p3181
tp3182
I169
s(I63
S'CAG'
p3183
tp3184
I2
s(I4
S'TCC'
p3185
tp3186
I3
s(I68
S'CAG'
p3187
tp3188
I594
s(I39
S'CTT'
p3189
tp3190
I13
s(I51
S'TAG'
p3191
tp3192
I8
s(I47
S'AAG'
p3193
tp3194
I4
s(I44
S'CTT'
p3195
tp3196
I4929
s(I23
S'GAC'
p3197
tp3198
I26
s(I48
S'TTT'
p3199
tp3200
I12
s(I45
S'ATC'
p3201
tp3202
I4847
s(I23
S'GTT'
p3203
tp3204
I602
s(I74
S'GCT'
p3205
tp3206
I1
s(I18
S'GCG'
p3207
tp3208
I97
s(I30
S'ACG'
p3209
tp3210
I13
s(I34
S'CAT'
p3211
tp3212
I107
s(I46
S'GGA'
p3213
tp3214
I433
s(I24
S'TGA'
p3215
tp3216
I4
s(I46
S'AGG'
p3217
tp3218
I205
s(I34
S'TGC'
p3219
tp3220
I25
s(I59
S'TAT'
p3221
tp3222
I44
s(I54
S'GGA'
p3223
tp3224
I204
s(I35
S'GCC'
p3225
tp3226
I46
s(I8
S'CAC'
p3227
tp3228
I1
s(I60
S'TGC'
p3229
tp3230
I211
s(I67
S'TAT'
p3231
tp3232
I8
s(I36
S'ATT'
p3233
tp3234
I2
s(I7
S'AAC'
p3235
tp3236
I1153
s(I25
S'CTG'
p3237
tp3238
I22
s(I17
S'GCG'
p3239
tp3240
I75
s(I6
S'GAA'
p3241
tp3242
I303
s(I24
S'GTC'
p3243
tp3244
I199
s(I34
S'AGC'
p3245
tp3246
I5
s(I46
S'TGG'
p3247
tp3248
I257
s(I35
S'CGT'
p3249
tp3250
I181
s(I13
S'ACG'
p3251
tp3252
I2
s(I56
S'TGG'
p3253
tp3254
I3
s(I64
S'AAG'
p3255
tp3256
I78
s(I62
S'AGT'
p3257
tp3258
I2601
s(I76
S'TGA'
p3259
tp3260
I3
s(I61
S'GAC'
p3261
tp3262
I4
s(I54
S'ACA'
p3263
tp3264
I70
s(I74
S'CGC'
p3265
tp3266
I249
s(I14
S'CTG'
p3267
tp3268
I1
s(I53
S'GAA'
p3269
tp3270
I38
s(I66
S'GTT'
p3271
tp3272
I69
s(I73
S'AGT'
p3273
tp3274
I1
s(I28
S'AGA'
p3275
tp3276
I110
s(I56
S'ACT'
p3277
tp3278
I17
s(I13
S'CCT'
p3279
tp3280
I5
s(I33
S'GGC'
p3281
tp3282
I2
s(I44
S'CAG'
p3283
tp3284
I15
s(I4
S'TTG'
p3285
tp3286
I16
s(I62
S'CAC'
p3287
tp3288
I200
s(I54
S'CTA'
p3289
tp3290
I70
s(I67
S'GTC'
p3291
tp3292
I365
s(I67
S'CAC'
p3293
tp3294
I3
s(I59
S'CTC'
p3295
tp3296
I3531
s(I35
S'GAA'
p3297
tp3298
I62
s(I63
S'CGA'
p3299
tp3300
I37
s(I61
S'CGA'
p3301
tp3302
I1
s(I71
S'TGA'
p3303
tp3304
I16
s(I66
S'GCT'
p3305
tp3306
I143
s(I38
S'CGC'
p3307
tp3308
I1
s(I6
S'TAA'
p3309
tp3310
I13
s(I16
S'GAC'
p3311
tp3312
I180
s(I66
S'ACT'
p3313
tp3314
I57
s(I3
S'ACC'
p3315
tp3316
I12
s(I28
S'CAT'
p3317
tp3318
I6
s(I22
S'AGG'
p3319
tp3320
I86
s(I33
S'TCT'
p3321
tp3322
I93
s(I28
S'ATT'
p3323
tp3324
I40
s(I27
S'GTA'
p3325
tp3326
I6
s(I16
S'CCT'
p3327
tp3328
I192
s(I34
S'GAT'
p3329
tp3330
I368
s(I43
S'TGG'
p3331
tp3332
I1
s(I68
S'TGC'
p3333
tp3334
I274
s(I55
S'ACT'
p3335
tp3336
I259
s(I48
S'ATG'
p3337
tp3338
I43
s(I46
S'GTC'
p3339
tp3340
I2881
s(I63
S'CGT'
p3341
tp3342
I565
s(I38
S'AGT'
p3343
tp3344
I21
s(I9
S'GCA'
p3345
tp3346
I401
s(I47
S'CGG'
p3347
tp3348
I2
s(I37
S'CTG'
p3349
tp3350
I306
s(I33
S'CCC'
p3351
tp3352
I100
s(I72
S'CAA'
p3353
tp3354
I543
s(I59
S'GGC'
p3355
tp3356
I2
s(I12
S'AAC'
p3357
tp3358
I10
s(I69
S'ACT'
p3359
tp3360
I113
s(I31
S'AGG'
p3361
tp3362
I61
s(I68
S'ATA'
p3363
tp3364
I58
s(I58
S'GGT'
p3365
tp3366
I7
s(I9
S'CAT'
p3367
tp3368
I10606
s(I46
S'ACG'
p3369
tp3370
I1815
s(I29
S'GTT'
p3371
tp3372
I57
s(I47
S'TAA'
p3373
tp3374
I3
s(I9
S'GGC'
p3375
tp3376
I1
s(I5
S'TTC'
p3377
tp3378
I577
s(I72
S'GTT'
p3379
tp3380
I107
s(I43
S'GCA'
p3381
tp3382
I1
s(I13
S'TGC'
p3383
tp3384
I445
s(I65
S'AGG'
p3385
tp3386
I614
s(I41
S'GAT'
p3387
tp3388
I1
s(I13
S'TAG'
p3389
tp3390
I39
s(I47
S'CAA'
p3391
tp3392
I406
s(I67
S'GAG'
p3393
tp3394
I8
s(I52
S'CAA'
p3395
tp3396
I53
s(I8
S'TTC'
p3397
tp3398
I4
s(I20
S'GTC'
p3399
tp3400
I168
s(I18
S'ACA'
p3401
tp3402
I203
s(I60
S'TCT'
p3403
tp3404
I289
s(I20
S'ACT'
p3405
tp3406
I636
s(I8
S'GAC'
p3407
tp3408
I4
s(I50
S'TTC'
p3409
tp3410
I2
s(I39
S'AGA'
p3411
tp3412
I3
s(I51
S'GAG'
p3413
tp3414
I62
s(I55
S'AGC'
p3415
tp3416
I278
s(I74
S'GTA'
p3417
tp3418
I2017
s(I22
S'AGC'
p3419
tp3420
I151
s(I15
S'AGG'
p3421
tp3422
I5
s(I7
S'GGC'
p3423
tp3424
I24
s(I52
S'AGT'
p3425
tp3426
I13
s(I36
S'CGT'
p3427
tp3428
I1
s(I74
S'AGG'
p3429
tp3430
I156
s(I21
S'TTA'
p3431
tp3432
I38
s(I63
S'GGG'
p3433
tp3434
I59
s(I55
S'AGA'
p3435
tp3436
I143
s(I71
S'GGG'
p3437
tp3438
I3
s(I33
S'GTC'
p3439
tp3440
I18
s(I17
S'CTA'
p3441
tp3442
I178
s(I51
S'AAG'
p3443
tp3444
I4
s(I22
S'ATT'
p3445
tp3446
I139
s(I41
S'CTG'
p3447
tp3448
I690
s(I37
S'CTA'
p3449
tp3450
I185
s(I33
S'GAC'
p3451
tp3452
I27
s(I42
S'CTC'
p3453
tp3454
I19
s(I34
S'CAC'
p3455
tp3456
I37
s(I64
S'CGA'
p3457
tp3458
I292
s(I7
S'AGG'
p3459
tp3460
I1
s(I18
S'GTT'
p3461
tp3462
I107
s(I57
S'CAG'
p3463
tp3464
I65
s(I15
S'GTG'
p3465
tp3466
I667
s(I40
S'TCG'
p3467
tp3468
I311
s(I75
S'AAA'
p3469
tp3470
I3
s(I64
S'GTT'
p3471
tp3472
I4853
s(I13
S'CGG'
p3473
tp3474
I55
s(I14
S'AAA'
p3475
tp3476
I14
s(I13
S'CCG'
p3477
tp3478
I17
s(I49
S'GGT'
p3479
tp3480
I2
s(I6
S'CTA'
p3481
tp3482
I670
s(I12
S'ATC'
p3483
tp3484
I1356
s(I7
S'TTG'
p3485
tp3486
I7
s(I40
S'TAG'
p3487
tp3488
I14
s(I57
S'CGG'
p3489
tp3490
I132
s(I31
S'CTC'
p3491
tp3492
I66
s(I34
S'GCC'
p3493
tp3494
I2
s(I38
S'TTA'
p3495
tp3496
I146
s(I62
S'TCG'
p3497
tp3498
I304
s(I10
S'GGG'
p3499
tp3500
I47
s(I20
S'CCG'
p3501
tp3502
I199
s(I54
S'ACT'
p3503
tp3504
I178
s(I20
S'TGA'
p3505
tp3506
I2
s(I75
S'GAA'
p3507
tp3508
I3
s(I38
S'GGT'
p3509
tp3510
I111
s(I61
S'TAG'
p3511
tp3512
I9
s(I68
S'TAA'
p3513
tp3514
I7
s(I47
S'GGA'
p3515
tp3516
I92
s(I51
S'TCG'
p3517
tp3518
I55
s(I28
S'AGT'
p3519
tp3520
I109
s(I9
S'TAA'
p3521
tp3522
I5
s(I38
S'CTC'
p3523
tp3524
I15
s(I67
S'TGC'
p3525
tp3526
I353
s(I22
S'TCA'
p3527
tp3528
I1388
s(I39
S'AAC'
p3529
tp3530
I14
s(I14
S'ACT'
p3531
tp3532
I107
s(I76
S'GCT'
p3533
tp3534
I1
s(I40
S'AGA'
p3535
tp3536
I429
s(I20
S'GTT'
p3537
tp3538
I76
s(I3
S'GCG'
p3539
tp3540
I1255
s(I45
S'GAG'
p3541
tp3542
I26
s(I9
S'TTT'
p3543
tp3544
I44
s(I15
S'GAT'
p3545
tp3546
I3
s(I10
S'CAC'
p3547
tp3548
I59
s(I57
S'CTT'
p3549
tp3550
I307
s(I55
S'CTA'
p3551
tp3552
I108
s(I28
S'GTA'
p3553
tp3554
I25
s(I3
S'CTG'
p3555
tp3556
I47
s(I33
S'CAG'
p3557
tp3558
I8
s(I33
S'TCC'
p3559
tp3560
I23
s(I53
S'GTG'
p3561
tp3562
I29
s(I44
S'GGC'
p3563
tp3564
I25
s(I8
S'TCG'
p3565
tp3566
I6
s(I43
S'TAT'
p3567
tp3568
I15
s(I7
S'TAA'
p3569
tp3570
I3
s(I71
S'GCA'
p3571
tp3572
I1
s(I69
S'TCG'
p3573
tp3574
I148
s(I66
S'AGT'
p3575
tp3576
I83
s(I57
S'TGA'
p3577
tp3578
I1
s(I10
S'GCT'
p3579
tp3580
I48
s(I59
S'AGA'
p3581
tp3582
I76
s(I61
S'GGC'
p3583
tp3584
I5
s(I39
S'TAG'
p3585
tp3586
I18
s(I14
S'TTA'
p3587
tp3588
I1
s(I40
S'GGG'
p3589
tp3590
I29
s(I72
S'GAC'
p3591
tp3592
I5
s(I8
S'TGC'
p3593
tp3594
I10
s(I38
S'AGC'
p3595
tp3596
I34
s(I60
S'CAC'
p3597
tp3598
I555
s(I72
S'CAT'
p3599
tp3600
I589
s(I38
S'TTC'
p3601
tp3602
I154
s(I46
S'TTG'
p3603
tp3604
I823
s(I4
S'AAA'
p3605
tp3606
I1
s(I53
S'TAC'
p3607
tp3608
I283
s(I27
S'TCG'
p3609
tp3610
I5
s(I17
S'AGG'
p3611
tp3612
I2
s(I69
S'CAC'
p3613
tp3614
I16
s(I11
S'GTC'
p3615
tp3616
I20
s(I25
S'TTA'
p3617
tp3618
I286
s(I42
S'TAC'
p3619
tp3620
I2
s(I60
S'GGA'
p3621
tp3622
I248
s(I29
S'GCC'
p3623
tp3624
I23
s(I67
S'CTG'
p3625
tp3626
I1
s(I59
S'TCA'
p3627
tp3628
I141
s(I68
S'GAA'
p3629
tp3630
I21
s(I57
S'TTG'
p3631
tp3632
I1052
s(I31
S'TCC'
p3633
tp3634
I857
s(I67
S'TTT'
p3635
tp3636
I2072
s(I51
S'AGC'
p3637
tp3638
I305
s(I48
S'CCA'
p3639
tp3640
I1
s(I11
S'TAC'
p3641
tp3642
I9
s(I40
S'CTG'
p3643
tp3644
I1444
s(I45
S'CGT'
p3645
tp3646
I91
s(I61
S'TTC'
p3647
tp3648
I210
s(I70
S'TGC'
p3649
tp3650
I275
s(I19
S'GTA'
p3651
tp3652
I115
s(I42
S'TCA'
p3653
tp3654
I2
s(I45
S'GTA'
p3655
tp3656
I16538
s(I25
S'GAG'
p3657
tp3658
I69
s(I62
S'GCC'
p3659
tp3660
I616
s(I28
S'GAG'
p3661
tp3662
I483
s(I21
S'CGA'
p3663
tp3664
I2
s(I64
S'TGC'
p3665
tp3666
I33
s(I60
S'ACA'
p3667
tp3668
I460
s(I18
S'CGT'
p3669
tp3670
I6
s(I67
S'ACG'
p3671
tp3672
I32074
s(I67
S'CGT'
p3673
tp3674
I7
s(I49
S'TCG'
p3675
tp3676
I3
s(I48
S'CAT'
p3677
tp3678
I5
s(I70
S'GGC'
p3679
tp3680
I3
s(I22
S'TTG'
p3681
tp3682
I1235
s(I9
S'GAG'
p3683
tp3684
I27
s(I64
S'CGT'
p3685
tp3686
I67
s(I37
S'CCC'
p3687
tp3688
I106
s(I23
S'TGA'
p3689
tp3690
I7
s(I13
S'CTC'
p3691
tp3692
I124
s(I54
S'TTC'
p3693
tp3694
I90
s(I55
S'TTG'
p3695
tp3696
I232
s(I56
S'CCA'
p3697
tp3698
I1
s(I37
S'GCG'
p3699
tp3700
I1
s(I60
S'GTA'
p3701
tp3702
I43
s(I50
S'ATG'
p3703
tp3704
I131
s(I11
S'TGG'
p3705
tp3706
I10
s(I65
S'TAT'
p3707
tp3708
I1048
s(I57
S'CTC'
p3709
tp3710
I74
s(I32
S'CGT'
p3711
tp3712
I116
s(I35
S'TAG'
p3713
tp3714
I6
s(I68
S'TCC'
p3715
tp3716
I878
s(I66
S'TTG'
p3717
tp3718
I4787
s(I44
S'ACC'
p3719
tp3720
I1165
s(I35
S'AGT'
p3721
tp3722
I19
s(I75
S'AAT'
p3723
tp3724
I3
s(I48
S'TAC'
p3725
tp3726
I13
s(I61
S'CTA'
p3727
tp3728
I159
s(I67
S'CGA'
p3729
tp3730
I261
s(I62
S'AAT'
p3731
tp3732
I455
s(I25
S'AGT'
p3733
tp3734
I40
s(I11
S'GGA'
p3735
tp3736
I928
s(I11
S'TTT'
p3737
tp3738
I79
s(I36
S'GGA'
p3739
tp3740
I6
s(I46
S'TCC'
p3741
tp3742
I2296
s(I11
S'GTG'
p3743
tp3744
I145
s(I27
S'GGT'
p3745
tp3746
I134
s(I41
S'GGA'
p3747
tp3748
I75
s(I27
S'TTC'
p3749
tp3750
I131
s(I57
S'TCA'
p3751
tp3752
I321
s(I25
S'TCG'
p3753
tp3754
I40
s(I54
S'CGG'
p3755
tp3756
I350
s(I75
S'CAC'
p3757
tp3758
I3
s(I7
S'GTA'
p3759
tp3760
I14
s(I51
S'ACC'
p3761
tp3762
I295
s(I42
S'AAG'
p3763
tp3764
I19
s(I74
S'AAG'
p3765
tp3766
I15
s(I31
S'TTG'
p3767
tp3768
I36
s(I66
S'GAA'
p3769
tp3770
I566
s(I11
S'ACG'
p3771
tp3772
I263
s(I9
S'GTA'
p3773
tp3774
I34
s(I8
S'CGC'
p3775
tp3776
I3
s(I63
S'TTA'
p3777
tp3778
I261
s(I8
S'TCT'
p3779
tp3780
I2
s(I19
S'CAC'
p3781
tp3782
I186
s(I71
S'CAG'
p3783
tp3784
I15
s(I24
S'CAC'
p3785
tp3786
I3
s(I75
S'GGA'
p3787
tp3788
I290
s(I14
S'GCA'
p3789
tp3790
I9
s(I8
S'TGT'
p3791
tp3792
I6
s(I43
S'ATT'
p3793
tp3794
I533
s(I9
S'AAC'
p3795
tp3796
I5402
s(I65
S'GGT'
p3797
tp3798
I1318
s(I27
S'CTT'
p3799
tp3800
I26
s(I13
S'AAC'
p3801
tp3802
I7
s(I49
S'CTG'
p3803
tp3804
I1
s(I2
S'GGG'
p3805
tp3806
I4
s(I17
S'CGT'
p3807
tp3808
I5
s(I45
S'CAT'
p3809
tp3810
I1194
s(I15
S'TGT'
p3811
tp3812
I85
s(I48
S'GGC'
p3813
tp3814
I40
s(I25
S'GCA'
p3815
tp3816
I56
s(I58
S'CCC'
p3817
tp3818
I6
s(I70
S'AGG'
p3819
tp3820
I3
s(I71
S'TCA'
p3821
tp3822
I1
s(I64
S'TGA'
p3823
tp3824
I12
s(I73
S'GCT'
p3825
tp3826
I9
s(I73
S'GGG'
p3827
tp3828
I6
s(I52
S'TTT'
p3829
tp3830
I67
s(I38
S'ACG'
p3831
tp3832
I41
s(I77
S'TGG'
p3833
tp3834
I183
s(I68
S'GAT'
p3835
tp3836
I58
s(I14
S'GGC'
p3837
tp3838
I589
s(I9
S'CCG'
p3839
tp3840
I3362
s(I46
S'GAC'
p3841
tp3842
I51404
s(I3
S'GCC'
p3843
tp3844
I1082
s(I55
S'TCA'
p3845
tp3846
I714
s(I6
S'CGT'
p3847
tp3848
I202
s(I55
S'CAG'
p3849
tp3850
I530
s(I60
S'CAG'
p3851
tp3852
I165
s(I52
S'CGT'
p3853
tp3854
I4
s(I73
S'TGC'
p3855
tp3856
I3
s(I45
S'CGA'
p3857
tp3858
I163
s(I13
S'GAA'
p3859
tp3860
I321
s(I22
S'GGT'
p3861
tp3862
I34
s(I19
S'GTT'
p3863
tp3864
I189
s(I19
S'TCG'
p3865
tp3866
I334
s(I23
S'AAA'
p3867
tp3868
I1
s(I42
S'ACA'
p3869
tp3870
I35
s(I66
S'ATA'
p3871
tp3872
I228
s(I62
S'GAT'
p3873
tp3874
I949
s(I21
S'CTC'
p3875
tp3876
I8
s(I44
S'ATG'
p3877
tp3878
I7090
s(I64
S'CCG'
p3879
tp3880
I42
s(I39
S'TTA'
p3881
tp3882
I11
s(I26
S'AGG'
p3883
tp3884
I1
s(I17
S'TCT'
p3885
tp3886
I139
s(I72
S'ATC'
p3887
tp3888
I1
s(I42
S'AAC'
p3889
tp3890
I347
s(I73
S'ACT'
p3891
tp3892
I13
s(I70
S'CCA'
p3893
tp3894
I76
s(I7
S'CCA'
p3895
tp3896
I8777
s(I75
S'ATT'
p3897
tp3898
I2
s(I40
S'ATC'
p3899
tp3900
I71
s(I55
S'ATA'
p3901
tp3902
I128
s(I30
S'TGT'
p3903
tp3904
I2328
s(I56
S'CCT'
p3905
tp3906
I1
s(I12
S'CCA'
p3907
tp3908
I365
s(I31
S'GCG'
p3909
tp3910
I601
s(I54
S'AAG'
p3911
tp3912
I115
s(I42
S'GTA'
p3913
tp3914
I550
s(I30
S'CCA'
p3915
tp3916
I30
s(I54
S'AGT'
p3917
tp3918
I416
s(I31
S'CGG'
p3919
tp3920
I33
s(I54
S'AAC'
p3921
tp3922
I18
s(I29
S'CGC'
p3923
tp3924
I529
s(I21
S'GAG'
p3925
tp3926
I166
s(I61
S'TGG'
p3927
tp3928
I8
s(I11
S'GAG'
p3929
tp3930
I692
s(I26
S'ACG'
p3931
tp3932
I28
s(I64
S'GGT'
p3933
tp3934
I10786
s(I25
S'TAA'
p3935
tp3936
I3
s(I71
S'GAC'
p3937
tp3938
I37
s(I20
S'GGG'
p3939
tp3940
I36
s(I3
S'CTA'
p3941
tp3942
I81
s(I51
S'TCT'
p3943
tp3944
I387
s(I42
S'GCC'
p3945
tp3946
I7364
s(I31
S'CAG'
p3947
tp3948
I41
s(I68
S'TCT'
p3949
tp3950
I885
s(I26
S'CGG'
p3951
tp3952
I1
s(I54
S'CAC'
p3953
tp3954
I63
s(I55
S'GAC'
p3955
tp3956
I1
s(I2
S'CGA'
p3957
tp3958
I186
s(I15
S'CTA'
p3959
tp3960
I16
s(I8
S'CTG'
p3961
tp3962
I236
s(I31
S'CGC'
p3963
tp3964
I192
s(I20
S'CAT'
p3965
tp3966
I560
s(I38
S'TAG'
p3967
tp3968
I158
s(I36
S'GGT'
p3969
tp3970
I6
s(I0
S'WT'
p3971
tp3972
I33
s(I66
S'TGC'
p3973
tp3974
I71
s(I5
S'CCT'
p3975
tp3976
I15
s(I13
S'GGT'
p3977
tp3978
I23
s(I2
S'GCG'
p3979
tp3980
I4
s(I35
S'ATG'
p3981
tp3982
I563
s(I37
S'GAG'
p3983
tp3984
I2099
s(I41
S'ACT'
p3985
tp3986
I624
s(I42
S'TGG'
p3987
tp3988
I256
s(I47
S'TCC'
p3989
tp3990
I1632
s(I2
S'AGC'
p3991
tp3992
I4
s(I51
S'ACT'
p3993
tp3994
I577
s(I16
S'CTT'
p3995
tp3996
I43
s(I5
S'CGT'
p3997
tp3998
I14
s(I70
S'ATC'
p3999
tp4000
I22
s(I63
S'GTG'
p4001
tp4002
I87
s(I30
S'AGT'
p4003
tp4004
I5
s(I33
S'CTA'
p4005
tp4006
I10
s(I8
S'GTC'
p4007
tp4008
I146
s(I22
S'ACA'
p4009
tp4010
I45
s(I53
S'CTA'
p4011
tp4012
I12
s(I53
S'GCA'
p4013
tp4014
I77
s(I63
S'CCT'
p4015
tp4016
I792
s(I58
S'CTC'
p4017
tp4018
I18
s(I45
S'AAA'
p4019
tp4020
I116
s(I34
S'GTT'
p4021
tp4022
I15
s(I42
S'GGG'
p4023
tp4024
I673
s(I61
S'ACT'
p4025
tp4026
I47
s(I23
S'CAT'
p4027
tp4028
I5
s(I25
S'GTT'
p4029
tp4030
I84
s(I57
S'AGG'
p4031
tp4032
I94
s(I65
S'GGA'
p4033
tp4034
I1048
s(I69
S'TGG'
p4035
tp4036
I841
s(I48
S'AAT'
p4037
tp4038
I13
s(I33
S'TGG'
p4039
tp4040
I599
s(I55
S'CCC'
p4041
tp4042
I19
s(I41
S'CGG'
p4043
tp4044
I8
s(I47
S'CTC'
p4045
tp4046
I2
s(I63
S'ATT'
p4047
tp4048
I89
s(I19
S'CGT'
p4049
tp4050
I611
s(I52
S'CTA'
p4051
tp4052
I1
s(I16
S'CGA'
p4053
tp4054
I31
s(I53
S'GGA'
p4055
tp4056
I109
s(I34
S'ACT'
p4057
tp4058
I33
s(I61
S'AGC'
p4059
tp4060
I16
s(I29
S'ACT'
p4061
tp4062
I52
s(I33
S'GGA'
p4063
tp4064
I7
s(I65
S'ACA'
p4065
tp4066
I1041
s(I12
S'GTT'
p4067
tp4068
I3
s(I62
S'TAA'
p4069
tp4070
I9
s(I30
S'AAG'
p4071
tp4072
I1
s(I21
S'TAC'
p4073
tp4074
I994
s(I62
S'GAG'
p4075
tp4076
I127
s(I26
S'ATC'
p4077
tp4078
I36
s(I29
S'TAC'
p4079
tp4080
I131
s(I15
S'TTA'
p4081
tp4082
I50
s(I17
S'CAA'
p4083
tp4084
I1
s(I42
S'AGT'
p4085
tp4086
I6
s(I37
S'CCA'
p4087
tp4088
I362
s(I67
S'AGT'
p4089
tp4090
I166
s(I21
S'CAC'
p4091
tp4092
I311
s(I26
S'CAC'
p4093
tp4094
I2
s(I65
S'GTC'
p4095
tp4096
I24
s(I19
S'CTG'
p4097
tp4098
I70
s(I19
S'GCG'
p4099
tp4100
I38
s(I48
S'TAT'
p4101
tp4102
I15
s(I14
S'ACG'
p4103
tp4104
I184
s(I11
S'AAG'
p4105
tp4106
I109
s(I37
S'ATA'
p4107
tp4108
I560
s(I3
S'GGA'
p4109
tp4110
I3
s(I45
S'TGC'
p4111
tp4112
I36
s(I33
S'AGG'
p4113
tp4114
I283
s(I70
S'GCC'
p4115
tp4116
I604
s(I67
S'TCC'
p4117
tp4118
I90
s(I32
S'TAA'
p4119
tp4120
I11
s(I27
S'GAC'
p4121
tp4122
I2
s(I32
S'ACA'
p4123
tp4124
I70
s(I55
S'ATT'
p4125
tp4126
I123
s(I53
S'TGG'
p4127
tp4128
I280
s(I27
S'GCA'
p4129
tp4130
I2
s(I56
S'CCC'
p4131
tp4132
I1
s(I72
S'GAA'
p4133
tp4134
I26
s(I17
S'TCA'
p4135
tp4136
I33
s(I5
S'ATT'
p4137
tp4138
I64
s(I16
S'GTA'
p4139
tp4140
I86
s(I24
S'AAT'
p4141
tp4142
I18
s(I38
S'CAC'
p4143
tp4144
I54
s(I69
S'TAA'
p4145
tp4146
I2
s(I71
S'GAT'
p4147
tp4148
I1
s(I37
S'TAG'
p4149
tp4150
I4
s(I20
S'ACA'
p4151
tp4152
I1
s(I20
S'AGT'
p4153
tp4154
I804
s(I42
S'AGG'
p4155
tp4156
I210
s(I47
S'GCC'
p4157
tp4158
I206
s(I13
S'ATG'
p4159
tp4160
I5
s(I10
S'TGC'
p4161
tp4162
I5
s(I28
S'TAG'
p4163
tp4164
I2
s(I16
S'GCC'
p4165
tp4166
I45
s(I65
S'CAT'
p4167
tp4168
I344
s(I66
S'TAC'
p4169
tp4170
I20
s(I16
S'ACC'
p4171
tp4172
I133
s(I52
S'CCT'
p4173
tp4174
I42
s(I32
S'TCT'
p4175
tp4176
I140
s(I65
S'GAC'
p4177
tp4178
I13884
s(I10
S'CTC'
p4179
tp4180
I6
s(I54
S'CCA'
p4181
tp4182
I1278
s(I25
S'CAG'
p4183
tp4184
I17
s(I73
S'TTA'
p4185
tp4186
I4
s(I24
S'CGC'
p4187
tp4188
I87
s(I49
S'GAC'
p4189
tp4190
I17
s(I11
S'ATA'
p4191
tp4192
I42
s(I57
S'ATT'
p4193
tp4194
I102
s(I29
S'ATG'
p4195
tp4196
I65
s(I8
S'ATT'
p4197
tp4198
I2882
s(I12
S'GAT'
p4199
tp4200
I7
s(I64
S'ACG'
p4201
tp4202
I9012
s(I17
S'CCG'
p4203
tp4204
I1
s(I35
S'TAC'
p4205
tp4206
I8
s(I30
S'AGC'
p4207
tp4208
I5
s(I75
S'CGC'
p4209
tp4210
I7
s(I22
S'ACT'
p4211
tp4212
I526
s(I46
S'TAG'
p4213
tp4214
I11
s(I25
S'ATC'
p4215
tp4216
I568
s(I10
S'CGA'
p4217
tp4218
I5
s(I44
S'GCG'
p4219
tp4220
I31
s(I44
S'CTG'
p4221
tp4222
I1414
s(I24
S'AAA'
p4223
tp4224
I5
s(I50
S'ATA'
p4225
tp4226
I846
s(I36
S'CCG'
p4227
tp4228
I389
s(I29
S'CTC'
p4229
tp4230
I118
s(I45
S'ATT'
p4231
tp4232
I642
s(I69
S'CTA'
p4233
tp4234
I553
s(I23
S'CAA'
p4235
tp4236
I13
s(I23
S'GTA'
p4237
tp4238
I6
s(I18
S'AGG'
p4239
tp4240
I17
s(I18
S'GCT'
p4241
tp4242
I141
s(I48
S'TGA'
p4243
tp4244
I11
s(I3
S'GCT'
p4245
tp4246
I346
s(I50
S'TAG'
p4247
tp4248
I3
s(I52
S'AAG'
p4249
tp4250
I33
s(I12
S'ACA'
p4251
tp4252
I26
s(I14
S'ATC'
p4253
tp4254
I2
s(I73
S'AAG'
p4255
tp4256
I14
s(I30
S'AGA'
p4257
tp4258
I2
s(I68
S'AAT'
p4259
tp4260
I1419
s(I48
S'ACA'
p4261
tp4262
I11
s(I67
S'TAA'
p4263
tp4264
I5
s(I25
S'CTT'
p4265
tp4266
I160
s(I23
S'GCA'
p4267
tp4268
I155
s(I63
S'TCT'
p4269
tp4270
I186
s(I11
S'TTC'
p4271
tp4272
I49
s(I2
S'GAG'
p4273
tp4274
I2
s(I21
S'GTG'
p4275
tp4276
I268
s(I47
S'CCG'
p4277
tp4278
I2
s(I44
S'TGG'
p4279
tp4280
I2
s(I3
S'CAC'
p4281
tp4282
I1
s(I19
S'AAT'
p4283
tp4284
I208
s(I12
S'GTA'
p4285
tp4286
I15
s(I37
S'GTG'
p4287
tp4288
I19
s(I16
S'CTC'
p4289
tp4290
I163
s(I28
S'TGG'
p4291
tp4292
I220
s(I36
S'CTC'
p4293
tp4294
I4196
s(I34
S'GGC'
p4295
tp4296
I367
s(I55
S'GCA'
p4297
tp4298
I107
s(I20
S'ATC'
p4299
tp4300
I1
s(I6
S'AGC'
p4301
tp4302
I4620
s(I8
S'GGA'
p4303
tp4304
I14
s(I71
S'ACA'
p4305
tp4306
I9
s(I36
S'ATA'
p4307
tp4308
I40
s(I46
S'GGG'
p4309
tp4310
I742
s(I71
S'CTC'
p4311
tp4312
I408
s(I53
S'CCC'
p4313
tp4314
I224
s(I55
S'GTC'
p4315
tp4316
I86
s(I54
S'GGG'
p4317
tp4318
I289
s(I24
S'TCG'
p4319
tp4320
I119
s(I35
S'CTG'
p4321
tp4322
I178
s(I55
S'GAT'
p4323
tp4324
I782
s(I10
S'TAC'
p4325
tp4326
I1
s(I31
S'TGG'
p4327
tp4328
I5
s(I31
S'GAA'
p4329
tp4330
I18
s(I35
S'ATC'
p4331
tp4332
I3
s(I18
S'ATC'
p4333
tp4334
I298
s(I32
S'ACT'
p4335
tp4336
I93
s(I18
S'TAC'
p4337
tp4338
I356
s(I71
S'GTC'
p4339
tp4340
I3
s(I13
S'GCC'
p4341
tp4342
I46
s(I65
S'TTG'
p4343
tp4344
I106
s(I52
S'GCT'
p4345
tp4346
I92
s(I15
S'GAA'
p4347
tp4348
I1
s(I68
S'GAG'
p4349
tp4350
I7
s(I47
S'GTT'
p4351
tp4352
I1
s(I65
S'AAA'
p4353
tp4354
I96
s(I16
S'CCA'
p4355
tp4356
I1
s(I55
S'ACC'
p4357
tp4358
I69
s(I49
S'AGC'
p4359
tp4360
I2228
s(I44
S'TCG'
p4361
tp4362
I1
s(I9
S'ATT'
p4363
tp4364
I7767
s(I67
S'CAT'
p4365
tp4366
I33
s(I15
S'TAC'
p4367
tp4368
I123
s(I13
S'GTA'
p4369
tp4370
I398
s(I10
S'GGC'
p4371
tp4372
I1
s(I71
S'TTA'
p4373
tp4374
I1958
s(I71
S'AGC'
p4375
tp4376
I1
s(I69
S'TAG'
p4377
tp4378
I1
s(I47
S'TCG'
p4379
tp4380
I4926
s(I9
S'CAG'
p4381
tp4382
I7214
s(I72
S'CTC'
p4383
tp4384
I126
s(I9
S'TCC'
p4385
tp4386
I195
s(I35
S'GGG'
p4387
tp4388
I73
s(I34
S'ATC'
p4389
tp4390
I44
s(I32
S'TCA'
p4391
tp4392
I765
s(I29
S'GAA'
p4393
tp4394
I8
s(I61
S'CGG'
p4395
tp4396
I6
s(I10
S'CTT'
p4397
tp4398
I4
s(I43
S'GGG'
p4399
tp4400
I136
s(I57
S'GTC'
p4401
tp4402
I179
s(I39
S'CGA'
p4403
tp4404
I4
s(I69
S'TGA'
p4405
tp4406
I2
s(I6
S'TAG'
p4407
tp4408
I5
s(I67
S'AAT'
p4409
tp4410
I2
s(I36
S'GAG'
p4411
tp4412
I3
s(I62
S'ACC'
p4413
tp4414
I77
s(I25
S'CCC'
p4415
tp4416
I24
s(I15
S'GTT'
p4417
tp4418
I286
s(I13
S'TCG'
p4419
tp4420
I33
s(I70
S'CTG'
p4421
tp4422
I702
s(I75
S'CCA'
p4423
tp4424
I7
s(I2
S'GTA'
p4425
tp4426
I1
s(I32
S'GCG'
p4427
tp4428
I76
s(I18
S'GGC'
p4429
tp4430
I38
s(I63
S'TAC'
p4431
tp4432
I135
s(I8
S'ATA'
p4433
tp4434
I181
s(I23
S'ATG'
p4435
tp4436
I387
s(I57
S'GCC'
p4437
tp4438
I248
s(I58
S'TGT'
p4439
tp4440
I668
s(I71
S'TAC'
p4441
tp4442
I9
s(I7
S'TGG'
p4443
tp4444
I2
s(I62
S'GTC'
p4445
tp4446
I9283
s(I28
S'GTC'
p4447
tp4448
I207
s(I8
S'AGC'
p4449
tp4450
I1
s(I24
S'TTA'
p4451
tp4452
I4
s(I46
S'AAC'
p4453
tp4454
I685
s(I14
S'CAA'
p4455
tp4456
I1
s(I64
S'GCG'
p4457
tp4458
I9952
s(I4
S'CCG'
p4459
tp4460
I1
s(I37
S'CAT'
p4461
tp4462
I68
s(I56
S'AAG'
p4463
tp4464
I39
s(I22
S'ATG'
p4465
tp4466
I751
s(I46
S'ACA'
p4467
tp4468
I2232
s(I27
S'AGC'
p4469
tp4470
I10
s(I3
S'AAG'
p4471
tp4472
I4
s(I64
S'GTG'
p4473
tp4474
I6366
s(I64
S'GGG'
p4475
tp4476
I375
s(I47
S'CAG'
p4477
tp4478
I871
s(I60
S'GCC'
p4479
tp4480
I109
s(I52
S'CAG'
p4481
tp4482
I74
s(I49
S'GGC'
p4483
tp4484
I6297
s(I37
S'TGG'
p4485
tp4486
I28
s(I18
S'TCA'
p4487
tp4488
I407
s(I27
S'ACG'
p4489
tp4490
I44
s(I76
S'GAC'
p4491
tp4492
I4
s(I43
S'TAG'
p4493
tp4494
I12
s(I37
S'TCT'
p4495
tp4496
I1841
s(I9
S'CGC'
p4497
tp4498
I151
s(I15
S'GGC'
p4499
tp4500
I3
s(I74
S'GTG'
p4501
tp4502
I1
s(I32
S'AAA'
p4503
tp4504
I45
s(I6
S'GCG'
p4505
tp4506
I307
s(I53
S'ACA'
p4507
tp4508
I41
s(I36
S'TAC'
p4509
tp4510
I74
s(I5
S'TCC'
p4511
tp4512
I1
s(I38
S'GGA'
p4513
tp4514
I4
s(I39
S'ATC'
p4515
tp4516
I2
s(I18
S'ACG'
p4517
tp4518
I27
s(I45
S'TCC'
p4519
tp4520
I4954
s(I70
S'CAG'
p4521
tp4522
I38
s(I63
S'GGA'
p4523
tp4524
I116
s(I40
S'TGT'
p4525
tp4526
I2
s(I55
S'TGT'
p4527
tp4528
I198
s(I4
S'CTT'
p4529
tp4530
I130
s(I22
S'AAT'
p4531
tp4532
I58
s(I71
S'GGA'
p4533
tp4534
I9
s(I58
S'GAG'
p4535
tp4536
I197
s(I17
S'CTG'
p4537
tp4538
I54
s(I4
S'TGT'
p4539
tp4540
I6
s(I31
S'AGA'
p4541
tp4542
I2
s(I7
S'AAT'
p4543
tp4544
I13024
s(I65
S'CGG'
p4545
tp4546
I549
s(I62
S'CGA'
p4547
tp4548
I983
s(I9
S'TTG'
p4549
tp4550
I1183
s(I46
S'AGT'
p4551
tp4552
I689
s(I68
S'AGC'
p4553
tp4554
I480
s(I30
S'CGG'
p4555
tp4556
I2
s(I10
S'TAT'
p4557
tp4558
I193
s(I70
S'AAT'
p4559
tp4560
I9
s(I14
S'AAG'
p4561
tp4562
I71
s(I44
S'TAC'
p4563
tp4564
I12
s(I17
S'GGG'
p4565
tp4566
I445
s(I6
S'CTG'
p4567
tp4568
I282
s(I18
S'TAT'
p4569
tp4570
I86
s(I37
S'ACG'
p4571
tp4572
I1067
s(I76
S'CCA'
p4573
tp4574
I1
s(I13
S'TTC'
p4575
tp4576
I1
s(I35
S'CGC'
p4577
tp4578
I124
s(I33
S'CGG'
p4579
tp4580
I311
s(I33
S'CAA'
p4581
tp4582
I6
s(I72
S'TAG'
p4583
tp4584
I26
s(I20
S'CCA'
p4585
tp4586
I118
s(I59
S'AAA'
p4587
tp4588
I2
s(I75
S'GAG'
p4589
tp4590
I6
s(I9
S'ATC'
p4591
tp4592
I2570
s(I17
S'GTC'
p4593
tp4594
I282
s(I12
S'GGC'
p4595
tp4596
I24
s(I26
S'AAA'
p4597
tp4598
I1
s(I76
S'CTA'
p4599
tp4600
I11
s(I46
S'CGC'
p4601
tp4602
I2101
s(I4
S'AGC'
p4603
tp4604
I1
s(I32
S'CCG'
p4605
tp4606
I107
s(I75
S'GCT'
p4607
tp4608
I3
s(I27
S'TCT'
p4609
tp4610
I8
s(I20
S'TTG'
p4611
tp4612
I115
s(I25
S'TTT'
p4613
tp4614
I400
s(I45
S'GAA'
p4615
tp4616
I29
s(I52
S'TGC'
p4617
tp4618
I325
s(I30
S'TTC'
p4619
tp4620
I1
s(I19
S'GAA'
p4621
tp4622
I182
s(I68
S'GCA'
p4623
tp4624
I738
s(I24
S'CCT'
p4625
tp4626
I276
s(I4
S'TCT'
p4627
tp4628
I1
s(I28
S'TCA'
p4629
tp4630
I240
s(I22
S'TCT'
p4631
tp4632
I30
s(I22
S'AGT'
p4633
tp4634
I72
s(I56
S'GCT'
p4635
tp4636
I44
s(I44
S'AGC'
p4637
tp4638
I25
s(I62
S'TGC'
p4639
tp4640
I1113
s(I18
S'TTG'
p4641
tp4642
I442
s(I48
S'GAA'
p4643
tp4644
I9
s(I57
S'GCT'
p4645
tp4646
I118
s(I41
S'TTC'
p4647
tp4648
I921
s(I58
S'TGA'
p4649
tp4650
I4
s(I66
S'AAA'
p4651
tp4652
I26
s(I24
S'GGA'
p4653
tp4654
I4
s(I64
S'GAT'
p4655
tp4656
I3880
s(I27
S'ACC'
p4657
tp4658
I245
s(I12
S'TTT'
p4659
tp4660
I29
s(I72
S'GCC'
p4661
tp4662
I831
s(I31
S'AAA'
p4663
tp4664
I189
s(I20
S'CTT'
p4665
tp4666
I25
s(I26
S'GCC'
p4667
tp4668
I13
s(I30
S'TAT'
p4669
tp4670
I232
s(I45
S'TTG'
p4671
tp4672
I94
s(I46
S'TTA'
p4673
tp4674
I402
s(I64
S'AGC'
p4675
tp4676
I10850
s(I18
S'CCA'
p4677
tp4678
I567
s(I30
S'TAA'
p4679
tp4680
I11
s(I34
S'TAG'
p4681
tp4682
I30
s(I53
S'AGC'
p4683
tp4684
I162
s(I46
S'ACT'
p4685
tp4686
I450
s(I22
S'GTA'
p4687
tp4688
I43
s(I4
S'GCA'
p4689
tp4690
I2
s(I23
S'CTG'
p4691
tp4692
I88
s(I72
S'GTC'
p4693
tp4694
I451
s(I62
S'ATT'
p4695
tp4696
I1500
s(I61
S'CCC'
p4697
tp4698
I1
s(I69
S'ACA'
p4699
tp4700
I96
s(I24
S'CAG'
p4701
tp4702
I76
s(I16
S'AGG'
p4703
tp4704
I579
s(I69
S'AGT'
p4705
tp4706
I3
s(I74
S'GAC'
p4707
tp4708
I5
s(I57
S'TTA'
p4709
tp4710
I100
s(I69
S'CAT'
p4711
tp4712
I1537
s(I6
S'TTC'
p4713
tp4714
I489
s(I47
S'GGG'
p4715
tp4716
I349
s(I76
S'TGC'
p4717
tp4718
I2
s(I47
S'AGA'
p4719
tp4720
I42
s(I9
S'TGT'
p4721
tp4722
I169
s(I55
S'GGG'
p4723
tp4724
I268
s(I31
S'ACT'
p4725
tp4726
I26
s(I63
S'TCC'
p4727
tp4728
I245
s(I16
S'TCT'
p4729
tp4730
I72
s(I10
S'CGC'
p4731
tp4732
I2
s(I26
S'CTC'
p4733
tp4734
I100
s(I19
S'CCG'
p4735
tp4736
I81
s(I5
S'GGG'
p4737
tp4738
I8
s(I40
S'TCC'
p4739
tp4740
I119
s(I21
S'AAC'
p4741
tp4742
I629
s(I17
S'TTC'
p4743
tp4744
I72
s(I67
S'CCT'
p4745
tp4746
I47
s(I65
S'CCT'
p4747
tp4748
I1025
s(I9
S'ACG'
p4749
tp4750
I183
s(I32
S'GAA'
p4751
tp4752
I306
s(I25
S'AGG'
p4753
tp4754
I91
s(I9
S'CTC'
p4755
tp4756
I233
s(I23
S'GGG'
p4757
tp4758
I6
s(I74
S'TCA'
p4759
tp4760
I2
s(I65
S'TGG'
p4761
tp4762
I147
s(I23
S'CCC'
p4763
tp4764
I5
s(I60
S'ACG'
p4765
tp4766
I12
s(I34
S'GAC'
p4767
tp4768
I609
s(I75
S'AGG'
p4769
tp4770
I1
s(I22
S'TTA'
p4771
tp4772
I130
s(I67
S'AAG'
p4773
tp4774
I4
s(I2
S'TCT'
p4775
tp4776
I6
s(I2
S'ACT'
p4777
tp4778
I1
s(I29
S'AGC'
p4779
tp4780
I402
s(I19
S'GGC'
p4781
tp4782
I361
s(I7
S'CAG'
p4783
tp4784
I152
s(I17
S'CAT'
p4785
tp4786
I215
s(I60
S'CTG'
p4787
tp4788
I8
s(I35
S'CAC'
p4789
tp4790
I87
s(I21
S'GGA'
p4791
tp4792
I33
s(I74
S'AAT'
p4793
tp4794
I18
s(I18
S'AAG'
p4795
tp4796
I10
s(I33
S'TTA'
p4797
tp4798
I87
s(I34
S'GCT'
p4799
tp4800
I21
s(I70
S'CGC'
p4801
tp4802
I4
s(I69
S'GGG'
p4803
tp4804
I1443
s(I29
S'ACG'
p4805
tp4806
I482
s(I43
S'TTA'
p4807
tp4808
I373
s(I8
S'CGT'
p4809
tp4810
I2
s(I51
S'AGA'
p4811
tp4812
I1
s(I5
S'CCA'
p4813
tp4814
I2
s(I39
S'TCC'
p4815
tp4816
I21
s(I48
S'ATT'
p4817
tp4818
I9
s(I22
S'TGG'
p4819
tp4820
I412
s(I66
S'CCG'
p4821
tp4822
I7159
s(I8
S'AAC'
p4823
tp4824
I6
s(I2
S'GGT'
p4825
tp4826
I1
s(I45
S'CAG'
p4827
tp4828
I54037
s(I11
S'GTA'
p4829
tp4830
I26
s(I39
S'GCC'
p4831
tp4832
I20
s(I48
S'TAG'
p4833
tp4834
I7
s(I62
S'AAC'
p4835
tp4836
I1766
s(I64
S'CTG'
p4837
tp4838
I1131
s(I32
S'CTC'
p4839
tp4840
I212
s(I39
S'GTT'
p4841
tp4842
I22
s(I23
S'TAG'
p4843
tp4844
I6
s(I54
S'GCC'
p4845
tp4846
I82
s(I10
S'TCT'
p4847
tp4848
I25
s(I11
S'CGA'
p4849
tp4850
I51
s(I52
S'ACA'
p4851
tp4852
I6
s(I76
S'ATA'
p4853
tp4854
I5
s(I8
S'CTT'
p4855
tp4856
I151
s(I41
S'GGC'
p4857
tp4858
I611
s(I57
S'TCG'
p4859
tp4860
I131
s(I58
S'CAG'
p4861
tp4862
I347
s(I60
S'CAT'
p4863
tp4864
I293
s(I71
S'GCT'
p4865
tp4866
I19
s(I6
S'CAC'
p4867
tp4868
I1067
s(I41
S'TCA'
p4869
tp4870
I84
s(I52
S'CGA'
p4871
tp4872
I28
s(I66
S'AAT'
p4873
tp4874
I1408
s(I63
S'TTG'
p4875
tp4876
I159
s(I10
S'AGG'
p4877
tp4878
I12
s(I39
S'TAT'
p4879
tp4880
I23
s(I61
S'TCC'
p4881
tp4882
I4
s(I37
S'AAC'
p4883
tp4884
I76
s(I28
S'ACT'
p4885
tp4886
I53
s(I18
S'TGC'
p4887
tp4888
I135
s(I60
S'AGG'
p4889
tp4890
I116
s(I70
S'GTC'
p4891
tp4892
I2
s(I41
S'AAG'
p4893
tp4894
I19
s(I11
S'AGT'
p4895
tp4896
I2188
s(I18
S'CCT'
p4897
tp4898
I65
s(I20
S'CGA'
p4899
tp4900
I69
s(I22
S'CCA'
p4901
tp4902
I324
s(I72
S'AGT'
p4903
tp4904
I2051
s(I69
S'GTC'
p4905
tp4906
I1047
s(I74
S'TTG'
p4907
tp4908
I1
s(I72
S'ACT'
p4909
tp4910
I336
s(I76
S'CGA'
p4911
tp4912
I3
s(I62
S'CTT'
p4913
tp4914
I869
s(I8
S'GGT'
p4915
tp4916
I6
s(I68
S'CCA'
p4917
tp4918
I33
s(I66
S'GCC'
p4919
tp4920
I1
s(I43
S'GTC'
p4921
tp4922
I162
s(I16
S'GGT'
p4923
tp4924
I135
s(I31
S'GTT'
p4925
tp4926
I623
s(I70
S'ACA'
p4927
tp4928
I5463
s(I16
S'CAA'
p4929
tp4930
I161
s(I49
S'GTA'
p4931
tp4932
I23
s(I71
S'AAG'
p4933
tp4934
I6
s(I48
S'TGC'
p4935
tp4936
I1
s(I44
S'AGA'
p4937
tp4938
I1
s(I7
S'ACC'
p4939
tp4940
I3
s(I20
S'AAC'
p4941
tp4942
I4
s(I36
S'TGA'
p4943
tp4944
I35
s(I59
S'GCT'
p4945
tp4946
I5750
s(I45
S'CGG'
p4947
tp4948
I2029
s(I69
S'AAG'
p4949
tp4950
I8
s(I38
S'TCT'
p4951
tp4952
I1046
s(I54
S'CAT'
p4953
tp4954
I203
s(I3
S'GAT'
p4955
tp4956
I2
s(I41
S'TAC'
p4957
tp4958
I1
s(I3
S'TAT'
p4959
tp4960
I5
s(I65
S'CCA'
p4961
tp4962
I596
s(I39
S'TTG'
p4963
tp4964
I121
s(I63
S'TAA'
p4965
tp4966
I14
s(I62
S'TTC'
p4967
tp4968
I1221
s(I23
S'TAA'
p4969
tp4970
I3
s(I59
S'TCG'
p4971
tp4972
I68
s(I20
S'ACG'
p4973
tp4974
I844
s(I49
S'TCT'
p4975
tp4976
I255
s(I70
S'GGT'
p4977
tp4978
I7
s(I70
S'TCA'
p4979
tp4980
I66
s(I6
S'GCA'
p4981
tp4982
I408
s(I35
S'ATT'
p4983
tp4984
I149
s(I50
S'TTG'
p4985
tp4986
I32
s(I61
S'GTC'
p4987
tp4988
I212
s(I15
S'CCG'
p4989
tp4990
I3
s(I75
S'ATA'
p4991
tp4992
I4
s(I62
S'ACA'
p4993
tp4994
I6404
s(I7
S'TTA'
p4995
tp4996
I3
s(I25
S'AAA'
p4997
tp4998
I10
s(I18
S'GAG'
p4999
tp5000
I93
s(I17
S'GCA'
p5001
tp5002
I112
s(I20
S'GGA'
p5003
tp5004
I187
s(I63
S'CCG'
p5005
tp5006
I70
s(I45
S'AAT'
p5007
tp5008
I4267
s(I4
S'CTC'
p5009
tp5010
I126
s(I28
S'GGA'
p5011
tp5012
I4
s(I34
S'GTC'
p5013
tp5014
I21
s(I45
S'AGG'
p5015
tp5016
I341
s(I55
S'TGA'
p5017
tp5018
I107
s(I61
S'ACG'
p5019
tp5020
I47
s(I72
S'TTA'
p5021
tp5022
I18
s(I39
S'ACA'
p5023
tp5024
I4
s(I12
S'CCC'
p5025
tp5026
I167
s(I61
S'AAC'
p5027
tp5028
I33
s(I3
S'AGC'
p5029
tp5030
I2
s(I50
S'GTC'
p5031
tp5032
I1780
s(I73
S'ATG'
p5033
tp5034
I37
s(I68
S'ATT'
p5035
tp5036
I43
s(I63
S'TAG'
p5037
tp5038
I1
s(I19
S'CGG'
p5039
tp5040
I241
s(I52
S'CTT'
p5041
tp5042
I6
s(I21
S'CCC'
p5043
tp5044
I1
s(I55
S'AAG'
p5045
tp5046
I118
s(I72
S'AAC'
p5047
tp5048
I704
s(I58
S'ATA'
p5049
tp5050
I33
s(I22
S'TAC'
p5051
tp5052
I115
s(I55
S'CTG'
p5053
tp5054
I249
s(I17
S'TGC'
p5055
tp5056
I115
s(I47
S'TTA'
p5057
tp5058
I5
s(I14
S'GCT'
p5059
tp5060
I136
s(I74
S'CAT'
p5061
tp5062
I1
s(I23
S'GGA'
p5063
tp5064
I109
s(I18
S'AAT'
p5065
tp5066
I414
s(I34
S'TCC'
p5067
tp5068
I198
s(I30
S'TTA'
p5069
tp5070
I313
s(I28
S'CTA'
p5071
tp5072
I90
s(I28
S'GCC'
p5073
tp5074
I272
s(I27
S'TGC'
p5075
tp5076
I26
s(I11
S'AAC'
p5077
tp5078
I641
s(I17
S'AGC'
p5079
tp5080
I571
s(I21
S'ATG'
p5081
tp5082
I218
s(I53
S'GCG'
p5083
tp5084
I119
s(I54
S'ATA'
p5085
tp5086
I2
s(I69
S'GAC'
p5087
tp5088
I46
s(I45
S'ACG'
p5089
tp5090
I1727
s(I59
S'AGG'
p5091
tp5092
I2
s(I36
S'GGC'
p5093
tp5094
I16
s(I75
S'AGA'
p5095
tp5096
I22
s(I58
S'AAT'
p5097
tp5098
I41
s(I41
S'ACA'
p5099
tp5100
I356
s(I74
S'TGA'
p5101
tp5102
I13
s(I16
S'AAG'
p5103
tp5104
I95
s(I12
S'TAG'
p5105
tp5106
I1
s(I31
S'TTT'
p5107
tp5108
I78
s(I22
S'CTG'
p5109
tp5110
I209
s(I72
S'CTT'
p5111
tp5112
I41
s(I33
S'TGA'
p5113
tp5114
I8
s(I66
S'GGT'
p5115
tp5116
I615
s(I11
S'AGA'
p5117
tp5118
I3
s(I6
S'GGC'
p5119
tp5120
I9337
s(I72
S'CTA'
p5121
tp5122
I63
s(I52
S'TAT'
p5123
tp5124
I73
s(I17
S'CGG'
p5125
tp5126
I13
s(I45
S'TAA'
p5127
tp5128
I74
s(I34
S'ATA'
p5129
tp5130
I7
s(I72
S'ACA'
p5131
tp5132
I661
s(I20
S'TGC'
p5133
tp5134
I55
s(I55
S'GGA'
p5135
tp5136
I3
s(I30
S'ACC'
p5137
tp5138
I12
s(I67
S'ACC'
p5139
tp5140
I4811
s(I53
S'AAG'
p5141
tp5142
I13
s(I53
S'CGA'
p5143
tp5144
I3
s(I33
S'GGG'
p5145
tp5146
I2
s(I30
S'CGC'
p5147
tp5148
I1
s(I28
S'CGG'
p5149
tp5150
I60
s(I16
S'CAT'
p5151
tp5152
I231
s(I27
S'CAT'
p5153
tp5154
I6
s(I23
S'CGA'
p5155
tp5156
I3
s(I42
S'ATC'
p5157
tp5158
I2
s(I29
S'TGT'
p5159
tp5160
I77
s(I48
S'TGT'
p5161
tp5162
I51
s(I26
S'GAC'
p5163
tp5164
I2
s(I65
S'TCG'
p5165
tp5166
I51
s(I36
S'GTG'
p5167
tp5168
I127
s(I61
S'TAC'
p5169
tp5170
I32
s(I16
S'GCT'
p5171
tp5172
I772
s(I19
S'GCA'
p5173
tp5174
I197
s(I69
S'TCC'
p5175
tp5176
I280
s(I45
S'GCA'
p5177
tp5178
I1638
s(I75
S'GTG'
p5179
tp5180
I2266
s(I42
S'GGC'
p5181
tp5182
I997
s(I52
S'GAG'
p5183
tp5184
I119
s(I73
S'GCC'
p5185
tp5186
I6
s(I71
S'GGT'
p5187
tp5188
I1
s(I33
S'ACG'
p5189
tp5190
I119
s(I57
S'ATA'
p5191
tp5192
I120
s(I74
S'TAA'
p5193
tp5194
I20
s(I45
S'GTG'
p5195
tp5196
I6812
s(I16
S'TGG'
p5197
tp5198
I98
s(I40
S'AAT'
p5199
tp5200
I1084
s(I60
S'ATA'
p5201
tp5202
I133
s(I41
S'TGA'
p5203
tp5204
I1
s(I75
S'GCG'
p5205
tp5206
I5
s(I50
S'GAC'
p5207
tp5208
I7
s(I45
S'GGC'
p5209
tp5210
I13
s(I7
S'CTA'
p5211
tp5212
I4
s(I29
S'TCA'
p5213
tp5214
I54
s(I37
S'GCA'
p5215
tp5216
I1158
s(I26
S'ACT'
p5217
tp5218
I286
s(I60
S'CCA'
p5219
tp5220
I619
s(I46
S'ATA'
p5221
tp5222
I1577
s(I71
S'ATC'
p5223
tp5224
I1
s(I48
S'CTC'
p5225
tp5226
I34
s(I50
S'ATT'
p5227
tp5228
I266
s(I74
S'ACT'
p5229
tp5230
I9
s(I2
S'TGT'
p5231
tp5232
I1
s(I63
S'TGG'
p5233
tp5234
I327
s(I72
S'TTT'
p5235
tp5236
I480
s(I61
S'CTG'
p5237
tp5238
I1071
s(I41
S'CCA'
p5239
tp5240
I11
s(I39
S'GCA'
p5241
tp5242
I29
s(I18
S'TCG'
p5243
tp5244
I732
s(I27
S'ATA'
p5245
tp5246
I202
s(I32
S'TGA'
p5247
tp5248
I8
s(I54
S'CCG'
p5249
tp5250
I149
s(I25
S'CAA'
p5251
tp5252
I531
s(I76
S'GGG'
p5253
tp5254
I35
s(I36
S'AGC'
p5255
tp5256
I21
s(I63
S'ACT'
p5257
tp5258
I129
s(I9
S'TGG'
p5259
tp5260
I5
s(I11
S'GCG'
p5261
tp5262
I4377
s(I50
S'CTC'
p5263
tp5264
I177
s(I21
S'CGG'
p5265
tp5266
I11
s(I5
S'ACG'
p5267
tp5268
I147
s(I42
S'CCC'
p5269
tp5270
I4
s(I71
S'TTT'
p5271
tp5272
I35
s(I30
S'CGT'
p5273
tp5274
I286
s(I72
S'GGC'
p5275
tp5276
I709
s(I52
S'TCA'
p5277
tp5278
I15
s(I13
S'CAT'
p5279
tp5280
I179
s(I24
S'TAG'
p5281
tp5282
I31
s(I38
S'ACC'
p5283
tp5284
I209
s(I37
S'GTT'
p5285
tp5286
I1077
s(I24
S'ACA'
p5287
tp5288
I13
s(I74
S'GGA'
p5289
tp5290
I6
s(I52
S'AAA'
p5291
tp5292
I49
s(I39
S'CTC'
p5293
tp5294
I5
s(I24
S'ATT'
p5295
tp5296
I11
s(I44
S'CTA'
p5297
tp5298
I284
s(I76
S'ACA'
p5299
tp5300
I2
s(I7
S'GAG'
p5301
tp5302
I766
s(I36
S'CCA'
p5303
tp5304
I43
s(I40
S'ACT'
p5305
tp5306
I69
s(I23
S'CAG'
p5307
tp5308
I17
s(I23
S'TTC'
p5309
tp5310
I186
s(I73
S'CGA'
p5311
tp5312
I1
s(I18
S'AGA'
p5313
tp5314
I117
s(I46
S'CAC'
p5315
tp5316
I17852
s(I51
S'CAC'
p5317
tp5318
I79
s(I46
S'GGT'
p5319
tp5320
I1
s(I8
S'AGG'
p5321
tp5322
I2
s(I35
S'TGT'
p5323
tp5324
I188
s(I54
S'GGT'
p5325
tp5326
I59
s(I60
S'TGT'
p5327
tp5328
I325
s(I45
S'TAT'
p5329
tp5330
I232
s(I31
S'GGT'
p5331
tp5332
I409
s(I29
S'TAA'
p5333
tp5334
I4
s(I30
S'GCC'
p5335
tp5336
I158
s(I63
S'GCC'
p5337
tp5338
I422
s(I60
S'CGC'
p5339
tp5340
I565
s(I8
S'ACC'
p5341
tp5342
I25
s(I29
S'CAG'
p5343
tp5344
I418
s(I73
S'GAC'
p5345
tp5346
I1
s(I46
S'TGT'
p5347
tp5348
I1024
s(I47
S'CCA'
p5349
tp5350
I5
s(I32
S'AAC'
p5351
tp5352
I572
s(I60
S'AGA'
p5353
tp5354
I49
s(I39
S'GGC'
p5355
tp5356
I7
s(I20
S'ACC'
p5357
tp5358
I49
s(I57
S'GAC'
p5359
tp5360
I6
s(I41
S'GTG'
p5361
tp5362
I24
s(I29
S'TGC'
p5363
tp5364
I275
s(I61
S'CAG'
p5365
tp5366
I7
s(I27
S'TTA'
p5367
tp5368
I156
s(I66
S'CAG'
p5369
tp5370
I34
s(I7
S'GGT'
p5371
tp5372
I9678
s(I40
S'TCT'
p5373
tp5374
I107
s(I30
S'GTA'
p5375
tp5376
I131
s(I43
S'ATC'
p5377
tp5378
I177
s(I71
S'ACG'
p5379
tp5380
I7
s(I35
S'TAT'
p5381
tp5382
I86
s(I56
S'GCC'
p5383
tp5384
I3
s(I70
S'AAG'
p5385
tp5386
I17
s(I39
S'TGC'
p5387
tp5388
I11
s(I25
S'TGG'
p5389
tp5390
I419
s(I21
S'AGC'
p5391
tp5392
I375
s(I41
S'GCG'
p5393
tp5394
I713
s(I46
S'TCT'
p5395
tp5396
I1598
s(I10
S'GCC'
p5397
tp5398
I57
s(I17
S'ATC'
p5399
tp5400
I560
s(I66
S'GCG'
p5401
tp5402
I161
s(I69
S'AAC'
p5403
tp5404
I27
s(I67
S'TCT'
p5405
tp5406
I462
s(I62
S'ACT'
p5407
tp5408
I156
s(I15
S'GTA'
p5409
tp5410
I151
s(I37
S'GGT'
p5411
tp5412
I51
s(I15
S'AGA'
p5413
tp5414
I8
s(I14
S'GCG'
p5415
tp5416
I31
s(I51
S'GGA'
p5417
tp5418
I17
s(I75
S'CTG'
p5419
tp5420
I11
s(I6
S'ATC'
p5421
tp5422
I11449
s(I65
S'AAG'
p5423
tp5424
I174
s(I45
S'GGT'
p5425
tp5426
I2677
s(I71
S'CAT'
p5427
tp5428
I10
s(I52
S'TTC'
p5429
tp5430
I29
s(I15
S'GCA'
p5431
tp5432
I22
s(I19
S'TTC'
p5433
tp5434
I76
s(I62
S'TCT'
p5435
tp5436
I412
s(I33
S'CCT'
p5437
tp5438
I22
s(I26
S'CGA'
p5439
tp5440
I47
s(I36
S'TCG'
p5441
tp5442
I64
s(I37
S'CAG'
p5443
tp5444
I2082
s(I69
S'GCC'
p5445
tp5446
I521
s(I42
S'CAG'
p5447
tp5448
I42
s(I9
S'CAA'
p5449
tp5450
I1278
s(I72
S'CGG'
p5451
tp5452
I113
s(I65
S'CAC'
p5453
tp5454
I143
s(I29
S'GTG'
p5455
tp5456
I174
s(I32
S'CAA'
p5457
tp5458
I334
s(I21
S'GCA'
p5459
tp5460
I213
s(I32
S'TCG'
p5461
tp5462
I516
s(I75
S'TTG'
p5463
tp5464
I7
s(I71
S'TGC'
p5465
tp5466
I32
s(I38
S'CTT'
p5467
tp5468
I147
s(I39
S'CCC'
p5469
tp5470
I36
s(I63
S'ACA'
p5471
tp5472
I43
s(I23
S'CCT'
p5473
tp5474
I65
s(I45
S'CTT'
p5475
tp5476
I248
s(I18
S'ACT'
p5477
tp5478
I390
s(I35
S'GAG'
p5479
tp5480
I175
s(I17
S'GAC'
p5481
tp5482
I5
s(I32
S'GCA'
p5483
tp5484
I154
s(I57
S'GTT'
p5485
tp5486
I314
s(I31
S'ACA'
p5487
tp5488
I5
s(I46
S'CCC'
p5489
tp5490
I7
s(I8
S'ATG'
p5491
tp5492
I28
s(I57
S'GGT'
p5493
tp5494
I115
s(I7
S'ATG'
p5495
tp5496
I1
s(I61
S'GCT'
p5497
tp5498
I49
s(I23
S'ATA'
p5499
tp5500
I101
s(I41
S'GCC'
p5501
tp5502
I53
s(I39
S'GAA'
p5503
tp5504
I41
s(I29
S'TAG'
p5505
tp5506
I9
s(I37
S'AGT'
p5507
tp5508
I114
s(I24
S'ACT'
p5509
tp5510
I50
s(I52
S'AGG'
p5511
tp5512
I16
s(I17
S'TAT'
p5513
tp5514
I51
s(I54
S'TGG'
p5515
tp5516
I516
s(I34
S'CCG'
p5517
tp5518
I4
s(I64
S'AGT'
p5519
tp5520
I19917
s(I64
S'GCA'
p5521
tp5522
I10922
s(I36
S'CCT'
p5523
tp5524
I164
s(I54
S'TTT'
p5525
tp5526
I13
s(I11
S'CCT'
p5527
tp5528
I1323
s(I4
S'TGC'
p5529
tp5530
I5
s(I17
S'ATG'
p5531
tp5532
I310
s(I72
S'CCT'
p5533
tp5534
I14
s(I60
S'AAA'
p5535
tp5536
I2218
s(I57
S'CAT'
p5537
tp5538
I89
s(I3
S'CAA'
p5539
tp5540
I41
s(I8
S'CAA'
p5541
tp5542
I8
s(I60
S'TGA'
p5543
tp5544
I3
s(I41
S'ATA'
p5545
tp5546
I2
s(I64
S'GTA'
p5547
tp5548
I99
s(I13
S'ACT'
p5549
tp5550
I2
s(I6
S'GAC'
p5551
tp5552
I87
s(I23
S'ACT'
p5553
tp5554
I151
s(I2
S'ACG'
p5555
tp5556
I4
s(I39
S'AGC'
p5557
tp5558
I2
s(I38
S'GCC'
p5559
tp5560
I34
s(I24
S'AGC'
p5561
tp5562
I89
s(I12
S'TCC'
p5563
tp5564
I10
s(I65
S'TCA'
p5565
tp5566
I2
s(I30
S'ATA'
p5567
tp5568
I14
s(I54
S'ACC'
p5569
tp5570
I189
s(I3
S'CGG'
p5571
tp5572
I6
s(I41
S'TCG'
p5573
tp5574
I87
s(I21
S'TCG'
p5575
tp5576
I172
s(I38
S'GGG'
p5577
tp5578
I102
s(I49
S'CGC'
p5579
tp5580
I23
s(I25
S'GCG'
p5581
tp5582
I397
s(I37
S'TAC'
p5583
tp5584
I5
s(I28
S'AGG'
p5585
tp5586
I31
s(I49
S'GCC'
p5587
tp5588
I4493
s(I58
S'GAA'
p5589
tp5590
I430
s(I3
S'TGA'
p5591
tp5592
I23
s(I40
S'AGT'
p5593
tp5594
I40
s(I71
S'TCG'
p5595
tp5596
I5
s(I48
S'CTT'
p5597
tp5598
I49
s(I51
S'CCC'
p5599
tp5600
I671
s(I54
S'GTC'
p5601
tp5602
I23
s(I6
S'CAA'
p5603
tp5604
I256
s(I38
S'CGA'
p5605
tp5606
I68
s(I38
S'AAC'
p5607
tp5608
I228
s(I35
S'CTT'
p5609
tp5610
I453
s(I24
S'TGT'
p5611
tp5612
I57
s(I22
S'GGC'
p5613
tp5614
I2
s(I22
S'AGA'
p5615
tp5616
I63
s(I65
S'TTC'
p5617
tp5618
I160
s(I11
S'CTA'
p5619
tp5620
I25
s(I38
S'ACA'
p5621
tp5622
I428
s(I58
S'TAT'
p5623
tp5624
I276
s(I21
S'TGA'
p5625
tp5626
I3
s(I27
S'GTC'
p5627
tp5628
I21
s(I37
S'AGG'
p5629
tp5630
I276
s(I38
S'TTT'
p5631
tp5632
I529
s(I57
S'ACG'
p5633
tp5634
I46
s(I16
S'TGT'
p5635
tp5636
I502
s(I5
S'AAT'
p5637
tp5638
I1
s(I72
S'GCT'
p5639
tp5640
I1512
s(I71
S'GTT'
p5641
tp5642
I13
s(I49
S'CAC'
p5643
tp5644
I1390
s(I47
S'CGA'
p5645
tp5646
I1
s(I33
S'CCA'
p5647
tp5648
I23
s(I72
S'CAG'
p5649
tp5650
I62
s(I44
S'CGT'
p5651
tp5652
I1
s(I22
S'CGC'
p5653
tp5654
I53
s(I44
S'GAT'
p5655
tp5656
I2
s(I8
S'CCG'
p5657
tp5658
I9
s(I22
S'TAA'
p5659
tp5660
I5
s(I73
S'CTT'
p5661
tp5662
I510
s(I41
S'GAG'
p5663
tp5664
I8
s(I45
S'ACA'
p5665
tp5666
I8817
s(I47
S'TAC'
p5667
tp5668
I39
s(I9
S'GGA'
p5669
tp5670
I618
s(I30
S'GAC'
p5671
tp5672
I3
s(I3
S'TGC'
p5673
tp5674
I745
s(I43
S'GCC'
p5675
tp5676
I4
s(I6
S'CAT'
p5677
tp5678
I851
s(I65
S'AGA'
p5679
tp5680
I159
s(I55
S'TAC'
p5681
tp5682
I474
s(I3
S'TAA'
p5683
tp5684
I6
s(I19
S'GAG'
p5685
tp5686
I207
s(I59
S'TCT'
p5687
tp5688
I101
s(I31
S'TCT'
p5689
tp5690
I358
s(I57
S'TTT'
p5691
tp5692
I774
s(I31
S'ATC'
p5693
tp5694
I462
s(I51
S'TGG'
p5695
tp5696
I20
s(I13
S'TCT'
p5697
tp5698
I29
s(I8
S'TTA'
p5699
tp5700
I22
s(I9
S'AGC'
p5701
tp5702
I619
s(I18
S'ACC'
p5703
tp5704
I286
s(I32
S'GCT'
p5705
tp5706
I68
s(I16
S'TCC'
p5707
tp5708
I1011
s(I31
S'CCG'
p5709
tp5710
I10
s(I4
S'AAC'
p5711
tp5712
I1
s(I33
S'ATT'
p5713
tp5714
I72
s(I49
S'TAC'
p5715
tp5716
I67
s(I10
S'ACC'
p5717
tp5718
I4
s(I13
S'AGG'
p5719
tp5720
I455
s(I45
S'GTT'
p5721
tp5722
I5528
s(I3
S'AGA'
p5723
tp5724
I5
s(I55
S'TGC'
p5725
tp5726
I6
s(I19
S'ATT'
p5727
tp5728
I509
s(I25
S'GAT'
p5729
tp5730
I230
s(I64
S'GCT'
p5731
tp5732
I5611
s(I19
S'TAG'
p5733
tp5734
I2
s(I44
S'GTG'
p5735
tp5736
I9
s(I58
S'GGC'
p5737
tp5738
I41
s(I24
S'ATC'
p5739
tp5740
I62
s(I27
S'TAG'
p5741
tp5742
I17
s(I48
S'CAG'
p5743
tp5744
I5
s(I42
S'CTA'
p5745
tp5746
I25
s(I66
S'GGC'
p5747
tp5748
I14
s(I64
S'CGC'
p5749
tp5750
I623
s(I2
S'ACA'
p5751
tp5752
I2
s(I42
S'TGA'
p5753
tp5754
I35
s(I8
S'CAT'
p5755
tp5756
I8
s(I50
S'CAG'
p5757
tp5758
I1
s(I30
S'TTT'
p5759
tp5760
I616
s(I9
S'TGA'
p5761
tp5762
I2
s(I62
S'AGC'
p5763
tp5764
I131
s(I37
S'TGT'
p5765
tp5766
I1618
s(I21
S'GGT'
p5767
tp5768
I93
s(I12
S'ATA'
p5769
tp5770
I35
s(I36
S'ACG'
p5771
tp5772
I11015
s(I40
S'TAA'
p5773
tp5774
I3
s(I7
S'ATT'
p5775
tp5776
I198
s(I33
S'TTT'
p5777
tp5778
I42
s(I41
S'TCT'
p5779
tp5780
I105
s(I34
S'GCA'
p5781
tp5782
I13
s(I32
S'CGC'
p5783
tp5784
I82
s(I12
S'TCT'
p5785
tp5786
I6
s(I59
S'CCC'
p5787
tp5788
I1
s(I12
S'GCC'
p5789
tp5790
I2
s(I66
S'CCT'
p5791
tp5792
I1399
s(I9
S'ACA'
p5793
tp5794
I213
s(I47
S'GTG'
p5795
tp5796
I2
s(I3
S'GAG'
p5797
tp5798
I1
s(I26
S'TTG'
p5799
tp5800
I82
s(I10
S'GCG'
p5801
tp5802
I1
s(I43
S'CGT'
p5803
tp5804
I1
s(I66
S'CTC'
p5805
tp5806
I449
s(I27
S'GAG'
p5807
tp5808
I2
s(I49
S'TTC'
p5809
tp5810
I8
s(I65
S'TGA'
p5811
tp5812
I6
s(I67
S'TGA'
p5813
tp5814
I3
s(I22
S'TCC'
p5815
tp5816
I274
s(I66
S'TAT'
p5817
tp5818
I114
s(I6
S'TGC'
p5819
tp5820
I209
s(I54
S'GTT'
p5821
tp5822
I1
s(I56
S'TAG'
p5823
tp5824
I1
s(I72
S'CTG'
p5825
tp5826
I79
s(I24
S'CCC'
p5827
tp5828
I617
s(I76
S'TCG'
p5829
tp5830
I1
s(I53
S'TTG'
p5831
tp5832
I324
s(I55
S'CTC'
p5833
tp5834
I8
s(I10
S'TCG'
p5835
tp5836
I153
s(I34
S'TCT'
p5837
tp5838
I22
s(I60
S'CTA'
p5839
tp5840
I58
s(I67
S'GGG'
p5841
tp5842
I1036
s(I55
S'GGT'
p5843
tp5844
I195
s(I67
S'ATA'
p5845
tp5846
I35
s(I71
S'CGA'
p5847
tp5848
I1
s(I66
S'ATC'
p5849
tp5850
I597
s(I71
S'GCC'
p5851
tp5852
I5
s(I58
S'GTT'
p5853
tp5854
I114
s(I43
S'AGG'
p5855
tp5856
I2
s(I57
S'TGC'
p5857
tp5858
I38
s(I61
S'GGA'
p5859
tp5860
I2
s(I61
S'TCT'
p5861
tp5862
I16
s(I40
S'GGA'
p5863
tp5864
I785
s(I22
S'TGA'
p5865
tp5866
I1
s(I28
S'ACA'
p5867
tp5868
I38
s(I8
S'TGA'
p5869
tp5870
I104
s(I55
S'TGG'
p5871
tp5872
I41
s(I9
S'AAT'
p5873
tp5874
I4384
s(I44
S'CGC'
p5875
tp5876
I1
s(I31
S'CCC'
p5877
tp5878
I1
s(I67
S'GGT'
p5879
tp5880
I2347
s(I15
S'ATT'
p5881
tp5882
I761
s(I25
S'TTC'
p5883
tp5884
I1
s(I62
S'CTC'
p5885
tp5886
I580
s(I60
S'GGC'
p5887
tp5888
I20
s(I29
S'GCA'
p5889
tp5890
I175
s(I67
S'CTA'
p5891
tp5892
I211
s(I55
S'CGG'
p5893
tp5894
I193
s(I11
S'AAT'
p5895
tp5896
I581
s(I43
S'GTT'
p5897
tp5898
I672
s(I16
S'GGA'
p5899
tp5900
I374
s(I52
S'ACG'
p5901
tp5902
I72
s(I31
S'TCA'
p5903
tp5904
I40
s(I8
S'TTT'
p5905
tp5906
I1
s(I42
S'AAA'
p5907
tp5908
I13
s(I54
S'TCG'
p5909
tp5910
I2
s(I58
S'AAC'
p5911
tp5912
I52
s(I12
S'TTA'
p5913
tp5914
I6
s(I56
S'TGA'
p5915
tp5916
I1
s(I18
S'TTT'
p5917
tp5918
I677
s(I48
S'CCC'
p5919
tp5920
I2
s(I38
S'GCG'
p5921
tp5922
I385
s(I40
S'CTA'
p5923
tp5924
I2311
s(I6
S'TCG'
p5925
tp5926
I603
s(I59
S'GCG'
p5927
tp5928
I1353
s(I72
S'TAT'
p5929
tp5930
I7
s(I15
S'CAG'
p5931
tp5932
I1
s(I23
S'CGG'
p5933
tp5934
I8
s(I20
S'GAC'
p5935
tp5936
I15
s(I61
S'AAG'
p5937
tp5938
I1
s(I42
S'ACT'
p5939
tp5940
I26
s(I55
S'TAT'
p5941
tp5942
I120
s(I42
S'TCC'
p5943
tp5944
I5
s(I30
S'GGG'
p5945
tp5946
I2
s(I17
S'AAT'
p5947
tp5948
I478
s(I10
S'AAG'
p5949
tp5950
I121
s(I6
S'TGA'
p5951
tp5952
I30
s(I26
S'GCT'
p5953
tp5954
I10
s(I25
S'GAA'
p5955
tp5956
I303
s(I62
S'GCA'
p5957
tp5958
I1050
s(I20
S'TTA'
p5959
tp5960
I229
s(I51
S'TTA'
p5961
tp5962
I342
s(I22
S'CCG'
p5963
tp5964
I66
s(I57
S'AAC'
p5965
tp5966
I67
s(I32
S'GGG'
p5967
tp5968
I1
s(I27
S'AAT'
p5969
tp5970
I33
s(I9
S'GAA'
p5971
tp5972
I1
s(I40
S'ATT'
p5973
tp5974
I14
s(I69
S'AGC'
p5975
tp5976
I1888
s(I22
S'AAC'
p5977
tp5978
I302
s(I19
S'ACC'
p5979
tp5980
I322
s(I31
S'GCT'
p5981
tp5982
I272
s(I23
S'TGC'
p5983
tp5984
I25
s(I13
S'CTA'
p5985
tp5986
I282
s(I27
S'GCT'
p5987
tp5988
I119
s(I18
S'CTC'
p5989
tp5990
I813
s(I31
S'CGT'
p5991
tp5992
I4
s(I41
S'CCC'
p5993
tp5994
I1
s(I46
S'ATC'
p5995
tp5996
I3977
s(I75
S'TAC'
p5997
tp5998
I8
s(I53
S'CAG'
p5999
tp6000
I83
s(I72
S'TGG'
p6001
tp6002
I60
s(I13
S'GAC'
p6003
tp6004
I22
s(I60
S'GTC'
p6005
tp6006
I644
s(I41
S'GGT'
p6007
tp6008
I297
s(I71
S'AAA'
p6009
tp6010
I3
s(I17
S'GCT'
p6011
tp6012
I72
s(I8
S'TAG'
p6013
tp6014
I2
s(I20
S'GCG'
p6015
tp6016
I386
s(I36
S'TGG'
p6017
tp6018
I10
s(I68
S'TCA'
p6019
tp6020
I1483
s(I66
S'TTA'
p6021
tp6022
I1318
s(I37
S'TTA'
p6023
tp6024
I100
s(I4
S'CCA'
p6025
tp6026
I3
s(I54
S'GAG'
p6027
tp6028
I436
s(I65
S'CCG'
p6029
tp6030
I580
s(I76
S'CCC'
p6031
tp6032
I1
s(I14
S'TCG'
p6033
tp6034
I50
s(I38
S'GGC'
p6035
tp6036
I103
s(I14
S'CAC'
p6037
tp6038
I23
s(I11
S'GGC'
p6039
tp6040
I1360
s(I42
S'AGC'
p6041
tp6042
I2
s(I63
S'AGC'
p6043
tp6044
I110
s(I48
S'TTA'
p6045
tp6046
I14
s(I38
S'GAG'
p6047
tp6048
I120
s(I67
S'TGT'
p6049
tp6050
I135
s(I13
S'GGA'
p6051
tp6052
I4
s(I51
S'CTG'
p6053
tp6054
I962
s(I69
S'CCC'
p6055
tp6056
I7
s(I2
S'TCC'
p6057
tp6058
I8
s(I60
S'GAA'
p6059
tp6060
I64
s(I25
S'TCA'
p6061
tp6062
I27
s(I42
S'GTC'
p6063
tp6064
I8
s(I48
S'AAC'
p6065
tp6066
I6
s(I19
S'AGT'
p6067
tp6068
I377
s(I15
S'CCA'
p6069
tp6070
I12
s(I40
S'GGT'
p6071
tp6072
I1882
s(I51
S'ACA'
p6073
tp6074
I55
s(I75
S'ATG'
p6075
tp6076
I4
s(I25
S'AAG'
p6077
tp6078
I37
s(I72
S'GAT'
p6079
tp6080
I9
s(I9
S'GTG'
p6081
tp6082
I274
s(I63
S'CCA'
p6083
tp6084
I423
s(I27
S'CCG'
p6085
tp6086
I1
s(I27
S'CGG'
p6087
tp6088
I271
s(I45
S'AGA'
p6089
tp6090
I143
s(I19
S'CAA'
p6091
tp6092
I316
s(I24
S'CAA'
p6093
tp6094
I29
s(I75
S'GGC'
p6095
tp6096
I14
s(I25
S'GTG'
p6097
tp6098
I43
s(I39
S'ACG'
p6099
tp6100
I67
s(I37
S'TTT'
p6101
tp6102
I525
s(I48
S'AGA'
p6103
tp6104
I14
s(I9
S'AAA'
p6105
tp6106
I2
s(I42
S'TTA'
p6107
tp6108
I6
s(I2
S'TAG'
p6109
tp6110
I23
s(I29
S'GAT'
p6111
tp6112
I4
s(I25
S'GGC'
p6113
tp6114
I41
s(I51
S'GCT'
p6115
tp6116
I1
s(I19
S'CGA'
p6117
tp6118
I1098
s(I45
S'ATG'
p6119
tp6120
I4730
s(I35
S'TAA'
p6121
tp6122
I11
s(I11
S'TAA'
p6123
tp6124
I4
s(I35
S'ACC'
p6125
tp6126
I305
s(I30
S'ACT'
p6127
tp6128
I3
s(I58
S'CCA'
p6129
tp6130
I4
s(I42
S'GAC'
p6131
tp6132
I20
s(I47
S'TTG'
p6133
tp6134
I19
s(I71
S'AGT'
p6135
tp6136
I5
s(I5
S'TAA'
p6137
tp6138
I1
s(I16
S'TGA'
p6139
tp6140
I4
s(I45
S'CCC'
p6141
tp6142
I2
s(I14
S'GGA'
p6143
tp6144
I179
s(I48
S'TTG'
p6145
tp6146
I11
s(I22
S'GTT'
p6147
tp6148
I58
s(I68
S'GTA'
p6149
tp6150
I97
s(I43
S'CTG'
p6151
tp6152
I19
s(I2
S'TGC'
p6153
tp6154
I2
s(I55
S'TCG'
p6155
tp6156
I422
s(I6
S'CGC'
p6157
tp6158
I36
s(I60
S'TCC'
p6159
tp6160
I959
s(I8
S'GAA'
p6161
tp6162
I3
s(I44
S'TTT'
p6163
tp6164
I29
s(I12
S'TGC'
p6165
tp6166
I27
s(I68
S'TTC'
p6167
tp6168
I12
s(I42
S'ACC'
p6169
tp6170
I2
s(I3
S'CCG'
p6171
tp6172
I31
s(I26
S'ACA'
p6173
tp6174
I68
s(I61
S'CTC'
p6175
tp6176
I466
s(I17
S'AAA'
p6177
tp6178
I2
s(I64
S'CCA'
p6179
tp6180
I10
s(I29
S'GAC'
p6181
tp6182
I3
s(I38
S'ATT'
p6183
tp6184
I90
s(I69
S'ATC'
p6185
tp6186
I8
s(I42
S'CGC'
p6187
tp6188
I428
s(I46
S'CTT'
p6189
tp6190
I89
s(I69
S'AGA'
p6191
tp6192
I19
s(I26
S'GTC'
p6193
tp6194
I12
s(I52
S'GAT'
p6195
tp6196
I424
s(I46
S'AAG'
p6197
tp6198
I117
s(I7
S'CCC'
p6199
tp6200
I20
s(I40
S'ATA'
p6201
tp6202
I64
s(I55
S'ATG'
p6203
tp6204
I393
s(I19
S'ACT'
p6205
tp6206
I132
s(I60
S'AGT'
p6207
tp6208
I176
s(I31
S'GCA'
p6209
tp6210
I455
s(I65
S'ATG'
p6211
tp6212
I554
s(I13
S'CTT'
p6213
tp6214
I169
s(I25
S'TAC'
p6215
tp6216
I86
s(I53
S'CGG'
p6217
tp6218
I1
s(I18
S'CTT'
p6219
tp6220
I745
s(I68
S'ACG'
p6221
tp6222
I804
s(I17
S'GAT'
p6223
tp6224
I4
s(I76
S'AGA'
p6225
tp6226
I3
s(I29
S'CGA'
p6227
tp6228
I261
s(I14
S'CCC'
p6229
tp6230
I4
s(I62
S'TAC'
p6231
tp6232
I239
s(I40
S'TTG'
p6233
tp6234
I1834
s(I17
S'GAA'
p6235
tp6236
I18
s(I31
S'ACC'
p6237
tp6238
I18
s(I56
S'GAG'
p6239
tp6240
I1
s(I39
S'ATT'
p6241
tp6242
I7
s(I62
S'CCC'
p6243
tp6244
I491
s(I42
S'GCA'
p6245
tp6246
I2651
s(I33
S'TAT'
p6247
tp6248
I69
s(I32
S'AGT'
p6249
tp6250
I143
s(I59
S'GTA'
p6251
tp6252
I18
s(I4
S'CCT'
p6253
tp6254
I1
s(I15
S'CTC'
p6255
tp6256
I644
s(I70
S'GAC'
p6257
tp6258
I9
s(I44
S'TTC'
p6259
tp6260
I151
s(I45
S'GCG'
p6261
tp6262
I1796
s(I20
S'TAA'
p6263
tp6264
I24
s(I54
S'CCT'
p6265
tp6266
I743
s(I48
S'GCA'
p6267
tp6268
I8
s(I67
S'TTG'
p6269
tp6270
I96
s(I14
S'AGA'
p6271
tp6272
I8
s(I56
S'CTT'
p6273
tp6274
I66
s(I27
S'GGC'
p6275
tp6276
I3
s(I33
S'ACA'
p6277
tp6278
I25
s(I69
S'CCT'
p6279
tp6280
I1
s(I55
S'CGT'
p6281
tp6282
I353
s(I57
S'CCC'
p6283
tp6284
I56
s(I8
S'AAG'
p6285
tp6286
I56
s(I74
S'GCC'
p6287
tp6288
I18
s(I50
S'TTT'
p6289
tp6290
I2
s(I61
S'GTT'
p6291
tp6292
I280
s(I28
S'ACC'
p6293
tp6294
I109
s(I71
S'TTC'
p6295
tp6296
I96
s(I35
S'GAT'
p6297
tp6298
I131
s(I75
S'GCA'
p6299
tp6300
I1
s(I13
S'CAG'
p6301
tp6302
I69
s(I66
S'GCA'
p6303
tp6304
I54
s(I18
S'CAG'
p6305
tp6306
I199
s(I15
S'ATG'
p6307
tp6308
I243
s(I36
S'CAC'
p6309
tp6310
I15
s(I52
S'ATT'
p6311
tp6312
I310
s(I41
S'CAC'
p6313
tp6314
I103
s(I18
S'GAT'
p6315
tp6316
I37
s(I53
S'CTG'
p6317
tp6318
I108
s(I28
S'TAA'
p6319
tp6320
I28
s(I58
S'CTA'
p6321
tp6322
I3
s(I22
S'GCC'
p6323
tp6324
I1497
s(I45
S'AAG'
p6325
tp6326
I407
s(I49
S'GCT'
p6327
tp6328
I6152
s(I7
S'GCG'
p6329
tp6330
I294
s(I5
S'TAG'
p6331
tp6332
I8
s(I6
S'GAT'
p6333
tp6334
I191
s(I46
S'CAT'
p6335
tp6336
I4649
s(I14
S'GTG'
p6337
tp6338
I3
s(I8
S'GCG'
p6339
tp6340
I2
s(I12
S'ACT'
p6341
tp6342
I42
s(I44
S'CGA'
p6343
tp6344
I1
s(I41
S'AAC'
p6345
tp6346
I146
s(I22
S'GTC'
p6347
tp6348
I1267
s(I52
S'CTC'
p6349
tp6350
I16
s(I76
S'GGA'
p6351
tp6352
I1
s(I16
S'CGC'
p6353
tp6354
I190
s(I31
S'GGG'
p6355
tp6356
I222
s(I52
S'GTT'
p6357
tp6358
I101
s(I34
S'CCA'
p6359
tp6360
I1
s(I51
S'GTG'
p6361
tp6362
I102
s(I11
S'GCA'
p6363
tp6364
I4827
s(I4
S'TGG'
p6365
tp6366
I16
s(I6
S'ACA'
p6367
tp6368
I133
s(I64
S'ATC'
p6369
tp6370
I3409
s(I47
S'CCT'
p6371
tp6372
I2
s(I40
S'GCG'
p6373
tp6374
I1
s(I65
S'ACC'
p6375
tp6376
I120
s(I38
S'CCT'
p6377
tp6378
I199
s(I5
S'AGG'
p6379
tp6380
I3
s(I65
S'GCC'
p6381
tp6382
I67
s(I40
S'CCT'
p6383
tp6384
I13
s(I33
S'GAT'
p6385
tp6386
I4
s(I76
S'CGG'
p6387
tp6388
I4
s(I41
S'GTT'
p6389
tp6390
I79
s(I32
S'TGT'
p6391
tp6392
I581
s(I55
S'AGG'
p6393
tp6394
I109
s(I17
S'GGT'
p6395
tp6396
I601
s(I7
S'GGG'
p6397
tp6398
I4673
s(I63
S'AAC'
p6399
tp6400
I407
s(I18
S'CAT'
p6401
tp6402
I110
s(I17
S'CAC'
p6403
tp6404
I1219
s(I25
S'CGG'
p6405
tp6406
I101
s(I69
S'AGG'
p6407
tp6408
I3
s(I40
S'GTG'
p6409
tp6410
I4
s(I40
S'CAG'
p6411
tp6412
I19
s(I65
S'GTA'
p6413
tp6414
I42
s(I72
S'AAA'
p6415
tp6416
I1219
s(I35
S'TTC'
p6417
tp6418
I3
s(I24
S'CTG'
p6419
tp6420
I239
s(I20
S'CTA'
p6421
tp6422
I226
s(I13
S'ACA'
p6423
tp6424
I22
s(I37
S'ATC'
p6425
tp6426
I101
s(I3
S'GGC'
p6427
tp6428
I2
s(I75
S'GTC'
p6429
tp6430
I1
s(I6
S'GGT'
p6431
tp6432
I4999
s(I63
S'ATC'
p6433
tp6434
I16
s(I33
S'AGA'
p6435
tp6436
I1
s(I70
S'GCA'
p6437
tp6438
I19
s(I42
S'ATT'
p6439
tp6440
I1
s(I67
S'TCA'
p6441
tp6442
I409
s(I14
S'AGT'
p6443
tp6444
I86
s(I27
S'AAC'
p6445
tp6446
I3
s(I44
S'AAG'
p6447
tp6448
I9
s(I32
S'ACG'
p6449
tp6450
I95
s(I16
S'ATC'
p6451
tp6452
I17
s(I27
S'GCC'
p6453
tp6454
I44
s(I13
S'GCT'
p6455
tp6456
I17
s(I3
S'GAC'
p6457
tp6458
I1
s(I23
S'TCT'
p6459
tp6460
I10
s(I54
S'GGC'
p6461
tp6462
I362
s(I71
S'CAC'
p6463
tp6464
I1
s(I24
S'CGT'
p6465
tp6466
I38
s(I43
S'CAA'
p6467
tp6468
I15
s(I13
S'GTT'
p6469
tp6470
I293
s(I25
S'ATG'
p6471
tp6472
I130
s(I58
S'TAA'
p6473
tp6474
I28
s(I68
S'AAA'
p6475
tp6476
I2
s(I29
S'AAT'
p6477
tp6478
I169
s(I50
S'GTA'
p6479
tp6480
I181
s(I66
S'TAA'
p6481
tp6482
I15
s(I25
S'TGA'
p6483
tp6484
I7
s(I30
S'TAC'
p6485
tp6486
I382
s(I72
S'TCT'
p6487
tp6488
I374
s(I5
S'CTG'
p6489
tp6490
I132
s(I29
S'GGC'
p6491
tp6492
I809
s(I44
S'AAA'
p6493
tp6494
I5
s(I40
S'GAC'
p6495
tp6496
I1171
s(I73
S'TTC'
p6497
tp6498
I4
s(I2
S'ATC'
p6499
tp6500
I1
s(I66
S'GTA'
p6501
tp6502
I265
s(I18
S'ATA'
p6503
tp6504
I610
s(I7
S'CGG'
p6505
tp6506
I1
s(I53
S'TAT'
p6507
tp6508
I18
s(I34
S'ATT'
p6509
tp6510
I18
s(I33
S'AAT'
p6511
tp6512
I14
s(I16
S'GGG'
p6513
tp6514
I70
s(I26
S'TAA'
p6515
tp6516
I12
s(I61
S'GCC'
p6517
tp6518
I13
s(I38
S'ACT'
p6519
tp6520
I106
s(I4
S'GGC'
p6521
tp6522
I1
s(I31
S'GTC'
p6523
tp6524
I59
s(I4
S'TAC'
p6525
tp6526
I84
s(I34
S'CCT'
p6527
tp6528
I1
s(I38
S'TGT'
p6529
tp6530
I243
s(I24
S'AAC'
p6531
tp6532
I103
s(I50
S'ATC'
p6533
tp6534
I615
s(I47
S'GCT'
p6535
tp6536
I36
s(I29
S'CTA'
p6537
tp6538
I358
s(I72
S'ATA'
p6539
tp6540
I24
s(I7
S'GTG'
p6541
tp6542
I32
s(I34
S'CTC'
p6543
tp6544
I13
s(I23
S'GTC'
p6545
tp6546
I166
s(I11
S'CCG'
p6547
tp6548
I2529
s(I72
S'CGA'
p6549
tp6550
I222
s(I72
S'CCA'
p6551
tp6552
I26
s(I21
S'GCG'
p6553
tp6554
I459
s(I48
S'CGG'
p6555
tp6556
I34
s(I48
S'GTA'
p6557
tp6558
I10
s(I62
S'ATG'
p6559
tp6560
I1934
s(I51
S'CGC'
p6561
tp6562
I21
s(I67
S'CCA'
p6563
tp6564
I1
s(I62
S'TAT'
p6565
tp6566
I964
s(I63
S'ACG'
p6567
tp6568
I9
s(I67
S'TAC'
p6569
tp6570
I17
s(I70
S'TAT'
p6571
tp6572
I1
s(I23
S'GCC'
p6573
tp6574
I1
s(I37
S'TCC'
p6575
tp6576
I150
s(I11
S'TTA'
p6577
tp6578
I145
s(I23
S'ACC'
p6579
tp6580
I49
s(I65
S'GCT'
p6581
tp6582
I1531
s(I57
S'GGG'
p6583
tp6584
I301
s(I34
S'GGA'
p6585
tp6586
I351
s(I55
S'GCC'
p6587
tp6588
I55
s(I70
S'CCC'
p6589
tp6590
I3
s(I54
S'TGA'
p6591
tp6592
I8
s(I20
S'ATA'
p6593
tp6594
I57
s(I23
S'TCA'
p6595
tp6596
I28
s(I65
S'GTT'
p6597
tp6598
I1226
s(I30
S'TGA'
p6599
tp6600
I15
s(I5
S'GAT'
p6601
tp6602
I6
s(I43
S'AAG'
p6603
tp6604
I1
s(I39
S'GGT'
p6605
tp6606
I2
s(I30
S'CTC'
p6607
tp6608
I30
s(I35
S'CTA'
p6609
tp6610
I615
s(I10
S'TAA'
p6611
tp6612
I1
s(I31
S'GAG'
p6613
tp6614
I892
s(I18
S'TAA'
p6615
tp6616
I6
s(I37
S'ACT'
p6617
tp6618
I408
s(I34
S'TCA'
p6619
tp6620
I28
s(I13
S'GCA'
p6621
tp6622
I226
s(I46
S'TGC'
p6623
tp6624
I4898
s(I27
S'TGG'
p6625
tp6626
I3
s(I15
S'GAG'
p6627
tp6628
I14
s(I55
S'TAG'
p6629
tp6630
I2
s(I56
S'TGC'
p6631
tp6632
I167
s(I53
S'ATG'
p6633
tp6634
I152
s(I47
S'TTT'
p6635
tp6636
I5
s(I7
S'TCT'
p6637
tp6638
I740
s(I76
S'TGT'
p6639
tp6640
I5
s(I3
S'CGA'
p6641
tp6642
I3
s(I74
S'CGG'
p6643
tp6644
I169
s(I10
S'ACT'
p6645
tp6646
I5
s(I24
S'GCA'
p6647
tp6648
I70
s(I61
S'AAA'
p6649
tp6650
I33
s(I68
S'GCG'
p6651
tp6652
I59
s(I39
S'TGT'
p6653
tp6654
I15
s(I75
S'CAA'
p6655
tp6656
I26
s(I32
S'GTG'
p6657
tp6658
I148
s(I34
S'TAC'
p6659
tp6660
I7
s(I28
S'TCC'
p6661
tp6662
I138
s(I41
S'GAA'
p6663
tp6664
I4
s(I57
S'GTA'
p6665
tp6666
I313
s(I39
S'CGC'
p6667
tp6668
I4
s(I16
S'GAG'
p6669
tp6670
I339
s(I58
S'TCC'
p6671
tp6672
I145
s(I44
S'CCC'
p6673
tp6674
I1
s(I44
S'TAA'
p6675
tp6676
I9
s(I75
S'CCC'
p6677
tp6678
I62
s(I74
S'AGT'
p6679
tp6680
I3
s(I55
S'TCT'
p6681
tp6682
I144
s(I70
S'CTT'
p6683
tp6684
I106
s(I34
S'CGC'
p6685
tp6686
I6
s(I75
S'CTT'
p6687
tp6688
I4
s(I57
S'GCA'
p6689
tp6690
I388
s(I54
S'ATT'
p6691
tp6692
I53
s(I33
S'ATA'
p6693
tp6694
I4
s(I57
S'ACA'
p6695
tp6696
I76
s(I6
S'AAT'
p6697
tp6698
I2143
s(I2
S'GAC'
p6699
tp6700
I1
s(I65
S'CTG'
p6701
tp6702
I67
s(I62
S'GTA'
p6703
tp6704
I883
s(I28
S'AGC'
p6705
tp6706
I43
s(I15
S'ACT'
p6707
tp6708
I10
s(I15
S'TCG'
p6709
tp6710
I243
s(I33
S'CCG'
p6711
tp6712
I15
s(I46
S'AAA'
p6713
tp6714
I66
s(I31
S'AGC'
p6715
tp6716
I266
s(I49
S'TGG'
p6717
tp6718
I6
s(I15
S'CGT'
p6719
tp6720
I172
s(I22
S'ATA'
p6721
tp6722
I174
s(I46
S'ACC'
p6723
tp6724
I5103
s(I7
S'GAC'
p6725
tp6726
I38
s(I9
S'GGG'
p6727
tp6728
I435
s(I57
S'AGA'
p6729
tp6730
I14
s(I5
S'TTG'
p6731
tp6732
I135
s(I34
S'CGA'
p6733
tp6734
I4
s(I73
S'AGG'
p6735
tp6736
I1
s(I15
S'TGC'
p6737
tp6738
I34
s(I52
S'ACT'
p6739
tp6740
I147
s(I5
S'CTC'
p6741
tp6742
I519
s(I35
S'CAT'
p6743
tp6744
I216
s(I49
S'GGA'
p6745
tp6746
I966
s(I37
S'TGA'
p6747
tp6748
I4
s(I20
S'GTG'
p6749
tp6750
I411
s(I9
S'TGC'
p6751
tp6752
I6765
s(I53
S'GAT'
p6753
tp6754
I9
s(I62
S'GGC'
p6755
tp6756
I709
s(I8
S'AGT'
p6757
tp6758
I3
s(I31
S'CCA'
p6759
tp6760
I4
s(I51
S'TTC'
p6761
tp6762
I117
s(I63
S'GCG'
p6763
tp6764
I117
s(I19
S'CCT'
p6765
tp6766
I52
s(I53
S'ACC'
p6767
tp6768
I176
s(I13
S'AGA'
p6769
tp6770
I107
s(I68
S'ATG'
p6771
tp6772
I14
s(I63
S'CAT'
p6773
tp6774
I411
s(I9
S'ACT'
p6775
tp6776
I262
s(I3
S'AGG'
p6777
tp6778
I1
s(I63
S'GGC'
p6779
tp6780
I13
s(I23
S'ATT'
p6781
tp6782
I38
s(I64
S'CAG'
p6783
tp6784
I10
s(I23
S'GGT'
p6785
tp6786
I2
s(I12
S'CTC'
p6787
tp6788
I20
s(I24
S'TAT'
p6789
tp6790
I107
s(I63
S'CGG'
p6791
tp6792
I146
s(I49
S'ACG'
p6793
tp6794
I247
s(I48
S'AGC'
p6795
tp6796
I11
s(I33
S'GCC'
p6797
tp6798
I16
s(I33
S'GAG'
p6799
tp6800
I49
s(I8
S'TAT'
p6801
tp6802
I5
s(I37
S'CTT'
p6803
tp6804
I374
s(I62
S'CGG'
p6805
tp6806
I457
s(I7
S'AGC'
p6807
tp6808
I84
s(I57
S'CAC'
p6809
tp6810
I68
s(I3
S'CGT'
p6811
tp6812
I2
s(I75
S'CTA'
p6813
tp6814
I2
s(I68
S'AGA'
p6815
tp6816
I44
s(I74
S'GAA'
p6817
tp6818
I40
s(I51
S'CGG'
p6819
tp6820
I1
s(I42
S'CTT'
p6821
tp6822
I13
s(I13
S'CCC'
p6823
tp6824
I1
s(I60
S'AAT'
p6825
tp6826
I5
s(I57
S'GTG'
p6827
tp6828
I349
s(I9
S'GCG'
p6829
tp6830
I700
s(I74
S'CGT'
p6831
tp6832
I151
s(I68
S'TGT'
p6833
tp6834
I163
s(I57
S'CGC'
p6835
tp6836
I14
s(I20
S'TTT'
p6837
tp6838
I348
s(I34
S'GCG'
p6839
tp6840
I11
s(I35
S'TGA'
p6841
tp6842
I8
s(I24
S'AGT'
p6843
tp6844
I97
s(I52
S'GTA'
p6845
tp6846
I9
s(I20
S'CCC'
p6847
tp6848
I617
s(I59
S'AAC'
p6849
tp6850
I583
s(I61
S'GGT'
p6851
tp6852
I3
s(I18
S'TCC'
p6853
tp6854
I52
s(I16
S'TAT'
p6855
tp6856
I2
s(I27
S'GTT'
p6857
tp6858
I42
s(I22
S'TGT'
p6859
tp6860
I34
s(I21
S'TGT'
p6861
tp6862
I108
s(I52
S'GGG'
p6863
tp6864
I9
s(I76
S'CTC'
p6865
tp6866
I13
s(I15
S'AAT'
p6867
tp6868
I2
s(I24
S'GCT'
p6869
tp6870
I75
s(I46
S'CGA'
p6871
tp6872
I984
s(I32
S'CCA'
p6873
tp6874
I33
s(I39
S'CAT'
p6875
tp6876
I275
s(I23
S'CTA'
p6877
tp6878
I218
s(I45
S'GAC'
p6879
tp6880
I1
s(I60
S'GGT'
p6881
tp6882
I63
s(I29
S'ACC'
p6883
tp6884
I275
s(I52
S'TGA'
p6885
tp6886
I35
s(I68
S'GCC'
p6887
tp6888
I166
s(I5
S'CAG'
p6889
tp6890
I3
s(I24
S'TGG'
p6891
tp6892
I24
s(I10
S'CAG'
p6893
tp6894
I52
s(I28
S'CAC'
p6895
tp6896
I7
s(I10
S'TCA'
p6897
tp6898
I79
s(I33
S'CAC'
p6899
tp6900
I11
s(I33
S'TCG'
p6901
tp6902
I36
s(I58
S'CGT'
p6903
tp6904
I167
s(I13
S'TTT'
p6905
tp6906
I5
s(I32
S'TAC'
p6907
tp6908
I119
s(I18
S'TTA'
p6909
tp6910
I1269
s(I64
S'TCG'
p6911
tp6912
I7842
s(I48
S'ATA'
p6913
tp6914
I3
s(I67
S'AAC'
p6915
tp6916
I95
s(I30
S'CCC'
p6917
tp6918
I1
s(I24
S'GGC'
p6919
tp6920
I85
s(I56
S'GTT'
p6921
tp6922
I227
s(I5
S'AAG'
p6923
tp6924
I1
s(I39
S'TAC'
p6925
tp6926
I10
s(I31
S'AAC'
p6927
tp6928
I142
s(I28
S'ACG'
p6929
tp6930
I138
s(I69
S'CGC'
p6931
tp6932
I2
s(I38
S'AGG'
p6933
tp6934
I163
s(I10
S'AAT'
p6935
tp6936
I23
s(I26
S'GCA'
p6937
tp6938
I4
s(I45
S'TTA'
p6939
tp6940
I6670
s(I46
S'TTC'
p6941
tp6942
I27748
s(I18
S'CCG'
p6943
tp6944
I553
s(I8
S'CCT'
p6945
tp6946
I8
s(I64
S'TGT'
p6947
tp6948
I1802
s(I22
S'CCT'
p6949
tp6950
I1355
s(I3
S'TGT'
p6951
tp6952
I287
s(I67
S'GTG'
p6953
tp6954
I41
s(I69
S'GTA'
p6955
tp6956
I15
s(I69
S'CAG'
p6957
tp6958
I24
s(I29
S'GCG'
p6959
tp6960
I201
s(I61
S'CCA'
p6961
tp6962
I45
s(I37
S'CGC'
p6963
tp6964
I196
s(I34
S'TTG'
p6965
tp6966
I22
s(I10
S'TTC'
p6967
tp6968
I1
s(I57
S'TTC'
p6969
tp6970
I294
s(I29
S'AGG'
p6971
tp6972
I346
s(I67
S'GAT'
p6973
tp6974
I1
s(I47
S'ACT'
p6975
tp6976
I251
s(I47
S'AGG'
p6977
tp6978
I3
s(I74
S'GGT'
p6979
tp6980
I2
s(I4
S'CAC'
p6981
tp6982
I28
s(I63
S'TCA'
p6983
tp6984
I371
s(I68
S'TAT'
p6985
tp6986
I2
s(I53
S'AGA'
p6987
tp6988
I3
s(I26
S'CTA'
p6989
tp6990
I397
s(I19
S'CCA'
p6991
tp6992
I61
s(I57
S'GCG'
p6993
tp6994
I188
s(I16
S'GAT'
p6995
tp6996
I122
s(I22
S'CTT'
p6997
tp6998
I260
s(I25
S'AGA'
p6999
tp7000
I106
s(I74
S'CAA'
p7001
tp7002
I5
s(I74
S'TCC'
p7003
tp7004
I14
s(I24
S'TAA'
p7005
tp7006
I4
s(I4
S'GCG'
p7007
tp7008
I7
s(I70
S'GGG'
p7009
tp7010
I2
s(I22
S'TTC'
p7011
tp7012
I362
s(I30
S'GCG'
p7013
tp7014
I47
s(I71
S'TAG'
p7015
tp7016
I7
s(I31
S'TGA'
p7017
tp7018
I7
s(I8
S'GAT'
p7019
tp7020
I4
s(I6
S'TCC'
p7021
tp7022
I893
s(I23
S'CGC'
p7023
tp7024
I1
s(I52
S'TAA'
p7025
tp7026
I3
s(I19
S'AGC'
p7027
tp7028
I278
s(I29
S'GTC'
p7029
tp7030
I230
s(I15
S'CCT'
p7031
tp7032
I5
s(I35
S'GTG'
p7033
tp7034
I24
s(I35
S'CAA'
p7035
tp7036
I264
s(I21
S'GGG'
p7037
tp7038
I488
s(I10
S'TTG'
p7039
tp7040
I15
s(I57
S'CGT'
p7041
tp7042
I552
s(I33
S'TTC'
p7043
tp7044
I13
s(I11
S'TGC'
p7045
tp7046
I113
s(I70
S'CGA'
p7047
tp7048
I1
s(I9
S'GTT'
p7049
tp7050
I574
s(I64
S'TAA'
p7051
tp7052
I6
s(I34
S'ACA'
p7053
tp7054
I95
s(I69
S'AAA'
p7055
tp7056
I26
s(I45
S'AGT'
p7057
tp7058
I6391
s(I50
S'AGT'
p7059
tp7060
I24
s(I44
S'ACG'
p7061
tp7062
I610
s(I39
S'TCA'
p7063
tp7064
I52
s(I71
S'ATG'
p7065
tp7066
I2911
s(I21
S'TGC'
p7067
tp7068
I83
s(I37
S'TTG'
p7069
tp7070
I237
s(I50
S'GTT'
p7071
tp7072
I1269
s(I46
S'CGT'
p7073
tp7074
I153
s(I63
S'GAC'
p7075
tp7076
I277
s(I25
S'CCG'
p7077
tp7078
I2
s(I43
S'CGC'
p7079
tp7080
I1
s(I11
S'ATG'
p7081
tp7082
I217
s(I51
S'GCG'
p7083
tp7084
I149
s(I70
S'TTG'
p7085
tp7086
I33
s(I46
S'TCG'
p7087
tp7088
I1259
s(I45
S'CAA'
p7089
tp7090
I22836
s(I76
S'GCG'
p7091
tp7092
I5
s(I19
S'AAC'
p7093
tp7094
I393
s(I8
S'CTC'
p7095
tp7096
I173
s(I56
S'TCA'
p7097
tp7098
I71
s(I37
S'CCG'
p7099
tp7100
I123
s(I50
S'GCT'
p7101
tp7102
I26
s(I54
S'CGC'
p7103
tp7104
I369
s(I54
S'GCA'
p7105
tp7106
I109
s(I55
S'TTT'
p7107
tp7108
I94
s(I11
S'CGC'
p7109
tp7110
I15
s(I49
S'AAC'
p7111
tp7112
I1502
s(I67
S'GCG'
p7113
tp7114
I3620
s(I51
S'TGT'
p7115
tp7116
I49
s(I39
S'GTC'
p7117
tp7118
I16
s(I66
S'AGG'
p7119
tp7120
I1
s(I74
S'AAC'
p7121
tp7122
I7
s(I6
S'TCA'
p7123
tp7124
I1671
s(I20
S'GAA'
p7125
tp7126
I440
s(I11
S'ACC'
p7127
tp7128
I93
s(I52
S'CGC'
p7129
tp7130
I26
s(I72
S'CAC'
p7131
tp7132
I3794
s(I62
S'TCC'
p7133
tp7134
I725
s(I27
S'CGA'
p7135
tp7136
I1
s(I46
S'CTC'
p7137
tp7138
I175
s(I51
S'CTA'
p7139
tp7140
I547
s(I37
S'AAA'
p7141
tp7142
I271
s(I49
S'GTG'
p7143
tp7144
I7
s(I17
S'TCC'
p7145
tp7146
I70
s(I70
S'GTA'
p7147
tp7148
I102
s(I69
S'ATT'
p7149
tp7150
I40
s(I76
S'CAC'
p7151
tp7152
I7
s(I20
S'CGC'
p7153
tp7154
I896
s(I4
S'AGT'
p7155
tp7156
I8
s(I2
S'GGC'
p7157
tp7158
I3
s(I59
S'ACG'
p7159
tp7160
I6
s(I63
S'GAG'
p7161
tp7162
I57
s(I19
S'CTA'
p7163
tp7164
I697
s(I48
S'GGG'
p7165
tp7166
I2
s(I33
S'ATG'
p7167
tp7168
I109
s(I35
S'TCA'
p7169
tp7170
I124
s(I73
S'CCG'
p7171
tp7172
I6
s(I20
S'TAC'
p7173
tp7174
I10
s(I6
S'TTG'
p7175
tp7176
I17
s(I15
S'ATA'
p7177
tp7178
I727
s(I54
S'AGC'
p7179
tp7180
I2468
s(I28
S'TAC'
p7181
tp7182
I71
s(I14
S'GGG'
p7183
tp7184
I32
s(I11
S'CAG'
p7185
tp7186
I283
s(I46
S'GAG'
p7187
tp7188
I2180
s(I38
S'ATA'
p7189
tp7190
I191
s(I35
S'TTA'
p7191
tp7192
I382
s(I3
S'TGG'
p7193
tp7194
I11
s(I7
S'ACA'
p7195
tp7196
I253
s(I4
S'GGG'
p7197
tp7198
I1
s(I21
S'GAA'
p7199
tp7200
I575
s(I32
S'AGA'
p7201
tp7202
I138
s(I43
S'ACA'
p7203
tp7204
I11
s(I15
S'CTT'
p7205
tp7206
I55
s(I17
S'AAG'
p7207
tp7208
I12
s(I18
S'TGT'
p7209
tp7210
I402
s(I35
S'CCT'
p7211
tp7212
I681
s(I32
S'CGG'
p7213
tp7214
I236
s(I5
S'TTA'
p7215
tp7216
I1872
s(I40
S'ACG'
p7217
tp7218
I232
s(I18
S'CGC'
p7219
tp7220
I620
s(I28
S'GAC'
p7221
tp7222
I1214
s(I58
S'GTA'
p7223
tp7224
I106
s(I70
S'TCC'
p7225
tp7226
I11
s(I17
S'GTG'
p7227
tp7228
I652
s(I31
S'ACG'
p7229
tp7230
I28
s(I42
S'TAG'
p7231
tp7232
I2
s(I67
S'CAA'
p7233
tp7234
I307
s(I75
S'CAG'
p7235
tp7236
I1
s(I67
S'CCG'
p7237
tp7238
I111
s(I61
S'GTA'
p7239
tp7240
I243
s(I35
S'GAC'
p7241
tp7242
I9
s(I72
S'CCG'
p7243
tp7244
I13
s(I48
S'GTT'
p7245
tp7246
I12
s(I29
S'CGG'
p7247
tp7248
I113
s(I31
S'CAT'
p7249
tp7250
I86
s(I57
S'TAC'
p7251
tp7252
I49
s(I6
S'GTG'
p7253
tp7254
I2327
s(I20
S'GGC'
p7255
tp7256
I97
s(I64
S'CAT'
p7257
tp7258
I961
s(I65
S'TAC'
p7259
tp7260
I293
s(I20
S'GCT'
p7261
tp7262
I72
s(I42
S'GCG'
p7263
tp7264
I19
s(I28
S'GGC'
p7265
tp7266
I29
s(I34
S'GTA'
p7267
tp7268
I26
s(I38
S'CCC'
p7269
tp7270
I610
s(I2
S'TCA'
p7271
tp7272
I1
s(I61
S'ACA'
p7273
tp7274
I16
s(I39
S'TCT'
p7275
tp7276
I40
s(I72
S'TTG'
p7277
tp7278
I12
s(I27
S'CGT'
p7279
tp7280
I62
s(I37
S'ACA'
p7281
tp7282
I145
s(I73
S'ATA'
p7283
tp7284
I10342
s(I63
S'GAT'
p7285
tp7286
I250
s(I73
S'TAT'
p7287
tp7288
I10
s(I60
S'GAC'
p7289
tp7290
I805
s(I75
S'AAC'
p7291
tp7292
I12
s(I38
S'GAT'
p7293
tp7294
I551
s(I66
S'TGG'
p7295
tp7296
I115
s(I16
S'CGT'
p7297
tp7298
I233
s(I76
S'TTC'
p7299
tp7300
I11
s(I34
S'ACC'
p7301
tp7302
I125
s(I73
S'CGT'
p7303
tp7304
I5
s(I15
S'TCT'
p7305
tp7306
I71
s(I11
S'GCT'
p7307
tp7308
I55
s(I58
S'AGT'
p7309
tp7310
I36
s(I37
S'GAC'
p7311
tp7312
I5419
s(I5
S'ACT'
p7313
tp7314
I80
s(I54
S'GCT'
p7315
tp7316
I688
s(I36
S'TTT'
p7317
tp7318
I2
s(I63
S'CTG'
p7319
tp7320
I23
s(I28
S'CTC'
p7321
tp7322
I425
s(I27
S'TGA'
p7323
tp7324
I7
s(I17
S'GGC'
p7325
tp7326
I50
s(I35
S'TCC'
p7327
tp7328
I431
s(I37
S'CAA'
p7329
tp7330
I514
s(I76
S'ACT'
p7331
tp7332
I6
s(I44
S'GAC'
p7333
tp7334
I1
s(I44
S'TAG'
p7335
tp7336
I14
s(I41
S'ACC'
p7337
tp7338
I137
s(I11
S'GAA'
p7339
tp7340
I1824
s(I16
S'AAA'
p7341
tp7342
I7
s(I65
S'TTT'
p7343
tp7344
I82
s(I71
S'TGT'
p7345
tp7346
I6
s(I8
S'GCA'
p7347
tp7348
I2
s(I40
S'AAC'
p7349
tp7350
I374
s(I27
S'CTG'
p7351
tp7352
I54
s(I35
S'TGG'
p7353
tp7354
I92
s(I41
S'CGC'
p7355
tp7356
I3
s(I45
S'TAG'
p7357
tp7358
I5
s(I31
S'GGA'
p7359
tp7360
I873
s(I20
S'AGC'
p7361
tp7362
I382
s(I28
S'ATG'
p7363
tp7364
I354
s(I51
S'GTA'
p7365
tp7366
I658
s(I9
S'CAC'
p7367
tp7368
I6944
s(I19
S'TGG'
p7369
tp7370
I101
s(I42
S'TTT'
p7371
tp7372
I38
s(I73
S'GGT'
p7373
tp7374
I3
s(I43
S'CCC'
p7375
tp7376
I2
s(I43
S'TAC'
p7377
tp7378
I81
s(I48
S'GCG'
p7379
tp7380
I7
s(I40
S'GCA'
p7381
tp7382
I39
s(I16
S'AGA'
p7383
tp7384
I46
s(I9
S'CCT'
p7385
tp7386
I2926
s(I16
S'CCC'
p7387
tp7388
I11
s(I28
S'CGA'
p7389
tp7390
I51
s(I43
S'CTT'
p7391
tp7392
I32
s(I10
S'GAG'
p7393
tp7394
I313
s(I7
S'CAA'
p7395
tp7396
I782
s(I25
S'ACA'
p7397
tp7398
I115
s(I61
S'CAT'
p7399
tp7400
I6
s(I37
S'TAA'
p7401
tp7402
I6
s(I7
S'GGA'
p7403
tp7404
I1387
s(I67
S'GTA'
p7405
tp7406
I371
s(I60
S'GAG'
p7407
tp7408
I17
s(I65
S'CTC'
p7409
tp7410
I1045
s(I40
S'GTA'
p7411
tp7412
I38
s(I4
S'AAT'
p7413
tp7414
I2
s(I21
S'CAG'
p7415
tp7416
I584
s(I61
S'TAA'
p7417
tp7418
I13
s(I9
S'TAC'
p7419
tp7420
I23
s(I61
S'ATG'
p7421
tp7422
I2595
s(I72
S'TCC'
p7423
tp7424
I666
s(I14
S'ACC'
p7425
tp7426
I3
s(I17
S'TAC'
p7427
tp7428
I185
s(I23
S'TCC'
p7429
tp7430
I10
s(I45
S'TGG'
p7431
tp7432
I1312
s(I29
S'TCC'
p7433
tp7434
I294
s(I73
S'GCA'
p7435
tp7436
I2
s(I14
S'CGC'
p7437
tp7438
I14
s(I32
S'TAG'
p7439
tp7440
I31
s(I57
S'ATC'
p7441
tp7442
I47
s(I74
S'TAG'
p7443
tp7444
I21
s(I56
S'CCG'
p7445
tp7446
I1
s(I34
S'ATG'
p7447
tp7448
I3
s(I65
S'ATT'
p7449
tp7450
I2
s(I37
S'GGA'
p7451
tp7452
I275
s(I33
S'AAC'
p7453
tp7454
I34
s(I41
S'TGC'
p7455
tp7456
I175
s(I45
S'GGA'
p7457
tp7458
I5104
s(I5
S'GCC'
p7459
tp7460
I4
s(I7
S'CTC'
p7461
tp7462
I52
s(I73
S'GTG'
p7463
tp7464
I2073
s(I60
S'CCC'
p7465
tp7466
I113
s(I21
S'ACC'
p7467
tp7468
I63
s(I62
S'CCT'
p7469
tp7470
I4706
s(I56
S'ATC'
p7471
tp7472
I459
s(I71
S'ATA'
p7473
tp7474
I14
s(I38
S'TGG'
p7475
tp7476
I2
s(I29
S'AGA'
p7477
tp7478
I19
s(I47
S'GCG'
p7479
tp7480
I232
s(I69
S'GCT'
p7481
tp7482
I1820
s(I5
S'GTA'
p7483
tp7484
I129
s(I35
S'CCG'
p7485
tp7486
I342
s(I17
S'ACG'
p7487
tp7488
I55
s(I19
S'TGA'
p7489
tp7490
I5
s(I37
S'ATT'
p7491
tp7492
I545
s(I65
S'GAG'
p7493
tp7494
I30387
s(I20
S'CAC'
p7495
tp7496
I324
s(I25
S'CAC'
p7497
tp7498
I57
s(I48
S'TCC'
p7499
tp7500
I92
s(I48
S'ACT'
p7501
tp7502
I10
s(I70
S'TAC'
p7503
tp7504
I1
s(I64
S'TAC'
p7505
tp7506
I14
s(I68
S'ACT'
p7507
tp7508
I433
s(I5
S'ACA'
p7509
tp7510
I67
s(I42
S'CCA'
p7511
tp7512
I7
s(I36
S'GCA'
p7513
tp7514
I4
s(I73
S'CCC'
p7515
tp7516
I2
s(I52
S'GTG'
p7517
tp7518
I42
s(I64
S'ACC'
p7519
tp7520
I15855
s(I52
S'TCG'
p7521
tp7522
I222
s(I61
S'TGC'
p7523
tp7524
I65
s(I53
S'TTA'
p7525
tp7526
I202
s(I75
S'TCA'
p7527
tp7528
I33
s(I36
S'CAT'
p7529
tp7530
I84
s(I48
S'TTC'
p7531
tp7532
I3
s(I24
S'ACG'
p7533
tp7534
I57
s(I52
S'AAC'
p7535
tp7536
I60
s(I74
S'ATG'
p7537
tp7538
I1
s(I54
S'TGT'
p7539
tp7540
I3
s(I51
S'TAT'
p7541
tp7542
I233
s(I44
S'CTC'
p7543
tp7544
I425
s(I64
S'AGG'
p7545
tp7546
I1
s(I36
S'CCC'
p7547
tp7548
I599
s(I22
S'GAA'
p7549
tp7550
I307
s(I77
S'TGT'
p7551
tp7552
I153
s(I73
S'CGG'
p7553
tp7554
I9
s(I18
S'AGC'
p7555
tp7556
I118
s(I68
S'TTT'
p7557
tp7558
I26
s(I44
S'GCA'
p7559
tp7560
I53
s(I51
S'CAA'
p7561
tp7562
I200
s(I48
S'CGA'
p7563
tp7564
I12
s(I5
S'GAG'
p7565
tp7566
I31
s(I41
S'CCG'
p7567
tp7568
I2
s(I73
S'TCT'
p7569
tp7570
I5
s(I64
S'TTG'
p7571
tp7572
I2113
s(I14
S'ATG'
p7573
tp7574
I6
s(I69
S'TTA'
p7575
tp7576
I43
s(I50
S'GGG'
p7577
tp7578
I11
s(I41
S'ATT'
p7579
tp7580
I4
s(I51
S'GTT'
p7581
tp7582
I4
s(I61
S'AGT'
p7583
tp7584
I15
s(I32
S'ATT'
p7585
tp7586
I132
s(I8
S'ACA'
p7587
tp7588
I12
s(I3
S'ACT'
p7589
tp7590
I34
s(I47
S'CCC'
p7591
tp7592
I1
s(I16
S'GTT'
p7593
tp7594
I42
s(I48
S'GAC'
p7595
tp7596
I12
s(I34
S'AAC'
p7597
tp7598
I33
s(I74
S'GCA'
p7599
tp7600
I8
s(I16
S'CTG'
p7601
tp7602
I25
s(I26
S'TAG'
p7603
tp7604
I2
s(I26
S'ATT'
p7605
tp7606
I227
s(I66
S'GTG'
p7607
tp7608
I213
s(I37
S'CTC'
p7609
tp7610
I702
s(I6
S'AGG'
p7611
tp7612
I117
s(I7
S'TAG'
p7613
tp7614
I11
s(I17
S'GAG'
p7615
tp7616
I14
s(I21
S'AGA'
p7617
tp7618
I4
s(I39
S'TGA'
p7619
tp7620
I31
s(I41
S'AGC'
p7621
tp7622
I207
s(I50
S'CAC'
p7623
tp7624
I4
s(I58
S'ACC'
p7625
tp7626
I278
s(I10
S'GCA'
p7627
tp7628
I50
s(I55
S'GTG'
p7629
tp7630
I133
s(I67
S'ACA'
p7631
tp7632
I15642
s(I62
S'ATC'
p7633
tp7634
I224
s(I35
S'TTT'
p7635
tp7636
I89
s(I15
S'GTC'
p7637
tp7638
I339
s(I7
S'AGA'
p7639
tp7640
I1
s(I13
S'GCG'
p7641
tp7642
I9
s(I43
S'TTC'
p7643
tp7644
I134
s(I73
S'GAT'
p7645
tp7646
I9
s(I70
S'CTC'
p7647
tp7648
I1329
s(I51
S'GGC'
p7649
tp7650
I309
s(I68
S'ACA'
p7651
tp7652
I16
s(I5
S'ATG'
p7653
tp7654
I219
s(I31
S'ATG'
p7655
tp7656
I100
s(I49
S'AGG'
p7657
tp7658
I16
s(I15
S'GCC'
p7659
tp7660
I126
s(I62
S'GAC'
p7661
tp7662
I86
s(I62
S'GTT'
p7663
tp7664
I6799
s(I26
S'CCG'
p7665
tp7666
I644
s(I15
S'ACC'
p7667
tp7668
I59
s(I16
S'TAA'
p7669
tp7670
I16
s(I24
S'TTT'
p7671
tp7672
I1
s(I48
S'CTA'
p7673
tp7674
I1
s(I69
S'GCA'
p7675
tp7676
I2402
s(I42
S'CAA'
p7677
tp7678
I191
s(I18
S'TCT'
p7679
tp7680
I119
s(I15
S'CGG'
p7681
tp7682
I1
s(I73
S'CTG'
p7683
tp7684
I95
s(I65
S'CTA'
p7685
tp7686
I95
s(I9
S'TCG'
p7687
tp7688
I223
s(I32
S'CAG'
p7689
tp7690
I1
s(I32
S'GTA'
p7691
tp7692
I8
s(I52
S'CCG'
p7693
tp7694
I142
s(I36
S'CGC'
p7695
tp7696
I7
s(I20
S'TAG'
p7697
tp7698
I5
s(I40
S'GAT'
p7699
tp7700
I320
s(I59
S'TGT'
p7701
tp7702
I760
s(I6
S'TCT'
p7703
tp7704
I217
s(I58
S'AGG'
p7705
tp7706
I128
s(I53
S'TGC'
p7707
tp7708
I15
s(I36
S'TCA'
p7709
tp7710
I19
s(I3
S'ATA'
p7711
tp7712
I54
s(I32
S'GCC'
p7713
tp7714
I43
s(I42
S'CCT'
p7715
tp7716
I5
s(I46
S'CCA'
p7717
tp7718
I3
s(I35
S'AAG'
p7719
tp7720
I305
s(I43
S'TGC'
p7721
tp7722
I17
s(I17
S'CCT'
p7723
tp7724
I39
s(I69
S'TGC'
p7725
tp7726
I273
s(I39
S'GAG'
p7727
tp7728
I15
s(I13
S'CCA'
p7729
tp7730
I4
s(I33
S'GGT'
p7731
tp7732
I1
s(I3
S'CCT'
p7733
tp7734
I10
s(I63
S'CAC'
p7735
tp7736
I232
s(I50
S'GCC'
p7737
tp7738
I8
s(I51
S'TAC'
p7739
tp7740
I96
s(I19
S'ATG'
p7741
tp7742
I39
s(I23
S'GAG'
p7743
tp7744
I1
s(I64
S'GCC'
p7745
tp7746
I10442
s.