(dp0
(I9
S'CCG'
p1
tp2
I600
s(I49
S'TGA'
p3
tp4
I4
s(I47
S'ACA'
p5
tp6
I2
s(I18
S'GCC'
p7
tp8
I1
s(I52
S'ACT'
p9
tp10
I5
s(I62
S'CGT'
p11
tp12
I81
s(I46
S'AGC'
p13
tp14
I265
s(I19
S'AAT'
p15
tp16
I17
s(I3
S'CAG'
p17
tp18
I6
s(I8
S'CAG'
p19
tp20
I2
s(I41
S'ATC'
p21
tp22
I5
s(I64
S'GTC'
p23
tp24
I31
s(I60
S'GCG'
p25
tp26
I28
s(I18
S'ATG'
p27
tp28
I12
s(I25
S'CTC'
p29
tp30
I4
s(I49
S'GGG'
p31
tp32
I875
s(I31
S'CTA'
p33
tp34
I4
s(I4
S'TGA'
p35
tp36
I1
s(I24
S'GTG'
p37
tp38
I11
s(I24
S'AGA'
p39
tp40
I2
s(I38
S'GCA'
p41
tp42
I57
s(I4
S'GGT'
p43
tp44
I1
s(I64
S'AAC'
p45
tp46
I1133
s(I12
S'TCA'
p47
tp48
I1
s(I20
S'CCT'
p49
tp50
I51
s(I70
S'CCA'
p51
tp52
I10
s(I14
S'CTC'
p53
tp54
I11
s(I36
S'GAA'
p55
tp56
I1
s(I6
S'AAA'
p57
tp58
I12
s(I36
S'CTT'
p59
tp60
I46
s(I14
S'CGG'
p61
tp62
I1
s(I41
S'CTT'
p63
tp64
I176
s(I60
S'CAG'
p65
tp66
I7
s(I9
S'GCT'
p67
tp68
I8
s(I19
S'TCC'
p69
tp70
I22
s(I49
S'GCA'
p71
tp72
I717
s(I41
S'GTT'
p73
tp74
I2
s(I39
S'CAC'
p75
tp76
I1
s(I49
S'GTA'
p77
tp78
I5
s(I44
S'CAC'
p79
tp80
I9
s(I49
S'ACA'
p81
tp82
I11
s(I67
S'CAG'
p83
tp84
I2
s(I34
S'TTA'
p85
tp86
I2
s(I27
S'TCA'
p87
tp88
I3
s(I65
S'CGC'
p89
tp90
I30
s(I54
S'GTA'
p91
tp92
I5
s(I23
S'TCG'
p93
tp94
I4
s(I11
S'ATA'
p95
tp96
I1
s(I64
S'TAT'
p97
tp98
I7
s(I72
S'TAC'
p99
tp100
I6
s(I63
S'AAA'
p101
tp102
I41
s(I22
S'AGC'
p103
tp104
I13
s(I13
S'ATC'
p105
tp106
I21
s(I3
S'TTC'
p107
tp108
I10
s(I58
S'CGA'
p109
tp110
I6
s(I13
S'TTG'
p111
tp112
I3
s(I33
S'CGC'
p113
tp114
I16
s(I53
S'ATT'
p115
tp116
I4
s(I32
S'ATG'
p117
tp118
I5
s(I53
S'ACT'
p119
tp120
I3
s(I9
S'ATG'
p121
tp122
I5
s(I52
S'GGA'
p123
tp124
I1
s(I46
S'TTT'
p125
tp126
I199
s(I22
S'CGA'
p127
tp128
I12
s(I32
S'CTA'
p129
tp130
I29
s(I65
S'CTT'
p131
tp132
I12
s(I45
S'ACC'
p133
tp134
I163
s(I61
S'CGT'
p135
tp136
I1
s(I65
S'AGC'
p137
tp138
I19
s(I52
S'TGG'
p139
tp140
I12
s(I61
S'CCT'
p141
tp142
I1
s(I44
S'GCA'
p143
tp144
I2
s(I6
S'TAT'
p145
tp146
I280
s(I67
S'GAC'
p147
tp148
I2
s(I51
S'ATA'
p149
tp150
I4
s(I29
S'TTT'
p151
tp152
I16
s(I34
S'CGT'
p153
tp154
I2
s(I68
S'TAG'
p155
tp156
I1
s(I26
S'CTT'
p157
tp158
I22
s(I51
S'AAA'
p159
tp160
I1
s(I6
S'CCC'
p161
tp162
I1
s(I37
S'GGC'
p163
tp164
I2
s(I67
S'CCA'
p165
tp166
I1
s(I15
S'TAG'
p167
tp168
I2
s(I17
S'AAC'
p169
tp170
I51
s(I10
S'GGG'
p171
tp172
I6
s(I19
S'TAA'
p173
tp174
I4
s(I41
S'TGA'
p175
tp176
I3
s(I44
S'GTA'
p177
tp178
I10
s(I58
S'GGA'
p179
tp180
I9
s(I24
S'ATA'
p181
tp182
I5
s(I27
S'TAA'
p183
tp184
I12
s(I70
S'GAT'
p185
tp186
I14
s(I69
S'GTG'
p187
tp188
I16
s(I42
S'CTG'
p189
tp190
I1
s(I66
S'GGA'
p191
tp192
I21
s(I42
S'CTT'
p193
tp194
I1
s(I35
S'AGA'
p195
tp196
I1
s(I13
S'TGT'
p197
tp198
I20
s(I2
S'ACC'
p199
tp200
I1
s(I48
S'GTG'
p201
tp202
I2
s(I26
S'TGT'
p203
tp204
I2
s(I13
S'CGC'
p205
tp206
I58
s(I66
S'AGC'
p207
tp208
I10
s(I15
S'CAA'
p209
tp210
I1
s(I47
S'GGC'
p211
tp212
I16
s(I69
S'ATA'
p213
tp214
I4
s(I12
S'ATG'
p215
tp216
I2
s(I40
S'TAC'
p217
tp218
I56
s(I31
S'CTG'
p219
tp220
I3
s(I55
S'GGC'
p221
tp222
I2
s(I18
S'GGG'
p223
tp224
I1
s(I49
S'CCC'
p225
tp226
I39
s(I44
S'CAT'
p227
tp228
I4
s(I44
S'TGT'
p229
tp230
I1345
s(I10
S'CGG'
p231
tp232
I6
s(I35
S'TTG'
p233
tp234
I11
s(I75
S'CAT'
p235
tp236
I3
s(I5
S'GGC'
p237
tp238
I6
s(I44
S'ACT'
p239
tp240
I15
s(I32
S'TTT'
p241
tp242
I5
s(I14
S'TCT'
p243
tp244
I1
s(I11
S'GAT'
p245
tp246
I84
s(I20
S'AGG'
p247
tp248
I1
s(I55
S'TGC'
p249
tp250
I5
s(I66
S'CTA'
p251
tp252
I541
s(I20
S'TTC'
p253
tp254
I5
s(I65
S'TGC'
p255
tp256
I1
s(I58
S'AAG'
p257
tp258
I3
s(I11
S'GTT'
p259
tp260
I13
s(I65
S'CGT'
p261
tp262
I24
s(I36
S'GTT'
p263
tp264
I156
s(I25
S'TCT'
p265
tp266
I6
s(I19
S'GGG'
p267
tp268
I9
s(I64
S'TAA'
p269
tp270
I10
s(I30
S'ATC'
p271
tp272
I4
s(I70
S'AAC'
p273
tp274
I3
s(I3
S'CTC'
p275
tp276
I2
s(I60
S'CTC'
p277
tp278
I3
s(I35
S'GTA'
p279
tp280
I4
s(I67
S'GGA'
p281
tp282
I3353
s(I6
S'CTT'
p283
tp284
I24
s(I53
S'GTC'
p285
tp286
I3
s(I44
S'GGG'
p287
tp288
I1
s(I18
S'AAC'
p289
tp290
I34
s(I8
S'TCC'
p291
tp292
I1
s(I16
S'AGC'
p293
tp294
I14
s(I69
S'GGC'
p295
tp296
I320
s(I33
S'CGT'
p297
tp298
I10
s(I29
S'CAT'
p299
tp300
I3
s(I62
S'TAT'
p301
tp302
I108
s(I61
S'GGG'
p303
tp304
I2
s(I38
S'TCC'
p305
tp306
I1
s(I48
S'GAT'
p307
tp308
I2
s(I5
S'TCG'
p309
tp310
I1
s(I37
S'AAT'
p311
tp312
I14
s(I22
S'TGC'
p313
tp314
I1
s(I66
S'CCC'
p315
tp316
I315
s(I8
S'TGG'
p317
tp318
I5
s(I28
S'AAC'
p319
tp320
I5
s(I70
S'GTT'
p321
tp322
I1
s(I71
S'ATC'
p323
tp324
I2
s(I25
S'GGT'
p325
tp326
I4
s(I22
S'CGT'
p327
tp328
I6
s(I51
S'GCA'
p329
tp330
I37
s(I27
S'TCC'
p331
tp332
I5
s(I62
S'CTA'
p333
tp334
I172
s(I8
S'GGC'
p335
tp336
I9
s(I10
S'CAA'
p337
tp338
I10
s(I55
S'CGA'
p339
tp340
I1
s(I70
S'CCT'
p341
tp342
I5
s(I10
S'CAT'
p343
tp344
I8
s(I16
S'GGC'
p345
tp346
I2
s(I14
S'GGT'
p347
tp348
I16
s(I28
S'GTT'
p349
tp350
I12
s(I70
S'ACT'
p351
tp352
I1317
s(I10
S'GGA'
p353
tp354
I1
s(I31
S'TCG'
p355
tp356
I12
s(I41
S'GGG'
p357
tp358
I495
s(I29
S'TTA'
p359
tp360
I20
s(I18
S'GGA'
p361
tp362
I17
s(I52
S'ACC'
p363
tp364
I29
s(I62
S'TGT'
p365
tp366
I73
s(I40
S'CTC'
p367
tp368
I44
s(I41
S'TTT'
p369
tp370
I47
s(I9
S'CGA'
p371
tp372
I1
s(I38
S'TCA'
p373
tp374
I69
s(I10
S'AGC'
p375
tp376
I7
s(I3
S'GAA'
p377
tp378
I2
s(I14
S'TGT'
p379
tp380
I9
s(I43
S'ACT'
p381
tp382
I7
s(I67
S'ATT'
p383
tp384
I25
s(I64
S'CCT'
p385
tp386
I1
s(I26
S'ATA'
p387
tp388
I35
s(I18
S'TGG'
p389
tp390
I5
s(I69
S'TAC'
p391
tp392
I92
s(I25
S'GAC'
p393
tp394
I29
s(I62
S'GCG'
p395
tp396
I303
s(I76
S'AGC'
p397
tp398
I1
s(I51
S'TTG'
p399
tp400
I1
s(I57
S'AAA'
p401
tp402
I62
s(I32
S'GGA'
p403
tp404
I5
s(I49
S'TCC'
p405
tp406
I207
s(I64
S'CAC'
p407
tp408
I30
s(I76
S'TGA'
p409
tp410
I1
s(I58
S'GAC'
p411
tp412
I49
s(I61
S'GAG'
p413
tp414
I5
s(I30
S'TGC'
p415
tp416
I441
s(I42
S'GTT'
p417
tp418
I19
s(I13
S'CTG'
p419
tp420
I3
s(I18
S'CTA'
p421
tp422
I5
s(I26
S'TGA'
p423
tp424
I3
s(I10
S'CCA'
p425
tp426
I1
s(I64
S'CTA'
p427
tp428
I132
s(I66
S'CGG'
p429
tp430
I1
s(I60
S'TAC'
p431
tp432
I6
s(I8
S'TAA'
p433
tp434
I11
s(I20
S'GCA'
p435
tp436
I9
s(I7
S'ACG'
p437
tp438
I1
s(I28
S'GGT'
p439
tp440
I2
s(I18
S'TTC'
p441
tp442
I129
s(I8
S'CTA'
p443
tp444
I28
s(I66
S'TTC'
p445
tp446
I2
s(I32
S'AGG'
p447
tp448
I8
s(I4
S'CCC'
p449
tp450
I1
s(I54
S'GAA'
p451
tp452
I18
s(I54
S'CCG'
p453
tp454
I21
s(I14
S'TCA'
p455
tp456
I17
s(I73
S'TAA'
p457
tp458
I1
s(I63
S'AGA'
p459
tp460
I8
s(I21
S'CGT'
p461
tp462
I2
s(I38
S'GAA'
p463
tp464
I37
s(I13
S'GGG'
p465
tp466
I1
s(I39
S'GCC'
p467
tp468
I1
s(I70
S'CAA'
p469
tp470
I3
s(I27
S'TTG'
p471
tp472
I32
s(I57
S'CCT'
p473
tp474
I37
s(I71
S'CCT'
p475
tp476
I14
s(I25
S'TCC'
p477
tp478
I3
s(I61
S'GTG'
p479
tp480
I9
s(I64
S'TTT'
p481
tp482
I41
s(I7
S'CAT'
p483
tp484
I3
s(I76
S'GGG'
p485
tp486
I2
s(I32
S'TAG'
p487
tp488
I7
s(I50
S'ACG'
p489
tp490
I3
s(I20
S'AGA'
p491
tp492
I19
s(I10
S'TTT'
p493
tp494
I1
s(I52
S'ATA'
p495
tp496
I1
s(I60
S'GTT'
p497
tp498
I109
s(I31
S'TTC'
p499
tp500
I15
s(I18
S'GAC'
p501
tp502
I1
s(I54
S'TTG'
p503
tp504
I2
s(I63
S'CCC'
p505
tp506
I54
s(I31
S'GTA'
p507
tp508
I12
s(I29
S'CAA'
p509
tp510
I60
s(I69
S'CGA'
p511
tp512
I1
s(I64
S'GAC'
p513
tp514
I52
s(I45
S'AGC'
p515
tp516
I632
s(I7
S'GCT'
p517
tp518
I94
s(I19
S'CAG'
p519
tp520
I14
s(I28
S'GGG'
p521
tp522
I1
s(I50
S'GTG'
p523
tp524
I10
s(I42
S'TTC'
p525
tp526
I16
s(I11
S'GGT'
p527
tp528
I219
s(I33
S'TGT'
p529
tp530
I4
s(I41
S'AAT'
p531
tp532
I24
s(I25
S'GGA'
p533
tp534
I1
s(I19
S'CGC'
p535
tp536
I73
s(I70
S'CCC'
p537
tp538
I1
s(I35
S'ACA'
p539
tp540
I117
s(I19
S'TGT'
p541
tp542
I13
s(I4
S'ATG'
p543
tp544
I21
s(I17
S'AGA'
p545
tp546
I2
s(I73
S'GGC'
p547
tp548
I1
s(I20
S'ATA'
p549
tp550
I45
s(I53
S'GGC'
p551
tp552
I31
s(I38
S'CTC'
p553
tp554
I3
s(I11
S'GCG'
p555
tp556
I607
s(I3
S'GCG'
p557
tp558
I241
s(I43
S'CTA'
p559
tp560
I4
s(I63
S'CTA'
p561
tp562
I6
s(I66
S'AGT'
p563
tp564
I1
s(I28
S'GCG'
p565
tp566
I3
s(I18
S'GGT'
p567
tp568
I73
s(I60
S'CAC'
p569
tp570
I26
s(I17
S'AGG'
p571
tp572
I1
s(I26
S'TGC'
p573
tp574
I10
s(I58
S'TTA'
p575
tp576
I6
s(I63
S'TTT'
p577
tp578
I17
s(I12
S'TGA'
p579
tp580
I4
s(I38
S'ACC'
p581
tp582
I54
s(I29
S'ATA'
p583
tp584
I49
s(I9
S'TTC'
p585
tp586
I4
s(I66
S'TCG'
p587
tp588
I4
s(I19
S'CTT'
p589
tp590
I9
s(I64
S'CCC'
p591
tp592
I1
s(I12
S'TAC'
p593
tp594
I5
s(I24
S'CTT'
p595
tp596
I6
s(I36
S'GCG'
p597
tp598
I2
s(I42
S'CGA'
p599
tp600
I34
s(I6
S'GGG'
p601
tp602
I1533
s(I45
S'TTC'
p603
tp604
I2
s(I26
S'GTA'
p605
tp606
I44
s(I72
S'AGC'
p607
tp608
I26
s(I17
S'CGC'
p609
tp610
I1
s(I12
S'CCT'
p611
tp612
I11
s(I48
S'GGT'
p613
tp614
I7
s(I28
S'AAG'
p615
tp616
I19
s(I53
S'CAC'
p617
tp618
I61
s(I31
S'GCC'
p619
tp620
I5
s(I65
S'ATA'
p621
tp622
I3
s(I53
S'AAC'
p623
tp624
I3
s(I25
S'TAA'
p625
tp626
I2
s(I19
S'GAT'
p627
tp628
I8
s(I31
S'CGC'
p629
tp630
I12
s(I76
S'AGG'
p631
tp632
I4
s(I6
S'TCG'
p633
tp634
I707
s(I56
S'TTT'
p635
tp636
I77
s(I73
S'GTT'
p637
tp638
I302
s(I47
S'AGT'
p639
tp640
I33
s(I26
S'ACC'
p641
tp642
I5
s(I60
S'CCT'
p643
tp644
I8
s(I62
S'CCA'
p645
tp646
I270
s(I58
S'GCG'
p647
tp648
I3
s(I42
S'AGT'
p649
tp650
I1
s(I26
S'CGC'
p651
tp652
I1
s(I54
S'CAG'
p653
tp654
I11
s(I55
S'GAG'
p655
tp656
I3
s(I59
S'GTC'
p657
tp658
I10
s(I70
S'AGA'
p659
tp660
I3
s(I61
S'ATA'
p661
tp662
I20
s(I39
S'TTT'
p663
tp664
I2
s(I68
S'TGT'
p665
tp666
I37
s(I48
S'GCC'
p667
tp668
I2
s(I14
S'AGG'
p669
tp670
I2
s(I2
S'GCC'
p671
tp672
I2
s(I69
S'CAA'
p673
tp674
I29
s(I33
S'ACC'
p675
tp676
I152
s(I57
S'CCA'
p677
tp678
I18
s(I35
S'ATC'
p679
tp680
I8
s(I16
S'TGC'
p681
tp682
I10
s(I71
S'TTA'
p683
tp684
I13
s(I47
S'TCG'
p685
tp686
I123
s(I48
S'GTC'
p687
tp688
I1
s(I13
S'CAA'
p689
tp690
I63
s(I18
S'CAA'
p691
tp692
I51
s(I36
S'CAA'
p693
tp694
I654
s(I49
S'TAG'
p695
tp696
I1
s(I8
S'GTG'
p697
tp698
I31
s(I58
S'CTG'
p699
tp700
I26
s(I22
S'GCA'
p701
tp702
I14
s(I60
S'TTC'
p703
tp704
I30
s(I38
S'TGA'
p705
tp706
I7
s(I38
S'CCT'
p707
tp708
I5
s(I52
S'AAA'
p709
tp710
I2
s(I7
S'GCA'
p711
tp712
I43
s(I58
S'CAA'
p713
tp714
I9
s(I5
S'GTG'
p715
tp716
I19
s(I18
S'AGT'
p717
tp718
I7
s(I57
S'AGC'
p719
tp720
I15
s(I17
S'ACA'
p721
tp722
I2
s(I51
S'CAT'
p723
tp724
I4
s(I41
S'AAA'
p725
tp726
I2
s(I47
S'CTG'
p727
tp728
I1
s(I22
S'GTA'
p729
tp730
I21
s(I62
S'ATT'
p731
tp732
I142
s(I74
S'GAC'
p733
tp734
I1
s(I76
S'TTT'
p735
tp736
I4
s(I11
S'GCC'
p737
tp738
I227
s(I6
S'ACC'
p739
tp740
I139
s(I64
S'ATA'
p741
tp742
I310
s(I24
S'CGA'
p743
tp744
I5
s(I72
S'GGG'
p745
tp746
I173
s(I31
S'TAG'
p747
tp748
I1
s(I65
S'GCA'
p749
tp750
I65
s(I63
S'CTT'
p751
tp752
I4
s(I76
S'CGA'
p753
tp754
I22
s(I49
S'ATC'
p755
tp756
I27
s(I20
S'AAC'
p757
tp758
I62
s(I53
S'GCT'
p759
tp760
I2
s(I26
S'ATG'
p761
tp762
I5
s(I29
S'TAG'
p763
tp764
I5
s(I74
S'ATA'
p765
tp766
I14
s(I35
S'TCT'
p767
tp768
I23
s(I40
S'TCA'
p769
tp770
I51
s(I56
S'TTC'
p771
tp772
I31
s(I14
S'TCC'
p773
tp774
I1
s(I65
S'GTG'
p775
tp776
I16
s(I72
S'AAC'
p777
tp778
I141
s(I14
S'GCA'
p779
tp780
I3
s(I24
S'CTA'
p781
tp782
I1
s(I11
S'AAC'
p783
tp784
I107
s(I5
S'GAA'
p785
tp786
I2
s(I34
S'TGT'
p787
tp788
I4
s(I36
S'AAC'
p789
tp790
I11
s(I3
S'ACC'
p791
tp792
I12
s(I70
S'GCG'
p793
tp794
I361
s(I27
S'CAT'
p795
tp796
I13
s(I60
S'CGG'
p797
tp798
I35
s(I53
S'AAT'
p799
tp800
I5
s(I32
S'AAG'
p801
tp802
I1
s(I36
S'AAA'
p803
tp804
I1
s(I10
S'GAT'
p805
tp806
I12
s(I27
S'AGA'
p807
tp808
I53
s(I67
S'AAA'
p809
tp810
I3
s(I38
S'CGA'
p811
tp812
I8
s(I38
S'CAG'
p813
tp814
I64
s(I57
S'GAG'
p815
tp816
I4
s(I30
S'GCC'
p817
tp818
I28
s(I29
S'TGG'
p819
tp820
I33
s(I19
S'TTT'
p821
tp822
I8
s(I35
S'CCA'
p823
tp824
I29
s(I70
S'ATC'
p825
tp826
I4
s(I38
S'GAC'
p827
tp828
I13
s(I56
S'ACC'
p829
tp830
I3
s(I9
S'TAT'
p831
tp832
I5
s(I25
S'TGC'
p833
tp834
I1
s(I30
S'TAA'
p835
tp836
I2
s(I16
S'ACG'
p837
tp838
I10
s(I30
S'GTC'
p839
tp840
I42
s(I29
S'GGA'
p841
tp842
I28
s(I3
S'GGT'
p843
tp844
I3
s(I44
S'AAC'
p845
tp846
I2
s(I45
S'TGT'
p847
tp848
I18
s(I40
S'GAA'
p849
tp850
I256
s(I64
S'GGA'
p851
tp852
I300
s(I7
S'CGA'
p853
tp854
I3
s(I69
S'TTG'
p855
tp856
I37
s(I53
S'CTA'
p857
tp858
I1
s(I24
S'GAA'
p859
tp860
I1
s(I40
S'AAG'
p861
tp862
I57
s(I61
S'TTA'
p863
tp864
I83
s(I5
S'ATA'
p865
tp866
I3
s(I17
S'CCC'
p867
tp868
I1
s(I61
S'GCA'
p869
tp870
I7
s(I21
S'TCA'
p871
tp872
I70
s(I75
S'CGG'
p873
tp874
I7
s(I29
S'AAG'
p875
tp876
I5
s(I46
S'TAC'
p877
tp878
I1244
s(I33
S'GTT'
p879
tp880
I1
s(I32
S'TTC'
p881
tp882
I3
s(I44
S'GCC'
p883
tp884
I6
s(I3
S'GTA'
p885
tp886
I78
s(I54
S'TAC'
p887
tp888
I38
s(I58
S'GTT'
p889
tp890
I3
s(I29
S'CTG'
p891
tp892
I64
s(I69
S'GCG'
p893
tp894
I146
s(I11
S'CCA'
p895
tp896
I607
s(I72
S'CGC'
p897
tp898
I12
s(I34
S'GTT'
p899
tp900
I1
s(I72
S'CCC'
p901
tp902
I5
s(I69
S'GGT'
p903
tp904
I351
s(I13
S'TAC'
p905
tp906
I2
s(I15
S'CAC'
p907
tp908
I6
s(I44
S'GAG'
p909
tp910
I2
s(I73
S'AAC'
p911
tp912
I18
s(I58
S'AGA'
p913
tp914
I2
s(I17
S'TTG'
p915
tp916
I17
s(I66
S'AAG'
p917
tp918
I2
s(I76
S'CCG'
p919
tp920
I2
s(I11
S'TTG'
p921
tp922
I6
s(I20
S'CCC'
p923
tp924
I28
s(I23
S'ACA'
p925
tp926
I2
s(I21
S'GTC'
p927
tp928
I37
s(I46
S'CCG'
p929
tp930
I3
s(I44
S'TGC'
p931
tp932
I873
s(I63
S'GCT'
p933
tp934
I1
s(I29
S'GTC'
p935
tp936
I23
s(I35
S'GAG'
p937
tp938
I15
s(I52
S'AGC'
p939
tp940
I13
s(I28
S'TGC'
p941
tp942
I17
s(I41
S'ACG'
p943
tp944
I35
s(I36
S'CTG'
p945
tp946
I643
s(I34
S'GGG'
p947
tp948
I1
s(I25
S'ATT'
p949
tp950
I26
s(I69
S'AAT'
p951
tp952
I88
s(I54
S'TGC'
p953
tp954
I45
s(I34
S'CCC'
p955
tp956
I1
s(I20
S'ATG'
p957
tp958
I3
s(I64
S'ATT'
p959
tp960
I206
s(I49
S'GCT'
p961
tp962
I454
s(I45
S'ATA'
p963
tp964
I4
s(I4
S'TGG'
p965
tp966
I3
s(I32
S'TAA'
p967
tp968
I10
s(I33
S'GAT'
p969
tp970
I4
s(I46
S'GGC'
p971
tp972
I237
s(I53
S'CCG'
p973
tp974
I12
s(I53
S'GAG'
p975
tp976
I6
s(I23
S'TCT'
p977
tp978
I1
s(I54
S'GGC'
p979
tp980
I7
s(I35
S'GCA'
p981
tp982
I9
s(I35
S'CTC'
p983
tp984
I7
s(I17
S'TCA'
p985
tp986
I23
s(I10
S'TAG'
p987
tp988
I1
s(I18
S'ATA'
p989
tp990
I1
s(I23
S'GCT'
p991
tp992
I1
s(I38
S'ACT'
p993
tp994
I69
s(I6
S'GAG'
p995
tp996
I22
s(I24
S'GTA'
p997
tp998
I4
s(I16
S'TTC'
p999
tp1000
I2
s(I3
S'ACG'
p1001
tp1002
I17
s(I62
S'GGT'
p1003
tp1004
I4
s(I24
S'AGG'
p1005
tp1006
I4
s(I23
S'CCG'
p1007
tp1008
I1
s(I39
S'GGT'
p1009
tp1010
I1
s(I54
S'TGT'
p1011
tp1012
I24
s(I75
S'ATA'
p1013
tp1014
I4
s(I3
S'CGC'
p1015
tp1016
I1
s(I21
S'TCC'
p1017
tp1018
I20
s(I55
S'GCT'
p1019
tp1020
I4
s(I24
S'GCC'
p1021
tp1022
I3
s(I32
S'CCT'
p1023
tp1024
I14
s(I15
S'ATC'
p1025
tp1026
I74
s(I38
S'GTC'
p1027
tp1028
I10
s(I6
S'GTC'
p1029
tp1030
I688
s(I62
S'CAA'
p1031
tp1032
I26
s(I54
S'CTC'
p1033
tp1034
I12
s(I28
S'GAT'
p1035
tp1036
I28
s(I35
S'GGC'
p1037
tp1038
I25
s(I21
S'AGT'
p1039
tp1040
I23
s(I63
S'CGG'
p1041
tp1042
I6
s(I61
S'CGC'
p1043
tp1044
I1
s(I41
S'GAC'
p1045
tp1046
I1
s(I57
S'GTG'
p1047
tp1048
I23
s(I68
S'GGT'
p1049
tp1050
I9
s(I38
S'AAG'
p1051
tp1052
I1
s(I6
S'TAC'
p1053
tp1054
I487
s(I51
S'TCA'
p1055
tp1056
I25
s(I62
S'ACG'
p1057
tp1058
I365
s(I41
S'GTG'
p1059
tp1060
I15
s(I57
S'GTA'
p1061
tp1062
I33
s(I58
S'CGG'
p1063
tp1064
I3
s(I48
S'AGT'
p1065
tp1066
I15
s(I55
S'AAT'
p1067
tp1068
I17
s(I11
S'TCA'
p1069
tp1070
I73
s(I37
S'AGC'
p1071
tp1072
I120
s(I57
S'GCG'
p1073
tp1074
I15
s(I61
S'CAG'
p1075
tp1076
I2
s(I22
S'CTA'
p1077
tp1078
I7
s(I33
S'ATC'
p1079
tp1080
I4
s(I57
S'ACC'
p1081
tp1082
I15
s(I40
S'TTT'
p1083
tp1084
I5
s(I10
S'ATG'
p1085
tp1086
I1
s(I43
S'TTT'
p1087
tp1088
I3
s(I18
S'GTC'
p1089
tp1090
I56
s(I62
S'GTG'
p1091
tp1092
I526
s(I69
S'CGT'
p1093
tp1094
I1
s(I16
S'GAG'
p1095
tp1096
I2
s(I59
S'GGA'
p1097
tp1098
I1
s(I60
S'GAT'
p1099
tp1100
I150
s(I43
S'TGT'
p1101
tp1102
I1
s(I27
S'ATT'
p1103
tp1104
I28
s(I70
S'GAA'
p1105
tp1106
I1
s(I9
S'TCT'
p1107
tp1108
I36
s(I69
S'GTT'
p1109
tp1110
I33
s(I5
S'TTA'
p1111
tp1112
I179
s(I13
S'TGA'
p1113
tp1114
I3
s(I29
S'ACA'
p1115
tp1116
I20
s(I37
S'CGT'
p1117
tp1118
I6
s(I39
S'CCT'
p1119
tp1120
I1
s(I47
S'CAC'
p1121
tp1122
I7
s(I64
S'TTC'
p1123
tp1124
I8
s(I52
S'CAC'
p1125
tp1126
I3
s(I37
S'TGC'
p1127
tp1128
I59
s(I9
S'AGG'
p1129
tp1130
I23
s(I75
S'CCT'
p1131
tp1132
I3
s(I20
S'GTA'
p1133
tp1134
I6
s(I18
S'ACG'
p1135
tp1136
I12
s(I40
S'TCT'
p1137
tp1138
I2
s(I35
S'AGG'
p1139
tp1140
I6
s(I41
S'TCC'
p1141
tp1142
I4
s(I15
S'GGG'
p1143
tp1144
I1
s(I56
S'TGT'
p1145
tp1146
I8
s(I16
S'TCG'
p1147
tp1148
I28
s(I48
S'ATC'
p1149
tp1150
I2
s(I31
S'CCC'
p1151
tp1152
I1
s(I61
S'TTT'
p1153
tp1154
I196
s(I63
S'GCA'
p1155
tp1156
I19
s(I53
S'TGA'
p1157
tp1158
I7
s(I13
S'AGC'
p1159
tp1160
I9
s(I26
S'GCG'
p1161
tp1162
I4
s(I45
S'TCG'
p1163
tp1164
I1557
s(I11
S'GAC'
p1165
tp1166
I1225
s(I61
S'CTT'
p1167
tp1168
I70
s(I66
S'CTT'
p1169
tp1170
I1114
s(I65
S'TGT'
p1171
tp1172
I42
s(I17
S'CTC'
p1173
tp1174
I2
s(I24
S'ATG'
p1175
tp1176
I4
s(I63
S'GTC'
p1177
tp1178
I11
s(I48
S'CAC'
p1179
tp1180
I6
s(I33
S'GAA'
p1181
tp1182
I1
s(I34
S'CAA'
p1183
tp1184
I7
s(I65
S'ACA'
p1185
tp1186
I71
s(I7
S'AAT'
p1187
tp1188
I511
s(I34
S'CAG'
p1189
tp1190
I3
s(I26
S'CCG'
p1191
tp1192
I12
s(I75
S'AAG'
p1193
tp1194
I2
s(I60
S'GCT'
p1195
tp1196
I166
s(I7
S'GAA'
p1197
tp1198
I64
s(I6
S'CTC'
p1199
tp1200
I148
s(I37
S'ACC'
p1201
tp1202
I302
s(I49
S'TGT'
p1203
tp1204
I21
s(I34
S'CGC'
p1205
tp1206
I1
s(I34
S'AGT'
p1207
tp1208
I1
s(I35
S'CGG'
p1209
tp1210
I28
s(I72
S'TCT'
p1211
tp1212
I51
s(I51
S'AAC'
p1213
tp1214
I8
s(I52
S'GTC'
p1215
tp1216
I5
s(I62
S'AGA'
p1217
tp1218
I209
s(I72
S'TCA'
p1219
tp1220
I13
s(I30
S'GTG'
p1221
tp1222
I34
s(I32
S'TTG'
p1223
tp1224
I28
s(I75
S'GAC'
p1225
tp1226
I1
s(I11
S'TGA'
p1227
tp1228
I1
s(I70
S'CTA'
p1229
tp1230
I54
s(I71
S'CTG'
p1231
tp1232
I5
s(I68
S'GTT'
p1233
tp1234
I31
s(I46
S'CGG'
p1235
tp1236
I37
s(I32
S'CCC'
p1237
tp1238
I34
s(I70
S'CGG'
p1239
tp1240
I3
s(I41
S'TGT'
p1241
tp1242
I4
s(I22
S'TCG'
p1243
tp1244
I4
s(I46
S'TCT'
p1245
tp1246
I244
s(I62
S'CAT'
p1247
tp1248
I80
s(I40
S'AGC'
p1249
tp1250
I4
s(I37
S'TAT'
p1251
tp1252
I31
s(I50
S'TGC'
p1253
tp1254
I9
s(I30
S'TTG'
p1255
tp1256
I23
s(I23
S'TAT'
p1257
tp1258
I1
s(I10
S'GTA'
p1259
tp1260
I3
s(I52
S'TGT'
p1261
tp1262
I1
s(I28
S'CAA'
p1263
tp1264
I32
s(I10
S'TCC'
p1265
tp1266
I47
s(I33
S'TCA'
p1267
tp1268
I3
s(I42
S'GAA'
p1269
tp1270
I2
s(I62
S'TGG'
p1271
tp1272
I104
s(I20
S'TCT'
p1273
tp1274
I13
s(I35
S'ACG'
p1275
tp1276
I27
s(I36
S'TTT'
p1277
tp1278
I1
s(I15
S'AAC'
p1279
tp1280
I3
s(I41
S'TTG'
p1281
tp1282
I493
s(I9
S'CGT'
p1283
tp1284
I6
s(I10
S'AGT'
p1285
tp1286
I38
s(I72
S'ATT'
p1287
tp1288
I3
s(I41
S'CTA'
p1289
tp1290
I59
s(I51
S'CTT'
p1291
tp1292
I8
s(I35
S'ATT'
p1293
tp1294
I121
s(I22
S'TAG'
p1295
tp1296
I2
s(I38
S'AGA'
p1297
tp1298
I14
s(I44
S'CGG'
p1299
tp1300
I5
s(I62
S'GCT'
p1301
tp1302
I133
s(I29
S'AAC'
p1303
tp1304
I9
s(I9
S'CTG'
p1305
tp1306
I55
s(I53
S'AGG'
p1307
tp1308
I10
s(I6
S'AGT'
p1309
tp1310
I37
s(I27
S'AAA'
p1311
tp1312
I3
s(I72
S'GTG'
p1313
tp1314
I11
s(I62
S'CTG'
p1315
tp1316
I5
s(I61
S'CCG'
p1317
tp1318
I2
s(I37
S'CCA'
p1319
tp1320
I16
s(I37
S'CGA'
p1321
tp1322
I5
s(I59
S'TCC'
p1323
tp1324
I616
s(I68
S'GAC'
p1325
tp1326
I4
s(I16
S'GGG'
p1327
tp1328
I13
s(I12
S'CCG'
p1329
tp1330
I2
s(I24
S'TTG'
p1331
tp1332
I1
s(I11
S'TAA'
p1333
tp1334
I2
s(I48
S'TAA'
p1335
tp1336
I9
s(I59
S'GCC'
p1337
tp1338
I731
s(I26
S'CTG'
p1339
tp1340
I34
s(I19
S'CCC'
p1341
tp1342
I22
s(I70
S'TGA'
p1343
tp1344
I2
s(I12
S'TTT'
p1345
tp1346
I3
s(I6
S'CAA'
p1347
tp1348
I61
s(I45
S'GTC'
p1349
tp1350
I815
s(I50
S'GAG'
p1351
tp1352
I1
s(I10
S'AAC'
p1353
tp1354
I1
s(I53
S'ATC'
p1355
tp1356
I6
s(I25
S'AGC'
p1357
tp1358
I4
s(I63
S'AGT'
p1359
tp1360
I45
s(I38
S'CTA'
p1361
tp1362
I17
s(I24
S'TAC'
p1363
tp1364
I1
s(I60
S'ACC'
p1365
tp1366
I22
s(I57
S'AAG'
p1367
tp1368
I16
s(I34
S'GAG'
p1369
tp1370
I6
s(I55
S'AAC'
p1371
tp1372
I26
s(I19
S'CTG'
p1373
tp1374
I9
s(I76
S'TGG'
p1375
tp1376
I2
s(I42
S'CAT'
p1377
tp1378
I32
s(I20
S'TCG'
p1379
tp1380
I28
s(I71
S'CCG'
p1381
tp1382
I3
s(I63
S'TCG'
p1383
tp1384
I21
s(I50
S'AGG'
p1385
tp1386
I1
s(I7
S'CAC'
p1387
tp1388
I17
s(I62
S'AGG'
p1389
tp1390
I118
s(I19
S'AGA'
p1391
tp1392
I4
s(I15
S'CGT'
p1393
tp1394
I9
s(I35
S'CAG'
p1395
tp1396
I14
s(I15
S'TTA'
p1397
tp1398
I2
s(I30
S'GTT'
p1399
tp1400
I33
s(I72
S'TGC'
p1401
tp1402
I31
s(I22
S'ATA'
p1403
tp1404
I13
s(I60
S'GTG'
p1405
tp1406
I73
s(I38
S'ATG'
p1407
tp1408
I22
s(I3
S'TGA'
p1409
tp1410
I2
s(I16
S'TCA'
p1411
tp1412
I13
s(I31
S'TGT'
p1413
tp1414
I40
s(I70
S'GAG'
p1415
tp1416
I1
s(I24
S'CAT'
p1417
tp1418
I23
s(I76
S'CGT'
p1419
tp1420
I1
s(I62
S'TCA'
p1421
tp1422
I87
s(I11
S'GGG'
p1423
tp1424
I50
s(I73
S'TAG'
p1425
tp1426
I2
s(I71
S'CAT'
p1427
tp1428
I1
s(I66
S'TGT'
p1429
tp1430
I4
s(I46
S'TCA'
p1431
tp1432
I136
s(I45
S'CAC'
p1433
tp1434
I53
s(I6
S'TGT'
p1435
tp1436
I2
s(I5
S'TGT'
p1437
tp1438
I97
s(I60
S'TCG'
p1439
tp1440
I134
s(I44
S'TCA'
p1441
tp1442
I3
s(I54
S'CGA'
p1443
tp1444
I3
s(I35
S'ACT'
p1445
tp1446
I35
s(I57
S'CTA'
p1447
tp1448
I8
s(I28
S'TTC'
p1449
tp1450
I2
s(I49
S'AAA'
p1451
tp1452
I23
s(I10
S'ACA'
p1453
tp1454
I1
s(I69
S'GAA'
p1455
tp1456
I6
s(I70
S'ATT'
p1457
tp1458
I23
s(I44
S'GGT'
p1459
tp1460
I6
s(I4
S'TAG'
p1461
tp1462
I1
s(I20
S'GAG'
p1463
tp1464
I15
s(I6
S'CAG'
p1465
tp1466
I25
s(I13
S'AAA'
p1467
tp1468
I136
s(I9
S'GTC'
p1469
tp1470
I138
s(I47
S'GAA'
p1471
tp1472
I17
s(I66
S'TTT'
p1473
tp1474
I1
s(I27
S'CGC'
p1475
tp1476
I3
s(I63
S'TTC'
p1477
tp1478
I20
s(I46
S'CTA'
p1479
tp1480
I10
s(I51
S'CTC'
p1481
tp1482
I9
s(I75
S'GGG'
p1483
tp1484
I20
s(I25
S'GTC'
p1485
tp1486
I18
s(I37
S'AAG'
p1487
tp1488
I117
s(I16
S'AAT'
p1489
tp1490
I37
s(I66
S'CGT'
p1491
tp1492
I1
s(I40
S'ATA'
p1493
tp1494
I4
s(I42
S'AAT'
p1495
tp1496
I51
s(I25
S'GGG'
p1497
tp1498
I2
s(I76
S'CAA'
p1499
tp1500
I1
s(I59
S'TGG'
p1501
tp1502
I1
s(I2
S'GGA'
p1503
tp1504
I2
s(I35
S'CCT'
p1505
tp1506
I67
s(I43
S'TTA'
p1507
tp1508
I18
s(I48
S'GGA'
p1509
tp1510
I2
s(I25
S'GCC'
p1511
tp1512
I1
s(I43
S'GTG'
p1513
tp1514
I64
s(I76
S'AGT'
p1515
tp1516
I2
s(I46
S'GAA'
p1517
tp1518
I2450
s(I3
S'GCA'
p1519
tp1520
I301
s(I53
S'TAC'
p1521
tp1522
I24
s(I48
S'TGG'
p1523
tp1524
I3
s(I33
S'CTG'
p1525
tp1526
I1
s(I20
S'TGG'
p1527
tp1528
I55
s(I65
S'TCT'
p1529
tp1530
I15
s(I73
S'TGA'
p1531
tp1532
I7
s(I45
S'CGC'
p1533
tp1534
I18
s(I36
S'TAT'
p1535
tp1536
I3
s(I12
S'TGG'
p1537
tp1538
I2
s(I61
S'AAT'
p1539
tp1540
I2
s(I14
S'TGC'
p1541
tp1542
I1
s(I47
S'AAA'
p1543
tp1544
I2
s(I42
S'ACG'
p1545
tp1546
I5
s(I44
S'TAT'
p1547
tp1548
I1
s(I66
S'TCA'
p1549
tp1550
I3
s(I26
S'TTA'
p1551
tp1552
I162
s(I39
S'TTC'
p1553
tp1554
I5
s(I36
S'ACT'
p1555
tp1556
I5015
s(I22
S'TAT'
p1557
tp1558
I13
s(I37
S'TCG'
p1559
tp1560
I119
s(I42
S'CGG'
p1561
tp1562
I6
s(I48
S'GCT'
p1563
tp1564
I5
s(I41
S'TGG'
p1565
tp1566
I2
s(I26
S'GTG'
p1567
tp1568
I10
s(I18
S'CGA'
p1569
tp1570
I43
s(I28
S'TAT'
p1571
tp1572
I14
s(I23
S'GGC'
p1573
tp1574
I1
s(I9
S'TGC'
p1575
tp1576
I3053
s(I55
S'ATC'
p1577
tp1578
I50
s(I69
S'TAT'
p1579
tp1580
I35
s(I57
S'TCC'
p1581
tp1582
I1
s(I42
S'GTG'
p1583
tp1584
I2
s(I25
S'TAG'
p1585
tp1586
I5
s(I35
S'GAA'
p1587
tp1588
I4
s(I14
S'CCG'
p1589
tp1590
I3
s(I5
S'GCT'
p1591
tp1592
I1
s(I69
S'ATG'
p1593
tp1594
I24
s(I72
S'TGT'
p1595
tp1596
I1
s(I67
S'TGG'
p1597
tp1598
I4
s(I30
S'TAT'
p1599
tp1600
I23
s(I62
S'CCG'
p1601
tp1602
I451
s(I31
S'GTG'
p1603
tp1604
I53
s(I4
S'CTG'
p1605
tp1606
I51
s(I9
S'CTA'
p1607
tp1608
I37
s(I2
S'CCC'
p1609
tp1610
I1
s(I61
S'ACC'
p1611
tp1612
I8
s(I2
S'CGC'
p1613
tp1614
I1
s(I32
S'TCG'
p1615
tp1616
I12
s(I5
S'GTT'
p1617
tp1618
I3
s(I25
S'ACG'
p1619
tp1620
I24
s(I17
S'ACT'
p1621
tp1622
I36
s(I67
S'CAA'
p1623
tp1624
I53
s(I73
S'ATC'
p1625
tp1626
I2463
s(I11
S'ACA'
p1627
tp1628
I72
s(I67
S'TTC'
p1629
tp1630
I264
s(I29
S'TCA'
p1631
tp1632
I18
s(I59
S'ACT'
p1633
tp1634
I1
s(I76
S'TTA'
p1635
tp1636
I1
s(I70
S'TCT'
p1637
tp1638
I4
s(I57
S'CCG'
p1639
tp1640
I1
s(I17
S'TGG'
p1641
tp1642
I1
s(I6
S'ACT'
p1643
tp1644
I274
s(I54
S'CGT'
p1645
tp1646
I6
s(I71
S'GAT'
p1647
tp1648
I1
s(I36
S'GCT'
p1649
tp1650
I2
s(I12
S'GAC'
p1651
tp1652
I181
s(I36
S'CAG'
p1653
tp1654
I1090
s(I70
S'ATA'
p1655
tp1656
I6
s(I7
S'CCG'
p1657
tp1658
I268
s(I21
S'TAT'
p1659
tp1660
I4
s(I27
S'TGG'
p1661
tp1662
I2
s(I8
S'GTA'
p1663
tp1664
I153
s(I20
S'AAG'
p1665
tp1666
I6
s(I53
S'CTC'
p1667
tp1668
I5
s(I53
S'GCC'
p1669
tp1670
I4
s(I17
S'GGA'
p1671
tp1672
I28
s(I74
S'ATT'
p1673
tp1674
I1
s(I45
S'AAC'
p1675
tp1676
I701
s(I47
S'GAT'
p1677
tp1678
I10
s(I42
S'GGA'
p1679
tp1680
I104
s(I22
S'GAT'
p1681
tp1682
I31
s(I5
S'TAC'
p1683
tp1684
I85
s(I16
S'AAC'
p1685
tp1686
I16
s(I30
S'ACA'
p1687
tp1688
I2
s(I65
S'GGC'
p1689
tp1690
I177
s(I63
S'ACA'
p1691
tp1692
I6
s(I27
S'CTA'
p1693
tp1694
I5
s(I55
S'CCA'
p1695
tp1696
I27
s(I41
S'CGA'
p1697
tp1698
I2
s(I64
S'GAA'
p1699
tp1700
I1
s(I31
S'GGC'
p1701
tp1702
I9
s(I48
S'CAT'
p1703
tp1704
I1
s(I51
S'GTC'
p1705
tp1706
I52
s(I61
S'TCG'
p1707
tp1708
I2
s(I61
S'AGA'
p1709
tp1710
I4
s(I30
S'ACG'
p1711
tp1712
I3
s(I45
S'GCC'
p1713
tp1714
I849
s(I64
S'ATG'
p1715
tp1716
I14
s(I52
S'TTA'
p1717
tp1718
I4
s(I14
S'GCC'
p1719
tp1720
I2
s(I33
S'GGC'
p1721
tp1722
I2
s(I40
S'GCC'
p1723
tp1724
I1
s(I65
S'ATC'
p1725
tp1726
I20
s(I28
S'CGC'
p1727
tp1728
I11
s(I5
S'AGC'
p1729
tp1730
I1
s(I28
S'GCT'
p1731
tp1732
I22
s(I25
S'ACC'
p1733
tp1734
I21
s(I38
S'TAT'
p1735
tp1736
I7
s(I66
S'CAT'
p1737
tp1738
I829
s(I7
S'GGC'
p1739
tp1740
I6
s(I4
S'TTT'
p1741
tp1742
I5
s(I67
S'TAA'
p1743
tp1744
I1
s(I25
S'CGC'
p1745
tp1746
I16
s(I65
S'CTA'
p1747
tp1748
I8
s(I67
S'GCC'
p1749
tp1750
I4295
s(I40
S'CAC'
p1751
tp1752
I69
s(I21
S'CAA'
p1753
tp1754
I2
s(I66
S'ATT'
p1755
tp1756
I9
s(I9
S'TAA'
p1757
tp1758
I1
s(I25
S'TGT'
p1759
tp1760
I42
s(I16
S'ACT'
p1761
tp1762
I7
s(I29
S'GGT'
p1763
tp1764
I6
s(I3
S'GGG'
p1765
tp1766
I1
s(I44
S'AAT'
p1767
tp1768
I1
s(I73
S'ACG'
p1769
tp1770
I1
s(I11
S'CAT'
p1771
tp1772
I3
s(I44
S'TCC'
p1773
tp1774
I14
s(I49
S'TAC'
p1775
tp1776
I2
s(I65
S'CAT'
p1777
tp1778
I92
s(I73
S'GCG'
p1779
tp1780
I9
s(I14
S'CGA'
p1781
tp1782
I1
s(I7
S'CCT'
p1783
tp1784
I2690
s(I32
S'ACC'
p1785
tp1786
I4
s(I28
S'AAT'
p1787
tp1788
I26
s(I13
S'ACC'
p1789
tp1790
I3
s(I42
S'GAG'
p1791
tp1792
I1
s(I53
S'TAA'
p1793
tp1794
I1
s(I54
S'AAT'
p1795
tp1796
I40
s(I37
S'GGG'
p1797
tp1798
I2
s(I53
S'CGT'
p1799
tp1800
I4
s(I33
S'AAA'
p1801
tp1802
I16
s(I7
S'ATC'
p1803
tp1804
I218
s(I45
S'GGG'
p1805
tp1806
I44
s(I5
S'GCA'
p1807
tp1808
I1
s(I27
S'AGG'
p1809
tp1810
I1
s(I49
S'AGT'
p1811
tp1812
I48
s(I32
S'TCT'
p1813
tp1814
I17
s(I71
S'CGC'
p1815
tp1816
I1
s(I56
S'ATA'
p1817
tp1818
I6
s(I71
S'ATG'
p1819
tp1820
I290
s(I47
S'GCA'
p1821
tp1822
I20
s(I29
S'CTT'
p1823
tp1824
I27
s(I63
S'TGC'
p1825
tp1826
I17
s(I16
S'GCA'
p1827
tp1828
I6
s(I72
S'CGT'
p1829
tp1830
I23
s(I27
S'ACT'
p1831
tp1832
I21
s(I5
S'CTC'
p1833
tp1834
I42
s(I41
S'GGT'
p1835
tp1836
I172
s(I54
S'CCC'
p1837
tp1838
I70
s(I67
S'TTT'
p1839
tp1840
I173
s(I40
S'GAG'
p1841
tp1842
I3342
s(I48
S'TCA'
p1843
tp1844
I4
s(I58
S'GCA'
p1845
tp1846
I9
s(I49
S'TAT'
p1847
tp1848
I3
s(I70
S'TAA'
p1849
tp1850
I4
s(I24
S'GAG'
p1851
tp1852
I5
s(I5
S'ACC'
p1853
tp1854
I6
s(I36
S'GCC'
p1855
tp1856
I1
s(I46
S'CCT'
p1857
tp1858
I1
s(I35
S'AAT'
p1859
tp1860
I6
s(I64
S'ACA'
p1861
tp1862
I589
s(I61
S'GCG'
p1863
tp1864
I4
s(I33
S'CAT'
p1865
tp1866
I2
s(I57
S'GGA'
p1867
tp1868
I19
s(I41
S'CAT'
p1869
tp1870
I6
s(I46
S'ATT'
p1871
tp1872
I106
s(I34
S'GGT'
p1873
tp1874
I20
s(I25
S'ATA'
p1875
tp1876
I55
s(I14
S'GTC'
p1877
tp1878
I2
s(I24
S'AAG'
p1879
tp1880
I1
s(I42
S'GGT'
p1881
tp1882
I6
s(I22
S'GAC'
p1883
tp1884
I11
s(I70
S'CTC'
p1885
tp1886
I383
s(I69
S'CTC'
p1887
tp1888
I33
s(I23
S'CAC'
p1889
tp1890
I1
s(I73
S'AGT'
p1891
tp1892
I1
s(I46
S'CAG'
p1893
tp1894
I83
s(I51
S'CAG'
p1895
tp1896
I98
s(I48
S'CGC'
p1897
tp1898
I18
s(I48
S'AAA'
p1899
tp1900
I1
s(I59
S'TAG'
p1901
tp1902
I2
s(I69
S'TTC'
p1903
tp1904
I918
s(I35
S'GCT'
p1905
tp1906
I49
s(I65
S'CTG'
p1907
tp1908
I18
s(I40
S'GGC'
p1909
tp1910
I184
s(I23
S'GCG'
p1911
tp1912
I2
s(I62
S'TTG'
p1913
tp1914
I54
s(I8
S'ACG'
p1915
tp1916
I4
s(I23
S'ACG'
p1917
tp1918
I6
s(I3
S'ATG'
p1919
tp1920
I14
s(I54
S'TTA'
p1921
tp1922
I19
s(I37
S'TAA'
p1923
tp1924
I3
s(I8
S'GTC'
p1925
tp1926
I34
s(I72
S'GGT'
p1927
tp1928
I90
s(I62
S'GGA'
p1929
tp1930
I75
s(I54
S'TTT'
p1931
tp1932
I3
s(I51
S'ATT'
p1933
tp1934
I16
s(I61
S'GAT'
p1935
tp1936
I1
s(I11
S'CTC'
p1937
tp1938
I25
s(I21
S'TCT'
p1939
tp1940
I21
s(I14
S'CTT'
p1941
tp1942
I1
s(I61
S'CAC'
p1943
tp1944
I7
s(I70
S'AGC'
p1945
tp1946
I2
s(I36
S'CTA'
p1947
tp1948
I190
s(I32
S'GAA'
p1949
tp1950
I25
s(I55
S'GCG'
p1951
tp1952
I7
s(I41
S'CTG'
p1953
tp1954
I105
s(I6
S'AGA'
p1955
tp1956
I13
s(I25
S'CGT'
p1957
tp1958
I7
s(I67
S'AGC'
p1959
tp1960
I42
s(I56
S'GCG'
p1961
tp1962
I3
s(I24
S'ACA'
p1963
tp1964
I2
s(I68
S'TCG'
p1965
tp1966
I403
s(I55
S'GTA'
p1967
tp1968
I10
s(I30
S'CTG'
p1969
tp1970
I16
s(I38
S'AAT'
p1971
tp1972
I25
s(I69
S'AAG'
p1973
tp1974
I1
s(I66
S'ACG'
p1975
tp1976
I8
s(I31
S'GAC'
p1977
tp1978
I8
s(I51
S'TGC'
p1979
tp1980
I15
s(I56
S'GTG'
p1981
tp1982
I24
s(I27
S'GCT'
p1983
tp1984
I14
s(I60
S'CGT'
p1985
tp1986
I56
s(I47
S'ACC'
p1987
tp1988
I3
s(I41
S'CCA'
p1989
tp1990
I5
s(I75
S'CTC'
p1991
tp1992
I2
s(I17
S'TAG'
p1993
tp1994
I4
s(I54
S'ATA'
p1995
tp1996
I4
s(I16
S'CCG'
p1997
tp1998
I8
s(I37
S'TCT'
p1999
tp2000
I9
s(I19
S'ATA'
p2001
tp2002
I6
s(I15
S'ACA'
p2003
tp2004
I30
s(I13
S'GTC'
p2005
tp2006
I95
s(I24
S'GGG'
p2007
tp2008
I8
s(I37
S'CAC'
p2009
tp2010
I31
s(I42
S'CAC'
p2011
tp2012
I116
s(I65
S'CAG'
p2013
tp2014
I51
s(I9
S'TCA'
p2015
tp2016
I96
s(I66
S'GAG'
p2017
tp2018
I32
s(I32
S'GTC'
p2019
tp2020
I7
s(I32
S'TCC'
p2021
tp2022
I10
s(I72
S'TAT'
p2023
tp2024
I30
s(I52
S'GTA'
p2025
tp2026
I4
s(I57
S'CAT'
p2027
tp2028
I30
s(I72
S'TAA'
p2029
tp2030
I1
s(I75
S'CCG'
p2031
tp2032
I22
s(I38
S'TAC'
p2033
tp2034
I13
s(I59
S'AAC'
p2035
tp2036
I66
s(I26
S'AAG'
p2037
tp2038
I1
s(I34
S'TAA'
p2039
tp2040
I1
s(I63
S'TAA'
p2041
tp2042
I2
s(I8
S'ATC'
p2043
tp2044
I31
s(I43
S'TGA'
p2045
tp2046
I3
s(I64
S'ACT'
p2047
tp2048
I251
s(I15
S'TTC'
p2049
tp2050
I50
s(I71
S'TAA'
p2051
tp2052
I5
s(I2
S'GCA'
p2053
tp2054
I1
s(I41
S'TAT'
p2055
tp2056
I1
s(I15
S'GCT'
p2057
tp2058
I23
s(I63
S'CAA'
p2059
tp2060
I2
s(I68
S'CAA'
p2061
tp2062
I925
s(I15
S'TCC'
p2063
tp2064
I10
s(I67
S'CTC'
p2065
tp2066
I5
s(I6
S'GCT'
p2067
tp2068
I96
s(I57
S'ACA'
p2069
tp2070
I1
s(I49
S'TGC'
p2071
tp2072
I13
s(I27
S'TAT'
p2073
tp2074
I38
s(I18
S'GCA'
p2075
tp2076
I11
s(I28
S'ATA'
p2077
tp2078
I3
s(I21
S'GCT'
p2079
tp2080
I5
s(I65
S'AAA'
p2081
tp2082
I4
s(I32
S'TCA'
p2083
tp2084
I29
s(I7
S'AGT'
p2085
tp2086
I34
s(I28
S'TTG'
p2087
tp2088
I21
s(I36
S'CGG'
p2089
tp2090
I2
s(I76
S'TCC'
p2091
tp2092
I2
s(I59
S'TGC'
p2093
tp2094
I124
s(I13
S'CGT'
p2095
tp2096
I67
s(I60
S'GCA'
p2097
tp2098
I89
s(I25
S'CTA'
p2099
tp2100
I26
s(I24
S'AAA'
p2101
tp2102
I1
s(I34
S'ATC'
p2103
tp2104
I2
s(I75
S'ACC'
p2105
tp2106
I1
s(I21
S'GTT'
p2107
tp2108
I14
s(I49
S'GTG'
p2109
tp2110
I5
s(I15
S'GGA'
p2111
tp2112
I1
s(I12
S'TCG'
p2113
tp2114
I1
s(I54
S'ACG'
p2115
tp2116
I5
s(I53
S'ACG'
p2117
tp2118
I1
s(I38
S'GGC'
p2119
tp2120
I8
s(I45
S'TCA'
p2121
tp2122
I169
s(I49
S'CGG'
p2123
tp2124
I1
s(I19
S'TCA'
p2125
tp2126
I11
s(I38
S'GTG'
p2127
tp2128
I5
s(I23
S'CAA'
p2129
tp2130
I7
s(I39
S'CAA'
p2131
tp2132
I3
s(I44
S'CAA'
p2133
tp2134
I4
s(I49
S'ACC'
p2135
tp2136
I27
s(I74
S'GCG'
p2137
tp2138
I1
s(I40
S'ATC'
p2139
tp2140
I12
s(I65
S'CGA'
p2141
tp2142
I83
s(I62
S'CGC'
p2143
tp2144
I31
s(I54
S'GTG'
p2145
tp2146
I4
s(I19
S'GGT'
p2147
tp2148
I1
s(I61
S'TGT'
p2149
tp2150
I16
s(I31
S'GAT'
p2151
tp2152
I14
s(I36
S'ATA'
p2153
tp2154
I10
s(I62
S'GAA'
p2155
tp2156
I122
s(I44
S'AGT'
p2157
tp2158
I1
s(I40
S'CCC'
p2159
tp2160
I4
s(I6
S'GAT'
p2161
tp2162
I45
s(I13
S'TTA'
p2163
tp2164
I3
s(I48
S'ATG'
p2165
tp2166
I1
s(I72
S'CCG'
p2167
tp2168
I35
s(I35
S'CGA'
p2169
tp2170
I3
s(I27
S'GTG'
p2171
tp2172
I6
s(I33
S'CGA'
p2173
tp2174
I1
s(I49
S'GTC'
p2175
tp2176
I4
s(I9
S'ATA'
p2177
tp2178
I440
s(I52
S'GGC'
p2179
tp2180
I12
s(I48
S'AAC'
p2181
tp2182
I1
s(I15
S'TAA'
p2183
tp2184
I4
s(I22
S'CGG'
p2185
tp2186
I6
s(I17
S'TAT'
p2187
tp2188
I79
s(I8
S'CCC'
p2189
tp2190
I1
s(I30
S'TCC'
p2191
tp2192
I1
s(I55
S'TAG'
p2193
tp2194
I1
s(I32
S'CTT'
p2195
tp2196
I59
s(I19
S'GAC'
p2197
tp2198
I15
s(I68
S'GCG'
p2199
tp2200
I100
s(I28
S'TCC'
p2201
tp2202
I18
s(I4
S'TTG'
p2203
tp2204
I12
s(I28
S'CAG'
p2205
tp2206
I30
s(I19
S'AAG'
p2207
tp2208
I115
s(I75
S'TAG'
p2209
tp2210
I4
s(I62
S'TGA'
p2211
tp2212
I1
s(I63
S'TAT'
p2213
tp2214
I7
s(I23
S'ATT'
p2215
tp2216
I4
s(I46
S'TAT'
p2217
tp2218
I125
s(I64
S'GGT'
p2219
tp2220
I22
s(I58
S'TGG'
p2221
tp2222
I92
s(I66
S'AAC'
p2223
tp2224
I259
s(I71
S'TAT'
p2225
tp2226
I2
s(I52
S'TGA'
p2227
tp2228
I1
s(I12
S'TTA'
p2229
tp2230
I3
s(I7
S'TGT'
p2231
tp2232
I8
s(I72
S'GCA'
p2233
tp2234
I12
s(I29
S'ACC'
p2235
tp2236
I56
s(I12
S'AAC'
p2237
tp2238
I1
s(I68
S'CCA'
p2239
tp2240
I1
s(I3
S'GTG'
p2241
tp2242
I35
s(I74
S'TCG'
p2243
tp2244
I3
s(I19
S'TAC'
p2245
tp2246
I1
s(I18
S'CCC'
p2247
tp2248
I23
s(I44
S'GTC'
p2249
tp2250
I6
s(I58
S'GGG'
p2251
tp2252
I35
s(I32
S'GGT'
p2253
tp2254
I14
s(I27
S'TAC'
p2255
tp2256
I44
s(I9
S'GGT'
p2257
tp2258
I428
s(I66
S'GGG'
p2259
tp2260
I79
s(I72
S'GTA'
p2261
tp2262
I3
s(I64
S'CGG'
p2263
tp2264
I9
s(I65
S'AGT'
p2265
tp2266
I1
s(I37
S'CGG'
p2267
tp2268
I18
s(I55
S'TTT'
p2269
tp2270
I8
s(I13
S'CGA'
p2271
tp2272
I25
s(I24
S'GCG'
p2273
tp2274
I3
s(I53
S'GAC'
p2275
tp2276
I7
s(I6
S'TTA'
p2277
tp2278
I566
s(I36
S'ACC'
p2279
tp2280
I1684
s(I58
S'CAT'
p2281
tp2282
I9
s(I21
S'ATG'
p2283
tp2284
I46
s(I70
S'CGT'
p2285
tp2286
I1
s(I32
S'CGG'
p2287
tp2288
I1
s(I72
S'ACC'
p2289
tp2290
I71
s(I21
S'CTG'
p2291
tp2292
I11
s(I5
S'GGA'
p2293
tp2294
I2
s(I68
S'CCT'
p2295
tp2296
I1
s(I47
S'TCT'
p2297
tp2298
I91
s(I54
S'GAT'
p2299
tp2300
I19
s(I28
S'AGG'
p2301
tp2302
I19
s(I37
S'GCC'
p2303
tp2304
I61
s(I63
S'GGT'
p2305
tp2306
I9
s(I26
S'TTC'
p2307
tp2308
I1
s(I60
S'AGC'
p2309
tp2310
I3
s(I66
S'CTG'
p2311
tp2312
I144
s(I49
S'TTG'
p2313
tp2314
I1
s(I12
S'CTT'
p2315
tp2316
I1
s(I23
S'CCA'
p2317
tp2318
I2
s(I17
S'CTT'
p2319
tp2320
I27
s(I6
S'TGG'
p2321
tp2322
I58
s(I5
S'TGA'
p2323
tp2324
I29
s(I2
S'AAC'
p2325
tp2326
I1
s(I29
S'AGA'
p2327
tp2328
I1
s(I19
S'GGA'
p2329
tp2330
I8
s(I53
S'TTC'
p2331
tp2332
I5
s(I19
S'AGG'
p2333
tp2334
I2
s(I55
S'CTG'
p2335
tp2336
I35
s(I14
S'AAT'
p2337
tp2338
I5
s(I32
S'TAT'
p2339
tp2340
I4
s(I35
S'GTC'
p2341
tp2342
I25
s(I67
S'GGC'
p2343
tp2344
I489
s(I21
S'GGC'
p2345
tp2346
I12
s(I53
S'GTA'
p2347
tp2348
I3
s(I40
S'TAT'
p2349
tp2350
I1
s(I18
S'AAA'
p2351
tp2352
I8
s(I20
S'GAT'
p2353
tp2354
I6
s(I11
S'ACT'
p2355
tp2356
I167
s(I17
S'GAG'
p2357
tp2358
I4
s(I57
S'TAA'
p2359
tp2360
I2
s(I23
S'AGC'
p2361
tp2362
I3
s(I68
S'ACA'
p2363
tp2364
I21
s(I28
S'TCA'
p2365
tp2366
I24
s(I40
S'AGT'
p2367
tp2368
I3
s(I71
S'CTT'
p2369
tp2370
I2
s(I21
S'TGG'
p2371
tp2372
I2
s(I66
S'CGA'
p2373
tp2374
I1
s(I53
S'AGT'
p2375
tp2376
I4
s(I8
S'AAT'
p2377
tp2378
I1
s(I51
S'GCC'
p2379
tp2380
I2
s(I63
S'CGC'
p2381
tp2382
I8
s(I33
S'GCG'
p2383
tp2384
I1
s(I17
S'TCG'
p2385
tp2386
I55
s(I25
S'TTG'
p2387
tp2388
I4
s(I45
S'GAT'
p2389
tp2390
I1
s(I22
S'CAT'
p2391
tp2392
I18
s(I60
S'GGG'
p2393
tp2394
I140
s(I5
S'TCT'
p2395
tp2396
I3
s(I36
S'CGA'
p2397
tp2398
I17
s(I57
S'CTG'
p2399
tp2400
I14
s(I3
S'GCT'
p2401
tp2402
I381
s(I76
S'ATC'
p2403
tp2404
I4
s(I62
S'TAG'
p2405
tp2406
I6
s(I40
S'TTC'
p2407
tp2408
I5
s(I9
S'GAC'
p2409
tp2410
I64
s(I54
S'TCC'
p2411
tp2412
I7
s(I16
S'CGG'
p2413
tp2414
I14
s(I4
S'TAA'
p2415
tp2416
I1
s(I56
S'GGC'
p2417
tp2418
I2
s(I17
S'AGT'
p2419
tp2420
I68
s(I52
S'CGG'
p2421
tp2422
I7
s(I36
S'TGT'
p2423
tp2424
I350
s(I58
S'TTT'
p2425
tp2426
I17
s(I64
S'GGC'
p2427
tp2428
I1218
s(I7
S'TCC'
p2429
tp2430
I24
s(I9
S'CGG'
p2431
tp2432
I22
s(I36
S'TAG'
p2433
tp2434
I1
s(I72
S'ATG'
p2435
tp2436
I21
s(I19
S'GTG'
p2437
tp2438
I10
s(I11
S'ATC'
p2439
tp2440
I9
s(I19
S'ACA'
p2441
tp2442
I23
s(I44
S'TAG'
p2443
tp2444
I2
s(I60
S'AGA'
p2445
tp2446
I9
s(I28
S'TCT'
p2447
tp2448
I13
s(I66
S'GTC'
p2449
tp2450
I4
s(I42
S'CGT'
p2451
tp2452
I29
s(I20
S'CGG'
p2453
tp2454
I24
s(I22
S'CCC'
p2455
tp2456
I16
s(I59
S'ACC'
p2457
tp2458
I2
s(I32
S'GGC'
p2459
tp2460
I1
s(I54
S'CAA'
p2461
tp2462
I4
s(I2
S'TCT'
p2463
tp2464
I3
s(I19
S'ACG'
p2465
tp2466
I8
s(I29
S'GCT'
p2467
tp2468
I13
s(I40
S'TGC'
p2469
tp2470
I3
s(I25
S'TAT'
p2471
tp2472
I21
s(I43
S'GTA'
p2473
tp2474
I23
s(I18
S'CTG'
p2475
tp2476
I13
s(I54
S'AGG'
p2477
tp2478
I22
s(I64
S'TCA'
p2479
tp2480
I585
s(I11
S'CAC'
p2481
tp2482
I25
s(I69
S'CGC'
p2483
tp2484
I1
s(I16
S'CAC'
p2485
tp2486
I7
s(I6
S'TTT'
p2487
tp2488
I76
s(I64
S'CTC'
p2489
tp2490
I138
s(I58
S'CAC'
p2491
tp2492
I1
s(I48
S'CCT'
p2493
tp2494
I2
s(I20
S'GCC'
p2495
tp2496
I21
s(I40
S'CTT'
p2497
tp2498
I41
s(I36
S'TGC'
p2499
tp2500
I97
s(I16
S'TAC'
p2501
tp2502
I7
s(I38
S'ACA'
p2503
tp2504
I27
s(I70
S'AGT'
p2505
tp2506
I1
s(I54
S'GAC'
p2507
tp2508
I17
s(I65
S'CCC'
p2509
tp2510
I90
s(I67
S'CGG'
p2511
tp2512
I2
s(I37
S'TCA'
p2513
tp2514
I35
s(I63
S'AGG'
p2515
tp2516
I16
s(I74
S'TCT'
p2517
tp2518
I1
s(I57
S'TGG'
p2519
tp2520
I15
s(I36
S'GGG'
p2521
tp2522
I2
s(I60
S'ACT'
p2523
tp2524
I43
s(I18
S'CGG'
p2525
tp2526
I5
s(I70
S'TCG'
p2527
tp2528
I2
s(I9
S'GAT'
p2529
tp2530
I382
s(I69
S'CCG'
p2531
tp2532
I4
s(I70
S'CAC'
p2533
tp2534
I1
s(I36
S'GTC'
p2535
tp2536
I3
s(I62
S'AAA'
p2537
tp2538
I74
s(I75
S'CAC'
p2539
tp2540
I7
s(I53
S'CAA'
p2541
tp2542
I8
s(I7
S'GTT'
p2543
tp2544
I42
s(I41
S'AGA'
p2545
tp2546
I2
s(I75
S'ATC'
p2547
tp2548
I1
s(I42
S'TTG'
p2549
tp2550
I9
s(I57
S'TAG'
p2551
tp2552
I1
s(I52
S'ATG'
p2553
tp2554
I8
s(I27
S'TGT'
p2555
tp2556
I1
s(I8
S'GTT'
p2557
tp2558
I85
s(I17
S'GCC'
p2559
tp2560
I8
s(I29
S'CAC'
p2561
tp2562
I12
s(I4
S'CTA'
p2563
tp2564
I2
s(I23
S'AGT'
p2565
tp2566
I6
s(I71
S'GCG'
p2567
tp2568
I1
s(I38
S'CCG'
p2569
tp2570
I15
s(I69
S'AGC'
p2571
tp2572
I320
s(I5
S'CCT'
p2573
tp2574
I3
s(I72
S'TTC'
p2575
tp2576
I118
s(I35
S'AGC'
p2577
tp2578
I1
s(I20
S'GGT'
p2579
tp2580
I21
s(I39
S'GCG'
p2581
tp2582
I1
s(I8
S'GCT'
p2583
tp2584
I2
s(I55
S'CCT'
p2585
tp2586
I6
s(I24
S'CGG'
p2587
tp2588
I1
s(I49
S'CTA'
p2589
tp2590
I2
s(I76
S'TTG'
p2591
tp2592
I1
s(I39
S'AGG'
p2593
tp2594
I1
s(I34
S'ACG'
p2595
tp2596
I1
s(I71
S'GTA'
p2597
tp2598
I4
s(I11
S'TAT'
p2599
tp2600
I3
s(I68
S'TGA'
p2601
tp2602
I1
s(I73
S'GGA'
p2603
tp2604
I1
s(I50
S'GCC'
p2605
tp2606
I1
s(I40
S'GCT'
p2607
tp2608
I1
s(I9
S'CCA'
p2609
tp2610
I941
s(I15
S'TTT'
p2611
tp2612
I53
s(I43
S'CTC'
p2613
tp2614
I14
s(I42
S'GAT'
p2615
tp2616
I1
s(I54
S'GGG'
p2617
tp2618
I36
s(I63
S'CTC'
p2619
tp2620
I3
s(I55
S'CAA'
p2621
tp2622
I4
s(I28
S'GCA'
p2623
tp2624
I5
s(I60
S'GAG'
p2625
tp2626
I15
s(I60
S'CAA'
p2627
tp2628
I47
s(I20
S'AAA'
p2629
tp2630
I32
s(I6
S'CAT'
p2631
tp2632
I101
s(I17
S'GGG'
p2633
tp2634
I20
s(I3
S'GCC'
p2635
tp2636
I32
s(I35
S'TCG'
p2637
tp2638
I8
s(I66
S'ATG'
p2639
tp2640
I69
s(I43
S'ATG'
p2641
tp2642
I1
s(I29
S'GAG'
p2643
tp2644
I36
s(I5
S'GGT'
p2645
tp2646
I1
s(I25
S'CCC'
p2647
tp2648
I4
s(I35
S'TGC'
p2649
tp2650
I25
s(I11
S'AGC'
p2651
tp2652
I383
s(I72
S'AGA'
p2653
tp2654
I13
s(I17
S'CGA'
p2655
tp2656
I1
s(I45
S'TAC'
p2657
tp2658
I18
s(I13
S'GAG'
p2659
tp2660
I86
s(I19
S'TGC'
p2661
tp2662
I28
s(I36
S'TCC'
p2663
tp2664
I2
s(I54
S'AAA'
p2665
tp2666
I7
s(I52
S'TTG'
p2667
tp2668
I3
s(I53
S'CGC'
p2669
tp2670
I1
s(I72
S'TAG'
p2671
tp2672
I14
s(I10
S'GAC'
p2673
tp2674
I11
s(I6
S'CGG'
p2675
tp2676
I11
s(I71
S'AGT'
p2677
tp2678
I1
s(I57
S'GAT'
p2679
tp2680
I11
s(I71
S'ATT'
p2681
tp2682
I3
s(I71
S'TTG'
p2683
tp2684
I36
s(I22
S'GGG'
p2685
tp2686
I4
s(I15
S'CTG'
p2687
tp2688
I47
s(I6
S'GCC'
p2689
tp2690
I83
s(I9
S'TAG'
p2691
tp2692
I1
s(I55
S'TCA'
p2693
tp2694
I55
s(I61
S'ATC'
p2695
tp2696
I36
s(I72
S'TCG'
p2697
tp2698
I1
s(I69
S'TCA'
p2699
tp2700
I21
s(I62
S'TTT'
p2701
tp2702
I11
s(I20
S'CAA'
p2703
tp2704
I24
s(I73
S'ACA'
p2705
tp2706
I1
s(I51
S'CCA'
p2707
tp2708
I131
s(I36
S'AGT'
p2709
tp2710
I9
s(I28
S'ATC'
p2711
tp2712
I4
s(I46
S'TGA'
p2713
tp2714
I3
s(I46
S'CAA'
p2715
tp2716
I21
s(I57
S'ATG'
p2717
tp2718
I32
s(I55
S'AGT'
p2719
tp2720
I31
s(I48
S'AGA'
p2721
tp2722
I2
s(I24
S'GAT'
p2723
tp2724
I43
s(I59
S'AGA'
p2725
tp2726
I8
s(I7
S'GTC'
p2727
tp2728
I65
s(I6
S'ATT'
p2729
tp2730
I1406
s(I29
S'CGT'
p2731
tp2732
I11
s(I13
S'CAC'
p2733
tp2734
I11
s(I55
S'CCC'
p2735
tp2736
I1
s(I18
S'CAC'
p2737
tp2738
I17
s(I73
S'GTC'
p2739
tp2740
I876
s(I41
S'CAG'
p2741
tp2742
I4
s(I22
S'ACG'
p2743
tp2744
I34
s(I46
S'ATG'
p2745
tp2746
I325
s(I54
S'ATC'
p2747
tp2748
I3
s(I22
S'GCG'
p2749
tp2750
I9
s(I56
S'ATG'
p2751
tp2752
I1
s(I54
S'TAT'
p2753
tp2754
I10
s(I7
S'GCC'
p2755
tp2756
I19
s(I25
S'AAT'
p2757
tp2758
I29
s(I74
S'TGC'
p2759
tp2760
I3
s(I17
S'ACC'
p2761
tp2762
I60
s(I33
S'CTC'
p2763
tp2764
I4
s(I48
S'CGT'
p2765
tp2766
I2
s(I11
S'TAG'
p2767
tp2768
I1
s(I32
S'TGC'
p2769
tp2770
I5
s(I73
S'TCC'
p2771
tp2772
I1
s(I63
S'GTA'
p2773
tp2774
I8
s(I20
S'CAG'
p2775
tp2776
I43
s(I22
S'GTG'
p2777
tp2778
I6
s(I73
S'AAT'
p2779
tp2780
I1
s(I52
S'CTG'
p2781
tp2782
I2
s(I48
S'TCG'
p2783
tp2784
I1
s(I43
S'GGA'
p2785
tp2786
I1
s(I68
S'TAT'
p2787
tp2788
I1
s(I70
S'TAG'
p2789
tp2790
I97
s(I45
S'CTC'
p2791
tp2792
I27
s(I17
S'TGT'
p2793
tp2794
I49
s(I8
S'ACT'
p2795
tp2796
I2
s(I37
S'GAT'
p2797
tp2798
I352
s(I42
S'TGT'
p2799
tp2800
I889
s(I61
S'TTG'
p2801
tp2802
I303
s(I65
S'ACG'
p2803
tp2804
I6
s(I72
S'GGA'
p2805
tp2806
I133
s(I52
S'TCC'
p2807
tp2808
I11
s(I65
S'GCG'
p2809
tp2810
I2
s(I69
S'GAG'
p2811
tp2812
I10
s(I76
S'CGC'
p2813
tp2814
I5
s(I24
S'ACC'
p2815
tp2816
I10
s(I24
S'TCT'
p2817
tp2818
I4
s(I39
S'CTA'
p2819
tp2820
I6
s(I47
S'GAG'
p2821
tp2822
I5
s(I17
S'CAG'
p2823
tp2824
I4
s(I76
S'ACC'
p2825
tp2826
I1
s(I65
S'TTA'
p2827
tp2828
I2
s(I36
S'GTA'
p2829
tp2830
I11
s(I16
S'AGT'
p2831
tp2832
I7
s(I57
S'AGT'
p2833
tp2834
I6
s(I37
S'TGA'
p2835
tp2836
I1
s(I24
S'CTC'
p2837
tp2838
I1
s(I37
S'ATG'
p2839
tp2840
I24
s(I5
S'GAC'
p2841
tp2842
I1
s(I29
S'AGT'
p2843
tp2844
I7
s(I16
S'ATT'
p2845
tp2846
I3
s(I4
S'GAT'
p2847
tp2848
I1
s(I63
S'ATG'
p2849
tp2850
I11
s(I17
S'TAA'
p2851
tp2852
I3
s(I50
S'GGC'
p2853
tp2854
I1
s(I27
S'GCG'
p2855
tp2856
I28
s(I60
S'CGA'
p2857
tp2858
I32
s(I59
S'ATC'
p2859
tp2860
I23
s(I40
S'CCG'
p2861
tp2862
I24
s(I62
S'GGG'
p2863
tp2864
I60
s(I55
S'TTC'
p2865
tp2866
I12
s(I39
S'GGA'
p2867
tp2868
I3
s(I22
S'GGA'
p2869
tp2870
I32
s(I21
S'GAC'
p2871
tp2872
I12
s(I57
S'GAA'
p2873
tp2874
I35
s(I30
S'GCA'
p2875
tp2876
I6
s(I29
S'TGA'
p2877
tp2878
I2
s(I51
S'TTT'
p2879
tp2880
I1
s(I32
S'GAG'
p2881
tp2882
I16
s(I35
S'CCC'
p2883
tp2884
I97
s(I56
S'ACA'
p2885
tp2886
I6
s(I53
S'CTG'
p2887
tp2888
I6
s(I56
S'GCA'
p2889
tp2890
I9
s(I54
S'CTT'
p2891
tp2892
I4
s(I59
S'CTT'
p2893
tp2894
I362
s(I41
S'GCA'
p2895
tp2896
I1
s(I51
S'CCT'
p2897
tp2898
I40
s(I29
S'GGG'
p2899
tp2900
I43
s(I17
S'ATA'
p2901
tp2902
I38
s(I33
S'AGT'
p2903
tp2904
I1
s(I30
S'TTT'
p2905
tp2906
I76
s(I73
S'TTG'
p2907
tp2908
I23
s(I75
S'GTG'
p2909
tp2910
I1
s(I15
S'GTG'
p2911
tp2912
I47
s(I56
S'GTA'
p2913
tp2914
I2
s(I76
S'TCT'
p2915
tp2916
I1
s(I7
S'GAT'
p2917
tp2918
I9
s(I8
S'GCC'
p2919
tp2920
I1
s(I55
S'AAA'
p2921
tp2922
I83
s(I60
S'ATT'
p2923
tp2924
I37
s(I51
S'GGG'
p2925
tp2926
I1
s(I48
S'GAG'
p2927
tp2928
I3
s(I6
S'ATA'
p2929
tp2930
I1622
s(I5
S'ATC'
p2931
tp2932
I15
s(I17
S'CCA'
p2933
tp2934
I5
s(I29
S'GTA'
p2935
tp2936
I11
s(I14
S'TAG'
p2937
tp2938
I3
s(I40
S'ACC'
p2939
tp2940
I7
s(I41
S'AAG'
p2941
tp2942
I4
s(I15
S'GCG'
p2943
tp2944
I19
s(I23
S'AAC'
p2945
tp2946
I1
s(I46
S'TAA'
p2947
tp2948
I2
s(I15
S'ACG'
p2949
tp2950
I10
s(I7
S'ATA'
p2951
tp2952
I11
s(I54
S'TAA'
p2953
tp2954
I5
s(I21
S'CTT'
p2955
tp2956
I15
s(I63
S'TGT'
p2957
tp2958
I40
s(I27
S'ATG'
p2959
tp2960
I27
s(I34
S'CTG'
p2961
tp2962
I11
s(I5
S'CTT'
p2963
tp2964
I29
s(I11
S'CCC'
p2965
tp2966
I31
s(I65
S'CAA'
p2967
tp2968
I11
s(I16
S'TCC'
p2969
tp2970
I10
s(I32
S'CAC'
p2971
tp2972
I9
s(I21
S'GCC'
p2973
tp2974
I54
s(I52
S'CCC'
p2975
tp2976
I6
s(I28
S'TTT'
p2977
tp2978
I1
s(I16
S'TGA'
p2979
tp2980
I3
s(I62
S'ATC'
p2981
tp2982
I341
s(I29
S'TCG'
p2983
tp2984
I26
s(I39
S'CCA'
p2985
tp2986
I1
s(I63
S'ACC'
p2987
tp2988
I6
s(I41
S'GAG'
p2989
tp2990
I3
s(I41
S'GTA'
p2991
tp2992
I3
s(I33
S'ATT'
p2993
tp2994
I11
s(I9
S'AGT'
p2995
tp2996
I5
s(I21
S'GTA'
p2997
tp2998
I17
s(I68
S'AGA'
p2999
tp3000
I5
s(I38
S'GCT'
p3001
tp3002
I32
s(I15
S'GGT'
p3003
tp3004
I1
s(I69
S'TGG'
p3005
tp3006
I353
s(I20
S'ACA'
p3007
tp3008
I15
s(I70
S'AAA'
p3009
tp3010
I6
s(I37
S'GTA'
p3011
tp3012
I42
s(I57
S'GGC'
p3013
tp3014
I28
s(I52
S'AGA'
p3015
tp3016
I4
s(I24
S'TCA'
p3017
tp3018
I12
s(I63
S'CAG'
p3019
tp3020
I24
s(I68
S'CAG'
p3021
tp3022
I274
s(I39
S'CTT'
p3023
tp3024
I1
s(I53
S'TGG'
p3025
tp3026
I12
s(I47
S'AAG'
p3027
tp3028
I3
s(I44
S'CTT'
p3029
tp3030
I579
s(I24
S'AAT'
p3031
tp3032
I6
s(I48
S'TTT'
p3033
tp3034
I1
s(I45
S'ATC'
p3035
tp3036
I471
s(I22
S'CTG'
p3037
tp3038
I3
s(I23
S'GTT'
p3039
tp3040
I22
s(I74
S'GCT'
p3041
tp3042
I3
s(I18
S'GCG'
p3043
tp3044
I5
s(I25
S'GCT'
p3045
tp3046
I1
s(I34
S'CAT'
p3047
tp3048
I3
s(I46
S'GGA'
p3049
tp3050
I26
s(I46
S'AGG'
p3051
tp3052
I8
s(I34
S'TGC'
p3053
tp3054
I2
s(I59
S'TAT'
p3055
tp3056
I23
s(I54
S'GGA'
p3057
tp3058
I26
s(I35
S'GCC'
p3059
tp3060
I10
s(I75
S'AAT'
p3061
tp3062
I1
s(I60
S'TGC'
p3063
tp3064
I20
s(I67
S'TAT'
p3065
tp3066
I1
s(I36
S'ATT'
p3067
tp3068
I17
s(I7
S'AAC'
p3069
tp3070
I4436
s(I25
S'CTG'
p3071
tp3072
I2
s(I17
S'GCG'
p3073
tp3074
I4
s(I6
S'GAA'
p3075
tp3076
I62
s(I24
S'GTC'
p3077
tp3078
I13
s(I34
S'AGC'
p3079
tp3080
I1
s(I46
S'TGG'
p3081
tp3082
I51
s(I35
S'CGT'
p3083
tp3084
I25
s(I13
S'ACG'
p3085
tp3086
I3
s(I56
S'TGG'
p3087
tp3088
I1
s(I64
S'AAG'
p3089
tp3090
I6
s(I62
S'AGT'
p3091
tp3092
I252
s(I61
S'GAC'
p3093
tp3094
I1
s(I54
S'ACA'
p3095
tp3096
I2
s(I74
S'CGC'
p3097
tp3098
I9
s(I66
S'GTT'
p3099
tp3100
I17
s(I19
S'TCG'
p3101
tp3102
I27
s(I15
S'ATA'
p3103
tp3104
I69
s(I56
S'ACT'
p3105
tp3106
I3
s(I35
S'GTG'
p3107
tp3108
I112
s(I44
S'CAG'
p3109
tp3110
I4
s(I56
S'GCT'
p3111
tp3112
I3
s(I62
S'CAC'
p3113
tp3114
I17
s(I54
S'CTA'
p3115
tp3116
I4
s(I67
S'GTC'
p3117
tp3118
I24
s(I27
S'ACC'
p3119
tp3120
I43
s(I59
S'CTC'
p3121
tp3122
I244
s(I63
S'CGA'
p3123
tp3124
I17
s(I61
S'CGA'
p3125
tp3126
I3
s(I71
S'TGA'
p3127
tp3128
I1
s(I66
S'GCT'
p3129
tp3130
I8
s(I38
S'CGC'
p3131
tp3132
I6
s(I6
S'TAA'
p3133
tp3134
I6
s(I16
S'GAC'
p3135
tp3136
I14
s(I66
S'ACT'
p3137
tp3138
I1
s(I28
S'CAT'
p3139
tp3140
I5
s(I22
S'AGG'
p3141
tp3142
I17
s(I33
S'TCT'
p3143
tp3144
I5
s(I28
S'ATT'
p3145
tp3146
I1
s(I27
S'GTA'
p3147
tp3148
I12
s(I16
S'CCT'
p3149
tp3150
I44
s(I24
S'ATC'
p3151
tp3152
I3
s(I23
S'ATG'
p3153
tp3154
I62
s(I68
S'TGC'
p3155
tp3156
I60
s(I55
S'ACT'
p3157
tp3158
I2
s(I26
S'TTG'
p3159
tp3160
I12
s(I46
S'GTC'
p3161
tp3162
I91
s(I63
S'CGT'
p3163
tp3164
I37
s(I38
S'AGT'
p3165
tp3166
I6
s(I69
S'TCT'
p3167
tp3168
I18
s(I47
S'CGG'
p3169
tp3170
I1
s(I48
S'CAG'
p3171
tp3172
I1
s(I33
S'CCC'
p3173
tp3174
I2
s(I72
S'CAA'
p3175
tp3176
I90
s(I39
S'ATA'
p3177
tp3178
I3
s(I58
S'TGT'
p3179
tp3180
I102
s(I31
S'AGG'
p3181
tp3182
I3
s(I58
S'GGT'
p3183
tp3184
I5
s(I9
S'CAT'
p3185
tp3186
I1764
s(I70
S'GAC'
p3187
tp3188
I4
s(I45
S'ACG'
p3189
tp3190
I271
s(I9
S'GGC'
p3191
tp3192
I482
s(I5
S'TTC'
p3193
tp3194
I78
s(I72
S'GTT'
p3195
tp3196
I19
s(I13
S'TGC'
p3197
tp3198
I25
s(I65
S'AGG'
p3199
tp3200
I67
s(I41
S'GAT'
p3201
tp3202
I3
s(I3
S'TAG'
p3203
tp3204
I1
s(I17
S'TCT'
p3205
tp3206
I11
s(I13
S'TAG'
p3207
tp3208
I3
s(I47
S'CAA'
p3209
tp3210
I38
s(I67
S'GAG'
p3211
tp3212
I8
s(I52
S'CAA'
p3213
tp3214
I1
s(I8
S'TTC'
p3215
tp3216
I3
s(I20
S'GTC'
p3217
tp3218
I1
s(I18
S'ACA'
p3219
tp3220
I18
s(I60
S'TCT'
p3221
tp3222
I25
s(I9
S'TGG'
p3223
tp3224
I2
s(I2
S'ACA'
p3225
tp3226
I3
s(I51
S'GAG'
p3227
tp3228
I4
s(I55
S'AGC'
p3229
tp3230
I6
s(I63
S'GCC'
p3231
tp3232
I35
s(I15
S'AGG'
p3233
tp3234
I3
s(I52
S'AGT'
p3235
tp3236
I6
s(I36
S'CGT'
p3237
tp3238
I4
s(I74
S'AGG'
p3239
tp3240
I15
s(I21
S'TTA'
p3241
tp3242
I40
s(I63
S'GGG'
p3243
tp3244
I5
s(I55
S'AGA'
p3245
tp3246
I1
s(I8
S'CAT'
p3247
tp3248
I1
s(I71
S'GGG'
p3249
tp3250
I1
s(I23
S'CCT'
p3251
tp3252
I5
s(I17
S'CTA'
p3253
tp3254
I7
s(I51
S'AAG'
p3255
tp3256
I2
s(I22
S'ATT'
p3257
tp3258
I12
s(I37
S'CTA'
p3259
tp3260
I24
s(I33
S'GAC'
p3261
tp3262
I6
s(I42
S'CTC'
p3263
tp3264
I6
s(I34
S'CAC'
p3265
tp3266
I4
s(I64
S'CGA'
p3267
tp3268
I29
s(I7
S'AGG'
p3269
tp3270
I1
s(I18
S'GTT'
p3271
tp3272
I128
s(I57
S'CAG'
p3273
tp3274
I3
s(I37
S'CCC'
p3275
tp3276
I29
s(I75
S'AAA'
p3277
tp3278
I4
s(I64
S'GTT'
p3279
tp3280
I7
s(I13
S'CGG'
p3281
tp3282
I10
s(I14
S'AAA'
p3283
tp3284
I1
s(I13
S'CCG'
p3285
tp3286
I1
s(I40
S'GTC'
p3287
tp3288
I2
s(I6
S'CTA'
p3289
tp3290
I180
s(I12
S'ATC'
p3291
tp3292
I182
s(I40
S'TAG'
p3293
tp3294
I3
s(I57
S'CGG'
p3295
tp3296
I3
s(I31
S'CTC'
p3297
tp3298
I7
s(I34
S'GCC'
p3299
tp3300
I2
s(I38
S'TTA'
p3301
tp3302
I54
s(I37
S'TTG'
p3303
tp3304
I22
s(I62
S'AGC'
p3305
tp3306
I59
s(I54
S'ACT'
p3307
tp3308
I7
s(I20
S'TGA'
p3309
tp3310
I1
s(I75
S'GAA'
p3311
tp3312
I3
s(I38
S'GGT'
p3313
tp3314
I7
s(I61
S'TAG'
p3315
tp3316
I1
s(I37
S'TGT'
p3317
tp3318
I52
s(I61
S'CTC'
p3319
tp3320
I108
s(I28
S'AGT'
p3321
tp3322
I10
s(I9
S'CCC'
p3323
tp3324
I130
s(I67
S'TGC'
p3325
tp3326
I119
s(I22
S'TCA'
p3327
tp3328
I129
s(I12
S'ATA'
p3329
tp3330
I9
s(I6
S'TGA'
p3331
tp3332
I6
s(I40
S'AGA'
p3333
tp3334
I143
s(I20
S'GTT'
p3335
tp3336
I15
s(I68
S'GTC'
p3337
tp3338
I10
s(I45
S'GAG'
p3339
tp3340
I3
s(I51
S'TAA'
p3341
tp3342
I1
s(I4
S'GGA'
p3343
tp3344
I1
s(I10
S'CAC'
p3345
tp3346
I77
s(I57
S'CTT'
p3347
tp3348
I6
s(I55
S'CTA'
p3349
tp3350
I9
s(I28
S'GTA'
p3351
tp3352
I12
s(I3
S'CTG'
p3353
tp3354
I1
s(I33
S'CAG'
p3355
tp3356
I4
s(I51
S'ATC'
p3357
tp3358
I26
s(I33
S'TCC'
p3359
tp3360
I2
s(I53
S'GTG'
p3361
tp3362
I4
s(I44
S'GGC'
p3363
tp3364
I4
s(I8
S'TCG'
p3365
tp3366
I1
s(I55
S'GGA'
p3367
tp3368
I39
s(I7
S'TAA'
p3369
tp3370
I5
s(I27
S'GTT'
p3371
tp3372
I5
s(I69
S'TCG'
p3373
tp3374
I33
s(I55
S'CAC'
p3375
tp3376
I7
s(I68
S'ACG'
p3377
tp3378
I142
s(I32
S'ATT'
p3379
tp3380
I8
s(I61
S'GGC'
p3381
tp3382
I1
s(I39
S'TAG'
p3383
tp3384
I2
s(I40
S'GGG'
p3385
tp3386
I8
s(I28
S'ACC'
p3387
tp3388
I4
s(I8
S'TGC'
p3389
tp3390
I1
s(I38
S'AGC'
p3391
tp3392
I2
s(I4
S'TAT'
p3393
tp3394
I59
s(I72
S'CAT'
p3395
tp3396
I1537
s(I38
S'TTC'
p3397
tp3398
I29
s(I46
S'TTG'
p3399
tp3400
I25
s(I31
S'ATC'
p3401
tp3402
I121
s(I55
S'TCC'
p3403
tp3404
I4
s(I27
S'TCG'
p3405
tp3406
I16
s(I27
S'AAC'
p3407
tp3408
I1
s(I25
S'TTA'
p3409
tp3410
I16
s(I60
S'GGA'
p3411
tp3412
I151
s(I29
S'GCC'
p3413
tp3414
I1
s(I67
S'CTG'
p3415
tp3416
I16
s(I16
S'AGA'
p3417
tp3418
I5
s(I68
S'GAA'
p3419
tp3420
I5
s(I57
S'TTG'
p3421
tp3422
I43
s(I31
S'TCC'
p3423
tp3424
I4
s(I59
S'AGC'
p3425
tp3426
I188
s(I51
S'AGC'
p3427
tp3428
I33
s(I27
S'TTT'
p3429
tp3430
I4
s(I11
S'TAC'
p3431
tp3432
I3
s(I40
S'CTG'
p3433
tp3434
I161
s(I45
S'CGT'
p3435
tp3436
I8
s(I61
S'TTC'
p3437
tp3438
I45
s(I70
S'TGC'
p3439
tp3440
I16
s(I19
S'GTA'
p3441
tp3442
I11
s(I44
S'TAA'
p3443
tp3444
I4
s(I45
S'GTA'
p3445
tp3446
I1867
s(I72
S'GAG'
p3447
tp3448
I2
s(I25
S'GAG'
p3449
tp3450
I45
s(I62
S'GCC'
p3451
tp3452
I247
s(I28
S'GAG'
p3453
tp3454
I41
s(I21
S'CGA'
p3455
tp3456
I1
s(I64
S'TGC'
p3457
tp3458
I79
s(I60
S'ACA'
p3459
tp3460
I42
s(I18
S'CGT'
p3461
tp3462
I11
s(I67
S'ACG'
p3463
tp3464
I413
s(I67
S'CGT'
p3465
tp3466
I2
s(I49
S'TCG'
p3467
tp3468
I150
s(I37
S'CTT'
p3469
tp3470
I21
s(I70
S'GGC'
p3471
tp3472
I1
s(I22
S'TTG'
p3473
tp3474
I17
s(I9
S'GAG'
p3475
tp3476
I5
s(I40
S'GTT'
p3477
tp3478
I4
s(I64
S'CGT'
p3479
tp3480
I6
s(I50
S'GCT'
p3481
tp3482
I1
s(I18
S'GTA'
p3483
tp3484
I16
s(I3
S'CTA'
p3485
tp3486
I15
s(I23
S'TGA'
p3487
tp3488
I1
s(I13
S'CTC'
p3489
tp3490
I2
s(I54
S'TTC'
p3491
tp3492
I10
s(I64
S'TCG'
p3493
tp3494
I1084
s(I56
S'CCA'
p3495
tp3496
I1
s(I69
S'TGT'
p3497
tp3498
I219
s(I52
S'TAC'
p3499
tp3500
I2
s(I9
S'ACA'
p3501
tp3502
I29
s(I60
S'GTA'
p3503
tp3504
I4
s(I50
S'ATG'
p3505
tp3506
I56
s(I11
S'TGG'
p3507
tp3508
I3
s(I65
S'TAT'
p3509
tp3510
I86
s(I72
S'AAA'
p3511
tp3512
I18
s(I32
S'CGT'
p3513
tp3514
I28
s(I35
S'TAG'
p3515
tp3516
I8
s(I68
S'TCC'
p3517
tp3518
I244
s(I55
S'GCC'
p3519
tp3520
I15
s(I17
S'ATC'
p3521
tp3522
I48
s(I66
S'TTG'
p3523
tp3524
I1020
s(I44
S'ACC'
p3525
tp3526
I171
s(I48
S'ATT'
p3527
tp3528
I2
s(I34
S'TCC'
p3529
tp3530
I1
s(I48
S'TAC'
p3531
tp3532
I1
s(I2
S'TAG'
p3533
tp3534
I4
s(I67
S'CGA'
p3535
tp3536
I4
s(I62
S'AAT'
p3537
tp3538
I13
s(I25
S'AGT'
p3539
tp3540
I15
s(I11
S'GGA'
p3541
tp3542
I1019
s(I43
S'CGG'
p3543
tp3544
I1
s(I36
S'GGA'
p3545
tp3546
I6
s(I46
S'TCC'
p3547
tp3548
I272
s(I13
S'GGC'
p3549
tp3550
I1
s(I11
S'GTG'
p3551
tp3552
I7
s(I27
S'GGT'
p3553
tp3554
I13
s(I51
S'TGT'
p3555
tp3556
I2
s(I27
S'TTC'
p3557
tp3558
I37
s(I43
S'TAT'
p3559
tp3560
I5
s(I57
S'TCA'
p3561
tp3562
I32
s(I25
S'TCG'
p3563
tp3564
I4
s(I54
S'CGG'
p3565
tp3566
I24
s(I51
S'ACC'
p3567
tp3568
I25
s(I42
S'AAG'
p3569
tp3570
I2
s(I74
S'AAG'
p3571
tp3572
I15
s(I31
S'TTG'
p3573
tp3574
I5
s(I66
S'GAA'
p3575
tp3576
I29
s(I40
S'TCG'
p3577
tp3578
I18
s(I9
S'GTA'
p3579
tp3580
I38
s(I22
S'GGC'
p3581
tp3582
I46
s(I8
S'CGC'
p3583
tp3584
I1
s(I63
S'TTA'
p3585
tp3586
I8
s(I20
S'GAA'
p3587
tp3588
I35
s(I19
S'CAC'
p3589
tp3590
I25
s(I71
S'CAG'
p3591
tp3592
I2
s(I4
S'GAC'
p3593
tp3594
I1
s(I75
S'GGA'
p3595
tp3596
I9
s(I25
S'GTA'
p3597
tp3598
I3
s(I41
S'GCG'
p3599
tp3600
I5
s(I43
S'ATT'
p3601
tp3602
I1
s(I9
S'AAC'
p3603
tp3604
I1271
s(I65
S'GGT'
p3605
tp3606
I98
s(I27
S'CTT'
p3607
tp3608
I8
s(I13
S'AAC'
p3609
tp3610
I1
s(I49
S'CTG'
p3611
tp3612
I1
s(I2
S'GGG'
p3613
tp3614
I5
s(I17
S'CGT'
p3615
tp3616
I1
s(I45
S'CAT'
p3617
tp3618
I195
s(I15
S'TGT'
p3619
tp3620
I3
s(I48
S'GGC'
p3621
tp3622
I3
s(I25
S'GCA'
p3623
tp3624
I5
s(I58
S'CCC'
p3625
tp3626
I1
s(I70
S'AGG'
p3627
tp3628
I1
s(I20
S'TAG'
p3629
tp3630
I10
s(I73
S'GCT'
p3631
tp3632
I1
s(I73
S'GGG'
p3633
tp3634
I2
s(I52
S'TTT'
p3635
tp3636
I21
s(I33
S'GGT'
p3637
tp3638
I1
s(I28
S'TAG'
p3639
tp3640
I1
s(I14
S'GGC'
p3641
tp3642
I3
s(I38
S'CTG'
p3643
tp3644
I13
s(I70
S'ACG'
p3645
tp3646
I1246
s(I68
S'GTG'
p3647
tp3648
I207
s(I64
S'TTA'
p3649
tp3650
I610
s(I6
S'CGT'
p3651
tp3652
I3
s(I55
S'CAG'
p3653
tp3654
I41
s(I6
S'TCT'
p3655
tp3656
I352
s(I73
S'TGC'
p3657
tp3658
I1
s(I45
S'CGA'
p3659
tp3660
I92
s(I21
S'ATC'
p3661
tp3662
I3
s(I22
S'GGT'
p3663
tp3664
I23
s(I19
S'GTT'
p3665
tp3666
I16
s(I67
S'ATC'
p3667
tp3668
I6
s(I66
S'ATA'
p3669
tp3670
I34
s(I62
S'GAT'
p3671
tp3672
I108
s(I44
S'ATG'
p3673
tp3674
I378
s(I64
S'CCG'
p3675
tp3676
I1
s(I39
S'TTA'
p3677
tp3678
I1
s(I26
S'AGG'
p3679
tp3680
I1
s(I42
S'ACA'
p3681
tp3682
I7
s(I72
S'ATC'
p3683
tp3684
I1
s(I42
S'AAC'
p3685
tp3686
I11
s(I73
S'ACT'
p3687
tp3688
I1
s(I20
S'CGT'
p3689
tp3690
I10
s(I2
S'TCC'
p3691
tp3692
I7
s(I13
S'GAA'
p3693
tp3694
I32
s(I20
S'TGC'
p3695
tp3696
I3
s(I55
S'ATA'
p3697
tp3698
I8
s(I30
S'TGT'
p3699
tp3700
I397
s(I31
S'GCG'
p3701
tp3702
I7
s(I54
S'AAG'
p3703
tp3704
I5
s(I42
S'GTA'
p3705
tp3706
I39
s(I30
S'CCA'
p3707
tp3708
I3
s(I54
S'AGT'
p3709
tp3710
I35
s(I31
S'CGG'
p3711
tp3712
I6
s(I54
S'AAC'
p3713
tp3714
I1
s(I29
S'CGC'
p3715
tp3716
I13
s(I61
S'TGG'
p3717
tp3718
I2
s(I11
S'GAG'
p3719
tp3720
I148
s(I26
S'ACG'
p3721
tp3722
I4
s(I71
S'GAC'
p3723
tp3724
I2
s(I20
S'GGG'
p3725
tp3726
I3
s(I11
S'CGT'
p3727
tp3728
I1
s(I40
S'TTA'
p3729
tp3730
I208
s(I42
S'GCC'
p3731
tp3732
I773
s(I31
S'CAG'
p3733
tp3734
I3
s(I68
S'TCT'
p3735
tp3736
I71
s(I26
S'CGG'
p3737
tp3738
I1
s(I55
S'TAT'
p3739
tp3740
I19
s(I54
S'CAC'
p3741
tp3742
I11
s(I51
S'TCT'
p3743
tp3744
I29
s(I55
S'GAC'
p3745
tp3746
I6
s(I2
S'CGA'
p3747
tp3748
I16
s(I15
S'CTA'
p3749
tp3750
I16
s(I59
S'TCA'
p3751
tp3752
I236
s(I8
S'CTG'
p3753
tp3754
I22
s(I20
S'CAT'
p3755
tp3756
I58
s(I38
S'TAG'
p3757
tp3758
I24
s(I36
S'GGT'
p3759
tp3760
I2
s(I70
S'GTA'
p3761
tp3762
I31
s(I66
S'TGC'
p3763
tp3764
I1
s(I13
S'GGT'
p3765
tp3766
I2
s(I2
S'GCG'
p3767
tp3768
I1
s(I40
S'TTG'
p3769
tp3770
I47
s(I35
S'ATG'
p3771
tp3772
I60
s(I37
S'GAG'
p3773
tp3774
I44
s(I35
S'AGT'
p3775
tp3776
I1
s(I41
S'ACT'
p3777
tp3778
I7
s(I42
S'TGG'
p3779
tp3780
I34
s(I47
S'TCC'
p3781
tp3782
I21
s(I44
S'TGA'
p3783
tp3784
I1
s(I17
S'GCA'
p3785
tp3786
I10
s(I51
S'ACT'
p3787
tp3788
I35
s(I16
S'CTT'
p3789
tp3790
I5
s(I21
S'GAG'
p3791
tp3792
I12
s(I47
S'ACT'
p3793
tp3794
I18
s(I30
S'AGT'
p3795
tp3796
I1
s(I33
S'CTA'
p3797
tp3798
I1
s(I16
S'CTA'
p3799
tp3800
I1
s(I22
S'ACA'
p3801
tp3802
I23
s(I64
S'CAA'
p3803
tp3804
I523
s(I53
S'GCA'
p3805
tp3806
I9
s(I63
S'CCT'
p3807
tp3808
I80
s(I58
S'CTC'
p3809
tp3810
I4
s(I65
S'GAA'
p3811
tp3812
I512
s(I45
S'AAA'
p3813
tp3814
I1
s(I69
S'ACG'
p3815
tp3816
I173
s(I42
S'GGG'
p3817
tp3818
I64
s(I61
S'ACT'
p3819
tp3820
I2
s(I32
S'AAC'
p3821
tp3822
I2
s(I5
S'TAA'
p3823
tp3824
I4
s(I14
S'GCT'
p3825
tp3826
I5
s(I57
S'AGG'
p3827
tp3828
I5
s(I65
S'GGA'
p3829
tp3830
I174
s(I48
S'AAT'
p3831
tp3832
I17
s(I27
S'CTC'
p3833
tp3834
I6
s(I68
S'ATA'
p3835
tp3836
I8
s(I41
S'CGG'
p3837
tp3838
I4
s(I47
S'CTC'
p3839
tp3840
I1
s(I63
S'ATT'
p3841
tp3842
I1
s(I19
S'CGT'
p3843
tp3844
I29
s(I52
S'CTA'
p3845
tp3846
I1
s(I16
S'CGA'
p3847
tp3848
I1
s(I53
S'GGA'
p3849
tp3850
I26
s(I34
S'ACT'
p3851
tp3852
I4
s(I39
S'GAC'
p3853
tp3854
I12
s(I61
S'AGC'
p3855
tp3856
I1
s(I22
S'CTC'
p3857
tp3858
I63
s(I5
S'GCG'
p3859
tp3860
I1
s(I27
S'ACG'
p3861
tp3862
I20
s(I62
S'TAA'
p3863
tp3864
I1
s(I21
S'TAC'
p3865
tp3866
I60
s(I48
S'GGG'
p3867
tp3868
I209
s(I26
S'ATC'
p3869
tp3870
I25
s(I29
S'TAC'
p3871
tp3872
I33
s(I28
S'TGA'
p3873
tp3874
I3
s(I47
S'GTC'
p3875
tp3876
I1
s(I17
S'CAA'
p3877
tp3878
I79
s(I31
S'CAC'
p3879
tp3880
I1
s(I25
S'CGA'
p3881
tp3882
I4
s(I67
S'AGT'
p3883
tp3884
I10
s(I21
S'CAC'
p3885
tp3886
I23
s(I65
S'GTC'
p3887
tp3888
I1
s(I72
S'AAG'
p3889
tp3890
I7
s(I19
S'GCG'
p3891
tp3892
I22
s(I48
S'TAT'
p3893
tp3894
I1
s(I14
S'ACG'
p3895
tp3896
I14
s(I11
S'AAG'
p3897
tp3898
I13
s(I37
S'ATA'
p3899
tp3900
I48
s(I3
S'GGA'
p3901
tp3902
I1
s(I45
S'TGC'
p3903
tp3904
I2
s(I33
S'AGG'
p3905
tp3906
I28
s(I70
S'GCC'
p3907
tp3908
I481
s(I67
S'TCC'
p3909
tp3910
I26
s(I37
S'ACG'
p3911
tp3912
I123
s(I32
S'ACA'
p3913
tp3914
I24
s(I55
S'ATT'
p3915
tp3916
I7
s(I51
S'TAG'
p3917
tp3918
I3
s(I27
S'GCA'
p3919
tp3920
I8
s(I56
S'CCC'
p3921
tp3922
I1
s(I41
S'TCT'
p3923
tp3924
I9
s(I29
S'TAT'
p3925
tp3926
I18
s(I72
S'GAA'
p3927
tp3928
I3
s(I53
S'GGG'
p3929
tp3930
I14
s(I33
S'TGG'
p3931
tp3932
I13
s(I5
S'ATT'
p3933
tp3934
I7
s(I16
S'GTA'
p3935
tp3936
I7
s(I23
S'GAC'
p3937
tp3938
I2
s(I38
S'CAC'
p3939
tp3940
I19
s(I60
S'CCG'
p3941
tp3942
I51
s(I20
S'AGT'
p3943
tp3944
I74
s(I42
S'AGG'
p3945
tp3946
I19
s(I47
S'GCC'
p3947
tp3948
I5
s(I38
S'ACG'
p3949
tp3950
I5
s(I16
S'GCC'
p3951
tp3952
I1
s(I46
S'GAG'
p3953
tp3954
I732
s(I66
S'TAC'
p3955
tp3956
I38
s(I16
S'ACC'
p3957
tp3958
I2
s(I52
S'CCT'
p3959
tp3960
I7
s(I5
S'CTA'
p3961
tp3962
I5
s(I65
S'GAC'
p3963
tp3964
I1718
s(I54
S'CCA'
p3965
tp3966
I1
s(I25
S'CAG'
p3967
tp3968
I17
s(I73
S'TTA'
p3969
tp3970
I57
s(I49
S'GAC'
p3971
tp3972
I1
s(I33
S'ACT'
p3973
tp3974
I1
s(I57
S'ATT'
p3975
tp3976
I3
s(I11
S'AAT'
p3977
tp3978
I71
s(I29
S'ATG'
p3979
tp3980
I2
s(I8
S'ATT'
p3981
tp3982
I84
s(I12
S'GAT'
p3983
tp3984
I1
s(I64
S'ACG'
p3985
tp3986
I244
s(I17
S'CCG'
p3987
tp3988
I1
s(I35
S'TAC'
p3989
tp3990
I1
s(I30
S'AGC'
p3991
tp3992
I5
s(I75
S'CGC'
p3993
tp3994
I1
s(I22
S'ACT'
p3995
tp3996
I35
s(I46
S'TAG'
p3997
tp3998
I2
s(I25
S'ATC'
p3999
tp4000
I50
s(I10
S'CGA'
p4001
tp4002
I3
s(I44
S'GCG'
p4003
tp4004
I8
s(I44
S'CTG'
p4005
tp4006
I156
s(I64
S'AGC'
p4007
tp4008
I125
s(I50
S'ATA'
p4009
tp4010
I58
s(I36
S'CCG'
p4011
tp4012
I14
s(I29
S'CTC'
p4013
tp4014
I185
s(I45
S'ATT'
p4015
tp4016
I1284
s(I69
S'CTA'
p4017
tp4018
I35
s(I5
S'TAT'
p4019
tp4020
I17
s(I18
S'AGG'
p4021
tp4022
I5
s(I18
S'GCT'
p4023
tp4024
I47
s(I48
S'TGA'
p4025
tp4026
I1
s(I50
S'TAG'
p4027
tp4028
I3
s(I12
S'ACA'
p4029
tp4030
I6
s(I43
S'TAC'
p4031
tp4032
I8
s(I73
S'AAG'
p4033
tp4034
I1
s(I68
S'AAT'
p4035
tp4036
I197
s(I48
S'ACA'
p4037
tp4038
I7
s(I20
S'CTT'
p4039
tp4040
I1
s(I25
S'CTT'
p4041
tp4042
I4
s(I23
S'GCA'
p4043
tp4044
I8
s(I63
S'TCT'
p4045
tp4046
I33
s(I11
S'TTC'
p4047
tp4048
I44
s(I2
S'GAG'
p4049
tp4050
I11
s(I21
S'GTG'
p4051
tp4052
I16
s(I47
S'CCG'
p4053
tp4054
I1
s(I44
S'TGG'
p4055
tp4056
I1
s(I72
S'CTT'
p4057
tp4058
I25
s(I12
S'GTA'
p4059
tp4060
I2
s(I37
S'GTG'
p4061
tp4062
I63
s(I16
S'CTC'
p4063
tp4064
I3
s(I28
S'TGG'
p4065
tp4066
I8
s(I36
S'CTC'
p4067
tp4068
I496
s(I34
S'GGC'
p4069
tp4070
I24
s(I55
S'GCA'
p4071
tp4072
I16
s(I20
S'ATC'
p4073
tp4074
I21
s(I6
S'AGC'
p4075
tp4076
I564
s(I8
S'GGA'
p4077
tp4078
I1
s(I46
S'GGG'
p4079
tp4080
I14
s(I53
S'CCC'
p4081
tp4082
I14
s(I55
S'GTC'
p4083
tp4084
I7
s(I69
S'TTT'
p4085
tp4086
I207
s(I24
S'TCG'
p4087
tp4088
I5
s(I35
S'CTG'
p4089
tp4090
I13
s(I32
S'AGA'
p4091
tp4092
I4
s(I31
S'TGG'
p4093
tp4094
I4
s(I31
S'GAA'
p4095
tp4096
I3
s(I8
S'AAA'
p4097
tp4098
I7
s(I18
S'ATC'
p4099
tp4100
I31
s(I32
S'ACT'
p4101
tp4102
I9
s(I18
S'TAC'
p4103
tp4104
I62
s(I13
S'GCC'
p4105
tp4106
I1
s(I65
S'TTG'
p4107
tp4108
I3
s(I52
S'GCT'
p4109
tp4110
I4
s(I15
S'GAA'
p4111
tp4112
I4
s(I16
S'GGA'
p4113
tp4114
I13
s(I28
S'CTG'
p4115
tp4116
I16
s(I16
S'CCA'
p4117
tp4118
I9
s(I55
S'ACC'
p4119
tp4120
I4
s(I49
S'AGC'
p4121
tp4122
I203
s(I7
S'CCA'
p4123
tp4124
I327
s(I9
S'ATT'
p4125
tp4126
I558
s(I67
S'CAT'
p4127
tp4128
I1
s(I15
S'TAC'
p4129
tp4130
I6
s(I13
S'GTA'
p4131
tp4132
I33
s(I69
S'CAC'
p4133
tp4134
I4
s(I10
S'GGC'
p4135
tp4136
I18
s(I42
S'TGC'
p4137
tp4138
I1
s(I56
S'TTG'
p4139
tp4140
I1
s(I9
S'CAG'
p4141
tp4142
I1511
s(I72
S'CTC'
p4143
tp4144
I3
s(I9
S'TCC'
p4145
tp4146
I22
s(I35
S'GGG'
p4147
tp4148
I32
s(I74
S'CAC'
p4149
tp4150
I2
s(I23
S'TTA'
p4151
tp4152
I3
s(I29
S'GAA'
p4153
tp4154
I6
s(I61
S'CGG'
p4155
tp4156
I1
s(I10
S'CTT'
p4157
tp4158
I1
s(I43
S'GGG'
p4159
tp4160
I19
s(I57
S'GTC'
p4161
tp4162
I36
s(I75
S'GCC'
p4163
tp4164
I3
s(I69
S'AAA'
p4165
tp4166
I2
s(I6
S'TAG'
p4167
tp4168
I1
s(I62
S'ACC'
p4169
tp4170
I1285
s(I15
S'GTT'
p4171
tp4172
I46
s(I13
S'TCG'
p4173
tp4174
I3
s(I75
S'CCA'
p4175
tp4176
I7
s(I38
S'TAA'
p4177
tp4178
I1
s(I32
S'GCG'
p4179
tp4180
I6
s(I18
S'GGC'
p4181
tp4182
I59
s(I63
S'TAC'
p4183
tp4184
I11
s(I8
S'ATA'
p4185
tp4186
I179
s(I34
S'AAG'
p4187
tp4188
I1
s(I57
S'GCC'
p4189
tp4190
I4
s(I69
S'ACT'
p4191
tp4192
I153
s(I71
S'TAC'
p4193
tp4194
I2
s(I62
S'GTC'
p4195
tp4196
I182
s(I28
S'GTC'
p4197
tp4198
I34
s(I24
S'TTA'
p4199
tp4200
I6
s(I46
S'AAC'
p4201
tp4202
I1069
s(I64
S'GCG'
p4203
tp4204
I397
s(I37
S'CAT'
p4205
tp4206
I26
s(I4
S'GCG'
p4207
tp4208
I3
s(I56
S'AAG'
p4209
tp4210
I3
s(I22
S'ATG'
p4211
tp4212
I57
s(I46
S'ACA'
p4213
tp4214
I561
s(I27
S'AGC'
p4215
tp4216
I3
s(I3
S'AAG'
p4217
tp4218
I1
s(I64
S'GTG'
p4219
tp4220
I1024
s(I47
S'CAG'
p4221
tp4222
I62
s(I60
S'GCC'
p4223
tp4224
I76
s(I52
S'CAG'
p4225
tp4226
I5
s(I49
S'GGC'
p4227
tp4228
I390
s(I37
S'TGG'
p4229
tp4230
I5
s(I18
S'TCA'
p4231
tp4232
I21
s(I11
S'TTT'
p4233
tp4234
I7
s(I76
S'GAC'
p4235
tp4236
I4
s(I43
S'TAG'
p4237
tp4238
I2
s(I15
S'CAG'
p4239
tp4240
I11
s(I15
S'GGC'
p4241
tp4242
I1
s(I74
S'GTG'
p4243
tp4244
I1
s(I32
S'AAA'
p4245
tp4246
I4
s(I6
S'GCG'
p4247
tp4248
I41
s(I53
S'ACA'
p4249
tp4250
I19
s(I38
S'TCG'
p4251
tp4252
I9
s(I24
S'CCA'
p4253
tp4254
I9
s(I30
S'TTC'
p4255
tp4256
I67
s(I38
S'GGA'
p4257
tp4258
I19
s(I10
S'AGA'
p4259
tp4260
I4
s(I37
S'GCT'
p4261
tp4262
I24
s(I63
S'GGA'
p4263
tp4264
I7
s(I40
S'TGT'
p4265
tp4266
I1
s(I55
S'TGT'
p4267
tp4268
I27
s(I4
S'CTT'
p4269
tp4270
I28
s(I71
S'GGA'
p4271
tp4272
I2
s(I58
S'GAG'
p4273
tp4274
I16
s(I17
S'CTG'
p4275
tp4276
I7
s(I63
S'GTG'
p4277
tp4278
I5
s(I18
S'ATT'
p4279
tp4280
I13
s(I65
S'CGG'
p4281
tp4282
I2
s(I62
S'CGA'
p4283
tp4284
I3
s(I9
S'TTG'
p4285
tp4286
I6
s(I32
S'AGT'
p4287
tp4288
I3
s(I46
S'AGT'
p4289
tp4290
I14
s(I68
S'AGC'
p4291
tp4292
I432
s(I10
S'TAT'
p4293
tp4294
I20
s(I70
S'AAT'
p4295
tp4296
I1
s(I14
S'AAG'
p4297
tp4298
I8
s(I64
S'TCC'
p4299
tp4300
I1147
s(I42
S'TCC'
p4301
tp4302
I2
s(I6
S'CTG'
p4303
tp4304
I114
s(I18
S'TAT'
p4305
tp4306
I14
s(I9
S'GCA'
p4307
tp4308
I74
s(I69
S'AAC'
p4309
tp4310
I10
s(I13
S'TTC'
p4311
tp4312
I1
s(I35
S'CGC'
p4313
tp4314
I1
s(I33
S'CGG'
p4315
tp4316
I20
s(I33
S'CAA'
p4317
tp4318
I4
s(I52
S'GTG'
p4319
tp4320
I8
s(I20
S'CCA'
p4321
tp4322
I67
s(I75
S'GAG'
p4323
tp4324
I2
s(I9
S'ATC'
p4325
tp4326
I382
s(I71
S'CTC'
p4327
tp4328
I35
s(I28
S'AGA'
p4329
tp4330
I2
s(I76
S'CTA'
p4331
tp4332
I4
s(I46
S'CGC'
p4333
tp4334
I133
s(I32
S'CCG'
p4335
tp4336
I14
s(I48
S'GTT'
p4337
tp4338
I3
s(I27
S'TCT'
p4339
tp4340
I4
s(I20
S'TTG'
p4341
tp4342
I11
s(I25
S'TTT'
p4343
tp4344
I52
s(I45
S'GAA'
p4345
tp4346
I8
s(I73
S'AGA'
p4347
tp4348
I7
s(I52
S'TGC'
p4349
tp4350
I21
s(I5
S'TCC'
p4351
tp4352
I1
s(I19
S'GAA'
p4353
tp4354
I18
s(I68
S'GCA'
p4355
tp4356
I16
s(I24
S'CCT'
p4357
tp4358
I18
s(I24
S'TGA'
p4359
tp4360
I1
s(I22
S'AGT'
p4361
tp4362
I5
s(I44
S'AGC'
p4363
tp4364
I36
s(I62
S'TGC'
p4365
tp4366
I104
s(I18
S'TTG'
p4367
tp4368
I26
s(I48
S'GAA'
p4369
tp4370
I2
s(I57
S'GCT'
p4371
tp4372
I15
s(I41
S'TTC'
p4373
tp4374
I225
s(I69
S'ACA'
p4375
tp4376
I25
s(I66
S'AAA'
p4377
tp4378
I1
s(I24
S'GGA'
p4379
tp4380
I4
s(I67
S'CAC'
p4381
tp4382
I1
s(I72
S'GCC'
p4383
tp4384
I77
s(I31
S'AAA'
p4385
tp4386
I2
s(I26
S'GCC'
p4387
tp4388
I7
s(I45
S'TTG'
p4389
tp4390
I67
s(I46
S'TTA'
p4391
tp4392
I3
s(I18
S'CCA'
p4393
tp4394
I14
s(I34
S'TAG'
p4395
tp4396
I3
s(I53
S'AGC'
p4397
tp4398
I3
s(I46
S'ACT'
p4399
tp4400
I42
s(I33
S'GCA'
p4401
tp4402
I1
s(I69
S'GTC'
p4403
tp4404
I23
s(I23
S'CTG'
p4405
tp4406
I14
s(I72
S'GTC'
p4407
tp4408
I57
s(I3
S'TAT'
p4409
tp4410
I3
s(I58
S'TGA'
p4411
tp4412
I4
s(I24
S'CAG'
p4413
tp4414
I3
s(I59
S'TCG'
p4415
tp4416
I5
s(I5
S'TCA'
p4417
tp4418
I1
s(I76
S'GGC'
p4419
tp4420
I14
s(I57
S'TTA'
p4421
tp4422
I6
s(I4
S'AGC'
p4423
tp4424
I1
s(I6
S'TTC'
p4425
tp4426
I23
s(I47
S'GGG'
p4427
tp4428
I4
s(I36
S'ACA'
p4429
tp4430
I16
s(I47
S'AGA'
p4431
tp4432
I6
s(I9
S'TGT'
p4433
tp4434
I166
s(I55
S'GGG'
p4435
tp4436
I30
s(I31
S'ACT'
p4437
tp4438
I11
s(I63
S'TCC'
p4439
tp4440
I22
s(I16
S'TCT'
p4441
tp4442
I7
s(I10
S'CGC'
p4443
tp4444
I1
s(I26
S'CTC'
p4445
tp4446
I8
s(I19
S'CCG'
p4447
tp4448
I6
s(I5
S'GGG'
p4449
tp4450
I1
s(I46
S'CTG'
p4451
tp4452
I12
s(I21
S'AAC'
p4453
tp4454
I2
s(I17
S'TTC'
p4455
tp4456
I2
s(I29
S'ACT'
p4457
tp4458
I10
s(I65
S'CCT'
p4459
tp4460
I5
s(I9
S'ACG'
p4461
tp4462
I13
s(I66
S'CAC'
p4463
tp4464
I1137
s(I25
S'AGG'
p4465
tp4466
I8
s(I38
S'CCC'
p4467
tp4468
I13
s(I23
S'GGG'
p4469
tp4470
I2
s(I13
S'CCC'
p4471
tp4472
I2
s(I74
S'TCA'
p4473
tp4474
I2
s(I65
S'TGG'
p4475
tp4476
I4
s(I24
S'TAG'
p4477
tp4478
I2
s(I60
S'ACG'
p4479
tp4480
I48
s(I46
S'GAC'
p4481
tp4482
I8236
s(I34
S'GAC'
p4483
tp4484
I46
s(I75
S'AGG'
p4485
tp4486
I2
s(I22
S'TTA'
p4487
tp4488
I6
s(I20
S'ACC'
p4489
tp4490
I8
s(I2
S'ACT'
p4491
tp4492
I1
s(I71
S'CCC'
p4493
tp4494
I1
s(I19
S'GGC'
p4495
tp4496
I1
s(I7
S'CAG'
p4497
tp4498
I13
s(I17
S'CAT'
p4499
tp4500
I13
s(I30
S'CAC'
p4501
tp4502
I1
s(I60
S'CTG'
p4503
tp4504
I2
s(I35
S'CAC'
p4505
tp4506
I8
s(I21
S'GGA'
p4507
tp4508
I12
s(I74
S'AAT'
p4509
tp4510
I1
s(I18
S'AAG'
p4511
tp4512
I13
s(I33
S'TTA'
p4513
tp4514
I5
s(I27
S'ACA'
p4515
tp4516
I15
s(I69
S'GGG'
p4517
tp4518
I146
s(I29
S'ACG'
p4519
tp4520
I51
s(I64
S'GAT'
p4521
tp4522
I283
s(I32
S'GTT'
p4523
tp4524
I20
s(I39
S'TCC'
p4525
tp4526
I1
s(I25
S'GAT'
p4527
tp4528
I2
s(I22
S'TGG'
p4529
tp4530
I10
s(I21
S'TGA'
p4531
tp4532
I2
s(I25
S'CGG'
p4533
tp4534
I1
s(I45
S'CAG'
p4535
tp4536
I628
s(I11
S'GTA'
p4537
tp4538
I2
s(I50
S'GTA'
p4539
tp4540
I11
s(I48
S'TAG'
p4541
tp4542
I8
s(I73
S'ATA'
p4543
tp4544
I2557
s(I64
S'CTG'
p4545
tp4546
I29
s(I32
S'CTC'
p4547
tp4548
I29
s(I39
S'GTT'
p4549
tp4550
I2
s(I23
S'TAG'
p4551
tp4552
I3
s(I54
S'GCC'
p4553
tp4554
I2
s(I57
S'TGA'
p4555
tp4556
I2
s(I34
S'TCA'
p4557
tp4558
I4
s(I52
S'ACA'
p4559
tp4560
I6
s(I76
S'ATA'
p4561
tp4562
I4
s(I8
S'CTT'
p4563
tp4564
I11
s(I41
S'GGC'
p4565
tp4566
I30
s(I57
S'TCG'
p4567
tp4568
I23
s(I58
S'CAG'
p4569
tp4570
I10
s(I60
S'CAT'
p4571
tp4572
I12
s(I71
S'GCT'
p4573
tp4574
I2
s(I6
S'CAC'
p4575
tp4576
I532
s(I41
S'TCA'
p4577
tp4578
I1
s(I52
S'CGA'
p4579
tp4580
I4
s(I66
S'AAT'
p4581
tp4582
I52
s(I63
S'TTG'
p4583
tp4584
I14
s(I10
S'AGG'
p4585
tp4586
I6
s(I39
S'TAT'
p4587
tp4588
I1
s(I51
S'CTG'
p4589
tp4590
I36
s(I37
S'AAC'
p4591
tp4592
I8
s(I28
S'ACT'
p4593
tp4594
I2
s(I18
S'TGC'
p4595
tp4596
I42
s(I29
S'GAT'
p4597
tp4598
I1
s(I70
S'GTC'
p4599
tp4600
I18
s(I11
S'AGT'
p4601
tp4602
I311
s(I18
S'CCT'
p4603
tp4604
I6
s(I20
S'CGA'
p4605
tp4606
I5
s(I72
S'ACA'
p4607
tp4608
I98
s(I22
S'CCA'
p4609
tp4610
I14
s(I72
S'AGT'
p4611
tp4612
I162
s(I21
S'TAG'
p4613
tp4614
I1
s(I72
S'ACT'
p4615
tp4616
I38
s(I62
S'CTT'
p4617
tp4618
I22
s(I67
S'CTT'
p4619
tp4620
I65
s(I66
S'GCC'
p4621
tp4622
I393
s(I43
S'GTC'
p4623
tp4624
I19
s(I28
S'TAA'
p4625
tp4626
I1
s(I31
S'GTT'
p4627
tp4628
I72
s(I70
S'ACA'
p4629
tp4630
I684
s(I16
S'CAA'
p4631
tp4632
I6
s(I16
S'TAG'
p4633
tp4634
I2
s(I71
S'AAG'
p4635
tp4636
I2
s(I35
S'TTC'
p4637
tp4638
I1
s(I36
S'TGA'
p4639
tp4640
I11
s(I59
S'GCT'
p4641
tp4642
I629
s(I45
S'CGG'
p4643
tp4644
I107
s(I27
S'CAG'
p4645
tp4646
I10
s(I38
S'TCT'
p4647
tp4648
I93
s(I54
S'CAT'
p4649
tp4650
I10
s(I3
S'GAT'
p4651
tp4652
I2
s(I19
S'ATG'
p4653
tp4654
I16
s(I61
S'CCC'
p4655
tp4656
I1
s(I39
S'ATC'
p4657
tp4658
I1
s(I65
S'CCA'
p4659
tp4660
I91
s(I39
S'TTG'
p4661
tp4662
I1
s(I62
S'TTC'
p4663
tp4664
I6
s(I4
S'CAT'
p4665
tp4666
I5
s(I16
S'AGG'
p4667
tp4668
I3
s(I20
S'ACG'
p4669
tp4670
I17
s(I49
S'TCT'
p4671
tp4672
I469
s(I70
S'GGT'
p4673
tp4674
I1
s(I70
S'TCA'
p4675
tp4676
I3
s(I6
S'GCA'
p4677
tp4678
I1
s(I75
S'CAA'
p4679
tp4680
I1
s(I50
S'TTG'
p4681
tp4682
I15
s(I61
S'GTC'
p4683
tp4684
I10
s(I15
S'CCG'
p4685
tp4686
I1
s(I35
S'CAT'
p4687
tp4688
I49
s(I62
S'ACA'
p4689
tp4690
I518
s(I25
S'AAA'
p4691
tp4692
I7
s(I18
S'GAG'
p4693
tp4694
I3
s(I6
S'GTA'
p4695
tp4696
I311
s(I20
S'GGA'
p4697
tp4698
I3
s(I63
S'CCG'
p4699
tp4700
I22
s(I45
S'AAT'
p4701
tp4702
I574
s(I4
S'CTC'
p4703
tp4704
I36
s(I28
S'GGA'
p4705
tp4706
I4
s(I34
S'GTC'
p4707
tp4708
I1
s(I45
S'AGG'
p4709
tp4710
I107
s(I55
S'TGA'
p4711
tp4712
I6
s(I61
S'ACG'
p4713
tp4714
I14
s(I67
S'CGC'
p4715
tp4716
I14
s(I48
S'ATA'
p4717
tp4718
I2
s(I12
S'CCC'
p4719
tp4720
I85
s(I61
S'AAC'
p4721
tp4722
I2
s(I3
S'AGC'
p4723
tp4724
I1
s(I50
S'GTC'
p4725
tp4726
I283
s(I73
S'ATG'
p4727
tp4728
I19
s(I68
S'ATT'
p4729
tp4730
I8
s(I72
S'TTA'
p4731
tp4732
I2
s(I19
S'CGG'
p4733
tp4734
I9
s(I52
S'CTT'
p4735
tp4736
I2
s(I55
S'AAG'
p4737
tp4738
I16
s(I34
S'ACA'
p4739
tp4740
I4
s(I58
S'ATA'
p4741
tp4742
I5
s(I22
S'TAC'
p4743
tp4744
I10
s(I17
S'TGC'
p4745
tp4746
I11
s(I56
S'TCA'
p4747
tp4748
I5
s(I74
S'CAT'
p4749
tp4750
I2
s(I18
S'AAT'
p4751
tp4752
I5
s(I30
S'TTA'
p4753
tp4754
I39
s(I28
S'CTA'
p4755
tp4756
I31
s(I28
S'GCC'
p4757
tp4758
I5
s(I27
S'TGC'
p4759
tp4760
I2
s(I38
S'ATC'
p4761
tp4762
I4
s(I17
S'AGC'
p4763
tp4764
I9
s(I46
S'ACG'
p4765
tp4766
I161
s(I53
S'GCG'
p4767
tp4768
I5
s(I65
S'AAC'
p4769
tp4770
I59
s(I69
S'GAC'
p4771
tp4772
I5
s(I15
S'CGC'
p4773
tp4774
I2
s(I29
S'GTT'
p4775
tp4776
I36
s(I38
S'GAG'
p4777
tp4778
I17
s(I69
S'CAT'
p4779
tp4780
I1
s(I67
S'TGT'
p4781
tp4782
I14
s(I41
S'ACA'
p4783
tp4784
I46
s(I74
S'TGA'
p4785
tp4786
I6
s(I16
S'AAG'
p4787
tp4788
I19
s(I12
S'TAG'
p4789
tp4790
I2
s(I27
S'TGA'
p4791
tp4792
I1
s(I42
S'TTT'
p4793
tp4794
I4
s(I33
S'TGA'
p4795
tp4796
I2
s(I66
S'GGT'
p4797
tp4798
I3
s(I11
S'AGA'
p4799
tp4800
I8
s(I6
S'GGC'
p4801
tp4802
I1818
s(I72
S'CTA'
p4803
tp4804
I6
s(I52
S'TAT'
p4805
tp4806
I8
s(I17
S'CGG'
p4807
tp4808
I4
s(I45
S'TAA'
p4809
tp4810
I5
s(I21
S'CTA'
p4811
tp4812
I1
s(I28
S'GAC'
p4813
tp4814
I94
s(I30
S'ACC'
p4815
tp4816
I2
s(I67
S'ACC'
p4817
tp4818
I21
s(I53
S'AAG'
p4819
tp4820
I4
s(I53
S'CGA'
p4821
tp4822
I12
s(I33
S'GGG'
p4823
tp4824
I2
s(I28
S'CGG'
p4825
tp4826
I6
s(I16
S'CAT'
p4827
tp4828
I13
s(I67
S'ACT'
p4829
tp4830
I1948
s(I29
S'TGT'
p4831
tp4832
I8
s(I35
S'TTT'
p4833
tp4834
I12
s(I65
S'TCG'
p4835
tp4836
I1
s(I36
S'GTG'
p4837
tp4838
I22
s(I61
S'TAC'
p4839
tp4840
I1
s(I16
S'GCT'
p4841
tp4842
I33
s(I8
S'GAT'
p4843
tp4844
I3
s(I47
S'CAT'
p4845
tp4846
I2
s(I19
S'GCA'
p4847
tp4848
I4
s(I19
S'TTG'
p4849
tp4850
I4
s(I69
S'TCC'
p4851
tp4852
I372
s(I45
S'GCA'
p4853
tp4854
I1190
s(I48
S'GCG'
p4855
tp4856
I2
s(I73
S'ACC'
p4857
tp4858
I1
s(I44
S'GAC'
p4859
tp4860
I2
s(I52
S'GAG'
p4861
tp4862
I17
s(I73
S'GCC'
p4863
tp4864
I1
s(I33
S'ACG'
p4865
tp4866
I1
s(I57
S'ATA'
p4867
tp4868
I15
s(I74
S'TAA'
p4869
tp4870
I4
s(I45
S'GTG'
p4871
tp4872
I1912
s(I16
S'TGG'
p4873
tp4874
I4
s(I40
S'AAT'
p4875
tp4876
I116
s(I60
S'ATA'
p4877
tp4878
I5
s(I51
S'GGT'
p4879
tp4880
I47
s(I75
S'GCG'
p4881
tp4882
I1
s(I45
S'GGC'
p4883
tp4884
I363
s(I7
S'CTA'
p4885
tp4886
I2
s(I37
S'GCA'
p4887
tp4888
I83
s(I26
S'ACT'
p4889
tp4890
I5
s(I60
S'CCA'
p4891
tp4892
I18
s(I19
S'AAA'
p4893
tp4894
I163
s(I33
S'TAG'
p4895
tp4896
I5
s(I48
S'CTC'
p4897
tp4898
I6
s(I50
S'ATT'
p4899
tp4900
I14
s(I58
S'GTG'
p4901
tp4902
I7
s(I2
S'TGT'
p4903
tp4904
I2
s(I63
S'TGG'
p4905
tp4906
I23
s(I72
S'TTT'
p4907
tp4908
I41
s(I61
S'CTG'
p4909
tp4910
I88
s(I18
S'TCG'
p4911
tp4912
I71
s(I24
S'AGC'
p4913
tp4914
I3
s(I27
S'ATA'
p4915
tp4916
I60
s(I32
S'TGA'
p4917
tp4918
I3
s(I16
S'AAA'
p4919
tp4920
I5
s(I25
S'CAA'
p4921
tp4922
I41
s(I74
S'GAG'
p4923
tp4924
I11
s(I36
S'AGC'
p4925
tp4926
I4
s(I36
S'CCT'
p4927
tp4928
I12
s(I7
S'TCA'
p4929
tp4930
I7
s(I76
S'GTC'
p4931
tp4932
I3
s(I50
S'CTC'
p4933
tp4934
I16
s(I21
S'CGG'
p4935
tp4936
I1
s(I5
S'ACG'
p4937
tp4938
I5
s(I8
S'GCA'
p4939
tp4940
I1
s(I71
S'TTT'
p4941
tp4942
I4
s(I30
S'CGT'
p4943
tp4944
I12
s(I72
S'GGC'
p4945
tp4946
I124
s(I52
S'TCA'
p4947
tp4948
I13
s(I13
S'CAT'
p4949
tp4950
I17
s(I23
S'CCC'
p4951
tp4952
I55
s(I33
S'TGC'
p4953
tp4954
I2
s(I45
S'TCC'
p4955
tp4956
I622
s(I37
S'GTT'
p4957
tp4958
I107
s(I57
S'GGT'
p4959
tp4960
I12
s(I37
S'TAG'
p4961
tp4962
I6
s(I39
S'CTC'
p4963
tp4964
I2
s(I24
S'ATT'
p4965
tp4966
I1
s(I44
S'CTA'
p4967
tp4968
I280
s(I76
S'ACA'
p4969
tp4970
I1
s(I65
S'TTC'
p4971
tp4972
I12
s(I36
S'CCA'
p4973
tp4974
I1
s(I40
S'ACT'
p4975
tp4976
I6
s(I23
S'CAG'
p4977
tp4978
I6
s(I23
S'TTC'
p4979
tp4980
I13
s(I18
S'AGA'
p4981
tp4982
I19
s(I46
S'CAC'
p4983
tp4984
I1087
s(I51
S'CAC'
p4985
tp4986
I4
s(I46
S'GGT'
p4987
tp4988
I441
s(I12
S'ACG'
p4989
tp4990
I8
s(I35
S'TGT'
p4991
tp4992
I11
s(I54
S'GGT'
p4993
tp4994
I6
s(I60
S'TGT'
p4995
tp4996
I8
s(I45
S'TAT'
p4997
tp4998
I1
s(I31
S'GGT'
p4999
tp5000
I39
s(I29
S'TAA'
p5001
tp5002
I4
s(I41
S'GTC'
p5003
tp5004
I27
s(I74
S'GTA'
p5005
tp5006
I346
s(I60
S'CGC'
p5007
tp5008
I5
s(I8
S'ACC'
p5009
tp5010
I2
s(I29
S'CAG'
p5011
tp5012
I5
s(I73
S'GAC'
p5013
tp5014
I1
s(I46
S'TGT'
p5015
tp5016
I84
s(I47
S'CCA'
p5017
tp5018
I2
s(I15
S'GAT'
p5019
tp5020
I1
s(I39
S'GGC'
p5021
tp5022
I3
s(I31
S'TGC'
p5023
tp5024
I2
s(I57
S'GAC'
p5025
tp5026
I3
s(I25
S'ACT'
p5027
tp5028
I1
s(I29
S'TGC'
p5029
tp5030
I42
s(I59
S'CCG'
p5031
tp5032
I1
s(I51
S'GTA'
p5033
tp5034
I48
s(I27
S'TTA'
p5035
tp5036
I45
s(I66
S'CAG'
p5037
tp5038
I7
s(I7
S'GGT'
p5039
tp5040
I1480
s(I29
S'AGC'
p5041
tp5042
I45
s(I30
S'GTA'
p5043
tp5044
I11
s(I56
S'ACG'
p5045
tp5046
I1
s(I35
S'TAT'
p5047
tp5048
I2
s(I56
S'GCC'
p5049
tp5050
I3
s(I70
S'AAG'
p5051
tp5052
I2
s(I39
S'TGC'
p5053
tp5054
I1
s(I25
S'TGG'
p5055
tp5056
I21
s(I21
S'AGC'
p5057
tp5058
I22
s(I14
S'ACT'
p5059
tp5060
I44
s(I10
S'GCC'
p5061
tp5062
I2
s(I44
S'AAG'
p5063
tp5064
I1
s(I66
S'GCG'
p5065
tp5066
I8
s(I27
S'CAC'
p5067
tp5068
I31
s(I67
S'TCT'
p5069
tp5070
I20
s(I62
S'ACT'
p5071
tp5072
I266
s(I64
S'TGA'
p5073
tp5074
I3
s(I15
S'GTA'
p5075
tp5076
I5
s(I15
S'CCC'
p5077
tp5078
I1
s(I41
S'TTA'
p5079
tp5080
I61
s(I37
S'GGT'
p5081
tp5082
I1
s(I15
S'AGA'
p5083
tp5084
I1
s(I25
S'GTG'
p5085
tp5086
I2
s(I51
S'GGA'
p5087
tp5088
I1
s(I75
S'CTG'
p5089
tp5090
I9
s(I6
S'ATC'
p5091
tp5092
I271
s(I65
S'AAG'
p5093
tp5094
I18
s(I45
S'GGT'
p5095
tp5096
I222
s(I27
S'AGT'
p5097
tp5098
I18
s(I15
S'GCA'
p5099
tp5100
I2
s(I19
S'TTC'
p5101
tp5102
I5
s(I13
S'GTG'
p5103
tp5104
I9
s(I33
S'CCT'
p5105
tp5106
I15
s(I52
S'GCA'
p5107
tp5108
I1
s(I36
S'TCG'
p5109
tp5110
I8
s(I37
S'CAG'
p5111
tp5112
I55
s(I69
S'GCC'
p5113
tp5114
I164
s(I42
S'CAG'
p5115
tp5116
I10
s(I54
S'GTC'
p5117
tp5118
I3
s(I9
S'CAA'
p5119
tp5120
I1380
s(I72
S'CGG'
p5121
tp5122
I2
s(I65
S'CAC'
p5123
tp5124
I16
s(I29
S'GTG'
p5125
tp5126
I17
s(I66
S'GAC'
p5127
tp5128
I430
s(I21
S'GCA'
p5129
tp5130
I14
s(I23
S'TTG'
p5131
tp5132
I14
s(I42
S'TTA'
p5133
tp5134
I1
s(I38
S'CTT'
p5135
tp5136
I26
s(I39
S'CCC'
p5137
tp5138
I1
s(I7
S'TCT'
p5139
tp5140
I88
s(I16
S'GAT'
p5141
tp5142
I14
s(I45
S'CTT'
p5143
tp5144
I32
s(I18
S'ACT'
p5145
tp5146
I15
s(I32
S'GCA'
p5147
tp5148
I11
s(I29
S'ATT'
p5149
tp5150
I94
s(I32
S'CAT'
p5151
tp5152
I2
s(I46
S'CCC'
p5153
tp5154
I2
s(I8
S'ATG'
p5155
tp5156
I1
s(I66
S'CTC'
p5157
tp5158
I108
s(I61
S'GCT'
p5159
tp5160
I5
s(I58
S'ACA'
p5161
tp5162
I20
s(I41
S'GCC'
p5163
tp5164
I40
s(I39
S'GAA'
p5165
tp5166
I2
s(I24
S'ACT'
p5167
tp5168
I3
s(I52
S'AGG'
p5169
tp5170
I2
s(I34
S'GCT'
p5171
tp5172
I1
s(I54
S'TGG'
p5173
tp5174
I31
s(I34
S'CCG'
p5175
tp5176
I13
s(I64
S'AGT'
p5177
tp5178
I1449
s(I64
S'GCA'
p5179
tp5180
I1420
s(I24
S'CGT'
p5181
tp5182
I2
s(I17
S'GAA'
p5183
tp5184
I5
s(I11
S'CCT'
p5185
tp5186
I378
s(I4
S'TGC'
p5187
tp5188
I1
s(I17
S'ATG'
p5189
tp5190
I25
s(I72
S'CCT'
p5191
tp5192
I10
s(I60
S'AAA'
p5193
tp5194
I155
s(I33
S'AGC'
p5195
tp5196
I5
s(I46
S'AGA'
p5197
tp5198
I45
s(I3
S'CAA'
p5199
tp5200
I4
s(I8
S'CAA'
p5201
tp5202
I1
s(I60
S'TGA'
p5203
tp5204
I2
s(I41
S'ATA'
p5205
tp5206
I2
s(I64
S'GTA'
p5207
tp5208
I259
s(I60
S'ATC'
p5209
tp5210
I26
s(I6
S'GAC'
p5211
tp5212
I23
s(I23
S'ACT'
p5213
tp5214
I3
s(I39
S'AGC'
p5215
tp5216
I3
s(I38
S'GCC'
p5217
tp5218
I21
s(I70
S'CCG'
p5219
tp5220
I1
s(I64
S'AAA'
p5221
tp5222
I1
s(I12
S'TCC'
p5223
tp5224
I11
s(I30
S'ATA'
p5225
tp5226
I3
s(I54
S'ACC'
p5227
tp5228
I9
s(I41
S'TCG'
p5229
tp5230
I8
s(I21
S'TCG'
p5231
tp5232
I37
s(I38
S'GGG'
p5233
tp5234
I86
s(I49
S'CGC'
p5235
tp5236
I1
s(I25
S'GCG'
p5237
tp5238
I16
s(I37
S'TAC'
p5239
tp5240
I1
s(I15
S'ATG'
p5241
tp5242
I24
s(I49
S'GCC'
p5243
tp5244
I165
s(I6
S'TGC'
p5245
tp5246
I269
s(I58
S'GAA'
p5247
tp5248
I28
s(I8
S'GGT'
p5249
tp5250
I1
s(I20
S'TTT'
p5251
tp5252
I30
s(I71
S'TCG'
p5253
tp5254
I1
s(I48
S'CTT'
p5255
tp5256
I7
s(I51
S'CCC'
p5257
tp5258
I29
s(I9
S'TTA'
p5259
tp5260
I2
s(I23
S'TCA'
p5261
tp5262
I12
s(I38
S'AAC'
p5263
tp5264
I18
s(I35
S'CTT'
p5265
tp5266
I7
s(I24
S'TGT'
p5267
tp5268
I3
s(I54
S'GCG'
p5269
tp5270
I31
s(I22
S'AGA'
p5271
tp5272
I3
s(I24
S'TTC'
p5273
tp5274
I1
s(I66
S'CCG'
p5275
tp5276
I56
s(I27
S'GTC'
p5277
tp5278
I8
s(I37
S'AGG'
p5279
tp5280
I31
s(I38
S'TTT'
p5281
tp5282
I3
s(I64
S'TTG'
p5283
tp5284
I165
s(I57
S'ACG'
p5285
tp5286
I13
s(I16
S'TGT'
p5287
tp5288
I5
s(I7
S'GAG'
p5289
tp5290
I130
s(I72
S'GCT'
p5291
tp5292
I110
s(I51
S'TCC'
p5293
tp5294
I4
s(I49
S'GGT'
p5295
tp5296
I459
s(I19
S'TAT'
p5297
tp5298
I21
s(I49
S'CAC'
p5299
tp5300
I162
s(I33
S'CCA'
p5301
tp5302
I4
s(I72
S'CAG'
p5303
tp5304
I3
s(I22
S'CGC'
p5305
tp5306
I7
s(I8
S'CCG'
p5307
tp5308
I1
s(I22
S'TAA'
p5309
tp5310
I3
s(I73
S'CTT'
p5311
tp5312
I13
s(I45
S'ACA'
p5313
tp5314
I986
s(I47
S'TAC'
p5315
tp5316
I4
s(I9
S'GGA'
p5317
tp5318
I63
s(I61
S'ATG'
p5319
tp5320
I217
s(I65
S'AGA'
p5321
tp5322
I21
s(I55
S'TAC'
p5323
tp5324
I59
s(I3
S'TAA'
p5325
tp5326
I4
s(I19
S'GAG'
p5327
tp5328
I19
s(I59
S'TCT'
p5329
tp5330
I25
s(I52
S'AAC'
p5331
tp5332
I7
s(I57
S'TTT'
p5333
tp5334
I13
s(I53
S'TAG'
p5335
tp5336
I4
s(I13
S'TCT'
p5337
tp5338
I1
s(I8
S'TTA'
p5339
tp5340
I1
s(I9
S'AGC'
p5341
tp5342
I40
s(I46
S'CTT'
p5343
tp5344
I7
s(I18
S'ACC'
p5345
tp5346
I13
s(I57
S'GTT'
p5347
tp5348
I37
s(I32
S'GCT'
p5349
tp5350
I2
s(I3
S'TGC'
p5351
tp5352
I57
s(I31
S'CCG'
p5353
tp5354
I2
s(I21
S'ACA'
p5355
tp5356
I2
s(I10
S'ACC'
p5357
tp5358
I2
s(I13
S'AGG'
p5359
tp5360
I58
s(I74
S'TGT'
p5361
tp5362
I1
s(I45
S'GTT'
p5363
tp5364
I251
s(I21
S'TTC'
p5365
tp5366
I4
s(I19
S'ATT'
p5367
tp5368
I5
s(I32
S'CGA'
p5369
tp5370
I48
s(I64
S'GCT'
p5371
tp5372
I283
s(I19
S'TAG'
p5373
tp5374
I1
s(I44
S'GTG'
p5375
tp5376
I1
s(I58
S'GGC'
p5377
tp5378
I6
s(I34
S'GAT'
p5379
tp5380
I38
s(I27
S'TAG'
p5381
tp5382
I5
s(I37
S'CTG'
p5383
tp5384
I30
s(I66
S'GGC'
p5385
tp5386
I9
s(I64
S'CGC'
p5387
tp5388
I18
s(I8
S'GAC'
p5389
tp5390
I1
s(I42
S'TGA'
p5391
tp5392
I5
s(I75
S'AAC'
p5393
tp5394
I2
s(I42
S'TAG'
p5395
tp5396
I1
s(I9
S'TGA'
p5397
tp5398
I1
s(I20
S'CCG'
p5399
tp5400
I19
s(I47
S'GGA'
p5401
tp5402
I3
s(I21
S'GGT'
p5403
tp5404
I1
s(I39
S'AAC'
p5405
tp5406
I2
s(I36
S'ACG'
p5407
tp5408
I1656
s(I40
S'TAA'
p5409
tp5410
I7
s(I7
S'ATT'
p5411
tp5412
I56
s(I33
S'TTT'
p5413
tp5414
I3
s(I53
S'GAA'
p5415
tp5416
I2
s(I34
S'GCA'
p5417
tp5418
I1
s(I32
S'CGC'
p5419
tp5420
I14
s(I12
S'TCT'
p5421
tp5422
I6
s(I12
S'GCC'
p5423
tp5424
I1
s(I66
S'CCT'
p5425
tp5426
I2
s(I37
S'GCG'
p5427
tp5428
I97
s(I63
S'ACT'
p5429
tp5430
I11
s(I61
S'CTA'
p5431
tp5432
I140
s(I10
S'GCG'
p5433
tp5434
I1
s(I47
S'TTT'
p5435
tp5436
I2
s(I23
S'GGA'
p5437
tp5438
I5
s(I49
S'TTC'
p5439
tp5440
I3
s(I22
S'GCT'
p5441
tp5442
I21
s(I22
S'TCC'
p5443
tp5444
I9
s(I67
S'CCC'
p5445
tp5446
I1
s(I54
S'GTT'
p5447
tp5448
I10
s(I56
S'TAG'
p5449
tp5450
I7
s(I72
S'CTG'
p5451
tp5452
I11
s(I24
S'CCC'
p5453
tp5454
I31
s(I60
S'AGT'
p5455
tp5456
I20
s(I53
S'TTG'
p5457
tp5458
I29
s(I55
S'CTC'
p5459
tp5460
I16
s(I10
S'TCG'
p5461
tp5462
I6
s(I34
S'TCT'
p5463
tp5464
I6
s(I60
S'CTA'
p5465
tp5466
I9
s(I67
S'GGG'
p5467
tp5468
I28
s(I55
S'GGT'
p5469
tp5470
I3
s(I67
S'ATA'
p5471
tp5472
I39
s(I3
S'CCG'
p5473
tp5474
I4
s(I71
S'GCC'
p5475
tp5476
I4
s(I43
S'AGG'
p5477
tp5478
I2
s(I57
S'TGC'
p5479
tp5480
I13
s(I61
S'GGA'
p5481
tp5482
I2
s(I10
S'TCT'
p5483
tp5484
I25
s(I61
S'TCT'
p5485
tp5486
I1
s(I40
S'GGA'
p5487
tp5488
I110
s(I22
S'TGA'
p5489
tp5490
I1
s(I28
S'ACA'
p5491
tp5492
I6
s(I8
S'TGA'
p5493
tp5494
I11
s(I51
S'TCG'
p5495
tp5496
I7
s(I9
S'AAT'
p5497
tp5498
I603
s(I44
S'CGC'
p5499
tp5500
I3
s(I28
S'GTG'
p5501
tp5502
I32
s(I67
S'GGT'
p5503
tp5504
I684
s(I15
S'ATT'
p5505
tp5506
I47
s(I25
S'TTC'
p5507
tp5508
I50
s(I62
S'CTC'
p5509
tp5510
I230
s(I60
S'GGC'
p5511
tp5512
I21
s(I29
S'GCA'
p5513
tp5514
I30
s(I67
S'CTA'
p5515
tp5516
I17
s(I55
S'CGG'
p5517
tp5518
I4
s(I23
S'TAA'
p5519
tp5520
I2
s(I43
S'GTT'
p5521
tp5522
I49
s(I68
S'GAG'
p5523
tp5524
I2
s(I52
S'ACG'
p5525
tp5526
I5
s(I31
S'TCA'
p5527
tp5528
I12
s(I8
S'TTT'
p5529
tp5530
I1
s(I69
S'ATC'
p5531
tp5532
I4
s(I54
S'TCG'
p5533
tp5534
I30
s(I58
S'AAC'
p5535
tp5536
I5
s(I56
S'TGA'
p5537
tp5538
I3
s(I18
S'TTT'
p5539
tp5540
I38
s(I48
S'CCC'
p5541
tp5542
I1
s(I38
S'GCG'
p5543
tp5544
I15
s(I40
S'CTA'
p5545
tp5546
I325
s(I64
S'GGG'
p5547
tp5548
I46
s(I59
S'GCG'
p5549
tp5550
I80
s(I9
S'CGC'
p5551
tp5552
I2
s(I8
S'AGA'
p5553
tp5554
I1
s(I36
S'TAC'
p5555
tp5556
I7
s(I20
S'GAC'
p5557
tp5558
I35
s(I7
S'TGA'
p5559
tp5560
I1
s(I42
S'ACT'
p5561
tp5562
I4
s(I53
S'TCT'
p5563
tp5564
I4
s(I44
S'TAC'
p5565
tp5566
I2
s(I30
S'GGG'
p5567
tp5568
I24
s(I17
S'AAT'
p5569
tp5570
I67
s(I10
S'AAG'
p5571
tp5572
I11
s(I76
S'GCT'
p5573
tp5574
I1
s(I26
S'GCT'
p5575
tp5576
I1
s(I25
S'GAA'
p5577
tp5578
I3
s(I62
S'GCA'
p5579
tp5580
I111
s(I20
S'TTA'
p5581
tp5582
I2
s(I51
S'TTA'
p5583
tp5584
I27
s(I22
S'CCG'
p5585
tp5586
I7
s(I57
S'AAC'
p5587
tp5588
I11
s(I27
S'AAT'
p5589
tp5590
I2
s(I76
S'TGC'
p5591
tp5592
I2
s(I40
S'ATT'
p5593
tp5594
I14
s(I22
S'AAC'
p5595
tp5596
I15
s(I19
S'ACC'
p5597
tp5598
I12
s(I74
S'CGG'
p5599
tp5600
I12
s(I31
S'GCT'
p5601
tp5602
I33
s(I13
S'CTA'
p5603
tp5604
I15
s(I18
S'CTC'
p5605
tp5606
I20
s(I41
S'CCC'
p5607
tp5608
I1
s(I21
S'ACC'
p5609
tp5610
I23
s(I75
S'TAC'
p5611
tp5612
I1
s(I53
S'CAG'
p5613
tp5614
I3
s(I9
S'TTT'
p5615
tp5616
I10
s(I72
S'TGG'
p5617
tp5618
I17
s(I13
S'GAC'
p5619
tp5620
I3
s(I60
S'GTC'
p5621
tp5622
I19
s(I71
S'AAA'
p5623
tp5624
I2
s(I17
S'GCT'
p5625
tp5626
I8
s(I8
S'TAG'
p5627
tp5628
I2
s(I20
S'GCG'
p5629
tp5630
I28
s(I36
S'TGG'
p5631
tp5632
I2
s(I68
S'TCA'
p5633
tp5634
I150
s(I66
S'TTA'
p5635
tp5636
I502
s(I4
S'CCA'
p5637
tp5638
I3
s(I74
S'GGC'
p5639
tp5640
I1
s(I54
S'GAG'
p5641
tp5642
I35
s(I65
S'CCG'
p5643
tp5644
I40
s(I76
S'CCC'
p5645
tp5646
I1
s(I14
S'TCG'
p5647
tp5648
I5
s(I14
S'CAC'
p5649
tp5650
I2
s(I11
S'GGC'
p5651
tp5652
I274
s(I31
S'CAT'
p5653
tp5654
I4
s(I63
S'AGC'
p5655
tp5656
I17
s(I36
S'GGC'
p5657
tp5658
I1
s(I58
S'AAT'
p5659
tp5660
I3
s(I13
S'GGA'
p5661
tp5662
I1
s(I21
S'TGC'
p5663
tp5664
I3
s(I61
S'TCC'
p5665
tp5666
I1
s(I69
S'CCC'
p5667
tp5668
I4
s(I20
S'ACT'
p5669
tp5670
I15
s(I60
S'GAA'
p5671
tp5672
I12
s(I25
S'TCA'
p5673
tp5674
I5
s(I42
S'GTC'
p5675
tp5676
I9
s(I19
S'AGT'
p5677
tp5678
I22
s(I15
S'CCA'
p5679
tp5680
I1
s(I40
S'GGT'
p5681
tp5682
I241
s(I51
S'ACA'
p5683
tp5684
I4
s(I75
S'ATG'
p5685
tp5686
I2
s(I25
S'AAG'
p5687
tp5688
I6
s(I33
S'TAC'
p5689
tp5690
I18
s(I72
S'GAT'
p5691
tp5692
I4
s(I9
S'GTG'
p5693
tp5694
I79
s(I63
S'CCA'
p5695
tp5696
I46
s(I27
S'CCG'
p5697
tp5698
I3
s(I27
S'CGG'
p5699
tp5700
I13
s(I45
S'AGA'
p5701
tp5702
I182
s(I19
S'CAA'
p5703
tp5704
I3
s(I24
S'CAA'
p5705
tp5706
I5
s(I75
S'GGC'
p5707
tp5708
I4
s(I14
S'GCG'
p5709
tp5710
I2
s(I37
S'TTA'
p5711
tp5712
I10
s(I62
S'TCT'
p5713
tp5714
I37
s(I35
S'ATA'
p5715
tp5716
I41
s(I9
S'AAA'
p5717
tp5718
I1
s(I71
S'TGC'
p5719
tp5720
I216
s(I49
S'GCG'
p5721
tp5722
I1
s(I60
S'AGG'
p5723
tp5724
I11
s(I25
S'GGC'
p5725
tp5726
I1
s(I51
S'GCT'
p5727
tp5728
I1
s(I19
S'CGA'
p5729
tp5730
I32
s(I45
S'ATG'
p5731
tp5732
I605
s(I35
S'ACC'
p5733
tp5734
I32
s(I30
S'ACT'
p5735
tp5736
I1
s(I42
S'GAC'
p5737
tp5738
I3
s(I47
S'TTG'
p5739
tp5740
I2
s(I51
S'TGG'
p5741
tp5742
I2
s(I50
S'GCG'
p5743
tp5744
I9
s(I14
S'GGA'
p5745
tp5746
I10
s(I48
S'TTG'
p5747
tp5748
I1
s(I22
S'GTT'
p5749
tp5750
I18
s(I68
S'GTA'
p5751
tp5752
I14
s(I43
S'CTG'
p5753
tp5754
I8
s(I31
S'TCT'
p5755
tp5756
I49
s(I55
S'TCG'
p5757
tp5758
I22
s(I60
S'TCC'
p5759
tp5760
I75
s(I65
S'GAG'
p5761
tp5762
I16
s(I32
S'CAA'
p5763
tp5764
I31
s(I12
S'TGC'
p5765
tp5766
I1
s(I68
S'TTC'
p5767
tp5768
I1
s(I42
S'ACC'
p5769
tp5770
I1
s(I66
S'ATC'
p5771
tp5772
I9
s(I26
S'ACA'
p5773
tp5774
I23
s(I17
S'AAA'
p5775
tp5776
I1
s(I64
S'CCA'
p5777
tp5778
I1
s(I29
S'GAC'
p5779
tp5780
I1
s(I38
S'ATT'
p5781
tp5782
I10
s(I42
S'AAA'
p5783
tp5784
I3
s(I42
S'CGC'
p5785
tp5786
I17
s(I51
S'TGA'
p5787
tp5788
I5
s(I69
S'AGA'
p5789
tp5790
I2
s(I26
S'GTC'
p5791
tp5792
I9
s(I53
S'ATG'
p5793
tp5794
I6
s(I52
S'GAT'
p5795
tp5796
I28
s(I7
S'CCC'
p5797
tp5798
I4
s(I38
S'AAA'
p5799
tp5800
I11
s(I31
S'ACA'
p5801
tp5802
I3
s(I55
S'ATG'
p5803
tp5804
I27
s(I19
S'ACT'
p5805
tp5806
I3
s(I37
S'GTC'
p5807
tp5808
I56
s(I31
S'GCA'
p5809
tp5810
I149
s(I65
S'ATG'
p5811
tp5812
I49
s(I13
S'CTT'
p5813
tp5814
I27
s(I25
S'TAC'
p5815
tp5816
I15
s(I53
S'CGG'
p5817
tp5818
I5
s(I18
S'CTT'
p5819
tp5820
I62
s(I52
S'GTT'
p5821
tp5822
I3
s(I76
S'AGA'
p5823
tp5824
I1
s(I29
S'CGA'
p5825
tp5826
I32
s(I14
S'CCC'
p5827
tp5828
I1
s(I62
S'TAC'
p5829
tp5830
I21
s(I6
S'CGC'
p5831
tp5832
I9
s(I31
S'ACC'
p5833
tp5834
I5
s(I39
S'ATT'
p5835
tp5836
I2
s(I62
S'CCC'
p5837
tp5838
I115
s(I42
S'GCA'
p5839
tp5840
I283
s(I33
S'TAT'
p5841
tp5842
I20
s(I55
S'GAA'
p5843
tp5844
I16
s(I59
S'GTA'
p5845
tp5846
I1
s(I15
S'CTC'
p5847
tp5848
I24
s(I44
S'TTC'
p5849
tp5850
I12
s(I40
S'CCT'
p5851
tp5852
I2
s(I32
S'TGT'
p5853
tp5854
I41
s(I54
S'CCT'
p5855
tp5856
I140
s(I48
S'GCA'
p5857
tp5858
I1
s(I67
S'TTG'
p5859
tp5860
I6
s(I25
S'CAT'
p5861
tp5862
I19
s(I56
S'CTT'
p5863
tp5864
I11
s(I33
S'ACA'
p5865
tp5866
I3
s(I29
S'AAT'
p5867
tp5868
I7
s(I55
S'CGT'
p5869
tp5870
I36
s(I57
S'CCC'
p5871
tp5872
I77
s(I8
S'AAG'
p5873
tp5874
I9
s(I74
S'GCC'
p5875
tp5876
I3
s(I50
S'TTT'
p5877
tp5878
I2
s(I61
S'GTT'
p5879
tp5880
I21
s(I72
S'GAC'
p5881
tp5882
I4
s(I71
S'TTC'
p5883
tp5884
I41
s(I35
S'GAT'
p5885
tp5886
I7
s(I48
S'GTA'
p5887
tp5888
I3
s(I13
S'CAG'
p5889
tp5890
I36
s(I66
S'GCA'
p5891
tp5892
I16
s(I18
S'CAG'
p5893
tp5894
I25
s(I36
S'CAC'
p5895
tp5896
I2
s(I52
S'ATT'
p5897
tp5898
I16
s(I41
S'CAC'
p5899
tp5900
I53
s(I18
S'GAT'
p5901
tp5902
I20
s(I64
S'CAG'
p5903
tp5904
I83
s(I16
S'GGT'
p5905
tp5906
I2
s(I58
S'CTA'
p5907
tp5908
I1
s(I22
S'GCC'
p5909
tp5910
I40
s(I45
S'AAG'
p5911
tp5912
I18
s(I38
S'GTT'
p5913
tp5914
I38
s(I7
S'GCG'
p5915
tp5916
I4
s(I5
S'TAG'
p5917
tp5918
I2
s(I9
S'GCC'
p5919
tp5920
I51
s(I47
S'GTG'
p5921
tp5922
I6
s(I57
S'AGA'
p5923
tp5924
I3
s(I8
S'GCG'
p5925
tp5926
I1
s(I12
S'ACT'
p5927
tp5928
I4
s(I68
S'ATG'
p5929
tp5930
I161
s(I73
S'TCG'
p5931
tp5932
I1
s(I22
S'GTC'
p5933
tp5934
I206
s(I52
S'CTC'
p5935
tp5936
I1
s(I74
S'GAA'
p5937
tp5938
I10
s(I16
S'CGC'
p5939
tp5940
I5
s(I31
S'GGG'
p5941
tp5942
I43
s(I34
S'CCA'
p5943
tp5944
I1
s(I51
S'GTG'
p5945
tp5946
I9
s(I11
S'GCA'
p5947
tp5948
I728
s(I63
S'GTT'
p5949
tp5950
I45
s(I6
S'ACA'
p5951
tp5952
I27
s(I64
S'ATC'
p5953
tp5954
I224
s(I40
S'GCG'
p5955
tp5956
I2
s(I65
S'ACC'
p5957
tp5958
I14
s(I9
S'CTT'
p5959
tp5960
I84
s(I42
S'CCC'
p5961
tp5962
I1
s(I65
S'GCC'
p5963
tp5964
I7
s(I45
S'GCG'
p5965
tp5966
I1706
s(I21
S'TAA'
p5967
tp5968
I1
s(I30
S'GCT'
p5969
tp5970
I2
s(I36
S'TTA'
p5971
tp5972
I251
s(I55
S'AGG'
p5973
tp5974
I52
s(I17
S'GGT'
p5975
tp5976
I16
s(I7
S'GGG'
p5977
tp5978
I4232
s(I63
S'AAC'
p5979
tp5980
I50
s(I18
S'CAT'
p5981
tp5982
I14
s(I17
S'CAC'
p5983
tp5984
I78
s(I75
S'GTA'
p5985
tp5986
I1
s(I40
S'TCC'
p5987
tp5988
I6
s(I69
S'AGG'
p5989
tp5990
I1
s(I67
S'GCG'
p5991
tp5992
I94
s(I40
S'CAG'
p5993
tp5994
I10
s(I65
S'GTA'
p5995
tp5996
I80
s(I19
S'CTA'
p5997
tp5998
I2
s(I48
S'TGC'
p5999
tp6000
I1
s(I24
S'CTG'
p6001
tp6002
I26
s(I20
S'CTA'
p6003
tp6004
I11
s(I38
S'ATA'
p6005
tp6006
I16
s(I37
S'ATC'
p6007
tp6008
I25
s(I3
S'GGC'
p6009
tp6010
I1
s(I6
S'GGT'
p6011
tp6012
I1145
s(I63
S'ATC'
p6013
tp6014
I21
s(I33
S'AGA'
p6015
tp6016
I14
s(I70
S'GCA'
p6017
tp6018
I283
s(I19
S'CTC'
p6019
tp6020
I4
s(I67
S'TCA'
p6021
tp6022
I12
s(I14
S'AGT'
p6023
tp6024
I9
s(I4
S'AGT'
p6025
tp6026
I1
s(I27
S'GAA'
p6027
tp6028
I1
s(I32
S'ACG'
p6029
tp6030
I10
s(I16
S'ATC'
p6031
tp6032
I4
s(I27
S'GCC'
p6033
tp6034
I1
s(I13
S'GCT'
p6035
tp6036
I4
s(I38
S'CGT'
p6037
tp6038
I26
s(I71
S'CAC'
p6039
tp6040
I3
s(I43
S'CAA'
p6041
tp6042
I5
s(I35
S'CCG'
p6043
tp6044
I49
s(I8
S'GGG'
p6045
tp6046
I1
s(I58
S'TAA'
p6047
tp6048
I10
s(I28
S'CCA'
p6049
tp6050
I1
s(I66
S'TAA'
p6051
tp6052
I2
s(I25
S'TGA'
p6053
tp6054
I2
s(I30
S'TAC'
p6055
tp6056
I23
s(I16
S'ACA'
p6057
tp6058
I15
s(I5
S'CTG'
p6059
tp6060
I164
s(I29
S'GGC'
p6061
tp6062
I20
s(I44
S'AAA'
p6063
tp6064
I17
s(I40
S'GAC'
p6065
tp6066
I170
s(I41
S'TAC'
p6067
tp6068
I3
s(I17
S'GTC'
p6069
tp6070
I15
s(I53
S'TAT'
p6071
tp6072
I3
s(I34
S'ATT'
p6073
tp6074
I3
s(I33
S'AAT'
p6075
tp6076
I1
s(I24
S'CGC'
p6077
tp6078
I6
s(I4
S'TGT'
p6079
tp6080
I1
s(I26
S'TAA'
p6081
tp6082
I4
s(I61
S'GCC'
p6083
tp6084
I5
s(I18
S'TAG'
p6085
tp6086
I24
s(I4
S'GGC'
p6087
tp6088
I1
s(I31
S'GTC'
p6089
tp6090
I52
s(I4
S'TAC'
p6091
tp6092
I1
s(I34
S'CCT'
p6093
tp6094
I3
s(I38
S'TGT'
p6095
tp6096
I2
s(I24
S'AAC'
p6097
tp6098
I4
s(I50
S'ATC'
p6099
tp6100
I51
s(I47
S'GCT'
p6101
tp6102
I2
s(I29
S'CTA'
p6103
tp6104
I21
s(I72
S'ATA'
p6105
tp6106
I2
s(I47
S'TCA'
p6107
tp6108
I313
s(I34
S'CTC'
p6109
tp6110
I1
s(I23
S'GTC'
p6111
tp6112
I13
s(I11
S'CCG'
p6113
tp6114
I501
s(I72
S'CGA'
p6115
tp6116
I3
s(I72
S'CCA'
p6117
tp6118
I11
s(I21
S'GCG'
p6119
tp6120
I39
s(I48
S'CGG'
p6121
tp6122
I3
s(I67
S'CCT'
p6123
tp6124
I6
s(I10
S'GCT'
p6125
tp6126
I2
s(I33
S'GCT'
p6127
tp6128
I1
s(I62
S'ATG'
p6129
tp6130
I51
s(I51
S'CGC'
p6131
tp6132
I4
s(I74
S'GAT'
p6133
tp6134
I1
s(I48
S'TCT'
p6135
tp6136
I13
s(I63
S'ACG'
p6137
tp6138
I26
s(I67
S'TAC'
p6139
tp6140
I3
s(I70
S'TAT'
p6141
tp6142
I1
s(I23
S'GCC'
p6143
tp6144
I1
s(I37
S'TCC'
p6145
tp6146
I15
s(I11
S'TTA'
p6147
tp6148
I17
s(I23
S'ACC'
p6149
tp6150
I1
s(I65
S'GCT'
p6151
tp6152
I174
s(I57
S'GGG'
p6153
tp6154
I30
s(I34
S'GGA'
p6155
tp6156
I30
s(I66
S'GTA'
p6157
tp6158
I6
s(I41
S'CTC'
p6159
tp6160
I455
s(I54
S'TGA'
p6161
tp6162
I4
s(I40
S'TGA'
p6163
tp6164
I5
s(I20
S'TAA'
p6165
tp6166
I2
s(I65
S'GTT'
p6167
tp6168
I64
s(I30
S'TGA'
p6169
tp6170
I1
s(I43
S'AAG'
p6171
tp6172
I1
s(I30
S'CTC'
p6173
tp6174
I3
s(I35
S'CTA'
p6175
tp6176
I73
s(I10
S'TAA'
p6177
tp6178
I1
s(I69
S'GAT'
p6179
tp6180
I1
s(I31
S'GAG'
p6181
tp6182
I76
s(I18
S'TAA'
p6183
tp6184
I4
s(I37
S'ACT'
p6185
tp6186
I27
s(I13
S'GCA'
p6187
tp6188
I1
s(I46
S'TGC'
p6189
tp6190
I200
s(I15
S'GAG'
p6191
tp6192
I11
s(I53
S'TCG'
p6193
tp6194
I12
s(I56
S'TGC'
p6195
tp6196
I12
s(I16
S'CCC'
p6197
tp6198
I7
s(I55
S'ACA'
p6199
tp6200
I9
s(I76
S'TGT'
p6201
tp6202
I2
s(I3
S'CGA'
p6203
tp6204
I2
s(I33
S'GTC'
p6205
tp6206
I4
s(I10
S'ACT'
p6207
tp6208
I1
s(I24
S'GCA'
p6209
tp6210
I9
s(I61
S'AAA'
p6211
tp6212
I1
s(I3
S'GTC'
p6213
tp6214
I4
s(I39
S'TGT'
p6215
tp6216
I2
s(I59
S'CTG'
p6217
tp6218
I363
s(I32
S'GTG'
p6219
tp6220
I8
s(I24
S'TGC'
p6221
tp6222
I2
s(I41
S'GAA'
p6223
tp6224
I1
s(I46
S'GCA'
p6225
tp6226
I6
s(I39
S'CGC'
p6227
tp6228
I1
s(I34
S'CGG'
p6229
tp6230
I2
s(I68
S'GGA'
p6231
tp6232
I4
s(I58
S'TCC'
p6233
tp6234
I19
s(I20
S'GTG'
p6235
tp6236
I41
s(I42
S'TCA'
p6237
tp6238
I2
s(I75
S'CCC'
p6239
tp6240
I1
s(I55
S'TCT'
p6241
tp6242
I18
s(I70
S'CTT'
p6243
tp6244
I6
s(I11
S'TCC'
p6245
tp6246
I8
s(I75
S'CTT'
p6247
tp6248
I3
s(I57
S'GCA'
p6249
tp6250
I28
s(I54
S'ATT'
p6251
tp6252
I6
s(I24
S'GGT'
p6253
tp6254
I1
s(I6
S'AAT'
p6255
tp6256
I412
s(I14
S'GAC'
p6257
tp6258
I1
s(I62
S'GTA'
p6259
tp6260
I230
s(I28
S'AGC'
p6261
tp6262
I41
s(I15
S'ACT'
p6263
tp6264
I1
s(I15
S'TCG'
p6265
tp6266
I39
s(I33
S'CCG'
p6267
tp6268
I22
s(I46
S'AAA'
p6269
tp6270
I1
s(I31
S'AGC'
p6271
tp6272
I38
s(I49
S'TGG'
p6273
tp6274
I1
s(I76
S'CCA'
p6275
tp6276
I1
s(I23
S'ATA'
p6277
tp6278
I5
s(I46
S'ACC'
p6279
tp6280
I636
s(I60
S'TAA'
p6281
tp6282
I1
s(I3
S'ACT'
p6283
tp6284
I10
s(I9
S'GGG'
p6285
tp6286
I107
s(I46
S'CAT'
p6287
tp6288
I314
s(I5
S'TTG'
p6289
tp6290
I4
s(I23
S'CTA'
p6291
tp6292
I26
s(I15
S'TGC'
p6293
tp6294
I5
s(I50
S'ACC'
p6295
tp6296
I73
s(I49
S'GGA'
p6297
tp6298
I324
s(I35
S'TAA'
p6299
tp6300
I3
s(I18
S'TCC'
p6301
tp6302
I22
s(I76
S'GAA'
p6303
tp6304
I5
s(I53
S'GAT'
p6305
tp6306
I1
s(I7
S'GTG'
p6307
tp6308
I34
s(I62
S'GGC'
p6309
tp6310
I86
s(I8
S'AGT'
p6311
tp6312
I3
s(I31
S'CCA'
p6313
tp6314
I3
s(I51
S'TTC'
p6315
tp6316
I8
s(I63
S'GCG'
p6317
tp6318
I22
s(I19
S'CCT'
p6319
tp6320
I4
s(I53
S'ACC'
p6321
tp6322
I21
s(I13
S'AGA'
p6323
tp6324
I7
s(I41
S'AAC'
p6325
tp6326
I12
s(I63
S'CAT'
p6327
tp6328
I3
s(I9
S'ACT'
p6329
tp6330
I30
s(I63
S'GGC'
p6331
tp6332
I5
s(I34
S'AAT'
p6333
tp6334
I4
s(I23
S'GGT'
p6335
tp6336
I1
s(I12
S'CTC'
p6337
tp6338
I4
s(I24
S'TAT'
p6339
tp6340
I6
s(I51
S'CCG'
p6341
tp6342
I10
s(I49
S'ACG'
p6343
tp6344
I6
s(I48
S'AGC'
p6345
tp6346
I10
s(I33
S'GCC'
p6347
tp6348
I2
s(I33
S'GAG'
p6349
tp6350
I5
s(I8
S'TAT'
p6351
tp6352
I1
s(I75
S'AGA'
p6353
tp6354
I2
s(I62
S'CGG'
p6355
tp6356
I126
s(I7
S'AGC'
p6357
tp6358
I17
s(I57
S'CAC'
p6359
tp6360
I32
s(I11
S'CTA'
p6361
tp6362
I5
s(I67
S'AAG'
p6363
tp6364
I2
s(I76
S'GGA'
p6365
tp6366
I17
s(I60
S'CTT'
p6367
tp6368
I12
s(I7
S'GAC'
p6369
tp6370
I5
s(I60
S'AAT'
p6371
tp6372
I1
s(I46
S'GCG'
p6373
tp6374
I2
s(I9
S'GCG'
p6375
tp6376
I111
s(I74
S'CGT'
p6377
tp6378
I7
s(I24
S'GTT'
p6379
tp6380
I2
s(I57
S'CGC'
p6381
tp6382
I24
s(I34
S'GCG'
p6383
tp6384
I1
s(I48
S'TTA'
p6385
tp6386
I4
s(I24
S'AGT'
p6387
tp6388
I9
s(I57
S'TGT'
p6389
tp6390
I9
s(I60
S'TTT'
p6391
tp6392
I8
s(I32
S'ATA'
p6393
tp6394
I6
s(I11
S'ATG'
p6395
tp6396
I12
s(I22
S'TGT'
p6397
tp6398
I7
s(I21
S'TGT'
p6399
tp6400
I24
s(I52
S'GGG'
p6401
tp6402
I2
s(I76
S'CTC'
p6403
tp6404
I8
s(I15
S'AAT'
p6405
tp6406
I1
s(I24
S'GCT'
p6407
tp6408
I10
s(I46
S'CGA'
p6409
tp6410
I165
s(I32
S'CCA'
p6411
tp6412
I25
s(I39
S'CAT'
p6413
tp6414
I30
s(I45
S'GAC'
p6415
tp6416
I6
s(I60
S'GGT'
p6417
tp6418
I38
s(I70
S'CTG'
p6419
tp6420
I186
s(I46
S'GCT'
p6421
tp6422
I17
s(I68
S'GCC'
p6423
tp6424
I41
s(I24
S'TGG'
p6425
tp6426
I1
s(I10
S'CAG'
p6427
tp6428
I2
s(I28
S'CAC'
p6429
tp6430
I12
s(I10
S'TCA'
p6431
tp6432
I7
s(I33
S'CAC'
p6433
tp6434
I3
s(I33
S'TCG'
p6435
tp6436
I8
s(I58
S'CGT'
p6437
tp6438
I17
s(I13
S'TTT'
p6439
tp6440
I2
s(I32
S'TAC'
p6441
tp6442
I11
s(I18
S'TTA'
p6443
tp6444
I39
s(I55
S'TTG'
p6445
tp6446
I12
s(I39
S'ACA'
p6447
tp6448
I1
s(I67
S'AAC'
p6449
tp6450
I1
s(I30
S'CCC'
p6451
tp6452
I2
s(I24
S'GGC'
p6453
tp6454
I6
s(I56
S'GTT'
p6455
tp6456
I11
s(I31
S'AAC'
p6457
tp6458
I15
s(I28
S'ACG'
p6459
tp6460
I13
s(I39
S'GTA'
p6461
tp6462
I3
s(I38
S'AGG'
p6463
tp6464
I30
s(I10
S'AAT'
p6465
tp6466
I1
s(I26
S'GCA'
p6467
tp6468
I1
s(I45
S'TTA'
p6469
tp6470
I365
s(I46
S'TTC'
p6471
tp6472
I597
s(I18
S'CCG'
p6473
tp6474
I23
s(I8
S'CCT'
p6475
tp6476
I2
s(I64
S'TGT'
p6477
tp6478
I248
s(I22
S'CCT'
p6479
tp6480
I142
s(I3
S'TGT'
p6481
tp6482
I224
s(I67
S'GTG'
p6483
tp6484
I4
s(I69
S'GTA'
p6485
tp6486
I11
s(I69
S'CAG'
p6487
tp6488
I33
s(I29
S'GCG'
p6489
tp6490
I9
s(I61
S'CCA'
p6491
tp6492
I1
s(I37
S'CGC'
p6493
tp6494
I14
s(I34
S'TTG'
p6495
tp6496
I2
s(I57
S'TTC'
p6497
tp6498
I19
s(I29
S'AGG'
p6499
tp6500
I46
s(I67
S'GAT'
p6501
tp6502
I1
s(I39
S'ACG'
p6503
tp6504
I5
s(I47
S'AGG'
p6505
tp6506
I2
s(I74
S'GGT'
p6507
tp6508
I1
s(I4
S'CAC'
p6509
tp6510
I4
s(I42
S'TCG'
p6511
tp6512
I1
s(I63
S'TCA'
p6513
tp6514
I30
s(I72
S'ACG'
p6515
tp6516
I74
s(I53
S'AGA'
p6517
tp6518
I4
s(I26
S'CTA'
p6519
tp6520
I9
s(I19
S'CCA'
p6521
tp6522
I10
s(I11
S'TCT'
p6523
tp6524
I1
s(I46
S'GTG'
p6525
tp6526
I73
s(I65
S'AAT'
p6527
tp6528
I100
s(I25
S'AGA'
p6529
tp6530
I1
s(I74
S'TCC'
p6531
tp6532
I1
s(I24
S'TAA'
p6533
tp6534
I2
s(I25
S'GTT'
p6535
tp6536
I2
s(I22
S'TTC'
p6537
tp6538
I32
s(I30
S'GCG'
p6539
tp6540
I22
s(I71
S'TAG'
p6541
tp6542
I10
s(I31
S'TGA'
p6543
tp6544
I5
s(I20
S'TCA'
p6545
tp6546
I7
s(I6
S'TCC'
p6547
tp6548
I165
s(I23
S'CGC'
p6549
tp6550
I1
s(I52
S'TAA'
p6551
tp6552
I5
s(I19
S'AGC'
p6553
tp6554
I22
s(I15
S'CCT'
p6555
tp6556
I5
s(I13
S'CCT'
p6557
tp6558
I1
s(I35
S'CAA'
p6559
tp6560
I3
s(I21
S'GGG'
p6561
tp6562
I14
s(I10
S'TTG'
p6563
tp6564
I1
s(I57
S'CGT'
p6565
tp6566
I46
s(I33
S'TTC'
p6567
tp6568
I4
s(I11
S'TGC'
p6569
tp6570
I12
s(I9
S'GTT'
p6571
tp6572
I56
s(I23
S'AGG'
p6573
tp6574
I1
s(I67
S'ACA'
p6575
tp6576
I168
s(I45
S'AGT'
p6577
tp6578
I368
s(I50
S'AGT'
p6579
tp6580
I4
s(I44
S'ACG'
p6581
tp6582
I437
s(I39
S'TCA'
p6583
tp6584
I3
s(I3
S'ATA'
p6585
tp6586
I9
s(I62
S'TCG'
p6587
tp6588
I100
s(I50
S'GTT'
p6589
tp6590
I244
s(I46
S'CGT'
p6591
tp6592
I115
s(I63
S'GAC'
p6593
tp6594
I37
s(I25
S'CCG'
p6595
tp6596
I3
s(I9
S'GAA'
p6597
tp6598
I10
s(I51
S'GCG'
p6599
tp6600
I1
s(I70
S'TTG'
p6601
tp6602
I11
s(I46
S'TCG'
p6603
tp6604
I104
s(I45
S'CAA'
p6605
tp6606
I3018
s(I11
S'GTC'
p6607
tp6608
I31
s(I19
S'AAC'
p6609
tp6610
I3
s(I8
S'CTC'
p6611
tp6612
I22
s(I37
S'CCG'
p6613
tp6614
I15
s(I10
S'CGT'
p6615
tp6616
I2
s(I54
S'CGC'
p6617
tp6618
I30
s(I54
S'GCA'
p6619
tp6620
I21
s(I57
S'CTC'
p6621
tp6622
I8
s(I11
S'CGC'
p6623
tp6624
I5
s(I49
S'AAC'
p6625
tp6626
I68
s(I40
S'GTG'
p6627
tp6628
I1
s(I41
S'GGA'
p6629
tp6630
I22
s(I39
S'GTC'
p6631
tp6632
I1
s(I66
S'AGG'
p6633
tp6634
I1
s(I74
S'AAC'
p6635
tp6636
I1
s(I6
S'TCA'
p6637
tp6638
I199
s(I8
S'TCT'
p6639
tp6640
I1
s(I11
S'ACC'
p6641
tp6642
I67
s(I52
S'CGC'
p6643
tp6644
I2
s(I72
S'CAC'
p6645
tp6646
I3223
s(I62
S'TCC'
p6647
tp6648
I61
s(I27
S'CGA'
p6649
tp6650
I15
s(I46
S'CTC'
p6651
tp6652
I16
s(I51
S'CTA'
p6653
tp6654
I25
s(I37
S'AAA'
p6655
tp6656
I17
s(I12
S'CCA'
p6657
tp6658
I49
s(I17
S'TCC'
p6659
tp6660
I2
s(I0
S'WT'
p6661
tp6662
I7
s(I69
S'ATT'
p6663
tp6664
I2
s(I76
S'CAC'
p6665
tp6666
I1
s(I20
S'CGC'
p6667
tp6668
I59
s(I2
S'GGC'
p6669
tp6670
I4
s(I59
S'ACG'
p6671
tp6672
I1
s(I55
S'TGG'
p6673
tp6674
I3
s(I63
S'GAG'
p6675
tp6676
I2
s(I18
S'TCT'
p6677
tp6678
I2
s(I62
S'GAG'
p6679
tp6680
I167
s(I33
S'ATG'
p6681
tp6682
I21
s(I35
S'TCA'
p6683
tp6684
I4
s(I61
S'TAA'
p6685
tp6686
I3
s(I6
S'TTG'
p6687
tp6688
I16
s(I54
S'AGC'
p6689
tp6690
I1016
s(I28
S'TAC'
p6691
tp6692
I6
s(I14
S'GGG'
p6693
tp6694
I12
s(I11
S'CAG'
p6695
tp6696
I40
s(I70
S'ACC'
p6697
tp6698
I2142
s(I11
S'CGA'
p6699
tp6700
I3
s(I13
S'ACA'
p6701
tp6702
I1
s(I35
S'TTA'
p6703
tp6704
I69
s(I7
S'ACA'
p6705
tp6706
I6
s(I4
S'GGG'
p6707
tp6708
I3
s(I21
S'GAA'
p6709
tp6710
I49
s(I55
S'GAT'
p6711
tp6712
I65
s(I43
S'ACA'
p6713
tp6714
I2
s(I15
S'CTT'
p6715
tp6716
I8
s(I17
S'AAG'
p6717
tp6718
I3
s(I18
S'TGT'
p6719
tp6720
I34
s(I38
S'TTG'
p6721
tp6722
I136
s(I30
S'TCA'
p6723
tp6724
I1
s(I31
S'ATG'
p6725
tp6726
I5
s(I18
S'CGC'
p6727
tp6728
I2
s(I21
S'CTC'
p6729
tp6730
I1
s(I58
S'GTA'
p6731
tp6732
I6
s(I70
S'TCC'
p6733
tp6734
I1
s(I17
S'GTG'
p6735
tp6736
I48
s(I31
S'ACG'
p6737
tp6738
I3
s(I70
S'CAG'
p6739
tp6740
I5
s(I22
S'AAT'
p6741
tp6742
I6
s(I75
S'CAG'
p6743
tp6744
I11
s(I67
S'CCG'
p6745
tp6746
I10
s(I61
S'GTA'
p6747
tp6748
I3
s(I35
S'GAC'
p6749
tp6750
I2
s(I28
S'TTA'
p6751
tp6752
I15
s(I29
S'CGG'
p6753
tp6754
I26
s(I57
S'TAC'
p6755
tp6756
I9
s(I6
S'GTG'
p6757
tp6758
I2251
s(I20
S'GGC'
p6759
tp6760
I11
s(I64
S'CAT'
p6761
tp6762
I65
s(I65
S'TAC'
p6763
tp6764
I105
s(I20
S'GCT'
p6765
tp6766
I3
s(I42
S'GCG'
p6767
tp6768
I1
s(I28
S'GGC'
p6769
tp6770
I7
s(I34
S'GTA'
p6771
tp6772
I2
s(I9
S'CTC'
p6773
tp6774
I9
s(I2
S'TCA'
p6775
tp6776
I1
s(I61
S'ACA'
p6777
tp6778
I5
s(I39
S'TCT'
p6779
tp6780
I1
s(I72
S'TTG'
p6781
tp6782
I22
s(I27
S'CGT'
p6783
tp6784
I33
s(I37
S'ACA'
p6785
tp6786
I60
s(I62
S'AAC'
p6787
tp6788
I40
s(I63
S'GAT'
p6789
tp6790
I30
s(I73
S'TAT'
p6791
tp6792
I2
s(I60
S'GAC'
p6793
tp6794
I82
s(I38
S'GAT'
p6795
tp6796
I46
s(I66
S'TGG'
p6797
tp6798
I3
s(I16
S'CGT'
p6799
tp6800
I16
s(I76
S'TTC'
p6801
tp6802
I6
s(I34
S'ACC'
p6803
tp6804
I10
s(I15
S'TCT'
p6805
tp6806
I1
s(I11
S'GCT'
p6807
tp6808
I393
s(I58
S'AGT'
p6809
tp6810
I5
s(I37
S'GAC'
p6811
tp6812
I19
s(I5
S'ACT'
p6813
tp6814
I3
s(I54
S'GCT'
p6815
tp6816
I54
s(I63
S'CTG'
p6817
tp6818
I50
s(I28
S'CTC'
p6819
tp6820
I31
s(I31
S'TTT'
p6821
tp6822
I7
s(I17
S'GGC'
p6823
tp6824
I171
s(I35
S'TCC'
p6825
tp6826
I25
s(I48
S'CTA'
p6827
tp6828
I3
s(I76
S'ACT'
p6829
tp6830
I2
s(I42
S'GGC'
p6831
tp6832
I26
s(I41
S'ACC'
p6833
tp6834
I22
s(I11
S'GAA'
p6835
tp6836
I452
s(I43
S'ATC'
p6837
tp6838
I8
s(I65
S'TTT'
p6839
tp6840
I8
s(I71
S'TGT'
p6841
tp6842
I8
s(I27
S'ATC'
p6843
tp6844
I2
s(I37
S'ATT'
p6845
tp6846
I36
s(I27
S'CTG'
p6847
tp6848
I12
s(I35
S'TGG'
p6849
tp6850
I14
s(I41
S'CGC'
p6851
tp6852
I1
s(I45
S'TAG'
p6853
tp6854
I4
s(I31
S'GGA'
p6855
tp6856
I94
s(I20
S'AGC'
p6857
tp6858
I35
s(I15
S'TGA'
p6859
tp6860
I1
s(I19
S'TGG'
p6861
tp6862
I10
s(I65
S'GGG'
p6863
tp6864
I181
s(I73
S'GGT'
p6865
tp6866
I1
s(I52
S'TTC'
p6867
tp6868
I10
s(I40
S'GCA'
p6869
tp6870
I4
s(I75
S'TTG'
p6871
tp6872
I4
s(I9
S'CCT'
p6873
tp6874
I1573
s(I28
S'CGA'
p6875
tp6876
I6
s(I43
S'CTT'
p6877
tp6878
I10
s(I10
S'GAG'
p6879
tp6880
I35
s(I7
S'CAA'
p6881
tp6882
I77
s(I25
S'ACA'
p6883
tp6884
I17
s(I61
S'CAT'
p6885
tp6886
I8
s(I35
S'TGA'
p6887
tp6888
I2
s(I7
S'GGA'
p6889
tp6890
I245
s(I32
S'GTA'
p6891
tp6892
I12
s(I74
S'ACT'
p6893
tp6894
I2
s(I67
S'GTA'
p6895
tp6896
I31
s(I65
S'CTC'
p6897
tp6898
I188
s(I40
S'GTA'
p6899
tp6900
I1
s(I58
S'TAT'
p6901
tp6902
I3
s(I21
S'CAG'
p6903
tp6904
I5
s(I67
S'GTT'
p6905
tp6906
I8
s(I64
S'TCT'
p6907
tp6908
I1013
s(I9
S'TAC'
p6909
tp6910
I4
s(I66
S'TAT'
p6911
tp6912
I13
s(I72
S'TCC'
p6913
tp6914
I65
s(I14
S'ACC'
p6915
tp6916
I49
s(I17
S'TAC'
p6917
tp6918
I17
s(I11
S'ACG'
p6919
tp6920
I33
s(I23
S'TCC'
p6921
tp6922
I1
s(I45
S'TGG'
p6923
tp6924
I121
s(I29
S'TCC'
p6925
tp6926
I108
s(I14
S'CGC'
p6927
tp6928
I1
s(I27
S'GAG'
p6929
tp6930
I1
s(I57
S'ATC'
p6931
tp6932
I1
s(I74
S'TAG'
p6933
tp6934
I1
s(I34
S'ATG'
p6935
tp6936
I1
s(I65
S'ATT'
p6937
tp6938
I18
s(I37
S'GGA'
p6939
tp6940
I4
s(I33
S'AAC'
p6941
tp6942
I3
s(I41
S'TGC'
p6943
tp6944
I17
s(I45
S'GGA'
p6945
tp6946
I3
s(I5
S'GCC'
p6947
tp6948
I1
s(I7
S'CTC'
p6949
tp6950
I17
s(I73
S'GTG'
p6951
tp6952
I300
s(I23
S'CAT'
p6953
tp6954
I11
s(I48
S'ACC'
p6955
tp6956
I1
s(I60
S'CCC'
p6957
tp6958
I158
s(I46
S'ATC'
p6959
tp6960
I16
s(I62
S'CCT'
p6961
tp6962
I853
s(I56
S'ATC'
p6963
tp6964
I31
s(I71
S'ATA'
p6965
tp6966
I1
s(I38
S'TGG'
p6967
tp6968
I35
s(I71
S'CCA'
p6969
tp6970
I1
s(I47
S'GCG'
p6971
tp6972
I69
s(I69
S'GCT'
p6973
tp6974
I217
s(I5
S'GTA'
p6975
tp6976
I7
s(I13
S'GTT'
p6977
tp6978
I11
s(I17
S'ACG'
p6979
tp6980
I2
s(I19
S'TGA'
p6981
tp6982
I8
s(I46
S'ATA'
p6983
tp6984
I509
s(I44
S'TTT'
p6985
tp6986
I5
s(I20
S'CAC'
p6987
tp6988
I9
s(I25
S'CAC'
p6989
tp6990
I3
s(I48
S'TCC'
p6991
tp6992
I10
s(I48
S'ACT'
p6993
tp6994
I1
s(I24
S'CAC'
p6995
tp6996
I2
s(I70
S'TAC'
p6997
tp6998
I1
s(I64
S'TAC'
p6999
tp7000
I1
s(I68
S'ACT'
p7001
tp7002
I76
s(I5
S'ACA'
p7003
tp7004
I7
s(I42
S'CCA'
p7005
tp7006
I1
s(I36
S'GCA'
p7007
tp7008
I4
s(I64
S'ACC'
p7009
tp7010
I844
s(I52
S'TCG'
p7011
tp7012
I17
s(I61
S'TGC'
p7013
tp7014
I8
s(I10
S'TGC'
p7015
tp7016
I2
s(I75
S'TCA'
p7017
tp7018
I2
s(I36
S'CAT'
p7019
tp7020
I9
s(I48
S'TTC'
p7021
tp7022
I1
s(I24
S'ACG'
p7023
tp7024
I6
s(I25
S'ATG'
p7025
tp7026
I28
s(I8
S'TGT'
p7027
tp7028
I2
s(I51
S'TAT'
p7029
tp7030
I10
s(I44
S'CTC'
p7031
tp7032
I278
s(I64
S'AGG'
p7033
tp7034
I61
s(I36
S'CCC'
p7035
tp7036
I3
s(I22
S'GAA'
p7037
tp7038
I45
s(I77
S'TGT'
p7039
tp7040
I8
s(I73
S'CGG'
p7041
tp7042
I16
s(I18
S'AGC'
p7043
tp7044
I36
s(I68
S'TTT'
p7045
tp7046
I2
s(I51
S'CAA'
p7047
tp7048
I24
s(I22
S'CTT'
p7049
tp7050
I23
s(I37
S'TTT'
p7051
tp7052
I81
s(I14
S'ATG'
p7053
tp7054
I3
s(I69
S'TTA'
p7055
tp7056
I8
s(I50
S'GGG'
p7057
tp7058
I1
s(I41
S'ATT'
p7059
tp7060
I6
s(I51
S'GTT'
p7061
tp7062
I13
s(I13
S'TAA'
p7063
tp7064
I1
s(I61
S'AGT'
p7065
tp7066
I8
s(I66
S'GAT'
p7067
tp7068
I2442
s(I47
S'CCC'
p7069
tp7070
I1
s(I16
S'GTT'
p7071
tp7072
I2
s(I48
S'GAC'
p7073
tp7074
I6
s(I40
S'AAC'
p7075
tp7076
I143
s(I43
S'TGC'
p7077
tp7078
I11
s(I74
S'GCA'
p7079
tp7080
I3
s(I16
S'CTG'
p7081
tp7082
I2
s(I26
S'TAG'
p7083
tp7084
I1
s(I26
S'ATT'
p7085
tp7086
I11
s(I66
S'GTG'
p7087
tp7088
I8
s(I37
S'CTC'
p7089
tp7090
I4
s(I6
S'AGG'
p7091
tp7092
I4
s(I7
S'TAG'
p7093
tp7094
I6
s(I69
S'GGA'
p7095
tp7096
I368
s(I21
S'AGA'
p7097
tp7098
I3
s(I39
S'TGA'
p7099
tp7100
I2
s(I41
S'AGC'
p7101
tp7102
I42
s(I58
S'ACC'
p7103
tp7104
I25
s(I10
S'GCA'
p7105
tp7106
I4
s(I55
S'GTG'
p7107
tp7108
I13
s(I27
S'CAA'
p7109
tp7110
I7
s(I17
S'TTA'
p7111
tp7112
I4
s(I48
S'TGT'
p7113
tp7114
I5
s(I15
S'GTC'
p7115
tp7116
I10
s(I13
S'GCG'
p7117
tp7118
I164
s(I43
S'TTC'
p7119
tp7120
I1
s(I73
S'GAT'
p7121
tp7122
I2
s(I28
S'ATG'
p7123
tp7124
I42
s(I51
S'GGC'
p7125
tp7126
I25
s(I37
S'AGT'
p7127
tp7128
I14
s(I5
S'ATG'
p7129
tp7130
I36
s(I40
S'ACG'
p7131
tp7132
I28
s(I49
S'AGG'
p7133
tp7134
I2
s(I16
S'TAT'
p7135
tp7136
I1
s(I15
S'GCC'
p7137
tp7138
I4
s(I62
S'GAC'
p7139
tp7140
I22
s(I62
S'GTT'
p7141
tp7142
I330
s(I15
S'ACC'
p7143
tp7144
I3
s(I16
S'TAA'
p7145
tp7146
I3
s(I24
S'TTT'
p7147
tp7148
I2
s(I37
S'CAA'
p7149
tp7150
I52
s(I22
S'GAG'
p7151
tp7152
I2
s(I69
S'GCA'
p7153
tp7154
I105
s(I42
S'CAA'
p7155
tp7156
I13
s(I63
S'CAC'
p7157
tp7158
I7
s(I9
S'CAC'
p7159
tp7160
I1386
s(I73
S'CTG'
p7161
tp7162
I6
s(I9
S'TCG'
p7163
tp7164
I4
s(I32
S'CAG'
p7165
tp7166
I2
s(I44
S'TCG'
p7167
tp7168
I19
s(I52
S'CCG'
p7169
tp7170
I6
s(I36
S'CGC'
p7171
tp7172
I1
s(I40
S'GAT'
p7173
tp7174
I73
s(I59
S'TGT'
p7175
tp7176
I109
s(I58
S'AGG'
p7177
tp7178
I13
s(I53
S'TGC'
p7179
tp7180
I10
s(I36
S'TCA'
p7181
tp7182
I1
s(I32
S'GCC'
p7183
tp7184
I1
s(I46
S'CCA'
p7185
tp7186
I5
s(I35
S'AAG'
p7187
tp7188
I50
s(I34
S'AAC'
p7189
tp7190
I6
s(I17
S'CCT'
p7191
tp7192
I5
s(I69
S'TGC'
p7193
tp7194
I598
s(I39
S'GAG'
p7195
tp7196
I1
s(I77
S'TGG'
p7197
tp7198
I6
s(I53
S'TTA'
p7199
tp7200
I15
s(I3
S'CCT'
p7201
tp7202
I1
s(I74
S'AGT'
p7203
tp7204
I1
s(I68
S'GAT'
p7205
tp7206
I14
s(I51
S'TAC'
p7207
tp7208
I11
s(I46
S'AAG'
p7209
tp7210
I5
s(I64
S'GCC'
p7211
tp7212
I524
s.