(dp0
(I9
S'CCG'
p1
tp2
I779
s(I49
S'TGA'
p3
tp4
I6
s(I47
S'ACA'
p5
tp6
I9
s(I18
S'GCC'
p7
tp8
I17
s(I68
S'GTG'
p9
tp10
I99
s(I62
S'CGT'
p11
tp12
I608
s(I16
S'GGC'
p13
tp14
I58
s(I46
S'AGC'
p15
tp16
I3509
s(I3
S'CAG'
p17
tp18
I13
s(I8
S'CAG'
p19
tp20
I1
s(I41
S'ATC'
p21
tp22
I57
s(I64
S'GTC'
p23
tp24
I170
s(I60
S'GCG'
p25
tp26
I105
s(I18
S'ATG'
p27
tp28
I74
s(I41
S'GGT'
p29
tp30
I350
s(I49
S'GGG'
p31
tp32
I2507
s(I40
S'GTC'
p33
tp34
I7
s(I31
S'CTA'
p35
tp36
I14
s(I4
S'TGA'
p37
tp38
I8
s(I24
S'GTG'
p39
tp40
I1
s(I34
S'AGG'
p41
tp42
I1
s(I38
S'GCA'
p43
tp44
I158
s(I24
S'AGA'
p45
tp46
I8
s(I20
S'CCT'
p47
tp48
I367
s(I30
S'ATC'
p49
tp50
I2
s(I75
S'TAA'
p51
tp52
I3
s(I14
S'CTC'
p53
tp54
I28
s(I36
S'GAA'
p55
tp56
I1
s(I6
S'AAA'
p57
tp58
I25
s(I36
S'CTT'
p59
tp60
I944
s(I14
S'CGG'
p61
tp62
I14
s(I70
S'CCT'
p63
tp64
I1
s(I41
S'GTA'
p65
tp66
I29
s(I9
S'GCT'
p67
tp68
I31
s(I48
S'GCG'
p69
tp70
I5
s(I49
S'GCA'
p71
tp72
I546
s(I39
S'CAC'
p73
tp74
I7
s(I58
S'GAC'
p75
tp76
I280
s(I44
S'CAC'
p77
tp78
I11
s(I49
S'ACA'
p79
tp80
I256
s(I67
S'CAG'
p81
tp82
I36
s(I68
S'ATA'
p83
tp84
I44
s(I34
S'TTA'
p85
tp86
I9
s(I65
S'CGC'
p87
tp88
I22
s(I54
S'GTA'
p89
tp90
I19
s(I15
S'TGA'
p91
tp92
I1
s(I23
S'TCG'
p93
tp94
I4
s(I11
S'ATA'
p95
tp96
I32
s(I64
S'TAT'
p97
tp98
I3
s(I52
S'GTC'
p99
tp100
I11
s(I63
S'AAA'
p101
tp102
I260
s(I31
S'TAG'
p103
tp104
I1
s(I38
S'ACC'
p105
tp106
I72
s(I58
S'CGA'
p107
tp108
I34
s(I13
S'TTG'
p109
tp110
I30
s(I33
S'CGC'
p111
tp112
I78
s(I53
S'ATT'
p113
tp114
I12
s(I32
S'ATG'
p115
tp116
I39
s(I9
S'ATG'
p117
tp118
I29
s(I52
S'GGA'
p119
tp120
I15
s(I46
S'TTT'
p121
tp122
I836
s(I22
S'CGA'
p123
tp124
I86
s(I8
S'CCA'
p125
tp126
I2
s(I32
S'CTA'
p127
tp128
I142
s(I65
S'CTT'
p129
tp130
I6
s(I45
S'ACC'
p131
tp132
I879
s(I61
S'CGT'
p133
tp134
I30
s(I65
S'AGC'
p135
tp136
I197
s(I52
S'TGG'
p137
tp138
I51
s(I61
S'CCT'
p139
tp140
I3
s(I3
S'GTA'
p141
tp142
I430
s(I6
S'TAT'
p143
tp144
I443
s(I67
S'GAC'
p145
tp146
I4
s(I7
S'AAG'
p147
tp148
I1
s(I51
S'ATA'
p149
tp150
I41
s(I29
S'TTT'
p151
tp152
I29
s(I34
S'CGT'
p153
tp154
I3
s(I57
S'CTG'
p155
tp156
I95
s(I72
S'ACT'
p157
tp158
I136
s(I26
S'CTT'
p159
tp160
I449
s(I51
S'AAA'
p161
tp162
I1
s(I6
S'CCC'
p163
tp164
I1
s(I37
S'GGC'
p165
tp166
I16
s(I67
S'CCA'
p167
tp168
I9
s(I15
S'TAG'
p169
tp170
I3
s(I8
S'CAT'
p171
tp172
I5
s(I52
S'ACC'
p173
tp174
I179
s(I19
S'TAA'
p175
tp176
I7
s(I41
S'TGA'
p177
tp178
I1
s(I44
S'GTA'
p179
tp180
I33
s(I58
S'GGA'
p181
tp182
I23
s(I24
S'ATA'
p183
tp184
I5
s(I27
S'TAA'
p185
tp186
I9
s(I70
S'GAT'
p187
tp188
I95
s(I69
S'GTG'
p189
tp190
I85
s(I42
S'CTG'
p191
tp192
I3
s(I66
S'GGA'
p193
tp194
I71
s(I3
S'GGT'
p195
tp196
I1
s(I13
S'TGT'
p197
tp198
I98
s(I2
S'ACC'
p199
tp200
I2
s(I75
S'GCG'
p201
tp202
I4
s(I26
S'TGT'
p203
tp204
I33
s(I13
S'CGC'
p205
tp206
I198
s(I15
S'CAA'
p207
tp208
I1
s(I47
S'GGC'
p209
tp210
I140
s(I69
S'ATA'
p211
tp212
I3
s(I12
S'ATG'
p213
tp214
I3
s(I40
S'TAC'
p215
tp216
I64
s(I31
S'CTG'
p217
tp218
I13
s(I55
S'GGC'
p219
tp220
I26
s(I49
S'CCC'
p221
tp222
I205
s(I44
S'CAT'
p223
tp224
I9
s(I49
S'GTA'
p225
tp226
I5
s(I36
S'TTA'
p227
tp228
I985
s(I10
S'CGG'
p229
tp230
I22
s(I35
S'TTG'
p231
tp232
I38
s(I5
S'GGC'
p233
tp234
I16
s(I31
S'CAT'
p235
tp236
I35
s(I53
S'TGA'
p237
tp238
I1
s(I14
S'TCT'
p239
tp240
I37
s(I11
S'GAT'
p241
tp242
I163
s(I20
S'AGG'
p243
tp244
I23
s(I64
S'AAC'
p245
tp246
I7847
s(I66
S'CTA'
p247
tp248
I2119
s(I40
S'AGC'
p249
tp250
I29
s(I65
S'TGC'
p251
tp252
I63
s(I58
S'AAG'
p253
tp254
I112
s(I11
S'GTT'
p255
tp256
I31
s(I65
S'CGT'
p257
tp258
I134
s(I36
S'GTT'
p259
tp260
I776
s(I25
S'TCT'
p261
tp262
I53
s(I19
S'GGG'
p263
tp264
I61
s(I60
S'CCA'
p265
tp266
I488
s(I64
S'TAA'
p267
tp268
I3
s(I61
S'GAG'
p269
tp270
I11
s(I33
S'GCT'
p271
tp272
I2
s(I19
S'AAA'
p273
tp274
I268
s(I60
S'CTC'
p275
tp276
I56
s(I35
S'GTA'
p277
tp278
I18
s(I67
S'GGA'
p279
tp280
I1864
s(I6
S'CTT'
p281
tp282
I143
s(I53
S'GTC'
p283
tp284
I7
s(I44
S'GGG'
p285
tp286
I22
s(I18
S'AAC'
p287
tp288
I74
s(I8
S'TCC'
p289
tp290
I1
s(I16
S'AGC'
p291
tp292
I129
s(I69
S'GGC'
p293
tp294
I218
s(I9
S'CGG'
p295
tp296
I108
s(I29
S'CAT'
p297
tp298
I8
s(I48
S'TCT'
p299
tp300
I7
s(I26
S'GAG'
p301
tp302
I3
s(I61
S'GGG'
p303
tp304
I2
s(I38
S'TCC'
p305
tp306
I25
s(I48
S'GAT'
p307
tp308
I11
s(I5
S'TCG'
p309
tp310
I1
s(I37
S'AAT'
p311
tp312
I33
s(I22
S'TGC'
p313
tp314
I16
s(I66
S'CCC'
p315
tp316
I368
s(I8
S'TGG'
p317
tp318
I11
s(I55
S'ATA'
p319
tp320
I29
s(I46
S'CTG'
p321
tp322
I135
s(I33
S'TAG'
p323
tp324
I12
s(I25
S'GGT'
p325
tp326
I12
s(I22
S'CGT'
p327
tp328
I15
s(I51
S'GCA'
p329
tp330
I37
s(I37
S'TTG'
p331
tp332
I69
s(I67
S'TGA'
p333
tp334
I1
s(I27
S'TCC'
p335
tp336
I1
s(I62
S'CTA'
p337
tp338
I279
s(I8
S'GGC'
p339
tp340
I1
s(I55
S'CGA'
p341
tp342
I26
s(I36
S'CGG'
p343
tp344
I10
s(I10
S'CAT'
p345
tp346
I13
s(I74
S'ACT'
p347
tp348
I3
s(I14
S'GGT'
p349
tp350
I41
s(I28
S'GTT'
p351
tp352
I89
s(I70
S'ACT'
p353
tp354
I1155
s(I10
S'GGA'
p355
tp356
I13
s(I31
S'TCG'
p357
tp358
I272
s(I41
S'GGG'
p359
tp360
I1056
s(I66
S'AGA'
p361
tp362
I2
s(I29
S'TTA'
p363
tp364
I74
s(I28
S'GTG'
p365
tp366
I202
s(I62
S'TGT'
p367
tp368
I360
s(I29
S'ATC'
p369
tp370
I6
s(I40
S'CTC'
p371
tp372
I144
s(I41
S'TTT'
p373
tp374
I183
s(I9
S'CGA'
p375
tp376
I4
s(I19
S'TCC'
p377
tp378
I69
s(I38
S'TCA'
p379
tp380
I34
s(I10
S'AGC'
p381
tp382
I133
s(I3
S'GAA'
p383
tp384
I3
s(I14
S'TGT'
p385
tp386
I45
s(I43
S'ACT'
p387
tp388
I8
s(I67
S'ATT'
p389
tp390
I377
s(I64
S'CCT'
p391
tp392
I6
s(I26
S'ATA'
p393
tp394
I50
s(I18
S'TGG'
p395
tp396
I49
s(I33
S'GTC'
p397
tp398
I12
s(I25
S'GAC'
p399
tp400
I80
s(I17
S'TCG'
p401
tp402
I208
s(I51
S'TTG'
p403
tp404
I16
s(I57
S'AAA'
p405
tp406
I421
s(I53
S'AGT'
p407
tp408
I25
s(I49
S'TCC'
p409
tp410
I632
s(I6
S'GCT'
p411
tp412
I255
s(I30
S'TGC'
p413
tp414
I557
s(I42
S'GTT'
p415
tp416
I151
s(I13
S'CTG'
p417
tp418
I8
s(I18
S'CTA'
p419
tp420
I33
s(I64
S'TCC'
p421
tp422
I7488
s(I10
S'CCA'
p423
tp424
I2
s(I64
S'CTA'
p425
tp426
I622
s(I58
S'CAA'
p427
tp428
I62
s(I69
S'AGC'
p429
tp430
I1199
s(I8
S'TAA'
p431
tp432
I7
s(I20
S'GCA'
p433
tp434
I31
s(I7
S'ACG'
p435
tp436
I19
s(I68
S'TCG'
p437
tp438
I2200
s(I8
S'CTA'
p439
tp440
I123
s(I66
S'TTC'
p441
tp442
I33
s(I32
S'AGG'
p443
tp444
I50
s(I4
S'CCC'
p445
tp446
I2
s(I51
S'CGT'
p447
tp448
I1
s(I54
S'GAA'
p449
tp450
I11
s(I54
S'CCG'
p451
tp452
I3
s(I5
S'TCC'
p453
tp454
I3
s(I73
S'TAA'
p455
tp456
I5
s(I63
S'AGA'
p457
tp458
I15
s(I21
S'CGT'
p459
tp460
I5
s(I38
S'GAA'
p461
tp462
I12
s(I21
S'CCT'
p463
tp464
I1
s(I13
S'GGG'
p465
tp466
I1
s(I69
S'CCA'
p467
tp468
I2
s(I70
S'CAA'
p469
tp470
I2
s(I27
S'TTG'
p471
tp472
I77
s(I9
S'TTC'
p473
tp474
I8
s(I60
S'GAG'
p475
tp476
I5
s(I25
S'TCC'
p477
tp478
I5
s(I61
S'GTG'
p479
tp480
I227
s(I64
S'TTT'
p481
tp482
I119
s(I7
S'CAT'
p483
tp484
I6
s(I76
S'GGG'
p485
tp486
I5
s(I41
S'AGG'
p487
tp488
I1
s(I50
S'ACG'
p489
tp490
I13
s(I20
S'AGA'
p491
tp492
I114
s(I52
S'ATA'
p493
tp494
I24
s(I60
S'GTT'
p495
tp496
I428
s(I31
S'TTC'
p497
tp498
I3
s(I18
S'GAC'
p499
tp500
I20
s(I70
S'TGA'
p501
tp502
I1
s(I29
S'TCG'
p503
tp504
I113
s(I63
S'CCC'
p505
tp506
I161
s(I32
S'TTG'
p507
tp508
I177
s(I29
S'CAA'
p509
tp510
I49
s(I64
S'GAC'
p511
tp512
I1608
s(I34
S'GTG'
p513
tp514
I1
s(I8
S'CGG'
p515
tp516
I1
s(I45
S'AGC'
p517
tp518
I226
s(I7
S'GCT'
p519
tp520
I283
s(I19
S'CAG'
p521
tp522
I60
s(I28
S'GGG'
p523
tp524
I103
s(I16
S'GAG'
p525
tp526
I106
s(I50
S'GTG'
p527
tp528
I44
s(I42
S'TTC'
p529
tp530
I132
s(I11
S'GGT'
p531
tp532
I33
s(I33
S'TGT'
p533
tp534
I6
s(I66
S'GTA'
p535
tp536
I117
s(I25
S'GGA'
p537
tp538
I207
s(I19
S'CGC'
p539
tp540
I53
s(I41
S'CTC'
p541
tp542
I647
s(I35
S'ACA'
p543
tp544
I335
s(I19
S'TGT'
p545
tp546
I65
s(I52
S'GGG'
p547
tp548
I8
s(I17
S'AGA'
p549
tp550
I1
s(I73
S'GGC'
p551
tp552
I5
s(I39
S'GTG'
p553
tp554
I1
s(I53
S'GGC'
p555
tp556
I177
s(I43
S'GTA'
p557
tp558
I61
s(I38
S'CTC'
p559
tp560
I9
s(I11
S'GCG'
p561
tp562
I1634
s(I3
S'GCG'
p563
tp564
I469
s(I43
S'CTA'
p565
tp566
I4
s(I63
S'CTA'
p567
tp568
I11
s(I55
S'CAC'
p569
tp570
I3
s(I28
S'GCG'
p571
tp572
I2
s(I18
S'GGT'
p573
tp574
I320
s(I60
S'CAC'
p575
tp576
I225
s(I17
S'AGG'
p577
tp578
I3
s(I64
S'TCA'
p579
tp580
I9101
s(I58
S'TTA'
p581
tp582
I1
s(I73
S'TGG'
p583
tp584
I1
s(I13
S'TAT'
p585
tp586
I2
s(I63
S'TTT'
p587
tp588
I74
s(I12
S'TGA'
p589
tp590
I34
s(I40
S'GTT'
p591
tp592
I4
s(I68
S'TTA'
p593
tp594
I1
s(I29
S'ATA'
p595
tp596
I73
s(I3
S'CCA'
p597
tp598
I1
s(I66
S'TCG'
p599
tp600
I7
s(I19
S'CTT'
p601
tp602
I42
s(I64
S'CCC'
p603
tp604
I4
s(I12
S'TAC'
p605
tp606
I6
s(I24
S'CTT'
p607
tp608
I51
s(I36
S'GCG'
p609
tp610
I6
s(I42
S'CGA'
p611
tp612
I133
s(I6
S'GGG'
p613
tp614
I6
s(I62
S'GCT'
p615
tp616
I344
s(I26
S'GTA'
p617
tp618
I162
s(I72
S'AGC'
p619
tp620
I24
s(I17
S'CGC'
p621
tp622
I3
s(I6
S'TTT'
p623
tp624
I169
s(I36
S'CGA'
p625
tp626
I18
s(I48
S'GGT'
p627
tp628
I21
s(I28
S'AAG'
p629
tp630
I25
s(I64
S'CTC'
p631
tp632
I1245
s(I31
S'GCC'
p633
tp634
I70
s(I54
S'AAC'
p635
tp636
I5
s(I53
S'AAC'
p637
tp638
I44
s(I19
S'GAT'
p639
tp640
I21
s(I31
S'CGC'
p641
tp642
I61
s(I76
S'AGG'
p643
tp644
I9
s(I14
S'CCA'
p645
tp646
I2
s(I6
S'TCG'
p647
tp648
I306
s(I13
S'CAT'
p649
tp650
I33
s(I41
S'CTT'
p651
tp652
I194
s(I73
S'GTT'
p653
tp654
I3491
s(I47
S'AGT'
p655
tp656
I438
s(I26
S'ACC'
p657
tp658
I7
s(I60
S'CCT'
p659
tp660
I39
s(I62
S'CCA'
p661
tp662
I123
s(I58
S'GCG'
p663
tp664
I7
s(I42
S'AGT'
p665
tp666
I3
s(I54
S'CAG'
p667
tp668
I217
s(I53
S'GGG'
p669
tp670
I34
s(I59
S'GTC'
p671
tp672
I47
s(I70
S'AGA'
p673
tp674
I1
s(I61
S'ATA'
p675
tp676
I1
s(I39
S'TTT'
p677
tp678
I7
s(I48
S'GCC'
p679
tp680
I8
s(I38
S'CGA'
p681
tp682
I4
s(I48
S'CCT'
p683
tp684
I4
s(I49
S'TAC'
p685
tp686
I4
s(I69
S'CAA'
p687
tp688
I56
s(I33
S'ACC'
p689
tp690
I1
s(I70
S'CAT'
p691
tp692
I4
s(I57
S'CCA'
p693
tp694
I24
s(I35
S'ATC'
p695
tp696
I22
s(I16
S'TGC'
p697
tp698
I43
s(I71
S'TTA'
p699
tp700
I864
s(I47
S'TCG'
p701
tp702
I415
s(I48
S'GTC'
p703
tp704
I5
s(I13
S'CAA'
p705
tp706
I166
s(I18
S'CAA'
p707
tp708
I281
s(I36
S'CAA'
p709
tp710
I1491
s(I49
S'TAG'
p711
tp712
I13
s(I8
S'GTG'
p713
tp714
I137
s(I58
S'CTG'
p715
tp716
I1
s(I22
S'GCA'
p717
tp718
I472
s(I60
S'TTC'
p719
tp720
I24
s(I38
S'TGA'
p721
tp722
I20
s(I38
S'CCT'
p723
tp724
I79
s(I52
S'AAA'
p725
tp726
I6
s(I7
S'GCA'
p727
tp728
I155
s(I68
S'CCA'
p729
tp730
I11
s(I5
S'GTG'
p731
tp732
I99
s(I18
S'AGT'
p733
tp734
I17
s(I41
S'GTC'
p735
tp736
I79
s(I57
S'AGC'
p737
tp738
I10
s(I17
S'ACA'
p739
tp740
I14
s(I51
S'CAT'
p741
tp742
I31
s(I41
S'AAA'
p743
tp744
I5
s(I73
S'TCA'
p745
tp746
I2
s(I66
S'CAC'
p747
tp748
I5130
s(I47
S'CTG'
p749
tp750
I6
s(I33
S'GCA'
p751
tp752
I3
s(I62
S'ATT'
p753
tp754
I458
s(I76
S'GGC'
p755
tp756
I14
s(I76
S'TTT'
p757
tp758
I2
s(I11
S'GCC'
p759
tp760
I677
s(I6
S'ACC'
p761
tp762
I145
s(I64
S'ATA'
p763
tp764
I1228
s(I24
S'CGA'
p765
tp766
I7
s(I72
S'GGG'
p767
tp768
I265
s(I65
S'GCA'
p769
tp770
I496
s(I63
S'CTT'
p771
tp772
I16
s(I76
S'CGA'
p773
tp774
I25
s(I49
S'ATC'
p775
tp776
I136
s(I37
S'ACT'
p777
tp778
I192
s(I53
S'TCT'
p779
tp780
I56
s(I53
S'GCT'
p781
tp782
I10
s(I26
S'ATG'
p783
tp784
I50
s(I69
S'GAT'
p785
tp786
I19
s(I74
S'ATA'
p787
tp788
I1
s(I35
S'TCT'
p789
tp790
I28
s(I40
S'TCA'
p791
tp792
I170
s(I47
S'TCC'
p793
tp794
I862
s(I67
S'CGG'
p795
tp796
I2
s(I65
S'GTG'
p797
tp798
I1
s(I72
S'AAC'
p799
tp800
I424
s(I24
S'CTA'
p801
tp802
I105
s(I11
S'AAC'
p803
tp804
I1586
s(I2
S'AGC'
p805
tp806
I2
s(I5
S'GAA'
p807
tp808
I6
s(I34
S'TGT'
p809
tp810
I1
s(I65
S'GGG'
p811
tp812
I3867
s(I36
S'AAC'
p813
tp814
I41
s(I33
S'AGC'
p815
tp816
I18
s(I70
S'GCG'
p817
tp818
I14
s(I27
S'CAT'
p819
tp820
I30
s(I72
S'GAT'
p821
tp822
I3
s(I60
S'CGG'
p823
tp824
I245
s(I53
S'AAT'
p825
tp826
I23
s(I32
S'AAG'
p827
tp828
I12
s(I10
S'GAT'
p829
tp830
I25
s(I40
S'ACT'
p831
tp832
I15
s(I67
S'AAA'
p833
tp834
I5
s(I38
S'CAG'
p835
tp836
I294
s(I57
S'GAG'
p837
tp838
I2
s(I30
S'GCC'
p839
tp840
I95
s(I29
S'TGG'
p841
tp842
I132
s(I19
S'TTT'
p843
tp844
I66
s(I12
S'ACG'
p845
tp846
I110
s(I35
S'CCA'
p847
tp848
I102
s(I28
S'CTG'
p849
tp850
I6
s(I53
S'ATG'
p851
tp852
I68
s(I56
S'ACC'
p853
tp854
I2
s(I9
S'TAT'
p855
tp856
I24
s(I25
S'TGC'
p857
tp858
I165
s(I30
S'TAA'
p859
tp860
I21
s(I16
S'ACG'
p861
tp862
I51
s(I30
S'GTC'
p863
tp864
I123
s(I29
S'GGA'
p865
tp866
I17
s(I10
S'GCG'
p867
tp868
I2
s(I44
S'AAC'
p869
tp870
I4
s(I45
S'TGT'
p871
tp872
I135
s(I40
S'GAA'
p873
tp874
I867
s(I64
S'GGA'
p875
tp876
I6899
s(I51
S'GAT'
p877
tp878
I13
s(I35
S'AGC'
p879
tp880
I20
s(I7
S'CGA'
p881
tp882
I23
s(I69
S'TTG'
p883
tp884
I197
s(I64
S'CAA'
p885
tp886
I3174
s(I3
S'GGG'
p887
tp888
I2
s(I24
S'GAA'
p889
tp890
I15
s(I40
S'AAG'
p891
tp892
I160
s(I33
S'AGA'
p893
tp894
I48
s(I26
S'CTG'
p895
tp896
I201
s(I5
S'ATA'
p897
tp898
I27
s(I17
S'CCC'
p899
tp900
I10
s(I61
S'GCA'
p901
tp902
I26
s(I74
S'CGG'
p903
tp904
I59
s(I75
S'CGG'
p905
tp906
I1
s(I29
S'AAG'
p907
tp908
I28
s(I46
S'TAC'
p909
tp910
I1531
s(I22
S'GCT'
p911
tp912
I39
s(I32
S'TTC'
p913
tp914
I3
s(I44
S'GCC'
p915
tp916
I26
s(I54
S'TAC'
p917
tp918
I111
s(I74
S'ACG'
p919
tp920
I1
s(I29
S'CTG'
p921
tp922
I325
s(I69
S'GCG'
p923
tp924
I613
s(I11
S'CCA'
p925
tp926
I1461
s(I72
S'CGC'
p927
tp928
I3
s(I72
S'CCC'
p929
tp930
I74
s(I44
S'GAG'
p931
tp932
I5
s(I73
S'AAC'
p933
tp934
I54
s(I14
S'TAG'
p935
tp936
I2
s(I58
S'AGA'
p937
tp938
I6
s(I76
S'CCG'
p939
tp940
I2
s(I11
S'TTG'
p941
tp942
I14
s(I20
S'CCC'
p943
tp944
I380
s(I23
S'ACA'
p945
tp946
I4
s(I21
S'GTC'
p947
tp948
I125
s(I46
S'CCG'
p949
tp950
I11
s(I44
S'TGC'
p951
tp952
I970
s(I63
S'GCT'
p953
tp954
I12
s(I37
S'GTC'
p955
tp956
I390
s(I35
S'GAG'
p957
tp958
I55
s(I52
S'AGC'
p959
tp960
I48
s(I28
S'TGC'
p961
tp962
I23
s(I25
S'GTT'
p963
tp964
I65
s(I36
S'CTG'
p965
tp966
I2136
s(I34
S'GGG'
p967
tp968
I8
s(I25
S'ATT'
p969
tp970
I74
s(I41
S'CTA'
p971
tp972
I191
s(I54
S'TGC'
p973
tp974
I1
s(I34
S'CCC'
p975
tp976
I10
s(I40
S'TGG'
p977
tp978
I1
s(I38
S'GTT'
p979
tp980
I96
s(I45
S'ATA'
p981
tp982
I22
s(I63
S'GTT'
p983
tp984
I270
s(I32
S'TAA'
p985
tp986
I7
s(I52
S'GCA'
p987
tp988
I38
s(I46
S'GGC'
p989
tp990
I356
s(I61
S'AAG'
p991
tp992
I5
s(I53
S'CCG'
p993
tp994
I64
s(I53
S'GAG'
p995
tp996
I19
s(I23
S'TCT'
p997
tp998
I3
s(I54
S'GGC'
p999
tp1000
I147
s(I35
S'GCA'
p1001
tp1002
I9
s(I35
S'CTC'
p1003
tp1004
I121
s(I17
S'TCA'
p1005
tp1006
I134
s(I19
S'CTA'
p1007
tp1008
I8
s(I18
S'ATA'
p1009
tp1010
I33
s(I23
S'GCT'
p1011
tp1012
I3
s(I38
S'ACT'
p1013
tp1014
I302
s(I6
S'GAG'
p1015
tp1016
I60
s(I24
S'GTA'
p1017
tp1018
I36
s(I16
S'TTC'
p1019
tp1020
I40
s(I3
S'ACG'
p1021
tp1022
I30
s(I62
S'GGT'
p1023
tp1024
I18
s(I24
S'AGG'
p1025
tp1026
I29
s(I24
S'TAC'
p1027
tp1028
I19
s(I33
S'TGG'
p1029
tp1030
I10
s(I50
S'ACC'
p1031
tp1032
I272
s(I3
S'CGC'
p1033
tp1034
I5
s(I21
S'TCC'
p1035
tp1036
I112
s(I55
S'GCT'
p1037
tp1038
I31
s(I24
S'GCC'
p1039
tp1040
I19
s(I32
S'CCT'
p1041
tp1042
I56
s(I15
S'ATC'
p1043
tp1044
I371
s(I38
S'GTC'
p1045
tp1046
I39
s(I17
S'GCC'
p1047
tp1048
I80
s(I62
S'CAA'
p1049
tp1050
I141
s(I54
S'CTC'
p1051
tp1052
I40
s(I28
S'GAT'
p1053
tp1054
I112
s(I35
S'GGC'
p1055
tp1056
I220
s(I21
S'AGT'
p1057
tp1058
I6
s(I51
S'CCG'
p1059
tp1060
I87
s(I61
S'CGC'
p1061
tp1062
I28
s(I57
S'GTG'
p1063
tp1064
I225
s(I68
S'GGT'
p1065
tp1066
I28
s(I38
S'AAG'
p1067
tp1068
I51
s(I6
S'TAC'
p1069
tp1070
I394
s(I51
S'TCA'
p1071
tp1072
I93
s(I62
S'ACG'
p1073
tp1074
I1900
s(I41
S'GTG'
p1075
tp1076
I73
s(I52
S'TGT'
p1077
tp1078
I5
s(I58
S'CGG'
p1079
tp1080
I18
s(I45
S'CTC'
p1081
tp1082
I106
s(I27
S'CCC'
p1083
tp1084
I1
s(I35
S'ATT'
p1085
tp1086
I301
s(I55
S'AAT'
p1087
tp1088
I86
s(I34
S'CGA'
p1089
tp1090
I3
s(I37
S'AGC'
p1091
tp1092
I588
s(I57
S'GCG'
p1093
tp1094
I65
s(I65
S'AAT'
p1095
tp1096
I269
s(I41
S'TAT'
p1097
tp1098
I8
s(I33
S'ATC'
p1099
tp1100
I36
s(I57
S'ACC'
p1101
tp1102
I113
s(I40
S'TTT'
p1103
tp1104
I23
s(I10
S'ATG'
p1105
tp1106
I2
s(I23
S'AGT'
p1107
tp1108
I27
s(I18
S'GTC'
p1109
tp1110
I302
s(I62
S'GTG'
p1111
tp1112
I1741
s(I69
S'CGT'
p1113
tp1114
I2
s(I38
S'CCG'
p1115
tp1116
I52
s(I60
S'GAT'
p1117
tp1118
I648
s(I27
S'ATT'
p1119
tp1120
I71
s(I70
S'GAA'
p1121
tp1122
I1
s(I9
S'TCT'
p1123
tp1124
I106
s(I69
S'GTT'
p1125
tp1126
I142
s(I5
S'TTA'
p1127
tp1128
I493
s(I13
S'TGA'
p1129
tp1130
I4
s(I29
S'ACA'
p1131
tp1132
I86
s(I37
S'CGT'
p1133
tp1134
I9
s(I39
S'CCT'
p1135
tp1136
I5
s(I33
S'GCG'
p1137
tp1138
I4
s(I47
S'CAC'
p1139
tp1140
I39
s(I64
S'TTC'
p1141
tp1142
I45
s(I52
S'CAC'
p1143
tp1144
I6
s(I37
S'TGC'
p1145
tp1146
I437
s(I9
S'AGG'
p1147
tp1148
I78
s(I75
S'CCT'
p1149
tp1150
I1
s(I20
S'GTA'
p1151
tp1152
I44
s(I38
S'TAT'
p1153
tp1154
I23
s(I74
S'GGG'
p1155
tp1156
I4
s(I41
S'TCC'
p1157
tp1158
I27
s(I52
S'TGA'
p1159
tp1160
I34
s(I15
S'GGG'
p1161
tp1162
I2
s(I56
S'TGT'
p1163
tp1164
I28
s(I59
S'AGG'
p1165
tp1166
I2
s(I48
S'ATC'
p1167
tp1168
I12
s(I31
S'CCC'
p1169
tp1170
I4
s(I61
S'TTT'
p1171
tp1172
I295
s(I63
S'GCA'
p1173
tp1174
I146
s(I13
S'AGC'
p1175
tp1176
I38
s(I26
S'GCG'
p1177
tp1178
I2
s(I17
S'GGA'
p1179
tp1180
I72
s(I45
S'TCG'
p1181
tp1182
I1767
s(I11
S'GAC'
p1183
tp1184
I2762
s(I61
S'CTT'
p1185
tp1186
I1806
s(I21
S'ACC'
p1187
tp1188
I30
s(I66
S'CTT'
p1189
tp1190
I4919
s(I65
S'TGT'
p1191
tp1192
I213
s(I17
S'CTC'
p1193
tp1194
I30
s(I24
S'ATG'
p1195
tp1196
I42
s(I74
S'GCA'
p1197
tp1198
I1
s(I54
S'ATC'
p1199
tp1200
I12
s(I37
S'CTC'
p1201
tp1202
I14
s(I33
S'GAA'
p1203
tp1204
I15
s(I34
S'CAA'
p1205
tp1206
I10
s(I8
S'GAG'
p1207
tp1208
I1
s(I25
S'CAT'
p1209
tp1210
I57
s(I68
S'AGG'
p1211
tp1212
I22
s(I75
S'AAG'
p1213
tp1214
I1
s(I10
S'TTA'
p1215
tp1216
I3
s(I60
S'GCT'
p1217
tp1218
I835
s(I7
S'GAA'
p1219
tp1220
I145
s(I29
S'CCG'
p1221
tp1222
I2
s(I6
S'CTC'
p1223
tp1224
I16
s(I37
S'ACC'
p1225
tp1226
I95
s(I49
S'TGT'
p1227
tp1228
I139
s(I34
S'CGC'
p1229
tp1230
I1
s(I34
S'AGT'
p1231
tp1232
I3
s(I35
S'CGG'
p1233
tp1234
I185
s(I72
S'TCT'
p1235
tp1236
I82
s(I51
S'AAC'
p1237
tp1238
I29
s(I72
S'TAC'
p1239
tp1240
I54
s(I62
S'AGA'
p1241
tp1242
I632
s(I72
S'TCA'
p1243
tp1244
I42
s(I41
S'GCG'
p1245
tp1246
I27
s(I53
S'ACT'
p1247
tp1248
I11
s(I75
S'GAC'
p1249
tp1250
I7
s(I11
S'TGA'
p1251
tp1252
I5
s(I70
S'CTA'
p1253
tp1254
I164
s(I71
S'CTG'
p1255
tp1256
I139
s(I68
S'GTT'
p1257
tp1258
I126
s(I46
S'CGG'
p1259
tp1260
I198
s(I32
S'CCC'
p1261
tp1262
I109
s(I70
S'CGG'
p1263
tp1264
I21
s(I14
S'TCA'
p1265
tp1266
I80
s(I69
S'TGA'
p1267
tp1268
I1
s(I41
S'TGT'
p1269
tp1270
I44
s(I22
S'TCG'
p1271
tp1272
I90
s(I74
S'TGT'
p1273
tp1274
I1
s(I62
S'CAT'
p1275
tp1276
I400
s(I46
S'TGA'
p1277
tp1278
I15
s(I20
S'TTC'
p1279
tp1280
I34
s(I37
S'TAT'
p1281
tp1282
I69
s(I50
S'TGC'
p1283
tp1284
I605
s(I30
S'TTG'
p1285
tp1286
I76
s(I10
S'GTA'
p1287
tp1288
I5
s(I10
S'CAA'
p1289
tp1290
I88
s(I55
S'ATC'
p1291
tp1292
I330
s(I28
S'CAA'
p1293
tp1294
I69
s(I10
S'TCC'
p1295
tp1296
I167
s(I33
S'TCA'
p1297
tp1298
I11
s(I42
S'GAA'
p1299
tp1300
I4
s(I62
S'TGG'
p1301
tp1302
I467
s(I20
S'TCT'
p1303
tp1304
I44
s(I18
S'TTC'
p1305
tp1306
I506
s(I36
S'TTT'
p1307
tp1308
I8
s(I55
S'AGA'
p1309
tp1310
I75
s(I41
S'TTG'
p1311
tp1312
I1793
s(I9
S'CGT'
p1313
tp1314
I41
s(I10
S'AGT'
p1315
tp1316
I135
s(I72
S'ATT'
p1317
tp1318
I7
s(I51
S'CTT'
p1319
tp1320
I211
s(I4
S'ATG'
p1321
tp1322
I22
s(I69
S'CGA'
p1323
tp1324
I6
s(I38
S'AGA'
p1325
tp1326
I94
s(I44
S'CGG'
p1327
tp1328
I9
s(I45
S'TTC'
p1329
tp1330
I2
s(I53
S'AGG'
p1331
tp1332
I24
s(I36
S'ACA'
p1333
tp1334
I8533
s(I6
S'AGT'
p1335
tp1336
I126
s(I27
S'ACG'
p1337
tp1338
I16
s(I27
S'AAA'
p1339
tp1340
I33
s(I72
S'GTG'
p1341
tp1342
I16
s(I62
S'CTG'
p1343
tp1344
I782
s(I61
S'CCG'
p1345
tp1346
I1
s(I37
S'CCA'
p1347
tp1348
I167
s(I37
S'CGA'
p1349
tp1350
I11
s(I59
S'TCC'
p1351
tp1352
I2583
s(I68
S'GAC'
p1353
tp1354
I21
s(I55
S'GAG'
p1355
tp1356
I1
s(I12
S'CCG'
p1357
tp1358
I123
s(I15
S'TCG'
p1359
tp1360
I8
s(I67
S'AGT'
p1361
tp1362
I2
s(I63
S'TCG'
p1363
tp1364
I11
s(I37
S'TTA'
p1365
tp1366
I33
s(I59
S'GCC'
p1367
tp1368
I3078
s(I61
S'TTA'
p1369
tp1370
I482
s(I19
S'CCC'
p1371
tp1372
I127
s(I3
S'GAG'
p1373
tp1374
I7
s(I6
S'CCT'
p1375
tp1376
I4
s(I17
S'TTG'
p1377
tp1378
I93
s(I45
S'GTC'
p1379
tp1380
I12265
s(I50
S'GAG'
p1381
tp1382
I877
s(I10
S'AAC'
p1383
tp1384
I290
s(I53
S'ATC'
p1385
tp1386
I12
s(I25
S'AGC'
p1387
tp1388
I24
s(I63
S'AGT'
p1389
tp1390
I171
s(I21
S'CGC'
p1391
tp1392
I4
s(I9
S'CCA'
p1393
tp1394
I2572
s(I23
S'CCG'
p1395
tp1396
I4
s(I60
S'ACC'
p1397
tp1398
I109
s(I57
S'AAG'
p1399
tp1400
I82
s(I34
S'GAG'
p1401
tp1402
I29
s(I15
S'AGA'
p1403
tp1404
I1
s(I19
S'CTG'
p1405
tp1406
I64
s(I76
S'TGG'
p1407
tp1408
I6
s(I22
S'TAG'
p1409
tp1410
I2
s(I20
S'TCG'
p1411
tp1412
I148
s(I19
S'GCG'
p1413
tp1414
I119
s(I71
S'CCG'
p1415
tp1416
I7
s(I70
S'AGG'
p1417
tp1418
I2
s(I7
S'CAC'
p1419
tp1420
I9
s(I62
S'AGG'
p1421
tp1422
I625
s(I19
S'AGA'
p1423
tp1424
I5
s(I35
S'CAG'
p1425
tp1426
I3
s(I15
S'TTA'
p1427
tp1428
I117
s(I30
S'GTT'
p1429
tp1430
I184
s(I72
S'TGC'
p1431
tp1432
I27
s(I60
S'GTG'
p1433
tp1434
I403
s(I11
S'AAG'
p1435
tp1436
I82
s(I46
S'ACC'
p1437
tp1438
I2187
s(I16
S'TCA'
p1439
tp1440
I111
s(I3
S'AGA'
p1441
tp1442
I1
s(I31
S'TGT'
p1443
tp1444
I226
s(I70
S'GAG'
p1445
tp1446
I3
s(I24
S'CAT'
p1447
tp1448
I111
s(I48
S'TAA'
p1449
tp1450
I7
s(I60
S'CAA'
p1451
tp1452
I204
s(I11
S'GGG'
p1453
tp1454
I85
s(I73
S'TAG'
p1455
tp1456
I8
s(I4
S'AAC'
p1457
tp1458
I1
s(I66
S'TGT'
p1459
tp1460
I1
s(I46
S'TCA'
p1461
tp1462
I471
s(I45
S'CAC'
p1463
tp1464
I79
s(I6
S'TGT'
p1465
tp1466
I9
s(I5
S'TGT'
p1467
tp1468
I693
s(I35
S'ACT'
p1469
tp1470
I102
s(I44
S'TCA'
p1471
tp1472
I9
s(I54
S'CGA'
p1473
tp1474
I21
s(I54
S'GCG'
p1475
tp1476
I46
s(I57
S'CTA'
p1477
tp1478
I27
s(I15
S'TGC'
p1479
tp1480
I2
s(I49
S'AAA'
p1481
tp1482
I77
s(I69
S'GAA'
p1483
tp1484
I10
s(I70
S'ATT'
p1485
tp1486
I12
s(I44
S'GGT'
p1487
tp1488
I1
s(I4
S'TAG'
p1489
tp1490
I11
s(I20
S'GAG'
p1491
tp1492
I64
s(I6
S'CAG'
p1493
tp1494
I203
s(I13
S'AAA'
p1495
tp1496
I115
s(I9
S'GTC'
p1497
tp1498
I335
s(I47
S'GAA'
p1499
tp1500
I2
s(I66
S'TTT'
p1501
tp1502
I3
s(I27
S'CGC'
p1503
tp1504
I42
s(I8
S'CGA'
p1505
tp1506
I8
s(I63
S'TTC'
p1507
tp1508
I43
s(I72
S'ATA'
p1509
tp1510
I3
s(I51
S'CTC'
p1511
tp1512
I409
s(I75
S'GGG'
p1513
tp1514
I88
s(I25
S'GTC'
p1515
tp1516
I42
s(I37
S'AAG'
p1517
tp1518
I388
s(I44
S'ACT'
p1519
tp1520
I619
s(I16
S'AAT'
p1521
tp1522
I334
s(I66
S'CGT'
p1523
tp1524
I1
s(I71
S'TGG'
p1525
tp1526
I7
s(I42
S'AAT'
p1527
tp1528
I233
s(I25
S'GGG'
p1529
tp1530
I59
s(I76
S'CAA'
p1531
tp1532
I5
s(I59
S'TGG'
p1533
tp1534
I6
s(I2
S'GGA'
p1535
tp1536
I1
s(I35
S'CCT'
p1537
tp1538
I245
s(I48
S'GGA'
p1539
tp1540
I9
s(I25
S'GCC'
p1541
tp1542
I1
s(I71
S'TCC'
p1543
tp1544
I10
s(I24
S'TTC'
p1545
tp1546
I23
s(I43
S'GTG'
p1547
tp1548
I232
s(I76
S'AGT'
p1549
tp1550
I3
s(I46
S'GAA'
p1551
tp1552
I13931
s(I3
S'GCA'
p1553
tp1554
I3469
s(I55
S'TCC'
p1555
tp1556
I26
s(I65
S'GGA'
p1557
tp1558
I851
s(I48
S'TGG'
p1559
tp1560
I19
s(I65
S'TCT'
p1561
tp1562
I124
s(I37
S'TGA'
p1563
tp1564
I4
s(I45
S'CGC'
p1565
tp1566
I126
s(I36
S'TAT'
p1567
tp1568
I40
s(I12
S'TGG'
p1569
tp1570
I4
s(I61
S'AAT'
p1571
tp1572
I8
s(I14
S'TGC'
p1573
tp1574
I2
s(I47
S'AAA'
p1575
tp1576
I2
s(I42
S'ACG'
p1577
tp1578
I37
s(I44
S'TAT'
p1579
tp1580
I8
s(I66
S'TCA'
p1581
tp1582
I7
s(I26
S'TTA'
p1583
tp1584
I17
s(I39
S'TTC'
p1585
tp1586
I42
s(I36
S'ACT'
p1587
tp1588
I4315
s(I22
S'TAT'
p1589
tp1590
I37
s(I62
S'TTG'
p1591
tp1592
I318
s(I42
S'CGG'
p1593
tp1594
I213
s(I48
S'GCT'
p1595
tp1596
I2
s(I26
S'GTG'
p1597
tp1598
I49
s(I18
S'CGA'
p1599
tp1600
I19
s(I28
S'TAT'
p1601
tp1602
I31
s(I23
S'GGC'
p1603
tp1604
I2
s(I9
S'TGC'
p1605
tp1606
I2185
s(I28
S'AAA'
p1607
tp1608
I14
s(I69
S'TAT'
p1609
tp1610
I119
s(I57
S'TCC'
p1611
tp1612
I46
s(I42
S'GTG'
p1613
tp1614
I277
s(I25
S'TAG'
p1615
tp1616
I6
s(I47
S'TCT'
p1617
tp1618
I286
s(I14
S'CCG'
p1619
tp1620
I4
s(I5
S'GCT'
p1621
tp1622
I2
s(I69
S'ATG'
p1623
tp1624
I119
s(I57
S'TAA'
p1625
tp1626
I1
s(I67
S'TGG'
p1627
tp1628
I5
s(I38
S'CGT'
p1629
tp1630
I10
s(I32
S'CAA'
p1631
tp1632
I117
s(I65
S'TAA'
p1633
tp1634
I2
s(I62
S'CCG'
p1635
tp1636
I2179
s(I31
S'GTG'
p1637
tp1638
I379
s(I4
S'CTG'
p1639
tp1640
I21
s(I64
S'TGG'
p1641
tp1642
I3
s(I9
S'CTA'
p1643
tp1644
I282
s(I2
S'CCC'
p1645
tp1646
I1
s(I61
S'ACC'
p1647
tp1648
I2
s(I2
S'CGC'
p1649
tp1650
I1
s(I23
S'TTG'
p1651
tp1652
I14
s(I5
S'GTT'
p1653
tp1654
I43
s(I21
S'CTA'
p1655
tp1656
I82
s(I25
S'ACG'
p1657
tp1658
I108
s(I17
S'ACT'
p1659
tp1660
I133
s(I67
S'CAA'
p1661
tp1662
I152
s(I62
S'AAA'
p1663
tp1664
I12
s(I11
S'ACA'
p1665
tp1666
I1047
s(I68
S'TAG'
p1667
tp1668
I5
s(I54
S'TTA'
p1669
tp1670
I77
s(I21
S'CCG'
p1671
tp1672
I1
s(I72
S'AGA'
p1673
tp1674
I34
s(I76
S'TTA'
p1675
tp1676
I5
s(I70
S'TCT'
p1677
tp1678
I14
s(I57
S'CCG'
p1679
tp1680
I5
s(I17
S'TGG'
p1681
tp1682
I1
s(I6
S'ACT'
p1683
tp1684
I600
s(I54
S'CGT'
p1685
tp1686
I160
s(I60
S'CCG'
p1687
tp1688
I31
s(I36
S'GCT'
p1689
tp1690
I6
s(I12
S'GAC'
p1691
tp1692
I431
s(I40
S'GGC'
p1693
tp1694
I356
s(I36
S'CAG'
p1695
tp1696
I2541
s(I70
S'ATA'
p1697
tp1698
I10
s(I25
S'AAT'
p1699
tp1700
I1
s(I21
S'TAT'
p1701
tp1702
I48
s(I27
S'TGG'
p1703
tp1704
I1
s(I8
S'GTA'
p1705
tp1706
I1
s(I20
S'AAG'
p1707
tp1708
I1
s(I53
S'CTC'
p1709
tp1710
I34
s(I53
S'GCC'
p1711
tp1712
I47
s(I29
S'TAT'
p1713
tp1714
I63
s(I45
S'AAC'
p1715
tp1716
I317
s(I47
S'GAT'
p1717
tp1718
I4
s(I42
S'GGA'
p1719
tp1720
I653
s(I22
S'GAT'
p1721
tp1722
I210
s(I5
S'TAC'
p1723
tp1724
I191
s(I16
S'AAC'
p1725
tp1726
I69
s(I30
S'ACA'
p1727
tp1728
I1
s(I22
S'CTC'
p1729
tp1730
I516
s(I7
S'TCT'
p1731
tp1732
I422
s(I27
S'CTA'
p1733
tp1734
I2
s(I55
S'CCA'
p1735
tp1736
I102
s(I41
S'CGA'
p1737
tp1738
I14
s(I64
S'GAA'
p1739
tp1740
I234
s(I31
S'GGC'
p1741
tp1742
I80
s(I48
S'CAT'
p1743
tp1744
I2
s(I51
S'GTC'
p1745
tp1746
I374
s(I61
S'TCG'
p1747
tp1748
I1
s(I61
S'AGA'
p1749
tp1750
I25
s(I25
S'GCT'
p1751
tp1752
I16
s(I64
S'ATG'
p1753
tp1754
I239
s(I52
S'TTA'
p1755
tp1756
I12
s(I14
S'GCC'
p1757
tp1758
I6
s(I33
S'GGC'
p1759
tp1760
I1
s(I40
S'GCC'
p1761
tp1762
I2
s(I54
S'AAA'
p1763
tp1764
I50
s(I28
S'CGC'
p1765
tp1766
I75
s(I5
S'AGC'
p1767
tp1768
I1
s(I70
S'AAC'
p1769
tp1770
I4
s(I28
S'GCT'
p1771
tp1772
I101
s(I25
S'ACC'
p1773
tp1774
I1
s(I13
S'GTG'
p1775
tp1776
I111
s(I3
S'CTC'
p1777
tp1778
I9
s(I66
S'CAT'
p1779
tp1780
I3688
s(I7
S'GGC'
p1781
tp1782
I12
s(I73
S'TGT'
p1783
tp1784
I1
s(I4
S'TTT'
p1785
tp1786
I184
s(I67
S'TAA'
p1787
tp1788
I1
s(I37
S'CCC'
p1789
tp1790
I197
s(I22
S'GGA'
p1791
tp1792
I20
s(I67
S'GCC'
p1793
tp1794
I13505
s(I40
S'CAC'
p1795
tp1796
I241
s(I21
S'CAA'
p1797
tp1798
I9
s(I66
S'ATT'
p1799
tp1800
I588
s(I9
S'TAA'
p1801
tp1802
I1
s(I27
S'ACT'
p1803
tp1804
I22
s(I25
S'TGT'
p1805
tp1806
I242
s(I16
S'ACT'
p1807
tp1808
I48
s(I29
S'GGT'
p1809
tp1810
I25
s(I10
S'GCT'
p1811
tp1812
I16
s(I44
S'AAT'
p1813
tp1814
I9
s(I73
S'ACG'
p1815
tp1816
I6
s(I45
S'TGA'
p1817
tp1818
I1
s(I44
S'TCC'
p1819
tp1820
I8
s(I29
S'ATT'
p1821
tp1822
I417
s(I65
S'CAT'
p1823
tp1824
I566
s(I73
S'GCG'
p1825
tp1826
I7
s(I14
S'CGA'
p1827
tp1828
I27
s(I7
S'CCT'
p1829
tp1830
I4
s(I32
S'ACC'
p1831
tp1832
I130
s(I28
S'AAT'
p1833
tp1834
I94
s(I13
S'ACC'
p1835
tp1836
I3
s(I69
S'TCT'
p1837
tp1838
I310
s(I42
S'GAG'
p1839
tp1840
I4
s(I54
S'AAT'
p1841
tp1842
I116
s(I37
S'GGG'
p1843
tp1844
I7
s(I53
S'CGT'
p1845
tp1846
I23
s(I33
S'AAA'
p1847
tp1848
I60
s(I7
S'ATC'
p1849
tp1850
I374
s(I45
S'GGG'
p1851
tp1852
I680
s(I5
S'GCA'
p1853
tp1854
I11
s(I27
S'AGG'
p1855
tp1856
I11
s(I63
S'GTA'
p1857
tp1858
I34
s(I5
S'CTA'
p1859
tp1860
I64
s(I71
S'CGC'
p1861
tp1862
I6
s(I56
S'ATA'
p1863
tp1864
I28
s(I33
S'TAC'
p1865
tp1866
I46
s(I47
S'GCA'
p1867
tp1868
I41
s(I29
S'CTT'
p1869
tp1870
I76
s(I63
S'TGC'
p1871
tp1872
I63
s(I16
S'GCA'
p1873
tp1874
I51
s(I72
S'CGT'
p1875
tp1876
I134
s(I33
S'CGT'
p1877
tp1878
I36
s(I21
S'ACA'
p1879
tp1880
I13
s(I5
S'CTC'
p1881
tp1882
I250
s(I65
S'GAA'
p1883
tp1884
I2771
s(I54
S'CCC'
p1885
tp1886
I280
s(I67
S'TTT'
p1887
tp1888
I896
s(I21
S'CCA'
p1889
tp1890
I3
s(I40
S'GAG'
p1891
tp1892
I8443
s(I54
S'ATA'
p1893
tp1894
I13
s(I48
S'TCA'
p1895
tp1896
I22
s(I36
S'AGG'
p1897
tp1898
I5
s(I58
S'GCA'
p1899
tp1900
I19
s(I2
S'GCT'
p1901
tp1902
I1
s(I62
S'CGG'
p1903
tp1904
I175
s(I58
S'AAC'
p1905
tp1906
I11
s(I70
S'TAA'
p1907
tp1908
I9
s(I21
S'TTA'
p1909
tp1910
I8
s(I24
S'GAG'
p1911
tp1912
I21
s(I5
S'ACC'
p1913
tp1914
I60
s(I42
S'CCG'
p1915
tp1916
I1
s(I36
S'GCC'
p1917
tp1918
I4
s(I46
S'CCT'
p1919
tp1920
I1
s(I35
S'AAT'
p1921
tp1922
I41
s(I64
S'ACA'
p1923
tp1924
I1551
s(I29
S'CCA'
p1925
tp1926
I1
s(I61
S'GCG'
p1927
tp1928
I11
s(I24
S'ACT'
p1929
tp1930
I10
s(I41
S'CAT'
p1931
tp1932
I11
s(I46
S'ATT'
p1933
tp1934
I451
s(I34
S'GGT'
p1935
tp1936
I31
s(I25
S'ATA'
p1937
tp1938
I137
s(I14
S'GTC'
p1939
tp1940
I1
s(I24
S'AAG'
p1941
tp1942
I5
s(I42
S'GGT'
p1943
tp1944
I38
s(I22
S'GAC'
p1945
tp1946
I43
s(I70
S'CTC'
p1947
tp1948
I676
s(I69
S'CTC'
p1949
tp1950
I123
s(I23
S'CAC'
p1951
tp1952
I1
s(I73
S'AGT'
p1953
tp1954
I10
s(I46
S'CAG'
p1955
tp1956
I1
s(I75
S'TAG'
p1957
tp1958
I501
s(I51
S'CAG'
p1959
tp1960
I302
s(I48
S'CGC'
p1961
tp1962
I10
s(I48
S'AAA'
p1963
tp1964
I14
s(I60
S'TCG'
p1965
tp1966
I441
s(I59
S'TAG'
p1967
tp1968
I1
s(I69
S'TTC'
p1969
tp1970
I3023
s(I35
S'GCT'
p1971
tp1972
I225
s(I65
S'CTG'
p1973
tp1974
I17
s(I7
S'AAT'
p1975
tp1976
I5309
s(I23
S'GCG'
p1977
tp1978
I4
s(I76
S'CCA'
p1979
tp1980
I1
s(I8
S'ACG'
p1981
tp1982
I18
s(I18
S'TCC'
p1983
tp1984
I51
s(I3
S'ATG'
p1985
tp1986
I85
s(I73
S'AGA'
p1987
tp1988
I100
s(I72
S'GGT'
p1989
tp1990
I1634
s(I62
S'GGA'
p1991
tp1992
I314
s(I60
S'CTT'
p1993
tp1994
I54
s(I54
S'TTT'
p1995
tp1996
I3
s(I51
S'ATT'
p1997
tp1998
I83
s(I39
S'GGG'
p1999
tp2000
I5
s(I61
S'GAT'
p2001
tp2002
I2
s(I11
S'CTC'
p2003
tp2004
I167
s(I21
S'TCT'
p2005
tp2006
I61
s(I14
S'CTT'
p2007
tp2008
I1
s(I61
S'CAC'
p2009
tp2010
I18
s(I70
S'AGC'
p2011
tp2012
I5
s(I36
S'CTA'
p2013
tp2014
I621
s(I32
S'GAA'
p2015
tp2016
I116
s(I55
S'GCG'
p2017
tp2018
I5
s(I41
S'CTG'
p2019
tp2020
I304
s(I2
S'AAG'
p2021
tp2022
I2
s(I17
S'CAT'
p2023
tp2024
I405
s(I25
S'CGT'
p2025
tp2026
I1
s(I63
S'ATC'
p2027
tp2028
I106
s(I67
S'AGC'
p2029
tp2030
I149
s(I70
S'GTT'
p2031
tp2032
I34
s(I56
S'GCG'
p2033
tp2034
I4
s(I68
S'GAA'
p2035
tp2036
I11
s(I66
S'GCC'
p2037
tp2038
I22
s(I30
S'CTG'
p2039
tp2040
I34
s(I38
S'AAT'
p2041
tp2042
I240
s(I27
S'CAG'
p2043
tp2044
I13
s(I66
S'ACG'
p2045
tp2046
I132
s(I14
S'CGT'
p2047
tp2048
I3
s(I31
S'GAC'
p2049
tp2050
I18
s(I51
S'TGC'
p2051
tp2052
I9
s(I56
S'GTG'
p2053
tp2054
I94
s(I27
S'GCT'
p2055
tp2056
I33
s(I60
S'CGT'
p2057
tp2058
I9
s(I47
S'ACC'
p2059
tp2060
I26
s(I41
S'CCA'
p2061
tp2062
I3
s(I15
S'GAC'
p2063
tp2064
I1
s(I75
S'CTC'
p2065
tp2066
I6
s(I35
S'TGA'
p2067
tp2068
I2
s(I69
S'TCA'
p2069
tp2070
I37
s(I50
S'TAG'
p2071
tp2072
I4
s(I16
S'CCG'
p2073
tp2074
I76
s(I45
S'GCC'
p2075
tp2076
I5
s(I19
S'ATA'
p2077
tp2078
I12
s(I15
S'ACA'
p2079
tp2080
I16
s(I13
S'GTC'
p2081
tp2082
I281
s(I23
S'TTA'
p2083
tp2084
I20
s(I24
S'GGG'
p2085
tp2086
I17
s(I37
S'CAC'
p2087
tp2088
I146
s(I42
S'CAC'
p2089
tp2090
I29
s(I15
S'CGA'
p2091
tp2092
I2
s(I65
S'CAG'
p2093
tp2094
I117
s(I9
S'TCA'
p2095
tp2096
I296
s(I66
S'GAG'
p2097
tp2098
I209
s(I32
S'GTC'
p2099
tp2100
I27
s(I32
S'TCC'
p2101
tp2102
I101
s(I39
S'CGG'
p2103
tp2104
I3
s(I39
S'CCG'
p2105
tp2106
I1
s(I52
S'GTA'
p2107
tp2108
I8
s(I46
S'AGA'
p2109
tp2110
I886
s(I72
S'TAA'
p2111
tp2112
I1
s(I62
S'TCA'
p2113
tp2114
I410
s(I75
S'CCG'
p2115
tp2116
I4
s(I38
S'TAC'
p2117
tp2118
I1
s(I59
S'AAC'
p2119
tp2120
I228
s(I34
S'TAA'
p2121
tp2122
I2
s(I34
S'CGG'
p2123
tp2124
I1
s(I8
S'ATC'
p2125
tp2126
I98
s(I43
S'TGA'
p2127
tp2128
I4
s(I64
S'ACT'
p2129
tp2130
I1829
s(I15
S'TTC'
p2131
tp2132
I54
s(I71
S'TAA'
p2133
tp2134
I1
s(I15
S'GCT'
p2135
tp2136
I152
s(I63
S'CAA'
p2137
tp2138
I22
s(I8
S'CAA'
p2139
tp2140
I2
s(I68
S'CAA'
p2141
tp2142
I58
s(I15
S'TCC'
p2143
tp2144
I59
s(I15
S'TAC'
p2145
tp2146
I38
s(I52
S'AAG'
p2147
tp2148
I20
s(I19
S'TAT'
p2149
tp2150
I121
s(I57
S'ACA'
p2151
tp2152
I21
s(I49
S'TGC'
p2153
tp2154
I47
s(I27
S'TAT'
p2155
tp2156
I169
s(I18
S'GCA'
p2157
tp2158
I78
s(I28
S'ATA'
p2159
tp2160
I18
s(I21
S'GCT'
p2161
tp2162
I35
s(I7
S'AGT'
p2163
tp2164
I188
s(I28
S'TTG'
p2165
tp2166
I197
s(I59
S'TGC'
p2167
tp2168
I411
s(I13
S'CGT'
p2169
tp2170
I862
s(I60
S'GCA'
p2171
tp2172
I505
s(I25
S'CTA'
p2173
tp2174
I186
s(I51
S'ATC'
p2175
tp2176
I188
s(I76
S'CCT'
p2177
tp2178
I3
s(I34
S'ATC'
p2179
tp2180
I15
s(I21
S'GTT'
p2181
tp2182
I83
s(I49
S'GTG'
p2183
tp2184
I6
s(I15
S'GGA'
p2185
tp2186
I2
s(I26
S'AAA'
p2187
tp2188
I2
s(I12
S'TCG'
p2189
tp2190
I3
s(I75
S'TAC'
p2191
tp2192
I1
s(I53
S'ACG'
p2193
tp2194
I4
s(I36
S'GAG'
p2195
tp2196
I2
s(I67
S'CGC'
p2197
tp2198
I9
s(I45
S'TCA'
p2199
tp2200
I18025
s(I49
S'CGG'
p2201
tp2202
I1
s(I66
S'CGC'
p2203
tp2204
I1
s(I71
S'CCC'
p2205
tp2206
I6
s(I19
S'TCA'
p2207
tp2208
I6
s(I49
S'GCG'
p2209
tp2210
I4327
s(I5
S'TAT'
p2211
tp2212
I31
s(I39
S'CAA'
p2213
tp2214
I4
s(I44
S'CAA'
p2215
tp2216
I14
s(I49
S'ACC'
p2217
tp2218
I6
s(I74
S'GCG'
p2219
tp2220
I9
s(I71
S'GCA'
p2221
tp2222
I2
s(I40
S'ATC'
p2223
tp2224
I38
s(I23
S'CGG'
p2225
tp2226
I1
s(I65
S'CGA'
p2227
tp2228
I391
s(I62
S'CGC'
p2229
tp2230
I2
s(I54
S'GTG'
p2231
tp2232
I7
s(I19
S'GGT'
p2233
tp2234
I1
s(I61
S'TGT'
p2235
tp2236
I72
s(I31
S'GAT'
p2237
tp2238
I34
s(I36
S'ATA'
p2239
tp2240
I31
s(I62
S'GAA'
p2241
tp2242
I343
s(I44
S'AGT'
p2243
tp2244
I14
s(I40
S'CCC'
p2245
tp2246
I3
s(I6
S'GAT'
p2247
tp2248
I92
s(I10
S'TGT'
p2249
tp2250
I7
s(I13
S'TTA'
p2251
tp2252
I14
s(I48
S'ATG'
p2253
tp2254
I19
s(I18
S'GGA'
p2255
tp2256
I228
s(I35
S'CGA'
p2257
tp2258
I7
s(I27
S'GTG'
p2259
tp2260
I9
s(I33
S'CGA'
p2261
tp2262
I1
s(I49
S'GTC'
p2263
tp2264
I18
s(I75
S'GTT'
p2265
tp2266
I1
s(I56
S'GGA'
p2267
tp2268
I1
s(I9
S'ATA'
p2269
tp2270
I1131
s(I52
S'GGC'
p2271
tp2272
I9
s(I48
S'AAC'
p2273
tp2274
I3
s(I15
S'TAA'
p2275
tp2276
I4
s(I22
S'CGG'
p2277
tp2278
I16
s(I8
S'CCC'
p2279
tp2280
I6
s(I30
S'TCC'
p2281
tp2282
I2
s(I43
S'GCG'
p2283
tp2284
I1
s(I55
S'TAG'
p2285
tp2286
I1
s(I32
S'CTT'
p2287
tp2288
I88
s(I19
S'GAC'
p2289
tp2290
I160
s(I68
S'GCG'
p2291
tp2292
I16
s(I28
S'TCC'
p2293
tp2294
I60
s(I30
S'ATA'
p2295
tp2296
I21
s(I4
S'TTG'
p2297
tp2298
I4
s(I28
S'CAG'
p2299
tp2300
I88
s(I19
S'AAG'
p2301
tp2302
I129
s(I40
S'TCC'
p2303
tp2304
I294
s(I30
S'ACT'
p2305
tp2306
I5
s(I62
S'TGA'
p2307
tp2308
I1
s(I63
S'TAT'
p2309
tp2310
I124
s(I30
S'CCT'
p2311
tp2312
I1
s(I23
S'ATT'
p2313
tp2314
I22
s(I64
S'GGT'
p2315
tp2316
I176
s(I12
S'GCT'
p2317
tp2318
I14
s(I58
S'TGG'
p2319
tp2320
I141
s(I66
S'AAC'
p2321
tp2322
I113
s(I71
S'TAT'
p2323
tp2324
I1
s(I68
S'TGT'
p2325
tp2326
I176
s(I5
S'AAC'
p2327
tp2328
I2
s(I12
S'TTA'
p2329
tp2330
I5
s(I7
S'TGT'
p2331
tp2332
I66
s(I72
S'GCA'
p2333
tp2334
I55
s(I67
S'CCC'
p2335
tp2336
I4
s(I12
S'AAC'
p2337
tp2338
I3
s(I69
S'CGG'
p2339
tp2340
I1
s(I38
S'GGG'
p2341
tp2342
I412
s(I68
S'GCC'
p2343
tp2344
I45
s(I74
S'TCG'
p2345
tp2346
I7
s(I19
S'TAC'
p2347
tp2348
I1
s(I18
S'CCC'
p2349
tp2350
I149
s(I44
S'GTC'
p2351
tp2352
I27
s(I58
S'GGG'
p2353
tp2354
I5
s(I32
S'GGT'
p2355
tp2356
I185
s(I27
S'TAC'
p2357
tp2358
I23
s(I8
S'AAA'
p2359
tp2360
I16
s(I9
S'GGT'
p2361
tp2362
I1156
s(I66
S'GGG'
p2363
tp2364
I328
s(I72
S'GTA'
p2365
tp2366
I14
s(I64
S'CGG'
p2367
tp2368
I50
s(I65
S'AGT'
p2369
tp2370
I22
s(I37
S'CGG'
p2371
tp2372
I10
s(I64
S'TCT'
p2373
tp2374
I161
s(I61
S'AAC'
p2375
tp2376
I19
s(I53
S'GAC'
p2377
tp2378
I16
s(I6
S'TTA'
p2379
tp2380
I74
s(I18
S'TCT'
p2381
tp2382
I43
s(I58
S'CAT'
p2383
tp2384
I15
s(I4
S'CAG'
p2385
tp2386
I2
s(I21
S'ATG'
p2387
tp2388
I194
s(I70
S'CGT'
p2389
tp2390
I4
s(I32
S'CGG'
p2391
tp2392
I45
s(I21
S'CTC'
p2393
tp2394
I7
s(I21
S'CTG'
p2395
tp2396
I72
s(I5
S'GGA'
p2397
tp2398
I4
s(I68
S'CCT'
p2399
tp2400
I1
s(I56
S'TTT'
p2401
tp2402
I498
s(I54
S'GAT'
p2403
tp2404
I43
s(I15
S'ATG'
p2405
tp2406
I130
s(I37
S'GCC'
p2407
tp2408
I461
s(I63
S'GGT'
p2409
tp2410
I40
s(I26
S'TTC'
p2411
tp2412
I1
s(I69
S'TAC'
p2413
tp2414
I106
s(I66
S'CTG'
p2415
tp2416
I3373
s(I49
S'TTG'
p2417
tp2418
I3
s(I12
S'CTT'
p2419
tp2420
I1
s(I23
S'CCA'
p2421
tp2422
I2
s(I17
S'CTT'
p2423
tp2424
I221
s(I6
S'TGG'
p2425
tp2426
I150
s(I5
S'TGA'
p2427
tp2428
I170
s(I71
S'CCA'
p2429
tp2430
I4
s(I62
S'GCG'
p2431
tp2432
I414
s(I19
S'GGA'
p2433
tp2434
I97
s(I53
S'TTC'
p2435
tp2436
I37
s(I19
S'AGG'
p2437
tp2438
I4
s(I70
S'AAA'
p2439
tp2440
I21
s(I14
S'AAT'
p2441
tp2442
I6
s(I32
S'TAT'
p2443
tp2444
I1
s(I35
S'GTC'
p2445
tp2446
I273
s(I67
S'GGC'
p2447
tp2448
I2980
s(I21
S'GGC'
p2449
tp2450
I59
s(I53
S'GTA'
p2451
tp2452
I10
s(I40
S'TAT'
p2453
tp2454
I2
s(I18
S'AAA'
p2455
tp2456
I82
s(I20
S'GAT'
p2457
tp2458
I24
s(I11
S'ACT'
p2459
tp2460
I514
s(I69
S'GGA'
p2461
tp2462
I130
s(I72
S'TGT'
p2463
tp2464
I197
s(I43
S'TTC'
p2465
tp2466
I10
s(I57
S'TGG'
p2467
tp2468
I31
s(I28
S'TCA'
p2469
tp2470
I121
s(I20
S'TTT'
p2471
tp2472
I286
s(I43
S'TGC'
p2473
tp2474
I26
s(I71
S'CTT'
p2475
tp2476
I25
s(I21
S'TGG'
p2477
tp2478
I15
s(I36
S'TCG'
p2479
tp2480
I27
s(I66
S'CGA'
p2481
tp2482
I1
s(I32
S'GGA'
p2483
tp2484
I58
s(I51
S'GCC'
p2485
tp2486
I23
s(I63
S'CGC'
p2487
tp2488
I115
s(I27
S'TCA'
p2489
tp2490
I7
s(I25
S'TTG'
p2491
tp2492
I24
s(I45
S'GAT'
p2493
tp2494
I4
s(I22
S'CAT'
p2495
tp2496
I71
s(I60
S'GGG'
p2497
tp2498
I128
s(I5
S'TCT'
p2499
tp2500
I2
s(I24
S'CCA'
p2501
tp2502
I59
s(I30
S'CCC'
p2503
tp2504
I1
s(I46
S'CTA'
p2505
tp2506
I84
s(I10
S'GGG'
p2507
tp2508
I34
s(I76
S'ATC'
p2509
tp2510
I4
s(I48
S'TCG'
p2511
tp2512
I3
s(I40
S'TTC'
p2513
tp2514
I10
s(I66
S'AGC'
p2515
tp2516
I43
s(I54
S'TCC'
p2517
tp2518
I3
s(I18
S'GGG'
p2519
tp2520
I23
s(I4
S'TAA'
p2521
tp2522
I1
s(I56
S'GGC'
p2523
tp2524
I25
s(I6
S'CAA'
p2525
tp2526
I128
s(I52
S'CGG'
p2527
tp2528
I3
s(I36
S'TGT'
p2529
tp2530
I781
s(I58
S'TTT'
p2531
tp2532
I70
s(I64
S'GGC'
p2533
tp2534
I4105
s(I7
S'TCC'
p2535
tp2536
I28
s(I15
S'CAC'
p2537
tp2538
I8
s(I36
S'TAG'
p2539
tp2540
I1
s(I65
S'ATA'
p2541
tp2542
I32
s(I72
S'ATG'
p2543
tp2544
I7
s(I19
S'GTG'
p2545
tp2546
I105
s(I38
S'AAC'
p2547
tp2548
I97
s(I19
S'ACA'
p2549
tp2550
I1
s(I44
S'TAG'
p2551
tp2552
I7
s(I18
S'TGA'
p2553
tp2554
I4
s(I60
S'AGA'
p2555
tp2556
I10
s(I24
S'TGT'
p2557
tp2558
I23
s(I66
S'GTC'
p2559
tp2560
I39
s(I42
S'CGT'
p2561
tp2562
I198
s(I20
S'CGG'
p2563
tp2564
I71
s(I22
S'CCC'
p2565
tp2566
I83
s(I59
S'ACC'
p2567
tp2568
I1
s(I32
S'GGC'
p2569
tp2570
I122
s(I54
S'CAA'
p2571
tp2572
I17
s(I2
S'TCT'
p2573
tp2574
I3
s(I19
S'ACG'
p2575
tp2576
I53
s(I29
S'GCT'
p2577
tp2578
I7
s(I40
S'TGC'
p2579
tp2580
I10
s(I25
S'TAT'
p2581
tp2582
I190
s(I28
S'ACG'
p2583
tp2584
I68
s(I18
S'CTG'
p2585
tp2586
I175
s(I54
S'AGG'
p2587
tp2588
I111
s(I26
S'TGC'
p2589
tp2590
I28
s(I11
S'CAC'
p2591
tp2592
I16
s(I69
S'CGC'
p2593
tp2594
I1
s(I14
S'CCT'
p2595
tp2596
I1
s(I16
S'CAC'
p2597
tp2598
I37
s(I12
S'CCT'
p2599
tp2600
I70
s(I53
S'CAC'
p2601
tp2602
I214
s(I58
S'CAC'
p2603
tp2604
I13
s(I27
S'CAC'
p2605
tp2606
I17
s(I20
S'GCC'
p2607
tp2608
I184
s(I40
S'CTT'
p2609
tp2610
I90
s(I36
S'TGC'
p2611
tp2612
I364
s(I16
S'TAC'
p2613
tp2614
I23
s(I70
S'AGT'
p2615
tp2616
I9
s(I54
S'GAC'
p2617
tp2618
I124
s(I65
S'CCC'
p2619
tp2620
I121
s(I14
S'TCC'
p2621
tp2622
I9
s(I37
S'TCA'
p2623
tp2624
I210
s(I63
S'AGG'
p2625
tp2626
I37
s(I33
S'TGC'
p2627
tp2628
I445
s(I74
S'TCT'
p2629
tp2630
I6
s(I36
S'GGG'
p2631
tp2632
I4
s(I60
S'ACT'
p2633
tp2634
I62
s(I18
S'CGG'
p2635
tp2636
I24
s(I44
S'TGT'
p2637
tp2638
I3923
s(I70
S'TCG'
p2639
tp2640
I3
s(I9
S'GAT'
p2641
tp2642
I836
s(I69
S'CCG'
p2643
tp2644
I36
s(I70
S'CAC'
p2645
tp2646
I5
s(I36
S'GTC'
p2647
tp2648
I240
s(I73
S'ATC'
p2649
tp2650
I6052
s(I8
S'AAT'
p2651
tp2652
I13
s(I53
S'CAA'
p2653
tp2654
I50
s(I7
S'GTT'
p2655
tp2656
I75
s(I41
S'AGA'
p2657
tp2658
I5
s(I75
S'ATC'
p2659
tp2660
I4
s(I42
S'TTG'
p2661
tp2662
I29
s(I57
S'TAG'
p2663
tp2664
I1
s(I52
S'ATG'
p2665
tp2666
I4
s(I27
S'TGT'
p2667
tp2668
I30
s(I8
S'GTT'
p2669
tp2670
I30
s(I6
S'GTC'
p2671
tp2672
I798
s(I3
S'CTG'
p2673
tp2674
I49
s(I29
S'CAC'
p2675
tp2676
I57
s(I4
S'CTA'
p2677
tp2678
I47
s(I43
S'TTT'
p2679
tp2680
I9
s(I25
S'GTA'
p2681
tp2682
I2
s(I9
S'CTG'
p2683
tp2684
I214
s(I60
S'TAC'
p2685
tp2686
I28
s(I67
S'TTC'
p2687
tp2688
I1692
s(I72
S'TTC'
p2689
tp2690
I405
s(I39
S'ACC'
p2691
tp2692
I9
s(I20
S'GGT'
p2693
tp2694
I86
s(I39
S'GCG'
p2695
tp2696
I9
s(I8
S'GCT'
p2697
tp2698
I1
s(I55
S'CCT'
p2699
tp2700
I8
s(I49
S'CTA'
p2701
tp2702
I4
s(I66
S'TGA'
p2703
tp2704
I1
s(I76
S'TTG'
p2705
tp2706
I5
s(I39
S'AGG'
p2707
tp2708
I3
s(I34
S'ACG'
p2709
tp2710
I2
s(I11
S'TAT'
p2711
tp2712
I18
s(I68
S'TGA'
p2713
tp2714
I2
s(I73
S'GGA'
p2715
tp2716
I2
s(I50
S'GCC'
p2717
tp2718
I6
s(I45
S'CCG'
p2719
tp2720
I1
s(I38
S'CTA'
p2721
tp2722
I49
s(I15
S'TTT'
p2723
tp2724
I349
s(I43
S'CTC'
p2725
tp2726
I155
s(I68
S'TGG'
p2727
tp2728
I1
s(I54
S'GGG'
p2729
tp2730
I156
s(I63
S'CTC'
p2731
tp2732
I22
s(I55
S'CAA'
p2733
tp2734
I48
s(I28
S'GCA'
p2735
tp2736
I15
s(I76
S'CGT'
p2737
tp2738
I1
s(I28
S'GGT'
p2739
tp2740
I1
s(I20
S'AAA'
p2741
tp2742
I147
s(I6
S'CAT'
p2743
tp2744
I333
s(I17
S'GGG'
p2745
tp2746
I37
s(I38
S'TAA'
p2747
tp2748
I1
s(I35
S'TCG'
p2749
tp2750
I25
s(I23
S'AGC'
p2751
tp2752
I12
s(I66
S'ATG'
p2753
tp2754
I333
s(I23
S'TGG'
p2755
tp2756
I2
s(I29
S'GAG'
p2757
tp2758
I81
s(I5
S'GGT'
p2759
tp2760
I4
s(I25
S'CCC'
p2761
tp2762
I9
s(I35
S'TGC'
p2763
tp2764
I158
s(I11
S'AGC'
p2765
tp2766
I470
s(I59
S'ACT'
p2767
tp2768
I2
s(I17
S'CGA'
p2769
tp2770
I4
s(I45
S'TAC'
p2771
tp2772
I1
s(I13
S'GAG'
p2773
tp2774
I25
s(I19
S'TGC'
p2775
tp2776
I16
s(I36
S'TCC'
p2777
tp2778
I19
s(I65
S'ATC'
p2779
tp2780
I130
s(I52
S'TTG'
p2781
tp2782
I12
s(I53
S'CGC'
p2783
tp2784
I19
s(I75
S'TTC'
p2785
tp2786
I1
s(I11
S'CAT'
p2787
tp2788
I7
s(I10
S'GAC'
p2789
tp2790
I34
s(I6
S'CGG'
p2791
tp2792
I47
s(I57
S'GAT'
p2793
tp2794
I50
s(I71
S'ATT'
p2795
tp2796
I11
s(I71
S'TTG'
p2797
tp2798
I316
s(I22
S'GGG'
p2799
tp2800
I36
s(I15
S'CTG'
p2801
tp2802
I192
s(I6
S'GCC'
p2803
tp2804
I145
s(I9
S'TAG'
p2805
tp2806
I6
s(I55
S'TCA'
p2807
tp2808
I289
s(I61
S'ATC'
p2809
tp2810
I31
s(I72
S'TCG'
p2811
tp2812
I68
s(I17
S'TAG'
p2813
tp2814
I1
s(I62
S'TTT'
p2815
tp2816
I230
s(I20
S'CAA'
p2817
tp2818
I11
s(I73
S'ACA'
p2819
tp2820
I3
s(I15
S'AAC'
p2821
tp2822
I3
s(I51
S'CCA'
p2823
tp2824
I40
s(I36
S'AGT'
p2825
tp2826
I5
s(I28
S'ATC'
p2827
tp2828
I20
s(I2
S'GCA'
p2829
tp2830
I9
s(I46
S'CAA'
p2831
tp2832
I8151
s(I57
S'ATG'
p2833
tp2834
I191
s(I76
S'TCC'
p2835
tp2836
I1
s(I75
S'CAT'
p2837
tp2838
I7
s(I24
S'GAT'
p2839
tp2840
I24
s(I60
S'ATC'
p2841
tp2842
I107
s(I7
S'GTC'
p2843
tp2844
I138
s(I6
S'ATT'
p2845
tp2846
I3630
s(I29
S'CGT'
p2847
tp2848
I11
s(I13
S'CAC'
p2849
tp2850
I25
s(I5
S'GCG'
p2851
tp2852
I3
s(I18
S'CAC'
p2853
tp2854
I211
s(I73
S'GTC'
p2855
tp2856
I10781
s(I41
S'CAG'
p2857
tp2858
I29
s(I75
S'CGT'
p2859
tp2860
I1
s(I22
S'ACG'
p2861
tp2862
I199
s(I46
S'ATG'
p2863
tp2864
I2479
s(I71
S'AGG'
p2865
tp2866
I1
s(I46
S'TAT'
p2867
tp2868
I805
s(I22
S'GCG'
p2869
tp2870
I155
s(I56
S'ATG'
p2871
tp2872
I22
s(I38
S'TGC'
p2873
tp2874
I2
s(I54
S'TAT'
p2875
tp2876
I46
s(I7
S'GCC'
p2877
tp2878
I310
s(I9
S'GGA'
p2879
tp2880
I308
s(I17
S'ACC'
p2881
tp2882
I276
s(I32
S'GTT'
p2883
tp2884
I119
s(I48
S'CGT'
p2885
tp2886
I11
s(I11
S'TAG'
p2887
tp2888
I2
s(I32
S'TGC'
p2889
tp2890
I20
s(I73
S'TCC'
p2891
tp2892
I3
s(I20
S'CAG'
p2893
tp2894
I186
s(I22
S'GTG'
p2895
tp2896
I59
s(I73
S'AAT'
p2897
tp2898
I1
s(I52
S'CTG'
p2899
tp2900
I2
s(I62
S'TAG'
p2901
tp2902
I44
s(I16
S'CGG'
p2903
tp2904
I19
s(I72
S'ACG'
p2905
tp2906
I159
s(I70
S'TAG'
p2907
tp2908
I1
s(I64
S'CAC'
p2909
tp2910
I106
s(I17
S'TGT'
p2911
tp2912
I219
s(I8
S'ACT'
p2913
tp2914
I1
s(I37
S'GAT'
p2915
tp2916
I219
s(I42
S'TGT'
p2917
tp2918
I953
s(I61
S'TTG'
p2919
tp2920
I1796
s(I65
S'ACG'
p2921
tp2922
I83
s(I72
S'GGA'
p2923
tp2924
I371
s(I52
S'TCC'
p2925
tp2926
I48
s(I65
S'GCG'
p2927
tp2928
I26
s(I69
S'GAG'
p2929
tp2930
I22
s(I76
S'CGC'
p2931
tp2932
I9
s(I24
S'ACC'
p2933
tp2934
I105
s(I24
S'TCT'
p2935
tp2936
I33
s(I39
S'CTA'
p2937
tp2938
I4
s(I47
S'GAG'
p2939
tp2940
I29
s(I17
S'CAG'
p2941
tp2942
I24
s(I76
S'ACC'
p2943
tp2944
I2
s(I65
S'TTA'
p2945
tp2946
I24
s(I36
S'GTA'
p2947
tp2948
I47
s(I16
S'AGT'
p2949
tp2950
I9
s(I57
S'CCT'
p2951
tp2952
I86
s(I73
S'CGC'
p2953
tp2954
I2
s(I57
S'AGT'
p2955
tp2956
I88
s(I24
S'CTC'
p2957
tp2958
I2
s(I37
S'ATG'
p2959
tp2960
I106
s(I5
S'GAC'
p2961
tp2962
I1
s(I71
S'CCT'
p2963
tp2964
I22
s(I16
S'ATT'
p2965
tp2966
I41
s(I4
S'GAT'
p2967
tp2968
I2
s(I63
S'ATG'
p2969
tp2970
I34
s(I17
S'TAA'
p2971
tp2972
I2
s(I50
S'GGC'
p2973
tp2974
I1
s(I75
S'CAA'
p2975
tp2976
I23
s(I27
S'GCG'
p2977
tp2978
I41
s(I60
S'CGA'
p2979
tp2980
I126
s(I73
S'GAA'
p2981
tp2982
I3
s(I67
S'GCG'
p2983
tp2984
I290
s(I59
S'ATC'
p2985
tp2986
I78
s(I62
S'GGG'
p2987
tp2988
I752
s(I26
S'TGA'
p2989
tp2990
I32
s(I38
S'CTT'
p2991
tp2992
I44
s(I39
S'GGA'
p2993
tp2994
I1
s(I38
S'TGT'
p2995
tp2996
I83
s(I21
S'GAC'
p2997
tp2998
I1
s(I57
S'GAA'
p2999
tp3000
I42
s(I30
S'GCA'
p3001
tp3002
I16
s(I29
S'TGA'
p3003
tp3004
I1
s(I71
S'AGT'
p3005
tp3006
I3
s(I32
S'GAG'
p3007
tp3008
I26
s(I35
S'CCC'
p3009
tp3010
I766
s(I28
S'CCG'
p3011
tp3012
I3
s(I56
S'ACA'
p3013
tp3014
I23
s(I56
S'GCA'
p3015
tp3016
I1
s(I54
S'CTT'
p3017
tp3018
I36
s(I3
S'TTC'
p3019
tp3020
I6
s(I41
S'GCA'
p3021
tp3022
I1
s(I51
S'CCT'
p3023
tp3024
I30
s(I29
S'GGG'
p3025
tp3026
I15
s(I17
S'ATA'
p3027
tp3028
I29
s(I33
S'AGT'
p3029
tp3030
I8
s(I30
S'TTT'
p3031
tp3032
I206
s(I73
S'TTG'
p3033
tp3034
I408
s(I15
S'GTG'
p3035
tp3036
I16
s(I7
S'TTG'
p3037
tp3038
I1
s(I65
S'GGC'
p3039
tp3040
I3
s(I7
S'GAT'
p3041
tp3042
I25
s(I8
S'GCC'
p3043
tp3044
I1
s(I70
S'CTG'
p3045
tp3046
I372
s(I60
S'ATT'
p3047
tp3048
I135
s(I51
S'GGG'
p3049
tp3050
I2
s(I48
S'GAG'
p3051
tp3052
I12
s(I6
S'ATA'
p3053
tp3054
I3848
s(I5
S'ATC'
p3055
tp3056
I93
s(I17
S'CCA'
p3057
tp3058
I4
s(I29
S'GTA'
p3059
tp3060
I49
s(I67
S'ATC'
p3061
tp3062
I72
s(I40
S'ACC'
p3063
tp3064
I6
s(I41
S'AAG'
p3065
tp3066
I4
s(I15
S'GCG'
p3067
tp3068
I37
s(I15
S'ACG'
p3069
tp3070
I2
s(I7
S'ATA'
p3071
tp3072
I4
s(I54
S'TAA'
p3073
tp3074
I6
s(I74
S'ACA'
p3075
tp3076
I2
s(I21
S'CTT'
p3077
tp3078
I108
s(I63
S'TGT'
p3079
tp3080
I84
s(I27
S'ATG'
p3081
tp3082
I43
s(I34
S'CTG'
p3083
tp3084
I3
s(I32
S'TCA'
p3085
tp3086
I310
s(I11
S'CCC'
p3087
tp3088
I1
s(I65
S'CAA'
p3089
tp3090
I139
s(I59
S'AGC'
p3091
tp3092
I785
s(I32
S'CAC'
p3093
tp3094
I142
s(I21
S'GCC'
p3095
tp3096
I115
s(I52
S'CCC'
p3097
tp3098
I14
s(I28
S'TTT'
p3099
tp3100
I18
s(I16
S'TGA'
p3101
tp3102
I5
s(I62
S'ATC'
p3103
tp3104
I105
s(I69
S'GGT'
p3105
tp3106
I574
s(I63
S'ACC'
p3107
tp3108
I49
s(I47
S'CAT'
p3109
tp3110
I2
s(I22
S'TTC'
p3111
tp3112
I158
s(I9
S'AGT'
p3113
tp3114
I28
s(I21
S'GTA'
p3115
tp3116
I89
s(I68
S'AGA'
p3117
tp3118
I15
s(I38
S'GCT'
p3119
tp3120
I159
s(I15
S'GGT'
p3121
tp3122
I9
s(I74
S'GTT'
p3123
tp3124
I1
s(I20
S'ACA'
p3125
tp3126
I69
s(I39
S'GAC'
p3127
tp3128
I91
s(I37
S'GTA'
p3129
tp3130
I1165
s(I57
S'GGC'
p3131
tp3132
I168
s(I8
S'GAT'
p3133
tp3134
I15
s(I28
S'TGA'
p3135
tp3136
I5
s(I63
S'CAG'
p3137
tp3138
I105
s(I6
S'TAG'
p3139
tp3140
I1
s(I68
S'CAG'
p3141
tp3142
I447
s(I39
S'CTT'
p3143
tp3144
I4
s(I51
S'TAG'
p3145
tp3146
I4
s(I47
S'AAG'
p3147
tp3148
I2
s(I44
S'CTT'
p3149
tp3150
I1698
s(I23
S'GAC'
p3151
tp3152
I13
s(I48
S'TTT'
p3153
tp3154
I8
s(I9
S'GCC'
p3155
tp3156
I343
s(I45
S'ATC'
p3157
tp3158
I2268
s(I5
S'TCA'
p3159
tp3160
I2
s(I23
S'GTT'
p3161
tp3162
I52
s(I74
S'GCT'
p3163
tp3164
I1
s(I18
S'GCG'
p3165
tp3166
I38
s(I30
S'ACG'
p3167
tp3168
I5
s(I34
S'CAT'
p3169
tp3170
I9
s(I46
S'GGA'
p3171
tp3172
I182
s(I24
S'TGA'
p3173
tp3174
I3
s(I45
S'GTT'
p3175
tp3176
I2449
s(I34
S'TGC'
p3177
tp3178
I5
s(I59
S'TAT'
p3179
tp3180
I20
s(I54
S'GGA'
p3181
tp3182
I107
s(I35
S'GCC'
p3183
tp3184
I14
s(I8
S'CAC'
p3185
tp3186
I2
s(I60
S'TGC'
p3187
tp3188
I86
s(I67
S'TAT'
p3189
tp3190
I7
s(I36
S'ATT'
p3191
tp3192
I62
s(I7
S'AAC'
p3193
tp3194
I15
s(I25
S'CTG'
p3195
tp3196
I3
s(I17
S'GCG'
p3197
tp3198
I86
s(I6
S'GAA'
p3199
tp3200
I146
s(I24
S'GTC'
p3201
tp3202
I65
s(I34
S'AGC'
p3203
tp3204
I7
s(I46
S'TGG'
p3205
tp3206
I82
s(I35
S'CGT'
p3207
tp3208
I787
s(I13
S'ACG'
p3209
tp3210
I12
s(I42
S'GAT'
p3211
tp3212
I15
s(I64
S'AAG'
p3213
tp3214
I23
s(I62
S'AGT'
p3215
tp3216
I1264
s(I76
S'TGA'
p3217
tp3218
I9
s(I61
S'GAC'
p3219
tp3220
I6
s(I54
S'ACA'
p3221
tp3222
I25
s(I74
S'CGC'
p3223
tp3224
I97
s(I27
S'ATC'
p3225
tp3226
I10
s(I66
S'GTT'
p3227
tp3228
I92
s(I19
S'TCG'
p3229
tp3230
I146
s(I28
S'AGA'
p3231
tp3232
I31
s(I56
S'ACT'
p3233
tp3234
I5
s(I13
S'CCT'
p3235
tp3236
I1
s(I22
S'TCT'
p3237
tp3238
I18
s(I56
S'GCT'
p3239
tp3240
I9
s(I62
S'CAC'
p3241
tp3242
I91
s(I54
S'CTA'
p3243
tp3244
I21
s(I67
S'GTC'
p3245
tp3246
I131
s(I67
S'CAC'
p3247
tp3248
I2
s(I59
S'CTC'
p3249
tp3250
I286
s(I35
S'GAA'
p3251
tp3252
I22
s(I63
S'CGA'
p3253
tp3254
I11
s(I61
S'CGA'
p3255
tp3256
I1
s(I71
S'TGA'
p3257
tp3258
I3
s(I66
S'GCT'
p3259
tp3260
I12
s(I38
S'CGC'
p3261
tp3262
I62
s(I38
S'GAC'
p3263
tp3264
I19
s(I16
S'GAC'
p3265
tp3266
I96
s(I66
S'ACT'
p3267
tp3268
I20
s(I28
S'CAT'
p3269
tp3270
I59
s(I22
S'AGG'
p3271
tp3272
I152
s(I33
S'TCT'
p3273
tp3274
I31
s(I41
S'AAT'
p3275
tp3276
I52
s(I28
S'ATT'
p3277
tp3278
I37
s(I27
S'GTA'
p3279
tp3280
I1
s(I16
S'CCT'
p3281
tp3282
I206
s(I24
S'ATC'
p3283
tp3284
I15
s(I43
S'TGG'
p3285
tp3286
I1
s(I68
S'TGC'
p3287
tp3288
I328
s(I55
S'ACT'
p3289
tp3290
I21
s(I57
S'GCC'
p3291
tp3292
I37
s(I63
S'CGT'
p3293
tp3294
I157
s(I38
S'AGT'
p3295
tp3296
I35
s(I9
S'GCA'
p3297
tp3298
I153
s(I47
S'CGG'
p3299
tp3300
I1
s(I48
S'CAG'
p3301
tp3302
I4
s(I33
S'CCC'
p3303
tp3304
I37
s(I72
S'CAA'
p3305
tp3306
I292
s(I59
S'GGC'
p3307
tp3308
I1
s(I49
S'CCT'
p3309
tp3310
I2
s(I39
S'ATA'
p3311
tp3312
I6
s(I58
S'TGT'
p3313
tp3314
I386
s(I22
S'TAC'
p3315
tp3316
I182
s(I9
S'GTT'
p3317
tp3318
I206
s(I58
S'GGT'
p3319
tp3320
I4
s(I9
S'CAT'
p3321
tp3322
I3656
s(I46
S'ACG'
p3323
tp3324
I713
s(I45
S'ACG'
p3325
tp3326
I832
s(I47
S'TAA'
p3327
tp3328
I1
s(I9
S'GGC'
p3329
tp3330
I1098
s(I37
S'ACA'
p3331
tp3332
I44
s(I72
S'GTT'
p3333
tp3334
I39
s(I43
S'GCA'
p3335
tp3336
I1
s(I13
S'TGC'
p3337
tp3338
I149
s(I65
S'AGG'
p3339
tp3340
I286
s(I41
S'GAT'
p3341
tp3342
I1
s(I13
S'TAG'
p3343
tp3344
I23
s(I47
S'CAA'
p3345
tp3346
I245
s(I67
S'GAG'
p3347
tp3348
I7
s(I52
S'CAA'
p3349
tp3350
I22
s(I8
S'TTC'
p3351
tp3352
I4
s(I36
S'CCG'
p3353
tp3354
I158
s(I18
S'TCG'
p3355
tp3356
I190
s(I18
S'ACA'
p3357
tp3358
I75
s(I60
S'TCT'
p3359
tp3360
I119
s(I9
S'TGG'
p3361
tp3362
I4
s(I8
S'GAC'
p3363
tp3364
I2
s(I51
S'GAG'
p3365
tp3366
I32
s(I15
S'AAA'
p3367
tp3368
I1
s(I63
S'GCC'
p3369
tp3370
I159
s(I22
S'AGC'
p3371
tp3372
I263
s(I52
S'AGT'
p3373
tp3374
I4
s(I36
S'CGT'
p3375
tp3376
I2
s(I74
S'AGG'
p3377
tp3378
I112
s(I3
S'AGC'
p3379
tp3380
I1
s(I63
S'GGG'
p3381
tp3382
I19
s(I71
S'GGG'
p3383
tp3384
I6
s(I23
S'CCT'
p3385
tp3386
I18
s(I17
S'CTA'
p3387
tp3388
I372
s(I51
S'AAG'
p3389
tp3390
I1
s(I22
S'ATT'
p3391
tp3392
I70
s(I37
S'CTA'
p3393
tp3394
I2
s(I33
S'GAC'
p3395
tp3396
I3
s(I42
S'CTC'
p3397
tp3398
I15
s(I34
S'CAC'
p3399
tp3400
I18
s(I64
S'CGA'
p3401
tp3402
I103
s(I7
S'AGG'
p3403
tp3404
I1
s(I2
S'ACG'
p3405
tp3406
I5
s(I57
S'CAG'
p3407
tp3408
I18
s(I40
S'TCG'
p3409
tp3410
I82
s(I75
S'AAA'
p3411
tp3412
I1
s(I64
S'GTT'
p3413
tp3414
I20
s(I13
S'CGG'
p3415
tp3416
I807
s(I14
S'AAA'
p3417
tp3418
I6
s(I7
S'GAG'
p3419
tp3420
I65
s(I49
S'GGT'
p3421
tp3422
I2491
s(I6
S'CTA'
p3423
tp3424
I363
s(I12
S'ATC'
p3425
tp3426
I435
s(I56
S'GTA'
p3427
tp3428
I158
s(I40
S'TAG'
p3429
tp3430
I3
s(I57
S'CGG'
p3431
tp3432
I60
s(I31
S'CTC'
p3433
tp3434
I30
s(I34
S'GCC'
p3435
tp3436
I12
s(I6
S'TAA'
p3437
tp3438
I3
s(I32
S'CGA'
p3439
tp3440
I31
s(I62
S'TCG'
p3441
tp3442
I919
s(I62
S'AGC'
p3443
tp3444
I55
s(I54
S'ACT'
p3445
tp3446
I37
s(I20
S'TGA'
p3447
tp3448
I3
s(I75
S'GAA'
p3449
tp3450
I1
s(I25
S'CTC'
p3451
tp3452
I98
s(I38
S'GGT'
p3453
tp3454
I113
s(I61
S'TAG'
p3455
tp3456
I4
s(I37
S'TGT'
p3457
tp3458
I583
s(I51
S'TCG'
p3459
tp3460
I18
s(I28
S'AGT'
p3461
tp3462
I29
s(I9
S'CCC'
p3463
tp3464
I1861
s(I67
S'TGC'
p3465
tp3466
I132
s(I22
S'TCA'
p3467
tp3468
I782
s(I12
S'ATA'
p3469
tp3470
I16
s(I14
S'ACT'
p3471
tp3472
I65
s(I6
S'TGA'
p3473
tp3474
I4
s(I55
S'AAA'
p3475
tp3476
I43
s(I36
S'ACG'
p3477
tp3478
I5789
s(I68
S'GTC'
p3479
tp3480
I189
s(I45
S'GAG'
p3481
tp3482
I11
s(I51
S'TAA'
p3483
tp3484
I1
s(I4
S'GGA'
p3485
tp3486
I2
s(I15
S'GAT'
p3487
tp3488
I1
s(I5
S'AGT'
p3489
tp3490
I2
s(I60
S'CAG'
p3491
tp3492
I58
s(I10
S'CAC'
p3493
tp3494
I31
s(I57
S'CTT'
p3495
tp3496
I25
s(I55
S'CTA'
p3497
tp3498
I33
s(I28
S'GTA'
p3499
tp3500
I122
s(I18
S'AAT'
p3501
tp3502
I24
s(I33
S'CAG'
p3503
tp3504
I5
s(I33
S'TCC'
p3505
tp3506
I16
s(I53
S'GTG'
p3507
tp3508
I51
s(I44
S'GGC'
p3509
tp3510
I6
s(I43
S'TAT'
p3511
tp3512
I15
s(I7
S'TAA'
p3513
tp3514
I12
s(I27
S'GTT'
p3515
tp3516
I8
s(I69
S'TCG'
p3517
tp3518
I367
s(I66
S'AGT'
p3519
tp3520
I5
s(I72
S'TAT'
p3521
tp3522
I39
s(I26
S'GAC'
p3523
tp3524
I2
s(I59
S'AGA'
p3525
tp3526
I30
s(I50
S'AGT'
p3527
tp3528
I13
s(I39
S'TAG'
p3529
tp3530
I6
s(I14
S'TTA'
p3531
tp3532
I1
s(I40
S'GGG'
p3533
tp3534
I7
s(I28
S'ACC'
p3535
tp3536
I16
s(I8
S'TGC'
p3537
tp3538
I13
s(I38
S'AGC'
p3539
tp3540
I10
s(I20
S'ATA'
p3541
tp3542
I173
s(I4
S'TAT'
p3543
tp3544
I30
s(I72
S'CAT'
p3545
tp3546
I16
s(I44
S'CGA'
p3547
tp3548
I2
s(I46
S'TTG'
p3549
tp3550
I1
s(I15
S'CCC'
p3551
tp3552
I6
s(I3
S'AGG'
p3553
tp3554
I2
s(I53
S'TAC'
p3555
tp3556
I106
s(I27
S'TCG'
p3557
tp3558
I14
s(I27
S'AAC'
p3559
tp3560
I1
s(I2
S'GCC'
p3561
tp3562
I1
s(I25
S'TTA'
p3563
tp3564
I143
s(I60
S'GGA'
p3565
tp3566
I130
s(I29
S'GCC'
p3567
tp3568
I11
s(I67
S'CTG'
p3569
tp3570
I3
s(I16
S'AGA'
p3571
tp3572
I14
s(I16
S'GGG'
p3573
tp3574
I28
s(I57
S'TTG'
p3575
tp3576
I103
s(I31
S'TCC'
p3577
tp3578
I154
s(I51
S'AGC'
p3579
tp3580
I147
s(I27
S'TTT'
p3581
tp3582
I3
s(I11
S'TAC'
p3583
tp3584
I9
s(I40
S'CTG'
p3585
tp3586
I541
s(I75
S'GCA'
p3587
tp3588
I1
s(I45
S'CGT'
p3589
tp3590
I1
s(I61
S'TTC'
p3591
tp3592
I75
s(I70
S'TGC'
p3593
tp3594
I107
s(I19
S'GTA'
p3595
tp3596
I51
s(I44
S'TAA'
p3597
tp3598
I2
s(I45
S'GTA'
p3599
tp3600
I7455
s(I10
S'CGT'
p3601
tp3602
I33
s(I25
S'GAG'
p3603
tp3604
I49
s(I62
S'GCC'
p3605
tp3606
I427
s(I28
S'GAG'
p3607
tp3608
I358
s(I21
S'CGA'
p3609
tp3610
I2
s(I26
S'TCA'
p3611
tp3612
I3
s(I60
S'ACA'
p3613
tp3614
I127
s(I18
S'CGT'
p3615
tp3616
I64
s(I67
S'ACG'
p3617
tp3618
I13330
s(I49
S'TCG'
p3619
tp3620
I2643
s(I37
S'CTT'
p3621
tp3622
I8
s(I70
S'GGC'
p3623
tp3624
I13
s(I22
S'TTG'
p3625
tp3626
I32
s(I9
S'GAG'
p3627
tp3628
I15
s(I64
S'CGT'
p3629
tp3630
I21
s(I18
S'GTA'
p3631
tp3632
I200
s(I3
S'CTA'
p3633
tp3634
I24
s(I23
S'TGA'
p3635
tp3636
I1
s(I13
S'CTC'
p3637
tp3638
I3
s(I7
S'CAA'
p3639
tp3640
I236
s(I55
S'TTG'
p3641
tp3642
I77
s(I56
S'CCA'
p3643
tp3644
I1
s(I69
S'TGT'
p3645
tp3646
I889
s(I52
S'TAC'
p3647
tp3648
I2
s(I37
S'GCG'
p3649
tp3650
I2
s(I60
S'GTA'
p3651
tp3652
I16
s(I50
S'ATG'
p3653
tp3654
I337
s(I11
S'TGG'
p3655
tp3656
I4
s(I65
S'TAT'
p3657
tp3658
I462
s(I57
S'CTC'
p3659
tp3660
I37
s(I32
S'CGT'
p3661
tp3662
I75
s(I35
S'TAG'
p3663
tp3664
I15
s(I68
S'TCC'
p3665
tp3666
I949
s(I31
S'AGC'
p3667
tp3668
I21
s(I17
S'ATC'
p3669
tp3670
I232
s(I66
S'TTG'
p3671
tp3672
I4432
s(I44
S'ACC'
p3673
tp3674
I791
s(I35
S'AGT'
p3675
tp3676
I12
s(I34
S'TCC'
p3677
tp3678
I5
s(I62
S'TCC'
p3679
tp3680
I226
s(I26
S'TTG'
p3681
tp3682
I37
s(I67
S'CGA'
p3683
tp3684
I5
s(I62
S'AAT'
p3685
tp3686
I668
s(I25
S'AGT'
p3687
tp3688
I297
s(I63
S'GAG'
p3689
tp3690
I16
s(I43
S'CGG'
p3691
tp3692
I2
s(I27
S'AGA'
p3693
tp3694
I204
s(I36
S'GGA'
p3695
tp3696
I2
s(I46
S'TCC'
p3697
tp3698
I452
s(I13
S'GGC'
p3699
tp3700
I2
s(I66
S'CTC'
p3701
tp3702
I613
s(I27
S'GGT'
p3703
tp3704
I2
s(I41
S'GGA'
p3705
tp3706
I331
s(I16
S'TCG'
p3707
tp3708
I132
s(I37
S'TCG'
p3709
tp3710
I132
s(I57
S'TCA'
p3711
tp3712
I35
s(I25
S'TCG'
p3713
tp3714
I14
s(I54
S'CGG'
p3715
tp3716
I136
s(I75
S'CAC'
p3717
tp3718
I3
s(I11
S'CGG'
p3719
tp3720
I2
s(I51
S'ACC'
p3721
tp3722
I141
s(I42
S'AAG'
p3723
tp3724
I16
s(I74
S'AAG'
p3725
tp3726
I19
s(I31
S'TTG'
p3727
tp3728
I17
s(I66
S'GAA'
p3729
tp3730
I226
s(I11
S'ACG'
p3731
tp3732
I135
s(I9
S'GTA'
p3733
tp3734
I146
s(I8
S'CGC'
p3735
tp3736
I1
s(I63
S'TTA'
p3737
tp3738
I39
s(I19
S'CAC'
p3739
tp3740
I31
s(I71
S'CAG'
p3741
tp3742
I4
s(I4
S'GAC'
p3743
tp3744
I3
s(I75
S'GGA'
p3745
tp3746
I35
s(I14
S'GCA'
p3747
tp3748
I7
s(I8
S'TGT'
p3749
tp3750
I1
s(I43
S'ATT'
p3751
tp3752
I18
s(I9
S'AAC'
p3753
tp3754
I3157
s(I65
S'GGT'
p3755
tp3756
I558
s(I27
S'CTT'
p3757
tp3758
I5
s(I11
S'ACC'
p3759
tp3760
I176
s(I49
S'CTG'
p3761
tp3762
I4
s(I2
S'GGG'
p3763
tp3764
I3
s(I17
S'CGT'
p3765
tp3766
I1
s(I45
S'CAT'
p3767
tp3768
I2025
s(I15
S'TGT'
p3769
tp3770
I38
s(I48
S'GGC'
p3771
tp3772
I14
s(I25
S'GCA'
p3773
tp3774
I180
s(I58
S'CCC'
p3775
tp3776
I3
s(I64
S'TGA'
p3777
tp3778
I5
s(I73
S'GCT'
p3779
tp3780
I3
s(I73
S'GGG'
p3781
tp3782
I1
s(I52
S'TTT'
p3783
tp3784
I54
s(I77
S'TGG'
p3785
tp3786
I66
s(I28
S'TAG'
p3787
tp3788
I1
s(I14
S'GGC'
p3789
tp3790
I166
s(I38
S'CTG'
p3791
tp3792
I5
s(I70
S'ACG'
p3793
tp3794
I1679
s(I3
S'GCC'
p3795
tp3796
I422
s(I64
S'TTA'
p3797
tp3798
I3307
s(I6
S'CGT'
p3799
tp3800
I67
s(I55
S'CAG'
p3801
tp3802
I232
s(I6
S'TCT'
p3803
tp3804
I80
s(I52
S'CGT'
p3805
tp3806
I1
s(I73
S'TGC'
p3807
tp3808
I2
s(I45
S'CGA'
p3809
tp3810
I46
s(I22
S'GGT'
p3811
tp3812
I66
s(I19
S'GTT'
p3813
tp3814
I104
s(I42
S'ACA'
p3815
tp3816
I18
s(I66
S'ATA'
p3817
tp3818
I121
s(I62
S'GAT'
p3819
tp3820
I422
s(I4
S'AGT'
p3821
tp3822
I1
s(I44
S'ATG'
p3823
tp3824
I6595
s(I64
S'CCG'
p3825
tp3826
I18
s(I39
S'TTA'
p3827
tp3828
I8
s(I38
S'GGA'
p3829
tp3830
I147
s(I17
S'TCT'
p3831
tp3832
I73
s(I72
S'ATC'
p3833
tp3834
I5
s(I42
S'AAC'
p3835
tp3836
I96
s(I73
S'ACT'
p3837
tp3838
I2
s(I20
S'CGT'
p3839
tp3840
I53
s(I13
S'GAA'
p3841
tp3842
I148
s(I20
S'TGC'
p3843
tp3844
I16
s(I28
S'AAC'
p3845
tp3846
I31
s(I30
S'TGT'
p3847
tp3848
I904
s(I31
S'GCG'
p3849
tp3850
I79
s(I54
S'AAG'
p3851
tp3852
I35
s(I42
S'GTA'
p3853
tp3854
I372
s(I30
S'CCA'
p3855
tp3856
I14
s(I54
S'AGT'
p3857
tp3858
I191
s(I31
S'CGG'
p3859
tp3860
I86
s(I76
S'AGC'
p3861
tp3862
I2
s(I29
S'CGC'
p3863
tp3864
I49
s(I21
S'GAG'
p3865
tp3866
I65
s(I61
S'TGG'
p3867
tp3868
I8
s(I11
S'GAG'
p3869
tp3870
I386
s(I26
S'ACG'
p3871
tp3872
I228
s(I71
S'GAC'
p3873
tp3874
I2
s(I20
S'GGG'
p3875
tp3876
I11
s(I34
S'TCT'
p3877
tp3878
I6
s(I40
S'TTA'
p3879
tp3880
I527
s(I42
S'GCC'
p3881
tp3882
I3464
s(I31
S'CAG'
p3883
tp3884
I38
s(I68
S'TCT'
p3885
tp3886
I765
s(I26
S'CGG'
p3887
tp3888
I1
s(I54
S'CAC'
p3889
tp3890
I12
s(I51
S'TCT'
p3891
tp3892
I60
s(I55
S'GAC'
p3893
tp3894
I1
s(I2
S'CGA'
p3895
tp3896
I55
s(I15
S'CTA'
p3897
tp3898
I103
s(I59
S'TCA'
p3899
tp3900
I1427
s(I8
S'CTG'
p3901
tp3902
I118
s(I50
S'CCA'
p3903
tp3904
I2
s(I20
S'CAT'
p3905
tp3906
I22
s(I38
S'TAG'
p3907
tp3908
I73
s(I36
S'GGT'
p3909
tp3910
I6
s(I0
S'WT'
p3911
tp3912
I45
s(I66
S'TGC'
p3913
tp3914
I17
s(I5
S'CCT'
p3915
tp3916
I8
s(I13
S'GGT'
p3917
tp3918
I6
s(I2
S'GCG'
p3919
tp3920
I2
s(I27
S'GGA'
p3921
tp3922
I1
s(I35
S'ATG'
p3923
tp3924
I211
s(I37
S'GAG'
p3925
tp3926
I746
s(I41
S'ACT'
p3927
tp3928
I287
s(I42
S'TGG'
p3929
tp3930
I144
s(I2
S'AAC'
p3931
tp3932
I3
s(I44
S'TGA'
p3933
tp3934
I1
s(I17
S'GCA'
p3935
tp3936
I58
s(I51
S'ACT'
p3937
tp3938
I166
s(I16
S'CTT'
p3939
tp3940
I23
s(I5
S'CGT'
p3941
tp3942
I14
s(I70
S'ATC'
p3943
tp3944
I4
s(I4
S'TGT'
p3945
tp3946
I4
s(I30
S'AGT'
p3947
tp3948
I3
s(I33
S'CTA'
p3949
tp3950
I3
s(I8
S'GTC'
p3951
tp3952
I64
s(I22
S'ACA'
p3953
tp3954
I12
s(I53
S'CTA'
p3955
tp3956
I7
s(I53
S'GCA'
p3957
tp3958
I29
s(I63
S'CCT'
p3959
tp3960
I197
s(I58
S'CTC'
p3961
tp3962
I24
s(I45
S'AAA'
p3963
tp3964
I52
s(I34
S'GTT'
p3965
tp3966
I3
s(I42
S'GGG'
p3967
tp3968
I391
s(I61
S'ACT'
p3969
tp3970
I23
s(I5
S'TAA'
p3971
tp3972
I3
s(I41
S'ACG'
p3973
tp3974
I3
s(I59
S'ACG'
p3975
tp3976
I2
s(I57
S'AGG'
p3977
tp3978
I9
s(I22
S'CTA'
p3979
tp3980
I62
s(I69
S'TGG'
p3981
tp3982
I1454
s(I48
S'AAT'
p3983
tp3984
I9
s(I27
S'CTC'
p3985
tp3986
I125
s(I55
S'CCC'
p3987
tp3988
I2
s(I41
S'CGG'
p3989
tp3990
I1
s(I47
S'CTC'
p3991
tp3992
I1
s(I63
S'ATT'
p3993
tp3994
I2
s(I19
S'CGT'
p3995
tp3996
I236
s(I52
S'CTA'
p3997
tp3998
I1
s(I16
S'CGA'
p3999
tp4000
I11
s(I53
S'GGA'
p4001
tp4002
I144
s(I34
S'ACT'
p4003
tp4004
I2
s(I61
S'AGC'
p4005
tp4006
I1
s(I71
S'TCT'
p4007
tp4008
I1
s(I33
S'GGA'
p4009
tp4010
I6
s(I65
S'ACA'
p4011
tp4012
I382
s(I62
S'TAA'
p4013
tp4014
I1
s(I30
S'AAG'
p4015
tp4016
I1
s(I21
S'TAC'
p4017
tp4018
I323
s(I62
S'GAG'
p4019
tp4020
I89
s(I26
S'ATC'
p4021
tp4022
I86
s(I29
S'TAC'
p4023
tp4024
I164
s(I24
S'TCA'
p4025
tp4026
I77
s(I17
S'CAA'
p4027
tp4028
I11
s(I31
S'CAC'
p4029
tp4030
I12
s(I25
S'CGA'
p4031
tp4032
I53
s(I49
S'TAT'
p4033
tp4034
I42
s(I21
S'CAC'
p4035
tp4036
I110
s(I65
S'GTC'
p4037
tp4038
I23
s(I72
S'AAG'
p4039
tp4040
I21
s(I17
S'AGT'
p4041
tp4042
I372
s(I14
S'ATC'
p4043
tp4044
I1
s(I14
S'ACG'
p4045
tp4046
I64
s(I38
S'ATG'
p4047
tp4048
I86
s(I37
S'ATA'
p4049
tp4050
I210
s(I3
S'GGA'
p4051
tp4052
I3
s(I45
S'TGC'
p4053
tp4054
I9
s(I33
S'AGG'
p4055
tp4056
I86
s(I70
S'GCC'
p4057
tp4058
I317
s(I67
S'TCC'
p4059
tp4060
I1
s(I32
S'ACA'
p4061
tp4062
I110
s(I55
S'ATT'
p4063
tp4064
I39
s(I53
S'TGG'
p4065
tp4066
I50
s(I27
S'GCA'
p4067
tp4068
I21
s(I56
S'CCC'
p4069
tp4070
I1
s(I41
S'TCT'
p4071
tp4072
I25
s(I72
S'GAA'
p4073
tp4074
I12
s(I41
S'TGG'
p4075
tp4076
I2
s(I5
S'ATT'
p4077
tp4078
I24
s(I16
S'GTA'
p4079
tp4080
I36
s(I24
S'AAT'
p4081
tp4082
I6
s(I38
S'CAC'
p4083
tp4084
I15
s(I69
S'TAA'
p4085
tp4086
I1
s(I43
S'CAC'
p4087
tp4088
I1
s(I71
S'GAT'
p4089
tp4090
I1
s(I20
S'AGT'
p4091
tp4092
I2
s(I42
S'AGG'
p4093
tp4094
I54
s(I47
S'GCC'
p4095
tp4096
I55
s(I38
S'ACG'
p4097
tp4098
I20
s(I10
S'TGC'
p4099
tp4100
I3
s(I63
S'TGA'
p4101
tp4102
I1
s(I16
S'GCC'
p4103
tp4104
I223
s(I70
S'ACC'
p4105
tp4106
I2110
s(I66
S'TAC'
p4107
tp4108
I245
s(I16
S'ACC'
p4109
tp4110
I69
s(I52
S'CCT'
p4111
tp4112
I105
s(I32
S'TCT'
p4113
tp4114
I95
s(I65
S'GAC'
p4115
tp4116
I7009
s(I10
S'CTC'
p4117
tp4118
I1
s(I54
S'CCA'
p4119
tp4120
I4
s(I25
S'CAG'
p4121
tp4122
I6
s(I73
S'TTA'
p4123
tp4124
I251
s(I49
S'GAC'
p4125
tp4126
I7
s(I33
S'ACT'
p4127
tp4128
I20
s(I57
S'ATT'
p4129
tp4130
I55
s(I29
S'ATG'
p4131
tp4132
I34
s(I8
S'ATT'
p4133
tp4134
I284
s(I12
S'GAT'
p4135
tp4136
I6
s(I64
S'ACG'
p4137
tp4138
I3688
s(I17
S'CCG'
p4139
tp4140
I9
s(I35
S'TAC'
p4141
tp4142
I3
s(I30
S'AGC'
p4143
tp4144
I2
s(I75
S'CGC'
p4145
tp4146
I1
s(I22
S'ACT'
p4147
tp4148
I279
s(I46
S'TAG'
p4149
tp4150
I7
s(I25
S'ATC'
p4151
tp4152
I234
s(I10
S'CGA'
p4153
tp4154
I1
s(I44
S'GCG'
p4155
tp4156
I30
s(I44
S'CTG'
p4157
tp4158
I667
s(I24
S'AAA'
p4159
tp4160
I3
s(I50
S'ATA'
p4161
tp4162
I358
s(I24
S'CGG'
p4163
tp4164
I2
s(I29
S'CTC'
p4165
tp4166
I220
s(I45
S'ATT'
p4167
tp4168
I293
s(I69
S'CTA'
p4169
tp4170
I256
s(I23
S'CAA'
p4171
tp4172
I3
s(I23
S'GTA'
p4173
tp4174
I6
s(I18
S'AGG'
p4175
tp4176
I36
s(I18
S'GCT'
p4177
tp4178
I54
s(I43
S'ATC'
p4179
tp4180
I58
s(I72
S'CCG'
p4181
tp4182
I11
s(I3
S'GCT'
p4183
tp4184
I1108
s(I12
S'ACA'
p4185
tp4186
I15
s(I43
S'TAC'
p4187
tp4188
I37
s(I73
S'AAG'
p4189
tp4190
I10
s(I68
S'AAT'
p4191
tp4192
I784
s(I48
S'ACA'
p4193
tp4194
I5
s(I46
S'AGG'
p4195
tp4196
I60
s(I25
S'CTT'
p4197
tp4198
I26
s(I23
S'GCA'
p4199
tp4200
I7
s(I63
S'TCT'
p4201
tp4202
I253
s(I11
S'TTC'
p4203
tp4204
I124
s(I2
S'GAG'
p4205
tp4206
I79
s(I21
S'GTG'
p4207
tp4208
I92
s(I47
S'CCG'
p4209
tp4210
I29
s(I44
S'TGG'
p4211
tp4212
I1
s(I3
S'CAC'
p4213
tp4214
I3
s(I19
S'AAT'
p4215
tp4216
I316
s(I12
S'GTA'
p4217
tp4218
I11
s(I37
S'GTG'
p4219
tp4220
I295
s(I16
S'CTC'
p4221
tp4222
I10
s(I28
S'TGG'
p4223
tp4224
I81
s(I36
S'CTC'
p4225
tp4226
I1670
s(I34
S'GGC'
p4227
tp4228
I145
s(I55
S'GCA'
p4229
tp4230
I52
s(I20
S'ATC'
p4231
tp4232
I2
s(I6
S'AGC'
p4233
tp4234
I1478
s(I8
S'GGA'
p4235
tp4236
I2
s(I71
S'ACA'
p4237
tp4238
I1
s(I46
S'GGG'
p4239
tp4240
I389
s(I12
S'GGC'
p4241
tp4242
I9
s(I53
S'CCC'
p4243
tp4244
I66
s(I55
S'GTC'
p4245
tp4246
I21
s(I69
S'TTT'
p4247
tp4248
I16734
s(I24
S'TCG'
p4249
tp4250
I1
s(I35
S'CTG'
p4251
tp4252
I50
s(I32
S'AGA'
p4253
tp4254
I2
s(I31
S'TGG'
p4255
tp4256
I12
s(I31
S'GAA'
p4257
tp4258
I3
s(I48
S'AGC'
p4259
tp4260
I41
s(I18
S'ATC'
p4261
tp4262
I80
s(I32
S'ACT'
p4263
tp4264
I25
s(I18
S'TAC'
p4265
tp4266
I259
s(I71
S'GTC'
p4267
tp4268
I1
s(I13
S'GCC'
p4269
tp4270
I60
s(I65
S'TTG'
p4271
tp4272
I31
s(I3
S'ACC'
p4273
tp4274
I10
s(I15
S'GAA'
p4275
tp4276
I3
s(I68
S'GAG'
p4277
tp4278
I3
s(I47
S'GTT'
p4279
tp4280
I1
s(I65
S'AAA'
p4281
tp4282
I38
s(I16
S'CCA'
p4283
tp4284
I1
s(I55
S'ACC'
p4285
tp4286
I21
s(I49
S'AGC'
p4287
tp4288
I895
s(I7
S'CCA'
p4289
tp4290
I1172
s(I9
S'ATT'
p4291
tp4292
I1656
s(I34
S'AAT'
p4293
tp4294
I2
s(I67
S'CAT'
p4295
tp4296
I13
s(I51
S'TTT'
p4297
tp4298
I5
s(I71
S'GCG'
p4299
tp4300
I2
s(I13
S'GTA'
p4301
tp4302
I181
s(I66
S'TGG'
p4303
tp4304
I37
s(I10
S'GGC'
p4305
tp4306
I60
s(I42
S'TGC'
p4307
tp4308
I9
s(I71
S'AGC'
p4309
tp4310
I1
s(I7
S'GTA'
p4311
tp4312
I5
s(I9
S'CAG'
p4313
tp4314
I2869
s(I74
S'GAA'
p4315
tp4316
I21
s(I9
S'TCC'
p4317
tp4318
I112
s(I35
S'GGG'
p4319
tp4320
I30
s(I74
S'CAC'
p4321
tp4322
I3
s(I5
S'CTT'
p4323
tp4324
I197
s(I29
S'GAA'
p4325
tp4326
I13
s(I61
S'CGG'
p4327
tp4328
I2
s(I10
S'CTT'
p4329
tp4330
I1
s(I43
S'GGG'
p4331
tp4332
I75
s(I57
S'GTC'
p4333
tp4334
I65
s(I39
S'CGA'
p4335
tp4336
I1
s(I75
S'GCC'
p4337
tp4338
I5
s(I67
S'ACA'
p4339
tp4340
I2639
s(I4
S'TCC'
p4341
tp4342
I3
s(I62
S'ACC'
p4343
tp4344
I21
s(I15
S'GTT'
p4345
tp4346
I22
s(I13
S'TCG'
p4347
tp4348
I10
s(I75
S'CCA'
p4349
tp4350
I6
s(I2
S'GTA'
p4351
tp4352
I22
s(I32
S'GCG'
p4353
tp4354
I41
s(I63
S'TAC'
p4355
tp4356
I49
s(I8
S'ATA'
p4357
tp4358
I81
s(I23
S'ATG'
p4359
tp4360
I162
s(I46
S'GTC'
p4361
tp4362
I466
s(I20
S'TAG'
p4363
tp4364
I3
s(I69
S'ACT'
p4365
tp4366
I58
s(I71
S'TAC'
p4367
tp4368
I2
s(I7
S'TGG'
p4369
tp4370
I4
s(I62
S'GTC'
p4371
tp4372
I1063
s(I56
S'TGG'
p4373
tp4374
I2
s(I28
S'GTC'
p4375
tp4376
I69
s(I8
S'AGC'
p4377
tp4378
I1
s(I24
S'TTA'
p4379
tp4380
I11
s(I46
S'AAC'
p4381
tp4382
I5493
s(I64
S'GCG'
p4383
tp4384
I2692
s(I37
S'CAT'
p4385
tp4386
I117
s(I56
S'AAG'
p4387
tp4388
I5
s(I22
S'ATG'
p4389
tp4390
I323
s(I46
S'ACA'
p4391
tp4392
I2693
s(I40
S'CTA'
p4393
tp4394
I906
s(I3
S'AAG'
p4395
tp4396
I2
s(I64
S'GTG'
p4397
tp4398
I2613
s(I47
S'CAG'
p4399
tp4400
I336
s(I60
S'GCC'
p4401
tp4402
I21
s(I52
S'CAG'
p4403
tp4404
I17
s(I49
S'GGC'
p4405
tp4406
I1890
s(I37
S'TGG'
p4407
tp4408
I6
s(I18
S'TCA'
p4409
tp4410
I312
s(I11
S'TTT'
p4411
tp4412
I22
s(I29
S'TCC'
p4413
tp4414
I108
s(I76
S'GAC'
p4415
tp4416
I5
s(I43
S'TAG'
p4417
tp4418
I3
s(I37
S'TCT'
p4419
tp4420
I54
s(I15
S'CAG'
p4421
tp4422
I8
s(I15
S'GGC'
p4423
tp4424
I3
s(I74
S'GTG'
p4425
tp4426
I3
s(I32
S'AAA'
p4427
tp4428
I13
s(I17
S'GTG'
p4429
tp4430
I318
s(I53
S'ACA'
p4431
tp4432
I15
s(I36
S'TAC'
p4433
tp4434
I9
s(I24
S'AGC'
p4435
tp4436
I33
s(I20
S'TGG'
p4437
tp4438
I236
s(I48
S'ACC'
p4439
tp4440
I5
s(I18
S'ACG'
p4441
tp4442
I77
s(I37
S'GCT'
p4443
tp4444
I368
s(I63
S'GGA'
p4445
tp4446
I23
s(I40
S'TGT'
p4447
tp4448
I3
s(I55
S'TGT'
p4449
tp4450
I93
s(I4
S'CTT'
p4451
tp4452
I41
s(I71
S'GGA'
p4453
tp4454
I9
s(I58
S'GAG'
p4455
tp4456
I95
s(I40
S'AGT'
p4457
tp4458
I21
s(I63
S'GTG'
p4459
tp4460
I31
s(I31
S'AGA'
p4461
tp4462
I1
s(I18
S'ATT'
p4463
tp4464
I1
s(I65
S'CGG'
p4465
tp4466
I226
s(I62
S'CGA'
p4467
tp4468
I9
s(I9
S'TTG'
p4469
tp4470
I34
s(I32
S'AGT'
p4471
tp4472
I52
s(I46
S'AGT'
p4473
tp4474
I1275
s(I68
S'AGC'
p4475
tp4476
I274
s(I30
S'CGG'
p4477
tp4478
I1
s(I10
S'TAT'
p4479
tp4480
I1
s(I70
S'AAT'
p4481
tp4482
I4
s(I14
S'AAG'
p4483
tp4484
I2
s(I42
S'TCC'
p4485
tp4486
I6
s(I6
S'CTG'
p4487
tp4488
I166
s(I18
S'TAT'
p4489
tp4490
I49
s(I37
S'ACG'
p4491
tp4492
I5
s(I75
S'GTC'
p4493
tp4494
I1
s(I13
S'TTC'
p4495
tp4496
I1
s(I35
S'CGC'
p4497
tp4498
I18
s(I33
S'CGG'
p4499
tp4500
I1
s(I38
S'TTC'
p4501
tp4502
I80
s(I33
S'CAA'
p4503
tp4504
I4
s(I72
S'TAG'
p4505
tp4506
I3
s(I20
S'CCA'
p4507
tp4508
I599
s(I59
S'AAA'
p4509
tp4510
I9
s(I75
S'GAG'
p4511
tp4512
I3
s(I9
S'ATC'
p4513
tp4514
I754
s(I71
S'CTC'
p4515
tp4516
I160
s(I10
S'ACA'
p4517
tp4518
I1
s(I76
S'CTA'
p4519
tp4520
I12
s(I23
S'ACG'
p4521
tp4522
I75
s(I46
S'CGC'
p4523
tp4524
I743
s(I32
S'CCG'
p4525
tp4526
I43
s(I75
S'GCT'
p4527
tp4528
I4
s(I43
S'GAC'
p4529
tp4530
I1
s(I27
S'TCT'
p4531
tp4532
I4
s(I20
S'TTG'
p4533
tp4534
I89
s(I25
S'TTT'
p4535
tp4536
I196
s(I45
S'GAA'
p4537
tp4538
I7
s(I40
S'AGA'
p4539
tp4540
I85
s(I52
S'TGC'
p4541
tp4542
I117
s(I30
S'TTC'
p4543
tp4544
I49
s(I19
S'GAA'
p4545
tp4546
I74
s(I68
S'GCA'
p4547
tp4548
I133
s(I24
S'CCT'
p4549
tp4550
I39
s(I4
S'TCT'
p4551
tp4552
I1
s(I16
S'GAT'
p4553
tp4554
I43
s(I44
S'CAG'
p4555
tp4556
I1
s(I22
S'AGT'
p4557
tp4558
I34
s(I44
S'AGC'
p4559
tp4560
I24
s(I62
S'TGC'
p4561
tp4562
I524
s(I18
S'TTG'
p4563
tp4564
I213
s(I48
S'GAA'
p4565
tp4566
I5
s(I57
S'GCT'
p4567
tp4568
I49
s(I41
S'TTC'
p4569
tp4570
I898
s(I69
S'ACA'
p4571
tp4572
I64
s(I66
S'AAA'
p4573
tp4574
I4
s(I24
S'GGA'
p4575
tp4576
I37
s(I64
S'GAT'
p4577
tp4578
I2188
s(I27
S'ACC'
p4579
tp4580
I16
s(I12
S'TTT'
p4581
tp4582
I12
s(I72
S'GCC'
p4583
tp4584
I292
s(I31
S'AAA'
p4585
tp4586
I21
s(I20
S'CTT'
p4587
tp4588
I8
s(I26
S'GCC'
p4589
tp4590
I11
s(I30
S'TAT'
p4591
tp4592
I78
s(I45
S'TTG'
p4593
tp4594
I4668
s(I46
S'TTA'
p4595
tp4596
I6
s(I64
S'AGC'
p4597
tp4598
I2977
s(I18
S'CCA'
p4599
tp4600
I60
s(I34
S'TAG'
p4601
tp4602
I14
s(I53
S'AGC'
p4603
tp4604
I14
s(I46
S'ACT'
p4605
tp4606
I182
s(I22
S'GTA'
p4607
tp4608
I55
s(I69
S'GTC'
p4609
tp4610
I380
s(I23
S'CTG'
p4611
tp4612
I24
s(I72
S'GTC'
p4613
tp4614
I7
s(I61
S'CCC'
p4615
tp4616
I1
s(I58
S'TGA'
p4617
tp4618
I2
s(I24
S'CAG'
p4619
tp4620
I27
s(I59
S'TCG'
p4621
tp4622
I2346
s(I69
S'AGT'
p4623
tp4624
I1
s(I74
S'GAC'
p4625
tp4626
I4
s(I57
S'TTA'
p4627
tp4628
I49
s(I27
S'AAT'
p4629
tp4630
I1
s(I12
S'CCC'
p4631
tp4632
I269
s(I47
S'GGG'
p4633
tp4634
I132
s(I16
S'CTA'
p4635
tp4636
I77
s(I47
S'AGA'
p4637
tp4638
I26
s(I9
S'TGT'
p4639
tp4640
I1184
s(I55
S'GGG'
p4641
tp4642
I115
s(I40
S'ATT'
p4643
tp4644
I3
s(I63
S'TCC'
p4645
tp4646
I102
s(I16
S'TCT'
p4647
tp4648
I48
s(I52
S'GCT'
p4649
tp4650
I2
s(I10
S'CGC'
p4651
tp4652
I1
s(I26
S'CTC'
p4653
tp4654
I45
s(I19
S'CCG'
p4655
tp4656
I1
s(I40
S'GCT'
p4657
tp4658
I3
s(I5
S'GGG'
p4659
tp4660
I1
s(I49
S'AGT'
p4661
tp4662
I288
s(I21
S'AAC'
p4663
tp4664
I10
s(I17
S'TTC'
p4665
tp4666
I31
s(I29
S'ACT'
p4667
tp4668
I28
s(I65
S'CCT'
p4669
tp4670
I505
s(I9
S'ACG'
p4671
tp4672
I51
s(I55
S'AGT'
p4673
tp4674
I15
s(I25
S'AGG'
p4675
tp4676
I76
s(I9
S'CTC'
p4677
tp4678
I59
s(I23
S'GGG'
p4679
tp4680
I3
s(I21
S'CGG'
p4681
tp4682
I6
s(I65
S'TGG'
p4683
tp4684
I52
s(I23
S'CCC'
p4685
tp4686
I3
s(I60
S'ACG'
p4687
tp4688
I4
s(I46
S'GAC'
p4689
tp4690
I18150
s(I24
S'ATT'
p4691
tp4692
I7
s(I75
S'AGG'
p4693
tp4694
I7
s(I22
S'TTA'
p4695
tp4696
I53
s(I67
S'AAG'
p4697
tp4698
I7
s(I20
S'ACC'
p4699
tp4700
I28
s(I2
S'ACT'
p4701
tp4702
I3
s(I29
S'AGC'
p4703
tp4704
I192
s(I19
S'GGC'
p4705
tp4706
I127
s(I7
S'CAG'
p4707
tp4708
I69
s(I6
S'AGA'
p4709
tp4710
I16
s(I30
S'CAC'
p4711
tp4712
I1
s(I60
S'CTG'
p4713
tp4714
I96
s(I17
S'AAC'
p4715
tp4716
I146
s(I35
S'CAC'
p4717
tp4718
I36
s(I21
S'GGA'
p4719
tp4720
I19
s(I74
S'AAT'
p4721
tp4722
I2
s(I18
S'AAG'
p4723
tp4724
I166
s(I33
S'TTA'
p4725
tp4726
I23
s(I34
S'GCT'
p4727
tp4728
I2
s(I70
S'CGC'
p4729
tp4730
I1
s(I69
S'GGG'
p4731
tp4732
I659
s(I43
S'TTA'
p4733
tp4734
I177
s(I8
S'CGT'
p4735
tp4736
I3
s(I39
S'TCC'
p4737
tp4738
I1
s(I48
S'ATT'
p4739
tp4740
I4
s(I22
S'TGG'
p4741
tp4742
I29
s(I66
S'CCG'
p4743
tp4744
I176
s(I75
S'TCA'
p4745
tp4746
I26
s(I39
S'ACA'
p4747
tp4748
I2
s(I45
S'CAG'
p4749
tp4750
I23995
s(I11
S'GTA'
p4751
tp4752
I3
s(I39
S'GCC'
p4753
tp4754
I7
s(I73
S'ATA'
p4755
tp4756
I7151
s(I64
S'CTG'
p4757
tp4758
I538
s(I32
S'CTC'
p4759
tp4760
I95
s(I45
S'AGG'
p4761
tp4762
I19
s(I39
S'GTT'
p4763
tp4764
I8
s(I23
S'TAG'
p4765
tp4766
I4
s(I54
S'GCC'
p4767
tp4768
I17
s(I57
S'TGA'
p4769
tp4770
I2
s(I34
S'TCA'
p4771
tp4772
I6
s(I52
S'ACA'
p4773
tp4774
I1
s(I76
S'ATA'
p4775
tp4776
I4
s(I67
S'GGT'
p4777
tp4778
I3786
s(I41
S'GGC'
p4779
tp4780
I69
s(I57
S'TCG'
p4781
tp4782
I169
s(I58
S'CAG'
p4783
tp4784
I124
s(I60
S'CAT'
p4785
tp4786
I122
s(I71
S'GCT'
p4787
tp4788
I8
s(I6
S'CAC'
p4789
tp4790
I504
s(I41
S'TCA'
p4791
tp4792
I18
s(I52
S'CGA'
p4793
tp4794
I8
s(I66
S'AAT'
p4795
tp4796
I521
s(I63
S'TTG'
p4797
tp4798
I53
s(I69
S'AGA'
p4799
tp4800
I2
s(I39
S'TAT'
p4801
tp4802
I3
s(I61
S'TCC'
p4803
tp4804
I5
s(I40
S'GGT'
p4805
tp4806
I835
s(I30
S'GGA'
p4807
tp4808
I1
s(I28
S'ACT'
p4809
tp4810
I40
s(I18
S'TGC'
p4811
tp4812
I64
s(I60
S'AGG'
p4813
tp4814
I52
s(I70
S'GTC'
p4815
tp4816
I1
s(I11
S'AGT'
p4817
tp4818
I879
s(I18
S'CCT'
p4819
tp4820
I21
s(I20
S'CGA'
p4821
tp4822
I54
s(I22
S'CCA'
p4823
tp4824
I108
s(I72
S'AGT'
p4825
tp4826
I478
s(I21
S'TAG'
p4827
tp4828
I3
s(I74
S'TTG'
p4829
tp4830
I1
s(I62
S'CTT'
p4831
tp4832
I102
s(I8
S'GGT'
p4833
tp4834
I2
s(I55
S'GTA'
p4835
tp4836
I33
s(I43
S'GTC'
p4837
tp4838
I128
s(I28
S'TAA'
p4839
tp4840
I24
s(I36
S'TGG'
p4841
tp4842
I3
s(I70
S'ACA'
p4843
tp4844
I8663
s(I16
S'CAA'
p4845
tp4846
I68
s(I71
S'AAG'
p4847
tp4848
I2
s(I35
S'TTC'
p4849
tp4850
I139
s(I44
S'AGA'
p4851
tp4852
I2
s(I20
S'AAC'
p4853
tp4854
I26
s(I36
S'TGA'
p4855
tp4856
I14
s(I7
S'TGA'
p4857
tp4858
I4
s(I45
S'CGG'
p4859
tp4860
I613
s(I69
S'AAG'
p4861
tp4862
I11
s(I38
S'TCT'
p4863
tp4864
I316
s(I54
S'CAT'
p4865
tp4866
I76
s(I3
S'GAT'
p4867
tp4868
I1
s(I41
S'TAC'
p4869
tp4870
I10
s(I3
S'TAT'
p4871
tp4872
I1
s(I39
S'ATC'
p4873
tp4874
I2
s(I65
S'CCA'
p4875
tp4876
I182
s(I39
S'TTG'
p4877
tp4878
I10
s(I63
S'TAA'
p4879
tp4880
I1
s(I62
S'TTC'
p4881
tp4882
I68
s(I4
S'CAT'
p4883
tp4884
I54
s(I23
S'TAA'
p4885
tp4886
I1
s(I16
S'AGG'
p4887
tp4888
I198
s(I20
S'ACG'
p4889
tp4890
I112
s(I49
S'TCT'
p4891
tp4892
I3453
s(I70
S'GGT'
p4893
tp4894
I5
s(I70
S'TCA'
p4895
tp4896
I14
s(I76
S'TGT'
p4897
tp4898
I5
s(I48
S'AGT'
p4899
tp4900
I20
s(I44
S'CCC'
p4901
tp4902
I1
s(I61
S'GTC'
p4903
tp4904
I101
s(I15
S'CCG'
p4905
tp4906
I5
s(I35
S'CAT'
p4907
tp4908
I265
s(I62
S'ACA'
p4909
tp4910
I2931
s(I25
S'AAA'
p4911
tp4912
I70
s(I18
S'GAG'
p4913
tp4914
I34
s(I6
S'GTA'
p4915
tp4916
I810
s(I71
S'GTA'
p4917
tp4918
I13
s(I63
S'CCG'
p4919
tp4920
I118
s(I45
S'AAT'
p4921
tp4922
I1932
s(I4
S'CTC'
p4923
tp4924
I50
s(I28
S'GGA'
p4925
tp4926
I66
s(I34
S'GTC'
p4927
tp4928
I1
s(I70
S'CCA'
p4929
tp4930
I55
s(I55
S'TGA'
p4931
tp4932
I2
s(I55
S'AGC'
p4933
tp4934
I59
s(I61
S'ACG'
p4935
tp4936
I18
s(I72
S'TTA'
p4937
tp4938
I5
s(I35
S'AGA'
p4939
tp4940
I36
s(I6
S'TTC'
p4941
tp4942
I63
s(I50
S'GTC'
p4943
tp4944
I54
s(I73
S'ATG'
p4945
tp4946
I44
s(I68
S'ATT'
p4947
tp4948
I27
s(I63
S'TAG'
p4949
tp4950
I1
s(I19
S'CGG'
p4951
tp4952
I100
s(I52
S'CTT'
p4953
tp4954
I1
s(I55
S'AAG'
p4955
tp4956
I51
s(I34
S'ACA'
p4957
tp4958
I1
s(I58
S'ATA'
p4959
tp4960
I13
s(I31
S'AGG'
p4961
tp4962
I7
s(I55
S'CTG'
p4963
tp4964
I115
s(I17
S'TGC'
p4965
tp4966
I43
s(I47
S'TTA'
p4967
tp4968
I3
s(I14
S'GCT'
p4969
tp4970
I64
s(I74
S'CAT'
p4971
tp4972
I5
s(I30
S'TTA'
p4973
tp4974
I115
s(I21
S'GAA'
p4975
tp4976
I1
s(I28
S'GCC'
p4977
tp4978
I52
s(I33
S'CTG'
p4979
tp4980
I4
s(I38
S'ATC'
p4981
tp4982
I99
s(I17
S'AGC'
p4983
tp4984
I230
s(I70
S'GAC'
p4985
tp4986
I1
s(I53
S'GCG'
p4987
tp4988
I56
s(I65
S'AAC'
p4989
tp4990
I332
s(I69
S'GAC'
p4991
tp4992
I27
s(I15
S'CGC'
p4993
tp4994
I1
s(I29
S'GTT'
p4995
tp4996
I13
s(I38
S'GAG'
p4997
tp4998
I38
s(I75
S'AGA'
p4999
tp5000
I13
s(I69
S'CAT'
p5001
tp5002
I1252
s(I58
S'AAT'
p5003
tp5004
I19
s(I41
S'ACA'
p5005
tp5006
I183
s(I74
S'TGA'
p5007
tp5008
I5
s(I16
S'AAG'
p5009
tp5010
I95
s(I12
S'TAG'
p5011
tp5012
I9
s(I31
S'TTT'
p5013
tp5014
I75
s(I42
S'TTT'
p5015
tp5016
I19
s(I72
S'CTT'
p5017
tp5018
I12
s(I33
S'TGA'
p5019
tp5020
I3
s(I5
S'TTC'
p5021
tp5022
I202
s(I11
S'AGA'
p5023
tp5024
I22
s(I6
S'GGC'
p5025
tp5026
I3708
s(I52
S'TAT'
p5027
tp5028
I33
s(I17
S'CGG'
p5029
tp5030
I16
s(I45
S'TAA'
p5031
tp5032
I5
s(I34
S'ATA'
p5033
tp5034
I2
s(I72
S'ACA'
p5035
tp5036
I464
s(I28
S'GAC'
p5037
tp5038
I592
s(I55
S'GGA'
p5039
tp5040
I4
s(I30
S'ACC'
p5041
tp5042
I2
s(I67
S'ACC'
p5043
tp5044
I67
s(I43
S'CCA'
p5045
tp5046
I1
s(I53
S'CGA'
p5047
tp5048
I3
s(I33
S'GGG'
p5049
tp5050
I1
s(I71
S'ACT'
p5051
tp5052
I1
s(I28
S'CGG'
p5053
tp5054
I37
s(I16
S'CAT'
p5055
tp5056
I118
s(I67
S'ACT'
p5057
tp5058
I6138
s(I23
S'CGA'
p5059
tp5060
I1
s(I29
S'TGT'
p5061
tp5062
I54
s(I48
S'TGT'
p5063
tp5064
I10
s(I65
S'TCG'
p5065
tp5066
I15
s(I2
S'TCC'
p5067
tp5068
I1
s(I61
S'TAC'
p5069
tp5070
I15
s(I16
S'GCT'
p5071
tp5072
I346
s(I19
S'GCA'
p5073
tp5074
I7
s(I19
S'TTG'
p5075
tp5076
I14
s(I69
S'TCC'
p5077
tp5078
I174
s(I45
S'GCA'
p5079
tp5080
I722
s(I75
S'GTG'
p5081
tp5082
I1015
s(I42
S'GGC'
p5083
tp5084
I107
s(I52
S'GAG'
p5085
tp5086
I95
s(I73
S'GCC'
p5087
tp5088
I2
s(I33
S'ACG'
p5089
tp5090
I30
s(I57
S'ATA'
p5091
tp5092
I37
s(I74
S'TAA'
p5093
tp5094
I15
s(I45
S'GTG'
p5095
tp5096
I6721
s(I16
S'TGG'
p5097
tp5098
I33
s(I40
S'AAT'
p5099
tp5100
I378
s(I60
S'ATA'
p5101
tp5102
I48
s(I51
S'GGT'
p5103
tp5104
I344
s(I48
S'GTG'
p5105
tp5106
I6
s(I50
S'GAC'
p5107
tp5108
I2
s(I45
S'GGC'
p5109
tp5110
I1418
s(I7
S'CTA'
p5111
tp5112
I4
s(I29
S'TCA'
p5113
tp5114
I48
s(I37
S'GCA'
p5115
tp5116
I434
s(I26
S'ACT'
p5117
tp5118
I117
s(I67
S'CGT'
p5119
tp5120
I3
s(I72
S'CTA'
p5121
tp5122
I37
s(I71
S'ATC'
p5123
tp5124
I11
s(I48
S'CTC'
p5125
tp5126
I7
s(I50
S'ATT'
p5127
tp5128
I87
s(I58
S'GTG'
p5129
tp5130
I36
s(I63
S'TGG'
p5131
tp5132
I111
s(I72
S'TTT'
p5133
tp5134
I222
s(I61
S'CTG'
p5135
tp5136
I302
s(I39
S'GCA'
p5137
tp5138
I23
s(I20
S'GTC'
p5139
tp5140
I10
s(I27
S'ATA'
p5141
tp5142
I142
s(I32
S'TGA'
p5143
tp5144
I4
s(I23
S'TGC'
p5145
tp5146
I4
s(I25
S'CAA'
p5147
tp5148
I199
s(I74
S'GAG'
p5149
tp5150
I14
s(I36
S'AGC'
p5151
tp5152
I8
s(I36
S'CCT'
p5153
tp5154
I61
s(I7
S'TCA'
p5155
tp5156
I580
s(I76
S'GTC'
p5157
tp5158
I7
s(I50
S'CTC'
p5159
tp5160
I83
s(I74
S'TCA'
p5161
tp5162
I1
s(I5
S'ACG'
p5163
tp5164
I21
s(I42
S'CCC'
p5165
tp5166
I1
s(I71
S'TTT'
p5167
tp5168
I7
s(I30
S'CGT'
p5169
tp5170
I94
s(I72
S'GGC'
p5171
tp5172
I567
s(I52
S'TCA'
p5173
tp5174
I4
s(I29
S'GTC'
p5175
tp5176
I96
s(I24
S'TAG'
p5177
tp5178
I12
s(I13
S'ATC'
p5179
tp5180
I125
s(I45
S'TCC'
p5181
tp5182
I2111
s(I37
S'GTT'
p5183
tp5184
I438
s(I24
S'ACA'
p5185
tp5186
I4
s(I37
S'TAG'
p5187
tp5188
I7
s(I39
S'CTC'
p5189
tp5190
I3
s(I34
S'GAC'
p5191
tp5192
I151
s(I44
S'CTA'
p5193
tp5194
I140
s(I76
S'ACA'
p5195
tp5196
I2
s(I65
S'TTC'
p5197
tp5198
I62
s(I36
S'CCA'
p5199
tp5200
I5
s(I22
S'GAG'
p5201
tp5202
I36
s(I23
S'CAG'
p5203
tp5204
I13
s(I23
S'TTC'
p5205
tp5206
I56
s(I18
S'AGA'
p5207
tp5208
I119
s(I46
S'CAC'
p5209
tp5210
I6256
s(I51
S'CAC'
p5211
tp5212
I49
s(I46
S'GGT'
p5213
tp5214
I279
s(I8
S'AGG'
p5215
tp5216
I2
s(I35
S'TGT'
p5217
tp5218
I69
s(I54
S'GGT'
p5219
tp5220
I25
s(I60
S'TGT'
p5221
tp5222
I2
s(I45
S'TAT'
p5223
tp5224
I353
s(I31
S'GGT'
p5225
tp5226
I183
s(I29
S'TAA'
p5227
tp5228
I1
s(I51
S'CGA'
p5229
tp5230
I2
s(I13
S'TAC'
p5231
tp5232
I1
s(I74
S'GTA'
p5233
tp5234
I1
s(I60
S'CGC'
p5235
tp5236
I242
s(I8
S'ACC'
p5237
tp5238
I3
s(I64
S'ATT'
p5239
tp5240
I944
s(I73
S'GAC'
p5241
tp5242
I1
s(I46
S'TGT'
p5243
tp5244
I405
s(I47
S'CCA'
p5245
tp5246
I1
s(I32
S'AAC'
p5247
tp5248
I11
s(I52
S'AGA'
p5249
tp5250
I9
s(I39
S'GGC'
p5251
tp5252
I13
s(I31
S'TGC'
p5253
tp5254
I30
s(I57
S'GAC'
p5255
tp5256
I13
s(I25
S'ACT'
p5257
tp5258
I22
s(I29
S'TGC'
p5259
tp5260
I111
s(I61
S'CAG'
p5261
tp5262
I7
s(I51
S'GTA'
p5263
tp5264
I813
s(I27
S'TTA'
p5265
tp5266
I90
s(I66
S'CAG'
p5267
tp5268
I19
s(I7
S'GGT'
p5269
tp5270
I11
s(I40
S'TCT'
p5271
tp5272
I21
s(I30
S'GTA'
p5273
tp5274
I62
s(I56
S'ACG'
p5275
tp5276
I1
s(I71
S'ACG'
p5277
tp5278
I2
s(I35
S'TAT'
p5279
tp5280
I36
s(I56
S'GCC'
p5281
tp5282
I1
s(I70
S'AAG'
p5283
tp5284
I6
s(I39
S'TGC'
p5285
tp5286
I1
s(I25
S'TGG'
p5287
tp5288
I179
s(I21
S'AGC'
p5289
tp5290
I98
s(I30
S'GTG'
p5291
tp5292
I223
s(I58
S'ACA'
p5293
tp5294
I9
s(I46
S'TCT'
p5295
tp5296
I1
s(I10
S'GCC'
p5297
tp5298
I7
s(I44
S'AAG'
p5299
tp5300
I1
s(I66
S'GCG'
p5301
tp5302
I2
s(I69
S'AAC'
p5303
tp5304
I43
s(I67
S'TCT'
p5305
tp5306
I242
s(I62
S'ACT'
p5307
tp5308
I1216
s(I15
S'GTA'
p5309
tp5310
I50
s(I41
S'TTA'
p5311
tp5312
I248
s(I37
S'GGT'
p5313
tp5314
I13
s(I55
S'AAC'
p5315
tp5316
I19
s(I25
S'GTG'
p5317
tp5318
I101
s(I51
S'GGA'
p5319
tp5320
I34
s(I75
S'CTG'
p5321
tp5322
I3
s(I6
S'ATC'
p5323
tp5324
I3212
s(I8
S'GGG'
p5325
tp5326
I2
s(I65
S'AAG'
p5327
tp5328
I260
s(I45
S'GGT'
p5329
tp5330
I2376
s(I27
S'AGT'
p5331
tp5332
I2
s(I15
S'GCA'
p5333
tp5334
I10
s(I57
S'AGA'
p5335
tp5336
I6
s(I19
S'TTC'
p5337
tp5338
I27
s(I48
S'TAT'
p5339
tp5340
I5
s(I33
S'CCT'
p5341
tp5342
I23
s(I26
S'CGA'
p5343
tp5344
I14
s(I74
S'ACC'
p5345
tp5346
I4
s(I37
S'CAG'
p5347
tp5348
I819
s(I69
S'GCC'
p5349
tp5350
I3466
s(I42
S'CAG'
p5351
tp5352
I76
s(I54
S'GTC'
p5353
tp5354
I23
s(I9
S'CAA'
p5355
tp5356
I475
s(I72
S'CGG'
p5357
tp5358
I82
s(I65
S'CAC'
p5359
tp5360
I267
s(I29
S'GTG'
p5361
tp5362
I106
s(I66
S'GAC'
p5363
tp5364
I1712
s(I21
S'GCA'
p5365
tp5366
I84
s(I32
S'TCG'
p5367
tp5368
I167
s(I71
S'TGC'
p5369
tp5370
I6
s(I71
S'CAT'
p5371
tp5372
I6
s(I39
S'CCC'
p5373
tp5374
I4
s(I63
S'ACA'
p5375
tp5376
I41
s(I71
S'CAA'
p5377
tp5378
I3
s(I45
S'CTT'
p5379
tp5380
I150
s(I18
S'ACT'
p5381
tp5382
I85
s(I32
S'GCA'
p5383
tp5384
I61
s(I57
S'GTT'
p5385
tp5386
I133
s(I31
S'ACA'
p5387
tp5388
I91
s(I46
S'CCC'
p5389
tp5390
I4
s(I8
S'ATG'
p5391
tp5392
I8
s(I37
S'TTT'
p5393
tp5394
I154
s(I7
S'ATG'
p5395
tp5396
I1
s(I61
S'GCT'
p5397
tp5398
I21
s(I23
S'ATA'
p5399
tp5400
I55
s(I41
S'GCC'
p5401
tp5402
I11
s(I39
S'GAA'
p5403
tp5404
I23
s(I29
S'TAG'
p5405
tp5406
I1
s(I37
S'AGT'
p5407
tp5408
I39
s(I8
S'TAT'
p5409
tp5410
I1
s(I57
S'GGA'
p5411
tp5412
I16
s(I52
S'AGG'
p5413
tp5414
I6
s(I17
S'TAT'
p5415
tp5416
I100
s(I54
S'TGG'
p5417
tp5418
I215
s(I34
S'CCG'
p5419
tp5420
I11
s(I64
S'AGT'
p5421
tp5422
I9498
s(I64
S'GCA'
p5423
tp5424
I5069
s(I24
S'CGT'
p5425
tp5426
I17
s(I17
S'GAA'
p5427
tp5428
I4
s(I11
S'CCT'
p5429
tp5430
I836
s(I4
S'TGC'
p5431
tp5432
I9
s(I17
S'ATG'
p5433
tp5434
I140
s(I72
S'CCT'
p5435
tp5436
I15
s(I60
S'AAA'
p5437
tp5438
I463
s(I57
S'CAT'
p5439
tp5440
I43
s(I3
S'CAA'
p5441
tp5442
I10
s(I63
S'GTC'
p5443
tp5444
I90
s(I60
S'TGA'
p5445
tp5446
I10
s(I41
S'ATA'
p5447
tp5448
I15
s(I64
S'GTA'
p5449
tp5450
I48
s(I6
S'GAC'
p5451
tp5452
I48
s(I23
S'ACT'
p5453
tp5454
I67
s(I18
S'GTT'
p5455
tp5456
I9
s(I39
S'AGC'
p5457
tp5458
I2
s(I38
S'GCC'
p5459
tp5460
I19
s(I64
S'AAA'
p5461
tp5462
I47
s(I12
S'TCC'
p5463
tp5464
I8
s(I65
S'TCA'
p5465
tp5466
I2
s(I3
S'AAA'
p5467
tp5468
I3
s(I54
S'ACC'
p5469
tp5470
I154
s(I3
S'CGG'
p5471
tp5472
I1
s(I41
S'TCG'
p5473
tp5474
I15
s(I21
S'TCG'
p5475
tp5476
I64
s(I36
S'GAC'
p5477
tp5478
I2
s(I3
S'CAT'
p5479
tp5480
I1
s(I49
S'CGC'
p5481
tp5482
I4
s(I24
S'GCG'
p5483
tp5484
I18
s(I37
S'TAC'
p5485
tp5486
I1
s(I28
S'AGG'
p5487
tp5488
I61
s(I49
S'GCC'
p5489
tp5490
I4413
s(I58
S'GAA'
p5491
tp5492
I40
s(I69
S'CCC'
p5493
tp5494
I26
s(I3
S'TGA'
p5495
tp5496
I19
s(I27
S'ACA'
p5497
tp5498
I15
s(I71
S'TCG'
p5499
tp5500
I1
s(I48
S'CTT'
p5501
tp5502
I29
s(I51
S'CCC'
p5503
tp5504
I18
s(I9
S'TTA'
p5505
tp5506
I46
s(I23
S'TCA'
p5507
tp5508
I45
s(I11
S'ATC'
p5509
tp5510
I31
s(I35
S'CTT'
p5511
tp5512
I30
s(I28
S'TCT'
p5513
tp5514
I76
s(I22
S'GGC'
p5515
tp5516
I251
s(I76
S'CGG'
p5517
tp5518
I2
s(I22
S'AGA'
p5519
tp5520
I42
s(I38
S'ACA'
p5521
tp5522
I142
s(I58
S'TAT'
p5523
tp5524
I17
s(I27
S'GTC'
p5525
tp5526
I23
s(I37
S'AGG'
p5527
tp5528
I59
s(I38
S'TTT'
p5529
tp5530
I187
s(I57
S'ACG'
p5531
tp5532
I29
s(I16
S'TGT'
p5533
tp5534
I119
s(I13
S'CCG'
p5535
tp5536
I1
s(I72
S'GCT'
p5537
tp5538
I121
s(I51
S'TCC'
p5539
tp5540
I268
s(I71
S'GTT'
p5541
tp5542
I1
s(I49
S'CAC'
p5543
tp5544
I801
s(I47
S'CGA'
p5545
tp5546
I2
s(I33
S'CCA'
p5547
tp5548
I7
s(I72
S'CAG'
p5549
tp5550
I37
s(I44
S'CGT'
p5551
tp5552
I1
s(I22
S'CGC'
p5553
tp5554
I26
s(I44
S'GAT'
p5555
tp5556
I2
s(I8
S'CCG'
p5557
tp5558
I4
s(I22
S'TAA'
p5559
tp5560
I3
s(I73
S'CTT'
p5561
tp5562
I236
s(I41
S'GAG'
p5563
tp5564
I2
s(I45
S'ACA'
p5565
tp5566
I2930
s(I47
S'TAC'
p5567
tp5568
I26
s(I74
S'TGC'
p5569
tp5570
I2
s(I30
S'GAC'
p5571
tp5572
I2
s(I3
S'TGC'
p5573
tp5574
I286
s(I43
S'GCC'
p5575
tp5576
I1
s(I65
S'AGA'
p5577
tp5578
I47
s(I55
S'TAC'
p5579
tp5580
I156
s(I3
S'TAA'
p5581
tp5582
I35
s(I19
S'GAG'
p5583
tp5584
I109
s(I59
S'TCT'
p5585
tp5586
I52
s(I2
S'TGC'
p5587
tp5588
I2
s(I57
S'TTT'
p5589
tp5590
I111
s(I31
S'ATC'
p5591
tp5592
I167
s(I55
S'TCG'
p5593
tp5594
I171
s(I13
S'TCT'
p5595
tp5596
I3
s(I8
S'TTA'
p5597
tp5598
I14
s(I9
S'AGC'
p5599
tp5600
I286
s(I46
S'CTT'
p5601
tp5602
I34
s(I18
S'ACC'
p5603
tp5604
I101
s(I32
S'GCT'
p5605
tp5606
I26
s(I66
S'CGG'
p5607
tp5608
I2
s(I16
S'TCC'
p5609
tp5610
I50
s(I31
S'CCG'
p5611
tp5612
I5
s(I33
S'ATT'
p5613
tp5614
I31
s(I13
S'AGG'
p5615
tp5616
I154
s(I57
S'GTA'
p5617
tp5618
I28
s(I29
S'ACG'
p5619
tp5620
I161
s(I21
S'TTC'
p5621
tp5622
I22
s(I55
S'TGC'
p5623
tp5624
I42
s(I19
S'ATT'
p5625
tp5626
I8
s(I25
S'GAT'
p5627
tp5628
I2
s(I64
S'GCT'
p5629
tp5630
I1474
s(I19
S'TAG'
p5631
tp5632
I3
s(I44
S'GTG'
p5633
tp5634
I8
s(I58
S'GGC'
p5635
tp5636
I1
s(I34
S'GAT'
p5637
tp5638
I110
s(I27
S'TAG'
p5639
tp5640
I7
s(I37
S'CTG'
p5641
tp5642
I69
s(I42
S'CTA'
p5643
tp5644
I14
s(I66
S'GGC'
p5645
tp5646
I89
s(I64
S'CGC'
p5647
tp5648
I215
s(I2
S'ACA'
p5649
tp5650
I5
s(I42
S'TGA'
p5651
tp5652
I9
s(I75
S'AAC'
p5653
tp5654
I1
s(I9
S'TGA'
p5655
tp5656
I2
s(I20
S'CCG'
p5657
tp5658
I70
s(I47
S'GGA'
p5659
tp5660
I6
s(I21
S'GGT'
p5661
tp5662
I32
s(I39
S'AAC'
p5663
tp5664
I6
s(I20
S'GTT'
p5665
tp5666
I69
s(I40
S'TAA'
p5667
tp5668
I1
s(I7
S'ATT'
p5669
tp5670
I109
s(I33
S'TTT'
p5671
tp5672
I23
s(I53
S'GAA'
p5673
tp5674
I11
s(I34
S'GCA'
p5675
tp5676
I4
s(I32
S'CGC'
p5677
tp5678
I21
s(I12
S'TCT'
p5679
tp5680
I4
s(I12
S'GCC'
p5681
tp5682
I1
s(I66
S'CCT'
p5683
tp5684
I525
s(I9
S'ACA'
p5685
tp5686
I130
s(I63
S'ACT'
p5687
tp5688
I95
s(I61
S'CTA'
p5689
tp5690
I86
s(I47
S'TTT'
p5691
tp5692
I5
s(I23
S'GGA'
p5693
tp5694
I1
s(I49
S'TTC'
p5695
tp5696
I4
s(I33
S'GTT'
p5697
tp5698
I24
s(I22
S'TCC'
p5699
tp5700
I104
s(I66
S'TAT'
p5701
tp5702
I42
s(I6
S'TGC'
p5703
tp5704
I717
s(I54
S'GTT'
p5705
tp5706
I93
s(I56
S'TAG'
p5707
tp5708
I11
s(I72
S'CTG'
p5709
tp5710
I39
s(I44
S'GAA'
p5711
tp5712
I1
s(I36
S'CGC'
p5713
tp5714
I4
s(I76
S'TCG'
p5715
tp5716
I1
s(I53
S'TTG'
p5717
tp5718
I88
s(I55
S'CTC'
p5719
tp5720
I4
s(I10
S'TCG'
p5721
tp5722
I58
s(I11
S'CGT'
p5723
tp5724
I8
s(I60
S'CTA'
p5725
tp5726
I27
s(I67
S'GGG'
p5727
tp5728
I894
s(I55
S'GGT'
p5729
tp5730
I15
s(I42
S'ACC'
p5731
tp5732
I4
s(I71
S'CGA'
p5733
tp5734
I1
s(I3
S'CCG'
p5735
tp5736
I5
s(I71
S'GCC'
p5737
tp5738
I9
s(I58
S'GTT'
p5739
tp5740
I44
s(I43
S'AGG'
p5741
tp5742
I3
s(I57
S'TGC'
p5743
tp5744
I1
s(I61
S'GGA'
p5745
tp5746
I15
s(I10
S'TCT'
p5747
tp5748
I307
s(I61
S'TCT'
p5749
tp5750
I10
s(I4
S'ACT'
p5751
tp5752
I1
s(I40
S'GGA'
p5753
tp5754
I336
s(I28
S'ACA'
p5755
tp5756
I38
s(I8
S'TGA'
p5757
tp5758
I54
s(I61
S'CTC'
p5759
tp5760
I410
s(I9
S'AAT'
p5761
tp5762
I1464
s(I44
S'CGC'
p5763
tp5764
I3
s(I8
S'CTT'
p5765
tp5766
I62
s(I15
S'ATT'
p5767
tp5768
I347
s(I36
S'GTG'
p5769
tp5770
I44
s(I25
S'TTC'
p5771
tp5772
I54
s(I62
S'CTC'
p5773
tp5774
I276
s(I60
S'GGC'
p5775
tp5776
I111
s(I29
S'GCA'
p5777
tp5778
I100
s(I67
S'CTA'
p5779
tp5780
I94
s(I55
S'CGG'
p5781
tp5782
I67
s(I11
S'AAT'
p5783
tp5784
I105
s(I43
S'GTT'
p5785
tp5786
I239
s(I16
S'GGA'
p5787
tp5788
I82
s(I52
S'ACG'
p5789
tp5790
I30
s(I76
S'TCT'
p5791
tp5792
I1
s(I31
S'TCA'
p5793
tp5794
I33
s(I8
S'TTT'
p5795
tp5796
I1
s(I42
S'AAA'
p5797
tp5798
I5
s(I54
S'TCG'
p5799
tp5800
I72
s(I18
S'GGC'
p5801
tp5802
I18
s(I33
S'CTC'
p5803
tp5804
I11
s(I56
S'TGA'
p5805
tp5806
I8
s(I18
S'TTT'
p5807
tp5808
I178
s(I48
S'CCC'
p5809
tp5810
I1
s(I38
S'GCG'
p5811
tp5812
I100
s(I51
S'TTC'
p5813
tp5814
I41
s(I64
S'GGG'
p5815
tp5816
I284
s(I59
S'GCG'
p5817
tp5818
I707
s(I9
S'CGC'
p5819
tp5820
I50
s(I38
S'TCG'
p5821
tp5822
I324
s(I20
S'GAC'
p5823
tp5824
I8
s(I3
S'GAC'
p5825
tp5826
I3
s(I42
S'ACT'
p5827
tp5828
I41
s(I55
S'TAT'
p5829
tp5830
I50
s(I44
S'TAC'
p5831
tp5832
I1
s(I30
S'GGG'
p5833
tp5834
I1
s(I17
S'AAT'
p5835
tp5836
I187
s(I10
S'AAG'
p5837
tp5838
I47
s(I26
S'GCT'
p5839
tp5840
I8
s(I25
S'GAA'
p5841
tp5842
I16
s(I62
S'GCA'
p5843
tp5844
I512
s(I20
S'TTA'
p5845
tp5846
I27
s(I51
S'TTA'
p5847
tp5848
I128
s(I22
S'CCG'
p5849
tp5850
I38
s(I57
S'AAC'
p5851
tp5852
I25
s(I24
S'CCC'
p5853
tp5854
I230
s(I4
S'AGC'
p5855
tp5856
I1
s(I76
S'TGC'
p5857
tp5858
I1
s(I31
S'ACT'
p5859
tp5860
I75
s(I22
S'AAC'
p5861
tp5862
I169
s(I19
S'ACC'
p5863
tp5864
I71
s(I67
S'CTC'
p5865
tp5866
I7
s(I31
S'GCT'
p5867
tp5868
I4
s(I13
S'CTA'
p5869
tp5870
I36
s(I18
S'CTC'
p5871
tp5872
I349
s(I31
S'CGT'
p5873
tp5874
I1
s(I72
S'CTC'
p5875
tp5876
I17
s(I54
S'ACG'
p5877
tp5878
I25
s(I53
S'CAG'
p5879
tp5880
I16
s(I9
S'TTT'
p5881
tp5882
I15
s(I72
S'TGG'
p5883
tp5884
I30
s(I13
S'GAC'
p5885
tp5886
I10
s(I60
S'GTC'
p5887
tp5888
I85
s(I71
S'AAA'
p5889
tp5890
I1
s(I17
S'GCT'
p5891
tp5892
I31
s(I8
S'TAG'
p5893
tp5894
I5
s(I20
S'GCG'
p5895
tp5896
I441
s(I31
S'GTT'
p5897
tp5898
I241
s(I68
S'TCA'
p5899
tp5900
I2078
s(I66
S'TTA'
p5901
tp5902
I1810
s(I4
S'CCA'
p5903
tp5904
I1
s(I54
S'GAG'
p5905
tp5906
I88
s(I10
S'AGG'
p5907
tp5908
I42
s(I65
S'CCG'
p5909
tp5910
I324
s(I76
S'CCC'
p5911
tp5912
I5
s(I14
S'TCG'
p5913
tp5914
I20
s(I38
S'GGC'
p5915
tp5916
I39
s(I14
S'CAC'
p5917
tp5918
I9
s(I11
S'GGC'
p5919
tp5920
I47
s(I71
S'ATA'
p5921
tp5922
I1
s(I63
S'AGC'
p5923
tp5924
I26
s(I57
S'GGT'
p5925
tp5926
I41
s(I36
S'GGC'
p5927
tp5928
I5
s(I67
S'TGT'
p5929
tp5930
I14
s(I13
S'GGA'
p5931
tp5932
I1
s(I21
S'TGC'
p5933
tp5934
I32
s(I51
S'CTG'
p5935
tp5936
I358
s(I29
S'AAC'
p5937
tp5938
I34
s(I20
S'ACT'
p5939
tp5940
I276
s(I60
S'GAA'
p5941
tp5942
I31
s(I25
S'TCA'
p5943
tp5944
I8
s(I42
S'GTC'
p5945
tp5946
I72
s(I19
S'AGT'
p5947
tp5948
I200
s(I15
S'CCA'
p5949
tp5950
I5
s(I37
S'AAC'
p5951
tp5952
I31
s(I51
S'ACA'
p5953
tp5954
I16
s(I75
S'ATG'
p5955
tp5956
I1
s(I25
S'AAG'
p5957
tp5958
I2
s(I60
S'AGC'
p5959
tp5960
I16
s(I9
S'GTG'
p5961
tp5962
I112
s(I63
S'CCA'
p5963
tp5964
I116
s(I27
S'CCG'
p5965
tp5966
I3
s(I27
S'CGG'
p5967
tp5968
I22
s(I45
S'AGA'
p5969
tp5970
I175
s(I19
S'CAA'
p5971
tp5972
I179
s(I24
S'CAA'
p5973
tp5974
I9
s(I75
S'GGC'
p5975
tp5976
I14
s(I14
S'GCG'
p5977
tp5978
I19
s(I35
S'AGG'
p5979
tp5980
I289
s(I62
S'TCT'
p5981
tp5982
I199
s(I35
S'ATA'
p5983
tp5984
I111
s(I9
S'AAA'
p5985
tp5986
I1
s(I42
S'TTA'
p5987
tp5988
I4
s(I38
S'GTG'
p5989
tp5990
I5
s(I29
S'GAT'
p5991
tp5992
I1
s(I25
S'GGC'
p5993
tp5994
I23
s(I51
S'GCT'
p5995
tp5996
I5
s(I19
S'CGA'
p5997
tp5998
I434
s(I45
S'ATG'
p5999
tp6000
I2194
s(I27
S'TGC'
p6001
tp6002
I10
s(I35
S'ACC'
p6003
tp6004
I91
s(I56
S'TTC'
p6005
tp6006
I13
s(I25
S'GCG'
p6007
tp6008
I175
s(I42
S'GAC'
p6009
tp6010
I6
s(I47
S'TTG'
p6011
tp6012
I8
s(I51
S'TGG'
p6013
tp6014
I2
s(I50
S'GCG'
p6015
tp6016
I8
s(I14
S'GGA'
p6017
tp6018
I72
s(I48
S'TTG'
p6019
tp6020
I4
s(I68
S'GTA'
p6021
tp6022
I47
s(I43
S'CTG'
p6023
tp6024
I63
s(I31
S'TCT'
p6025
tp6026
I208
s(I53
S'TAG'
p6027
tp6028
I2
s(I38
S'TTA'
p6029
tp6030
I213
s(I60
S'TCC'
p6031
tp6032
I398
s(I65
S'GAG'
p6033
tp6034
I77
s(I12
S'TGC'
p6035
tp6036
I21
s(I35
S'ACG'
p6037
tp6038
I115
s(I68
S'TTC'
p6039
tp6040
I6
s(I32
S'CAT'
p6041
tp6042
I13
s(I67
S'ATA'
p6043
tp6044
I20
s(I66
S'ATC'
p6045
tp6046
I1
s(I26
S'ACA'
p6047
tp6048
I83
s(I17
S'AAA'
p6049
tp6050
I1
s(I64
S'CCA'
p6051
tp6052
I11
s(I29
S'GAC'
p6053
tp6054
I10
s(I13
S'ACT'
p6055
tp6056
I4
s(I69
S'ATC'
p6057
tp6058
I5
s(I42
S'CGC'
p6059
tp6060
I59
s(I51
S'TGA'
p6061
tp6062
I1
s(I38
S'ATT'
p6063
tp6064
I5
s(I26
S'GTC'
p6065
tp6066
I55
s(I52
S'GAT'
p6067
tp6068
I211
s(I7
S'CCC'
p6069
tp6070
I5191
s(I38
S'AAA'
p6071
tp6072
I69
s(I40
S'ATA'
p6073
tp6074
I20
s(I55
S'ATG'
p6075
tp6076
I140
s(I19
S'ACT'
p6077
tp6078
I131
s(I60
S'AGT'
p6079
tp6080
I77
s(I31
S'GCA'
p6081
tp6082
I242
s(I65
S'ATG'
p6083
tp6084
I268
s(I13
S'CTT'
p6085
tp6086
I89
s(I25
S'TAC'
p6087
tp6088
I118
s(I53
S'CGG'
p6089
tp6090
I33
s(I18
S'CTT'
p6091
tp6092
I95
s(I52
S'GTT'
p6093
tp6094
I29
s(I76
S'AGA'
p6095
tp6096
I2134
s(I29
S'CGA'
p6097
tp6098
I104
s(I14
S'CCC'
p6099
tp6100
I1
s(I62
S'TAC'
p6101
tp6102
I126
s(I6
S'CGC'
p6103
tp6104
I17
s(I31
S'ACC'
p6105
tp6106
I13
s(I47
S'CGT'
p6107
tp6108
I1
s(I56
S'GAG'
p6109
tp6110
I1
s(I39
S'ATT'
p6111
tp6112
I2
s(I40
S'TTG'
p6113
tp6114
I200
s(I42
S'GCA'
p6115
tp6116
I1304
s(I33
S'TAT'
p6117
tp6118
I2
s(I61
S'GGC'
p6119
tp6120
I3
s(I55
S'GAA'
p6121
tp6122
I124
s(I59
S'GTA'
p6123
tp6124
I3
s(I4
S'CCT'
p6125
tp6126
I3
s(I15
S'CTC'
p6127
tp6128
I5
s(I44
S'TTC'
p6129
tp6130
I94
s(I45
S'GCG'
p6131
tp6132
I3995
s(I67
S'CTT'
p6133
tp6134
I18
s(I54
S'CCT'
p6135
tp6136
I320
s(I48
S'GCA'
p6137
tp6138
I2
s(I67
S'TTG'
p6139
tp6140
I62
s(I14
S'AGA'
p6141
tp6142
I3
s(I29
S'AGT'
p6143
tp6144
I37
s(I56
S'CTT'
p6145
tp6146
I33
s(I48
S'AGA'
p6147
tp6148
I19
s(I27
S'GGC'
p6149
tp6150
I1
s(I33
S'ACA'
p6151
tp6152
I18
s(I29
S'AAT'
p6153
tp6154
I49
s(I55
S'CGT'
p6155
tp6156
I127
s(I25
S'CGC'
p6157
tp6158
I67
s(I8
S'AAG'
p6159
tp6160
I28
s(I50
S'TTT'
p6161
tp6162
I3
s(I20
S'ATG'
p6163
tp6164
I5
s(I61
S'GTT'
p6165
tp6166
I90
s(I72
S'GAC'
p6167
tp6168
I120
s(I71
S'TTC'
p6169
tp6170
I21
s(I47
S'TCA'
p6171
tp6172
I1131
s(I48
S'GTA'
p6173
tp6174
I3
s(I13
S'CAG'
p6175
tp6176
I19
s(I66
S'GCA'
p6177
tp6178
I19
s(I18
S'CAG'
p6179
tp6180
I62
s(I36
S'CAC'
p6181
tp6182
I3
s(I52
S'ATT'
p6183
tp6184
I120
s(I41
S'CAC'
p6185
tp6186
I179
s(I18
S'GAT'
p6187
tp6188
I19
s(I64
S'CAG'
p6189
tp6190
I392
s(I16
S'GGT'
p6191
tp6192
I6
s(I58
S'CTA'
p6193
tp6194
I25
s(I22
S'GCC'
p6195
tp6196
I1
s(I45
S'AAG'
p6197
tp6198
I19
s(I49
S'GCT'
p6199
tp6200
I1969
s(I58
S'TCC'
p6201
tp6202
I28
s(I5
S'TAG'
p6203
tp6204
I4
s(I73
S'CGT'
p6205
tp6206
I4
s(I47
S'GTG'
p6207
tp6208
I1
s(I46
S'CAT'
p6209
tp6210
I1826
s(I8
S'GCG'
p6211
tp6212
I5
s(I12
S'ACT'
p6213
tp6214
I14
s(I68
S'ATG'
p6215
tp6216
I13
s(I73
S'TCG'
p6217
tp6218
I1
s(I33
S'GCC'
p6219
tp6220
I7
s(I55
S'TTC'
p6221
tp6222
I7
s(I52
S'CTC'
p6223
tp6224
I4
s(I76
S'GGA'
p6225
tp6226
I116
s(I16
S'CGC'
p6227
tp6228
I89
s(I31
S'GGG'
p6229
tp6230
I226
s(I34
S'CCA'
p6231
tp6232
I1
s(I51
S'GTG'
p6233
tp6234
I102
s(I11
S'GCA'
p6235
tp6236
I1888
s(I4
S'TGG'
p6237
tp6238
I5
s(I6
S'ACA'
p6239
tp6240
I51
s(I64
S'ATC'
p6241
tp6242
I1101
s(I47
S'CCT'
p6243
tp6244
I2
s(I40
S'GCG'
p6245
tp6246
I9
s(I65
S'ACC'
p6247
tp6248
I1
s(I9
S'CTT'
p6249
tp6250
I133
s(I65
S'GCC'
p6251
tp6252
I55
s(I40
S'CCT'
p6253
tp6254
I6
s(I21
S'TAA'
p6255
tp6256
I1
s(I30
S'GCT'
p6257
tp6258
I3
s(I32
S'TGT'
p6259
tp6260
I218
s(I55
S'AGG'
p6261
tp6262
I11
s(I17
S'GGT'
p6263
tp6264
I201
s(I7
S'GGG'
p6265
tp6266
I2575
s(I63
S'AAC'
p6267
tp6268
I175
s(I18
S'CAT'
p6269
tp6270
I23
s(I17
S'CAC'
p6271
tp6272
I1
s(I75
S'GTA'
p6273
tp6274
I1
s(I25
S'CGG'
p6275
tp6276
I2
s(I69
S'AGG'
p6277
tp6278
I1
s(I40
S'GTG'
p6279
tp6280
I2
s(I40
S'CAG'
p6281
tp6282
I97
s(I9
S'GAC'
p6283
tp6284
I574
s(I65
S'GTA'
p6285
tp6286
I23
s(I72
S'AAA'
p6287
tp6288
I533
s(I48
S'TGC'
p6289
tp6290
I1
s(I24
S'CTG'
p6291
tp6292
I1
s(I20
S'CTA'
p6293
tp6294
I102
s(I13
S'ACA'
p6295
tp6296
I7
s(I37
S'ATC'
p6297
tp6298
I38
s(I3
S'GGC'
p6299
tp6300
I18
s(I6
S'GGT'
p6301
tp6302
I4461
s(I36
S'AAA'
p6303
tp6304
I2
s(I42
S'TAG'
p6305
tp6306
I4
s(I70
S'GCA'
p6307
tp6308
I1732
s(I42
S'ATT'
p6309
tp6310
I1
s(I67
S'TCA'
p6311
tp6312
I56
s(I14
S'AGT'
p6313
tp6314
I45
s(I69
S'CAC'
p6315
tp6316
I6
s(I27
S'GAA'
p6317
tp6318
I1
s(I32
S'ACG'
p6319
tp6320
I79
s(I16
S'ATC'
p6321
tp6322
I15
s(I27
S'GCC'
p6323
tp6324
I12
s(I13
S'GCT'
p6325
tp6326
I383
s(I10
S'CCT'
p6327
tp6328
I1
s(I11
S'GTG'
p6329
tp6330
I41
s(I6
S'CCA'
p6331
tp6332
I1
s(I32
S'TTT'
p6333
tp6334
I26
s(I59
S'GCT'
p6335
tp6336
I3180
s(I71
S'CAC'
p6337
tp6338
I3
s(I43
S'CAA'
p6339
tp6340
I2
s(I17
S'CTG'
p6341
tp6342
I16
s(I13
S'GTT'
p6343
tp6344
I129
s(I52
S'AAC'
p6345
tp6346
I9
s(I58
S'TAA'
p6347
tp6348
I4
s(I68
S'AAA'
p6349
tp6350
I2
s(I62
S'CCC'
p6351
tp6352
I3
s(I50
S'CAC'
p6353
tp6354
I1
s(I10
S'TAG'
p6355
tp6356
I2
s(I66
S'TAA'
p6357
tp6358
I6
s(I25
S'TGA'
p6359
tp6360
I1
s(I30
S'TAC'
p6361
tp6362
I74
s(I16
S'ACA'
p6363
tp6364
I102
s(I5
S'CTG'
p6365
tp6366
I75
s(I29
S'GGC'
p6367
tp6368
I282
s(I44
S'AAA'
p6369
tp6370
I29
s(I40
S'GAC'
p6371
tp6372
I451
s(I57
S'CCC'
p6373
tp6374
I24
s(I73
S'TTC'
p6375
tp6376
I1
s(I17
S'GTC'
p6377
tp6378
I109
s(I7
S'AAA'
p6379
tp6380
I1
s(I53
S'TAT'
p6381
tp6382
I4
s(I4
S'CCG'
p6383
tp6384
I1
s(I33
S'AAT'
p6385
tp6386
I7
s(I24
S'CGC'
p6387
tp6388
I17
s(I34
S'AAA'
p6389
tp6390
I1
s(I26
S'TAA'
p6391
tp6392
I1
s(I61
S'GCC'
p6393
tp6394
I6
s(I18
S'TAG'
p6395
tp6396
I28
s(I4
S'GGC'
p6397
tp6398
I2
s(I31
S'GTC'
p6399
tp6400
I28
s(I4
S'TAC'
p6401
tp6402
I37
s(I34
S'CCT'
p6403
tp6404
I5
s(I44
S'GCA'
p6405
tp6406
I19
s(I24
S'AAC'
p6407
tp6408
I56
s(I50
S'ATC'
p6409
tp6410
I245
s(I47
S'GCT'
p6411
tp6412
I9
s(I29
S'CTA'
p6413
tp6414
I169
s(I35
S'GAT'
p6415
tp6416
I45
s(I34
S'CTC'
p6417
tp6418
I18
s(I23
S'GTC'
p6419
tp6420
I61
s(I11
S'CCG'
p6421
tp6422
I167
s(I72
S'CGA'
p6423
tp6424
I94
s(I72
S'CCA'
p6425
tp6426
I31
s(I21
S'GCG'
p6427
tp6428
I179
s(I48
S'CGG'
p6429
tp6430
I37
s(I67
S'CCT'
p6431
tp6432
I44
s(I7
S'CCG'
p6433
tp6434
I1034
s(I22
S'GTT'
p6435
tp6436
I25
s(I62
S'ATG'
p6437
tp6438
I936
s(I51
S'CGC'
p6439
tp6440
I1
s(I74
S'GAT'
p6441
tp6442
I1
s(I62
S'TAT'
p6443
tp6444
I388
s(I63
S'ACG'
p6445
tp6446
I3
s(I67
S'TAC'
p6447
tp6448
I1
s(I70
S'TAT'
p6449
tp6450
I1
s(I23
S'GCC'
p6451
tp6452
I2
s(I40
S'CCG'
p6453
tp6454
I60
s(I11
S'TTA'
p6455
tp6456
I44
s(I23
S'ACC'
p6457
tp6458
I37
s(I65
S'GCT'
p6459
tp6460
I640
s(I57
S'GGG'
p6461
tp6462
I148
s(I34
S'GGA'
p6463
tp6464
I104
s(I55
S'GCC'
p6465
tp6466
I13
s(I70
S'CCC'
p6467
tp6468
I2
s(I54
S'TGA'
p6469
tp6470
I13
s(I40
S'TGA'
p6471
tp6472
I12
s(I20
S'TAA'
p6473
tp6474
I13
s(I32
S'TAG'
p6475
tp6476
I10
s(I65
S'GTT'
p6477
tp6478
I751
s(I30
S'TGA'
p6479
tp6480
I1
s(I5
S'GAT'
p6481
tp6482
I2
s(I43
S'AAG'
p6483
tp6484
I1
s(I30
S'CTC'
p6485
tp6486
I111
s(I35
S'CTA'
p6487
tp6488
I288
s(I10
S'TAA'
p6489
tp6490
I3
s(I31
S'GAG'
p6491
tp6492
I371
s(I18
S'TAA'
p6493
tp6494
I1
s(I53
S'CTG'
p6495
tp6496
I43
s(I13
S'GCA'
p6497
tp6498
I307
s(I46
S'TGC'
p6499
tp6500
I525
s(I15
S'GAG'
p6501
tp6502
I3
s(I53
S'TCG'
p6503
tp6504
I104
s(I56
S'TGC'
p6505
tp6506
I58
s(I16
S'CCC'
p6507
tp6508
I85
s(I55
S'ACA'
p6509
tp6510
I256
s(I6
S'GCA'
p6511
tp6512
I146
s(I3
S'CGA'
p6513
tp6514
I7
s(I21
S'TCA'
p6515
tp6516
I280
s(I10
S'ACT'
p6517
tp6518
I1
s(I24
S'GCA'
p6519
tp6520
I38
s(I61
S'AAA'
p6521
tp6522
I7
s(I3
S'GTC'
p6523
tp6524
I24
s(I39
S'TGT'
p6525
tp6526
I6
s(I59
S'CTG'
p6527
tp6528
I2096
s(I32
S'GTG'
p6529
tp6530
I46
s(I34
S'TAC'
p6531
tp6532
I1
s(I24
S'TGC'
p6533
tp6534
I13
s(I41
S'GAA'
p6535
tp6536
I2
s(I46
S'GCA'
p6537
tp6538
I22
s(I39
S'CGC'
p6539
tp6540
I1
s(I68
S'GGA'
p6541
tp6542
I19
s(I7
S'GCG'
p6543
tp6544
I32
s(I50
S'TTG'
p6545
tp6546
I56
s(I42
S'TCA'
p6547
tp6548
I4
s(I75
S'CCC'
p6549
tp6550
I6
s(I55
S'TCT'
p6551
tp6552
I50
s(I70
S'CTT'
p6553
tp6554
I887
s(I11
S'TCC'
p6555
tp6556
I232
s(I75
S'CTT'
p6557
tp6558
I3
s(I57
S'GCA'
p6559
tp6560
I176
s(I54
S'ATT'
p6561
tp6562
I31
s(I33
S'ATA'
p6563
tp6564
I7
s(I24
S'GGT'
p6565
tp6566
I26
s(I6
S'AAT'
p6567
tp6568
I1142
s(I2
S'GAC'
p6569
tp6570
I1
s(I62
S'GTA'
p6571
tp6572
I393
s(I28
S'AGC'
p6573
tp6574
I24
s(I15
S'ACT'
p6575
tp6576
I33
s(I24
S'TTG'
p6577
tp6578
I3
s(I33
S'CCG'
p6579
tp6580
I30
s(I46
S'AAA'
p6581
tp6582
I6
s(I42
S'CAT'
p6583
tp6584
I2386
s(I49
S'TGG'
p6585
tp6586
I1
s(I15
S'CGT'
p6587
tp6588
I3
s(I22
S'ATA'
p6589
tp6590
I104
s(I21
S'ATC'
p6591
tp6592
I1
s(I7
S'GAC'
p6593
tp6594
I26
s(I3
S'ACT'
p6595
tp6596
I19
s(I9
S'GGG'
p6597
tp6598
I168
s(I4
S'CAC'
p6599
tp6600
I5
s(I5
S'TTG'
p6601
tp6602
I77
s(I23
S'CTA'
p6603
tp6604
I72
s(I28
S'TTC'
p6605
tp6606
I9
s(I52
S'ACT'
p6607
tp6608
I5
s(I75
S'ATA'
p6609
tp6610
I1
s(I49
S'GGA'
p6611
tp6612
I2141
s(I35
S'TAA'
p6613
tp6614
I6
s(I20
S'GTG'
p6615
tp6616
I168
s(I76
S'GAA'
p6617
tp6618
I1
s(I53
S'GAT'
p6619
tp6620
I6
s(I7
S'GTG'
p6621
tp6622
I78
s(I48
S'GAC'
p6623
tp6624
I18
s(I8
S'AGT'
p6625
tp6626
I2
s(I31
S'CCA'
p6627
tp6628
I1
s(I64
S'TGC'
p6629
tp6630
I547
s(I63
S'GCG'
p6631
tp6632
I6
s(I19
S'CCT'
p6633
tp6634
I19
s(I53
S'ACC'
p6635
tp6636
I126
s(I13
S'AGA'
p6637
tp6638
I29
s(I41
S'AAC'
p6639
tp6640
I38
s(I63
S'CAT'
p6641
tp6642
I148
s(I9
S'ACT'
p6643
tp6644
I172
s(I56
S'TTG'
p6645
tp6646
I126
s(I63
S'GGC'
p6647
tp6648
I2
s(I43
S'TGT'
p6649
tp6650
I8
s(I23
S'GGT'
p6651
tp6652
I10
s(I12
S'CTC'
p6653
tp6654
I4
s(I24
S'TAT'
p6655
tp6656
I43
s(I63
S'CGG'
p6657
tp6658
I102
s(I49
S'ACG'
p6659
tp6660
I1
s(I74
S'GCC'
p6661
tp6662
I10
s(I22
S'GTC'
p6663
tp6664
I186
s(I33
S'GAG'
p6665
tp6666
I11
s(I20
S'GGA'
p6667
tp6668
I76
s(I34
S'CAG'
p6669
tp6670
I31
s(I68
S'ACG'
p6671
tp6672
I477
s(I7
S'AGC'
p6673
tp6674
I42
s(I57
S'CAC'
p6675
tp6676
I47
s(I3
S'CGT'
p6677
tp6678
I2
s(I69
S'ACG'
p6679
tp6680
I17
s(I30
S'CCG'
p6681
tp6682
I1
s(I8
S'AAC'
p6683
tp6684
I3
s(I42
S'CTT'
p6685
tp6686
I11
s(I13
S'CCC'
p6687
tp6688
I1
s(I60
S'AAT'
p6689
tp6690
I4
s(I46
S'GCG'
p6691
tp6692
I258
s(I9
S'GCG'
p6693
tp6694
I91
s(I74
S'CGT'
p6695
tp6696
I52
s(I24
S'GTT'
p6697
tp6698
I19
s(I57
S'CGC'
p6699
tp6700
I12
s(I34
S'GCG'
p6701
tp6702
I2
s(I48
S'TTA'
p6703
tp6704
I16
s(I24
S'AGT'
p6705
tp6706
I25
s(I57
S'TGT'
p6707
tp6708
I41
s(I60
S'TTT'
p6709
tp6710
I35
s(I32
S'ATA'
p6711
tp6712
I54
s(I61
S'GGT'
p6713
tp6714
I6
s(I11
S'ATG'
p6715
tp6716
I61
s(I22
S'TGT'
p6717
tp6718
I65
s(I21
S'TGT'
p6719
tp6720
I132
s(I10
S'ACC'
p6721
tp6722
I1
s(I76
S'CTC'
p6723
tp6724
I8
s(I15
S'AAT'
p6725
tp6726
I1
s(I24
S'GCT'
p6727
tp6728
I2
s(I46
S'CGA'
p6729
tp6730
I976
s(I32
S'CCA'
p6731
tp6732
I21
s(I39
S'CAT'
p6733
tp6734
I125
s(I37
S'TCC'
p6735
tp6736
I100
s(I45
S'GAC'
p6737
tp6738
I19
s(I60
S'GGT'
p6739
tp6740
I209
s(I29
S'ACC'
p6741
tp6742
I6
s(I46
S'GCT'
p6743
tp6744
I5
s(I3
S'GTG'
p6745
tp6746
I392
s(I5
S'CAG'
p6747
tp6748
I1
s(I24
S'TGG'
p6749
tp6750
I4
s(I10
S'CAG'
p6751
tp6752
I18
s(I28
S'CAC'
p6753
tp6754
I4
s(I10
S'TCA'
p6755
tp6756
I33
s(I33
S'CAC'
p6757
tp6758
I21
s(I33
S'TCG'
p6759
tp6760
I16
s(I58
S'CGT'
p6761
tp6762
I59
s(I32
S'TAC'
p6763
tp6764
I20
s(I18
S'TTA'
p6765
tp6766
I470
s(I64
S'TCG'
p6767
tp6768
I7126
s(I2
S'TCA'
p6769
tp6770
I6
s(I48
S'ATA'
p6771
tp6772
I10
s(I67
S'AAC'
p6773
tp6774
I1
s(I66
S'AAG'
p6775
tp6776
I8
s(I24
S'GGC'
p6777
tp6778
I5
s(I56
S'GTT'
p6779
tp6780
I91
s(I39
S'TAC'
p6781
tp6782
I3
s(I31
S'AAC'
p6783
tp6784
I52
s(I72
S'GAG'
p6785
tp6786
I1
s(I39
S'GTA'
p6787
tp6788
I2
s(I38
S'AGG'
p6789
tp6790
I176
s(I10
S'AAT'
p6791
tp6792
I571
s(I26
S'GCA'
p6793
tp6794
I11
s(I45
S'TTA'
p6795
tp6796
I3312
s(I46
S'TTC'
p6797
tp6798
I1
s(I18
S'CCG'
p6799
tp6800
I40
s(I8
S'CCT'
p6801
tp6802
I2
s(I64
S'TGT'
p6803
tp6804
I698
s(I22
S'CCT'
p6805
tp6806
I611
s(I3
S'TGT'
p6807
tp6808
I1013
s(I67
S'GTG'
p6809
tp6810
I14
s(I69
S'GTA'
p6811
tp6812
I36
s(I69
S'CAG'
p6813
tp6814
I7
s(I29
S'GCG'
p6815
tp6816
I93
s(I61
S'CCA'
p6817
tp6818
I11
s(I37
S'CGC'
p6819
tp6820
I54
s(I34
S'TTG'
p6821
tp6822
I2
s(I10
S'TTC'
p6823
tp6824
I1
s(I57
S'TTC'
p6825
tp6826
I121
s(I29
S'AGG'
p6827
tp6828
I116
s(I73
S'AGG'
p6829
tp6830
I3
s(I67
S'GAT'
p6831
tp6832
I1
s(I39
S'ACG'
p6833
tp6834
I11
s(I47
S'ACT'
p6835
tp6836
I164
s(I47
S'AGG'
p6837
tp6838
I1
s(I74
S'GGT'
p6839
tp6840
I1
s(I11
S'TCA'
p6841
tp6842
I153
s(I42
S'TCG'
p6843
tp6844
I1
s(I63
S'TCA'
p6845
tp6846
I120
s(I68
S'TAT'
p6847
tp6848
I2
s(I53
S'AGA'
p6849
tp6850
I5
s(I26
S'CTA'
p6851
tp6852
I129
s(I19
S'CCA'
p6853
tp6854
I22
s(I46
S'GTG'
p6855
tp6856
I348
s(I22
S'CTT'
p6857
tp6858
I123
s(I25
S'AGA'
p6859
tp6860
I10
s(I26
S'AGG'
p6861
tp6862
I1
s(I74
S'TCC'
p6863
tp6864
I2
s(I24
S'TAA'
p6865
tp6866
I5
s(I4
S'GCG'
p6867
tp6868
I1
s(I70
S'GGG'
p6869
tp6870
I2
s(I41
S'GTT'
p6871
tp6872
I17
s(I30
S'GCG'
p6873
tp6874
I4
s(I71
S'TAG'
p6875
tp6876
I11
s(I31
S'TGA'
p6877
tp6878
I3
s(I20
S'TCA'
p6879
tp6880
I96
s(I6
S'TCC'
p6881
tp6882
I396
s(I23
S'CGC'
p6883
tp6884
I2
s(I52
S'TAA'
p6885
tp6886
I1
s(I19
S'AGC'
p6887
tp6888
I158
s(I15
S'CCT'
p6889
tp6890
I4
s(I35
S'GTG'
p6891
tp6892
I4
s(I35
S'CAA'
p6893
tp6894
I17
s(I21
S'GGG'
p6895
tp6896
I54
s(I10
S'TTG'
p6897
tp6898
I4
s(I57
S'CGT'
p6899
tp6900
I242
s(I33
S'TTC'
p6901
tp6902
I22
s(I11
S'TGC'
p6903
tp6904
I39
s(I70
S'CGA'
p6905
tp6906
I1
s(I17
S'GAC'
p6907
tp6908
I1
s(I23
S'AGG'
p6909
tp6910
I1
s(I27
S'CAA'
p6911
tp6912
I2
s(I45
S'AGT'
p6913
tp6914
I2593
s(I34
S'AAG'
p6915
tp6916
I5
s(I44
S'ACG'
p6917
tp6918
I1469
s(I39
S'TCA'
p6919
tp6920
I12
s(I71
S'ATG'
p6921
tp6922
I595
s(I3
S'ATA'
p6923
tp6924
I15
s(I48
S'TAG'
p6925
tp6926
I4
s(I50
S'GTT'
p6927
tp6928
I1689
s(I46
S'CGT'
p6929
tp6930
I694
s(I63
S'GAC'
p6931
tp6932
I12
s(I25
S'CCG'
p6933
tp6934
I2
s(I9
S'GAA'
p6935
tp6936
I50
s(I51
S'GCG'
p6937
tp6938
I59
s(I70
S'TTG'
p6939
tp6940
I12
s(I46
S'TCG'
p6941
tp6942
I508
s(I45
S'CAA'
p6943
tp6944
I5972
s(I11
S'GTC'
p6945
tp6946
I2
s(I19
S'AAC'
p6947
tp6948
I5
s(I56
S'TCA'
p6949
tp6950
I52
s(I37
S'CCG'
p6951
tp6952
I42
s(I50
S'GCT'
p6953
tp6954
I1
s(I54
S'CGC'
p6955
tp6956
I155
s(I54
S'GCA'
p6957
tp6958
I143
s(I55
S'TTT'
p6959
tp6960
I42
s(I11
S'CGC'
p6961
tp6962
I6
s(I49
S'AAC'
p6963
tp6964
I674
s(I13
S'CGA'
p6965
tp6966
I209
s(I51
S'TGT'
p6967
tp6968
I199
s(I39
S'GTC'
p6969
tp6970
I4
s(I66
S'AGG'
p6971
tp6972
I2
s(I74
S'AAC'
p6973
tp6974
I2
s(I6
S'TCA'
p6975
tp6976
I438
s(I20
S'GAA'
p6977
tp6978
I215
s(I13
S'AAC'
p6979
tp6980
I12
s(I52
S'CGC'
p6981
tp6982
I1
s(I72
S'CAC'
p6983
tp6984
I2115
s(I48
S'TAC'
p6985
tp6986
I31
s(I48
S'TGA'
p6987
tp6988
I8
s(I27
S'CGA'
p6989
tp6990
I75
s(I46
S'CTC'
p6991
tp6992
I86
s(I51
S'CTA'
p6993
tp6994
I169
s(I37
S'AAA'
p6995
tp6996
I79
s(I12
S'CCA'
p6997
tp6998
I149
s(I17
S'TCC'
p6999
tp7000
I145
s(I70
S'GTA'
p7001
tp7002
I49
s(I69
S'ATT'
p7003
tp7004
I14
s(I76
S'CAC'
p7005
tp7006
I3
s(I20
S'CGC'
p7007
tp7008
I455
s(I2
S'GGC'
p7009
tp7010
I3
s(I70
S'CCG'
p7011
tp7012
I9
s(I55
S'TGG'
p7013
tp7014
I4
s(I15
S'AGG'
p7015
tp7016
I2
s(I36
S'ACC'
p7017
tp7018
I6453
s(I48
S'GGG'
p7019
tp7020
I5
s(I33
S'ATG'
p7021
tp7022
I28
s(I35
S'TCA'
p7023
tp7024
I15
s(I73
S'CCG'
p7025
tp7026
I5
s(I20
S'TAC'
p7027
tp7028
I6
s(I6
S'TTG'
p7029
tp7030
I5
s(I15
S'ATA'
p7031
tp7032
I320
s(I54
S'AGC'
p7033
tp7034
I1588
s(I28
S'TAC'
p7035
tp7036
I27
s(I14
S'GGG'
p7037
tp7038
I67
s(I11
S'CAG'
p7039
tp7040
I96
s(I46
S'GAG'
p7041
tp7042
I1225
s(I31
S'GTA'
p7043
tp7044
I56
s(I11
S'CGA'
p7045
tp7046
I17
s(I38
S'ATA'
p7047
tp7048
I64
s(I35
S'TTA'
p7049
tp7050
I320
s(I3
S'TGG'
p7051
tp7052
I5
s(I7
S'ACA'
p7053
tp7054
I147
s(I4
S'GGG'
p7055
tp7056
I5
s(I28
S'CTA'
p7057
tp7058
I26
s(I55
S'GAT'
p7059
tp7060
I258
s(I43
S'ACA'
p7061
tp7062
I13
s(I15
S'CTT'
p7063
tp7064
I33
s(I74
S'TGG'
p7065
tp7066
I1
s(I17
S'AAG'
p7067
tp7068
I3
s(I18
S'TGT'
p7069
tp7070
I56
s(I38
S'TTG'
p7071
tp7072
I15
s(I30
S'TCA'
p7073
tp7074
I8
s(I31
S'ATG'
p7075
tp7076
I50
s(I18
S'CGC'
p7077
tp7078
I55
s(I72
S'ACC'
p7079
tp7080
I8
s(I58
S'GTA'
p7081
tp7082
I11
s(I70
S'TCC'
p7083
tp7084
I3
s(I6
S'GCG'
p7085
tp7086
I106
s(I31
S'ACG'
p7087
tp7088
I10
s(I70
S'CAG'
p7089
tp7090
I14
s(I22
S'AAT'
p7091
tp7092
I30
s(I75
S'CAG'
p7093
tp7094
I3
s(I67
S'CCG'
p7095
tp7096
I108
s(I2
S'TAG'
p7097
tp7098
I6
s(I61
S'GTA'
p7099
tp7100
I129
s(I35
S'GAC'
p7101
tp7102
I22
s(I48
S'GTT'
p7103
tp7104
I2
s(I29
S'CGG'
p7105
tp7106
I222
s(I11
S'GGA'
p7107
tp7108
I929
s(I57
S'TAC'
p7109
tp7110
I25
s(I6
S'GTG'
p7111
tp7112
I4655
s(I20
S'GGC'
p7113
tp7114
I38
s(I64
S'CAT'
p7115
tp7116
I337
s(I65
S'TAC'
p7117
tp7118
I1
s(I20
S'GCT'
p7119
tp7120
I67
s(I42
S'GCG'
p7121
tp7122
I19
s(I28
S'GGC'
p7123
tp7124
I44
s(I34
S'GTA'
p7125
tp7126
I11
s(I38
S'CCC'
p7127
tp7128
I184
s(I27
S'TTC'
p7129
tp7130
I63
s(I61
S'ACA'
p7131
tp7132
I7
s(I39
S'TCT'
p7133
tp7134
I5
s(I72
S'TTG'
p7135
tp7136
I17
s(I27
S'CGT'
p7137
tp7138
I126
s(I50
S'GTA'
p7139
tp7140
I101
s(I62
S'AAC'
p7141
tp7142
I51
s(I63
S'GAT'
p7143
tp7144
I46
s(I73
S'TAT'
p7145
tp7146
I8
s(I60
S'GAC'
p7147
tp7148
I395
s(I38
S'GAT'
p7149
tp7150
I222
s(I43
S'GCT'
p7151
tp7152
I2
s(I29
S'CAG'
p7153
tp7154
I117
s(I16
S'CGT'
p7155
tp7156
I97
s(I76
S'TTC'
p7157
tp7158
I3
s(I34
S'ACC'
p7159
tp7160
I38
s(I15
S'TCT'
p7161
tp7162
I3
s(I11
S'GCT'
p7163
tp7164
I804
s(I58
S'AGT'
p7165
tp7166
I13
s(I37
S'GAC'
p7167
tp7168
I114
s(I5
S'ACT'
p7169
tp7170
I27
s(I19
S'CTC'
p7171
tp7172
I46
s(I54
S'GCT'
p7173
tp7174
I351
s(I63
S'CTG'
p7175
tp7176
I193
s(I28
S'CTC'
p7177
tp7178
I620
s(I27
S'TGA'
p7179
tp7180
I2
s(I17
S'GGC'
p7181
tp7182
I78
s(I35
S'TCC'
p7183
tp7184
I106
s(I37
S'CAA'
p7185
tp7186
I253
s(I76
S'ACT'
p7187
tp7188
I4
s(I44
S'GAC'
p7189
tp7190
I1
s(I41
S'ACC'
p7191
tp7192
I3
s(I11
S'GAA'
p7193
tp7194
I882
s(I16
S'AAA'
p7195
tp7196
I6
s(I65
S'TTT'
p7197
tp7198
I11
s(I71
S'TGT'
p7199
tp7200
I1
s(I8
S'GCA'
p7201
tp7202
I15
s(I37
S'ATT'
p7203
tp7204
I168
s(I27
S'CTG'
p7205
tp7206
I96
s(I35
S'TGG'
p7207
tp7208
I23
s(I41
S'CGC'
p7209
tp7210
I1
s(I45
S'TAG'
p7211
tp7212
I2
s(I31
S'GGA'
p7213
tp7214
I432
s(I20
S'AGC'
p7215
tp7216
I183
s(I28
S'ATG'
p7217
tp7218
I143
s(I28
S'TTA'
p7219
tp7220
I103
s(I9
S'CAC'
p7221
tp7222
I1610
s(I19
S'TGG'
p7223
tp7224
I41
s(I22
S'CTG'
p7225
tp7226
I95
s(I73
S'GGT'
p7227
tp7228
I1
s(I43
S'CCC'
p7229
tp7230
I1
s(I52
S'TTC'
p7231
tp7232
I31
s(I23
S'GAT'
p7233
tp7234
I1
s(I40
S'GCA'
p7235
tp7236
I21
s(I75
S'TTG'
p7237
tp7238
I2
s(I9
S'CCT'
p7239
tp7240
I2280
s(I59
S'CTT'
p7241
tp7242
I2479
s(I28
S'CGA'
p7243
tp7244
I94
s(I43
S'CTT'
p7245
tp7246
I19
s(I10
S'GAG'
p7247
tp7248
I96
s(I25
S'ACA'
p7249
tp7250
I207
s(I61
S'CAT'
p7251
tp7252
I21
s(I37
S'TAA'
p7253
tp7254
I1
s(I7
S'GGA'
p7255
tp7256
I789
s(I32
S'GTA'
p7257
tp7258
I3
s(I67
S'GTA'
p7259
tp7260
I176
s(I65
S'CTC'
p7261
tp7262
I7
s(I40
S'GTA'
p7263
tp7264
I15
s(I27
S'AGC'
p7265
tp7266
I1
s(I21
S'CAG'
p7267
tp7268
I9
s(I67
S'GTT'
p7269
tp7270
I4
s(I61
S'TAA'
p7271
tp7272
I5
s(I9
S'TAC'
p7273
tp7274
I13
s(I61
S'ATG'
p7275
tp7276
I1070
s(I72
S'TCC'
p7277
tp7278
I178
s(I14
S'ACC'
p7279
tp7280
I251
s(I17
S'TAC'
p7281
tp7282
I75
s(I23
S'TCC'
p7283
tp7284
I2
s(I45
S'TGG'
p7285
tp7286
I628
s(I54
S'TTC'
p7287
tp7288
I35
s(I73
S'GCA'
p7289
tp7290
I6
s(I14
S'CGC'
p7291
tp7292
I10
s(I27
S'GAG'
p7293
tp7294
I1
s(I57
S'ATC'
p7295
tp7296
I96
s(I74
S'TAG'
p7297
tp7298
I8
s(I34
S'ATG'
p7299
tp7300
I2
s(I65
S'ATT'
p7301
tp7302
I108
s(I77
S'TGT'
p7303
tp7304
I54
s(I37
S'GGA'
p7305
tp7306
I34
s(I33
S'AAC'
p7307
tp7308
I9
s(I41
S'TGC'
p7309
tp7310
I36
s(I45
S'GGA'
p7311
tp7312
I39
s(I5
S'GCC'
p7313
tp7314
I1
s(I7
S'CTC'
p7315
tp7316
I23
s(I73
S'GTG'
p7317
tp7318
I746
s(I23
S'CAT'
p7319
tp7320
I35
s(I60
S'CCC'
p7321
tp7322
I1
s(I46
S'ATC'
p7323
tp7324
I71
s(I62
S'CCT'
p7325
tp7326
I962
s(I56
S'ATC'
p7327
tp7328
I210
s(I42
S'AGC'
p7329
tp7330
I1
s(I38
S'TGG'
p7331
tp7332
I158
s(I29
S'AGA'
p7333
tp7334
I20
s(I47
S'GCG'
p7335
tp7336
I102
s(I69
S'GCT'
p7337
tp7338
I1
s(I5
S'GTA'
p7339
tp7340
I73
s(I66
S'GGT'
p7341
tp7342
I215
s(I35
S'CCG'
p7343
tp7344
I132
s(I17
S'ACG'
p7345
tp7346
I20
s(I19
S'TGA'
p7347
tp7348
I2
s(I46
S'ATA'
p7349
tp7350
I452
s(I44
S'TTT'
p7351
tp7352
I15
s(I73
S'TGA'
p7353
tp7354
I1
s(I20
S'CAC'
p7355
tp7356
I57
s(I25
S'CAC'
p7357
tp7358
I93
s(I48
S'TCC'
p7359
tp7360
I28
s(I48
S'ACT'
p7361
tp7362
I6
s(I24
S'CAC'
p7363
tp7364
I1
s(I70
S'TAC'
p7365
tp7366
I2
s(I64
S'TAC'
p7367
tp7368
I7
s(I68
S'ACT'
p7369
tp7370
I95
s(I5
S'ACA'
p7371
tp7372
I33
s(I42
S'CCA'
p7373
tp7374
I1
s(I36
S'GCA'
p7375
tp7376
I3
s(I52
S'GTG'
p7377
tp7378
I15
s(I64
S'ACC'
p7379
tp7380
I7064
s(I52
S'TCG'
p7381
tp7382
I17
s(I61
S'TGC'
p7383
tp7384
I13
s(I53
S'TTA'
p7385
tp7386
I87
s(I53
S'AAG'
p7387
tp7388
I3
s(I36
S'CAT'
p7389
tp7390
I5
s(I8
S'CTC'
p7391
tp7392
I81
s(I24
S'ACG'
p7393
tp7394
I45
s(I25
S'ATG'
p7395
tp7396
I309
s(I74
S'ATG'
p7397
tp7398
I1
s(I54
S'TGT'
p7399
tp7400
I5
s(I51
S'TAT'
p7401
tp7402
I214
s(I44
S'CTC'
p7403
tp7404
I224
s(I64
S'AGG'
p7405
tp7406
I315
s(I36
S'CCC'
p7407
tp7408
I27
s(I22
S'GAA'
p7409
tp7410
I184
s(I48
S'TTC'
p7411
tp7412
I2
s(I73
S'CGG'
p7413
tp7414
I5
s(I18
S'AGC'
p7415
tp7416
I119
s(I68
S'TTT'
p7417
tp7418
I9
s(I51
S'CAA'
p7419
tp7420
I84
s(I48
S'CGA'
p7421
tp7422
I3
s(I5
S'GAG'
p7423
tp7424
I13
s(I41
S'CCG'
p7425
tp7426
I4
s(I73
S'TCT'
p7427
tp7428
I2
s(I64
S'TTG'
p7429
tp7430
I123
s(I14
S'ATG'
p7431
tp7432
I2
s(I69
S'TTA'
p7433
tp7434
I26
s(I50
S'GGG'
p7435
tp7436
I1
s(I41
S'ATT'
p7437
tp7438
I47
s(I51
S'GTT'
p7439
tp7440
I504
s(I61
S'AGT'
p7441
tp7442
I11
s(I32
S'ATT'
p7443
tp7444
I53
s(I8
S'ACA'
p7445
tp7446
I6
s(I66
S'GAT'
p7447
tp7448
I11954
s(I47
S'CCC'
p7449
tp7450
I1
s(I16
S'GTT'
p7451
tp7452
I25
s(I62
S'GGC'
p7453
tp7454
I481
s(I40
S'AAC'
p7455
tp7456
I99
s(I34
S'AAC'
p7457
tp7458
I5
s(I11
S'CTA'
p7459
tp7460
I14
s(I16
S'CTG'
p7461
tp7462
I9
s(I26
S'TAG'
p7463
tp7464
I27
s(I26
S'ATT'
p7465
tp7466
I105
s(I66
S'GTG'
p7467
tp7468
I72
s(I48
S'CAC'
p7469
tp7470
I24
s(I6
S'AGG'
p7471
tp7472
I10
s(I10
S'AGA'
p7473
tp7474
I29
s(I7
S'TAG'
p7475
tp7476
I6
s(I17
S'GAG'
p7477
tp7478
I1
s(I39
S'TGA'
p7479
tp7480
I12
s(I41
S'AGC'
p7481
tp7482
I98
s(I69
S'TGC'
p7483
tp7484
I1019
s(I10
S'GCA'
p7485
tp7486
I10
s(I55
S'GTG'
p7487
tp7488
I103
s(I69
S'AAA'
p7489
tp7490
I5
s(I17
S'TTA'
p7491
tp7492
I32
s(I35
S'TTT'
p7493
tp7494
I18
s(I15
S'GTC'
p7495
tp7496
I152
s(I13
S'GCG'
p7497
tp7498
I132
s(I51
S'CGG'
p7499
tp7500
I1
s(I73
S'GAT'
p7501
tp7502
I1
s(I41
S'CCC'
p7503
tp7504
I7
s(I51
S'GGC'
p7505
tp7506
I212
s(I68
S'ACA'
p7507
tp7508
I66
s(I5
S'ATG'
p7509
tp7510
I71
s(I40
S'ACG'
p7511
tp7512
I79
s(I49
S'AGG'
p7513
tp7514
I6
s(I16
S'TAT'
p7515
tp7516
I6
s(I15
S'GCC'
p7517
tp7518
I39
s(I62
S'GAC'
p7519
tp7520
I34
s(I62
S'GTT'
p7521
tp7522
I3374
s(I26
S'CCG'
p7523
tp7524
I39
s(I15
S'ACC'
p7525
tp7526
I25
s(I16
S'TAA'
p7527
tp7528
I7
s(I24
S'TTT'
p7529
tp7530
I1
s(I48
S'CTA'
p7531
tp7532
I21
s(I69
S'GCA'
p7533
tp7534
I1314
s(I42
S'CAA'
p7535
tp7536
I140
s(I74
S'AGT'
p7537
tp7538
I1
s(I15
S'CGG'
p7539
tp7540
I1
s(I73
S'CTG'
p7541
tp7542
I119
s(I65
S'CTA'
p7543
tp7544
I1
s(I9
S'TCG'
p7545
tp7546
I5
s(I32
S'CAG'
p7547
tp7548
I8
s(I44
S'TCG'
p7549
tp7550
I51
s(I52
S'CCG'
p7551
tp7552
I42
s(I54
S'TTG'
p7553
tp7554
I3
s(I40
S'GAT'
p7555
tp7556
I124
s(I59
S'TGT'
p7557
tp7558
I525
s(I58
S'AGG'
p7559
tp7560
I43
s(I53
S'TGC'
p7561
tp7562
I45
s(I36
S'TCA'
p7563
tp7564
I3
s(I32
S'GCC'
p7565
tp7566
I9
s(I42
S'CCT'
p7567
tp7568
I2
s(I46
S'CCA'
p7569
tp7570
I2
s(I35
S'AAG'
p7571
tp7572
I126
s(I46
S'AAG'
p7573
tp7574
I58
s(I17
S'CCT'
p7575
tp7576
I11
s(I58
S'ACC'
p7577
tp7578
I130
s(I34
S'ATT'
p7579
tp7580
I4
s(I39
S'GAG'
p7581
tp7582
I5
s(I33
S'GGT'
p7583
tp7584
I1
s(I3
S'CCT'
p7585
tp7586
I4
s(I63
S'CAC'
p7587
tp7588
I27
s(I68
S'GAT'
p7589
tp7590
I20
s(I51
S'TAC'
p7591
tp7592
I34
s(I19
S'ATG'
p7593
tp7594
I64
s(I64
S'GCC'
p7595
tp7596
I3125
s(I69
S'AAT'
p7597
tp7598
I150
s.