(dp0
(I38
S'CTG'
p1
tp2
I92
s(I49
S'TGA'
p3
tp4
I22
s(I47
S'ACA'
p5
tp6
I5
s(I46
S'GAC'
p7
tp8
I52912
s(I35
S'ATC'
p9
tp10
I53
s(I68
S'GTG'
p11
tp12
I170
s(I62
S'CGT'
p13
tp14
I662
s(I33
S'AAT'
p15
tp16
I10
s(I46
S'AGC'
p17
tp18
I1480
s(I3
S'CAG'
p19
tp20
I29
s(I8
S'CAG'
p21
tp22
I3
s(I41
S'ATC'
p23
tp24
I92
s(I19
S'AAA'
p25
tp26
I1018
s(I60
S'GCG'
p27
tp28
I155
s(I7
S'AAG'
p29
tp30
I1
s(I25
S'CTC'
p31
tp32
I32
s(I49
S'GGG'
p33
tp34
I3250
s(I31
S'CTA'
p35
tp36
I19
s(I4
S'TGA'
p37
tp38
I77
s(I24
S'GTG'
p39
tp40
I6
s(I34
S'AGG'
p41
tp42
I1
s(I24
S'AGA'
p43
tp44
I15
s(I18
S'GCC'
p45
tp46
I28
s(I44
S'TGT'
p47
tp48
I3826
s(I64
S'AAC'
p49
tp50
I11763
s(I12
S'TCA'
p51
tp52
I1
s(I20
S'CCT'
p53
tp54
I493
s(I4
S'GAC'
p55
tp56
I1
s(I3
S'AAC'
p57
tp58
I3
s(I75
S'TAA'
p59
tp60
I1
s(I14
S'CTC'
p61
tp62
I71
s(I36
S'GAA'
p63
tp64
I4
s(I6
S'AAA'
p65
tp66
I46
s(I36
S'CTT'
p67
tp68
I3390
s(I14
S'CGG'
p69
tp70
I21
s(I70
S'CCT'
p71
tp72
I45
s(I10
S'AGA'
p73
tp74
I16
s(I9
S'GCT'
p75
tp76
I2093
s(I19
S'TCC'
p77
tp78
I95
s(I49
S'GCA'
p79
tp80
I768
s(I30
S'GCT'
p81
tp82
I1
s(I39
S'CAC'
p83
tp84
I13
s(I58
S'GAC'
p85
tp86
I453
s(I44
S'CAC'
p87
tp88
I4
s(I49
S'ACA'
p89
tp90
I467
s(I67
S'CAG'
p91
tp92
I17
s(I50
S'CCG'
p93
tp94
I1
s(I34
S'TTA'
p95
tp96
I7
s(I27
S'TCA'
p97
tp98
I24
s(I65
S'CGC'
p99
tp100
I16
s(I9
S'TTC'
p101
tp102
I3
s(I23
S'TCG'
p103
tp104
I10
s(I11
S'ATA'
p105
tp106
I44
s(I64
S'TAT'
p107
tp108
I7
s(I52
S'GTC'
p109
tp110
I43
s(I63
S'AAA'
p111
tp112
I367
s(I31
S'TAG'
p113
tp114
I1
s(I38
S'ACC'
p115
tp116
I123
s(I3
S'TTC'
p117
tp118
I11
s(I58
S'CGA'
p119
tp120
I38
s(I13
S'TTG'
p121
tp122
I49
s(I36
S'TTC'
p123
tp124
I1
s(I33
S'CGC'
p125
tp126
I62
s(I53
S'ATT'
p127
tp128
I32
s(I32
S'ATG'
p129
tp130
I67
s(I9
S'ATG'
p131
tp132
I90
s(I11
S'CGT'
p133
tp134
I32
s(I52
S'GGA'
p135
tp136
I20
s(I46
S'TTT'
p137
tp138
I2226
s(I22
S'CGA'
p139
tp140
I119
s(I8
S'CCA'
p141
tp142
I2
s(I32
S'CTA'
p143
tp144
I406
s(I65
S'CTT'
p145
tp146
I84
s(I45
S'ACC'
p147
tp148
I1195
s(I61
S'CGT'
p149
tp150
I20
s(I65
S'AGC'
p151
tp152
I6
s(I52
S'TGG'
p153
tp154
I111
s(I61
S'CCT'
p155
tp156
I12
s(I24
S'CCA'
p157
tp158
I101
s(I6
S'TAT'
p159
tp160
I768
s(I67
S'GAC'
p161
tp162
I9
s(I18
S'ATG'
p163
tp164
I145
s(I51
S'ATA'
p165
tp166
I43
s(I29
S'TTT'
p167
tp168
I6
s(I34
S'CGT'
p169
tp170
I6
s(I57
S'CTG'
p171
tp172
I148
s(I29
S'GGG'
p173
tp174
I48
s(I28
S'GAT'
p175
tp176
I50
s(I26
S'CTT'
p177
tp178
I217
s(I51
S'AAA'
p179
tp180
I3
s(I6
S'CCC'
p181
tp182
I1
s(I40
S'AAT'
p183
tp184
I2
s(I29
S'ACA'
p185
tp186
I148
s(I15
S'TAG'
p187
tp188
I13
s(I17
S'AAC'
p189
tp190
I3
s(I26
S'GCG'
p191
tp192
I30
s(I19
S'TAA'
p193
tp194
I8
s(I41
S'TGA'
p195
tp196
I1
s(I49
S'TGT'
p197
tp198
I190
s(I58
S'GGA'
p199
tp200
I32
s(I9
S'GCG'
p201
tp202
I280
s(I27
S'TAA'
p203
tp204
I11
s(I70
S'GAT'
p205
tp206
I7
s(I74
S'TGT'
p207
tp208
I3
s(I42
S'CTG'
p209
tp210
I1
s(I66
S'GGA'
p211
tp212
I242
s(I3
S'GGT'
p213
tp214
I36
s(I35
S'AGA'
p215
tp216
I61
s(I13
S'TGT'
p217
tp218
I141
s(I2
S'ACC'
p219
tp220
I3
s(I48
S'GTG'
p221
tp222
I4
s(I26
S'TGT'
p223
tp224
I42
s(I13
S'CGC'
p225
tp226
I4
s(I66
S'AGC'
p227
tp228
I84
s(I15
S'CAA'
p229
tp230
I7
s(I47
S'GGC'
p231
tp232
I198
s(I69
S'ATA'
p233
tp234
I10
s(I12
S'ATG'
p235
tp236
I2
s(I40
S'TAC'
p237
tp238
I184
s(I31
S'CTG'
p239
tp240
I12
s(I55
S'GGC'
p241
tp242
I26
s(I49
S'CCC'
p243
tp244
I43
s(I22
S'TCG'
p245
tp246
I79
s(I38
S'GCA'
p247
tp248
I244
s(I64
S'GTC'
p249
tp250
I262
s(I10
S'CGG'
p251
tp252
I21
s(I48
S'TGG'
p253
tp254
I29
s(I75
S'CAT'
p255
tp256
I5
s(I66
S'TTT'
p257
tp258
I15
s(I44
S'ACT'
p259
tp260
I137
s(I53
S'TGA'
p261
tp262
I15
s(I14
S'TCT'
p263
tp264
I32
s(I11
S'GAT'
p265
tp266
I158
s(I20
S'AGG'
p267
tp268
I24
s(I51
S'TCC'
p269
tp270
I346
s(I66
S'CTA'
p271
tp272
I321
s(I20
S'TTC'
p273
tp274
I44
s(I65
S'TGC'
p275
tp276
I78
s(I67
S'TGG'
p277
tp278
I5
s(I11
S'GTT'
p279
tp280
I99
s(I65
S'CGT'
p281
tp282
I258
s(I20
S'ACG'
p283
tp284
I508
s(I25
S'TCT'
p285
tp286
I187
s(I19
S'GGG'
p287
tp288
I131
s(I69
S'TGT'
p289
tp290
I1234
s(I30
S'ATC'
p291
tp292
I29
s(I22
S'GTT'
p293
tp294
I32
s(I21
S'ACA'
p295
tp296
I12
s(I60
S'CTC'
p297
tp298
I35
s(I35
S'GTA'
p299
tp300
I18
s(I67
S'GGA'
p301
tp302
I685
s(I6
S'CTT'
p303
tp304
I1
s(I53
S'GTC'
p305
tp306
I6
s(I44
S'GGG'
p307
tp308
I3
s(I18
S'AAC'
p309
tp310
I59
s(I71
S'CGC'
p311
tp312
I4
s(I69
S'GGC'
p313
tp314
I1
s(I9
S'CGG'
p315
tp316
I161
s(I29
S'CAT'
p317
tp318
I8
s(I48
S'TCT'
p319
tp320
I69
s(I26
S'GAG'
p321
tp322
I1
s(I61
S'GGG'
p323
tp324
I8
s(I38
S'TCC'
p325
tp326
I280
s(I62
S'GGT'
p327
tp328
I779
s(I5
S'TCG'
p329
tp330
I2
s(I37
S'AAT'
p331
tp332
I551
s(I22
S'TGC'
p333
tp334
I36
s(I3
S'ATG'
p335
tp336
I82
s(I8
S'TGG'
p337
tp338
I6
s(I66
S'CGC'
p339
tp340
I1
s(I70
S'GTT'
p341
tp342
I162
s(I33
S'TAG'
p343
tp344
I9
s(I25
S'GGT'
p345
tp346
I26
s(I22
S'CGT'
p347
tp348
I13
s(I51
S'GCA'
p349
tp350
I109
s(I27
S'TCC'
p351
tp352
I2
s(I62
S'CTA'
p353
tp354
I575
s(I8
S'GGC'
p355
tp356
I45
s(I10
S'CAA'
p357
tp358
I109
s(I55
S'CGA'
p359
tp360
I43
s(I36
S'CGG'
p361
tp362
I2
s(I10
S'CAT'
p363
tp364
I28
s(I58
S'GTG'
p365
tp366
I38
s(I14
S'GGT'
p367
tp368
I168
s(I28
S'GTT'
p369
tp370
I80
s(I70
S'ACT'
p371
tp372
I4411
s(I42
S'TCG'
p373
tp374
I1
s(I31
S'TCG'
p375
tp376
I55
s(I41
S'GGG'
p377
tp378
I2420
s(I21
S'AAC'
p379
tp380
I23
s(I66
S'AGA'
p381
tp382
I3
s(I29
S'TTA'
p383
tp384
I66
s(I10
S'TCC'
p385
tp386
I200
s(I62
S'TGT'
p387
tp388
I392
s(I21
S'TCT'
p389
tp390
I72
s(I40
S'CTC'
p391
tp392
I1451
s(I41
S'TTT'
p393
tp394
I77
s(I30
S'CCT'
p395
tp396
I1
s(I38
S'TCA'
p397
tp398
I55
s(I10
S'AGC'
p399
tp400
I308
s(I3
S'GAA'
p401
tp402
I3
s(I14
S'TGT'
p403
tp404
I3
s(I43
S'ACT'
p405
tp406
I7
s(I67
S'ATT'
p407
tp408
I500
s(I64
S'CCT'
p409
tp410
I1
s(I18
S'TGG'
p411
tp412
I42
s(I69
S'TAC'
p413
tp414
I321
s(I25
S'GAC'
p415
tp416
I133
s(I62
S'GCG'
p417
tp418
I1696
s(I76
S'AGC'
p419
tp420
I2
s(I64
S'TGG'
p421
tp422
I11
s(I57
S'AAA'
p423
tp424
I480
s(I53
S'AGT'
p425
tp426
I13
s(I49
S'TCC'
p427
tp428
I2033
s(I6
S'GCT'
p429
tp430
I508
s(I61
S'GAG'
p431
tp432
I6
s(I19
S'ACA'
p433
tp434
I181
s(I42
S'GAA'
p435
tp436
I2
s(I42
S'GTT'
p437
tp438
I28
s(I13
S'CTG'
p439
tp440
I39
s(I18
S'CTA'
p441
tp442
I51
s(I64
S'TCC'
p443
tp444
I7655
s(I10
S'CCA'
p445
tp446
I4
s(I47
S'TCT'
p447
tp448
I416
s(I64
S'CTA'
p449
tp450
I1399
s(I66
S'CGG'
p451
tp452
I1
s(I60
S'TAC'
p453
tp454
I3
s(I20
S'GGT'
p455
tp456
I129
s(I27
S'CAA'
p457
tp458
I41
s(I20
S'GCA'
p459
tp460
I124
s(I7
S'ACG'
p461
tp462
I7
s(I28
S'GGT'
p463
tp464
I1
s(I18
S'TTC'
p465
tp466
I795
s(I5
S'GGT'
p467
tp468
I6
s(I32
S'AGG'
p469
tp470
I110
s(I36
S'TTT'
p471
tp472
I1
s(I54
S'GAA'
p473
tp474
I305
s(I14
S'TCA'
p475
tp476
I113
s(I73
S'TAA'
p477
tp478
I4
s(I63
S'AGA'
p479
tp480
I123
s(I21
S'CGT'
p481
tp482
I16
s(I38
S'GAA'
p483
tp484
I3
s(I27
S'GTG'
p485
tp486
I59
s(I13
S'GGG'
p487
tp488
I1
s(I74
S'GAT'
p489
tp490
I1
s(I69
S'CCA'
p491
tp492
I2
s(I70
S'CAA'
p493
tp494
I7
s(I27
S'TTG'
p495
tp496
I52
s(I54
S'GTA'
p497
tp498
I44
s(I71
S'CCT'
p499
tp500
I12
s(I25
S'TCC'
p501
tp502
I56
s(I61
S'GTG'
p503
tp504
I260
s(I7
S'CAT'
p505
tp506
I11
s(I74
S'GAG'
p507
tp508
I17
s(I41
S'AGG'
p509
tp510
I3
s(I50
S'ACG'
p511
tp512
I19
s(I40
S'TTA'
p513
tp514
I1026
s(I52
S'ATA'
p515
tp516
I107
s(I60
S'GTT'
p517
tp518
I836
s(I31
S'TTC'
p519
tp520
I11
s(I18
S'GAC'
p521
tp522
I30
s(I70
S'TGA'
p523
tp524
I9
s(I29
S'TCG'
p525
tp526
I191
s(I63
S'CCC'
p527
tp528
I8
s(I32
S'TTG'
p529
tp530
I327
s(I29
S'CAA'
p531
tp532
I113
s(I64
S'GAC'
p533
tp534
I1861
s(I8
S'CGG'
p535
tp536
I1
s(I45
S'AGC'
p537
tp538
I3917
s(I7
S'GCT'
p539
tp540
I461
s(I19
S'CAG'
p541
tp542
I197
s(I38
S'AAA'
p543
tp544
I139
s(I50
S'GTG'
p545
tp546
I213
s(I42
S'TTC'
p547
tp548
I110
s(I11
S'GGT'
p549
tp550
I178
s(I33
S'TGT'
p551
tp552
I10
s(I41
S'AAT'
p553
tp554
I114
s(I25
S'GGA'
p555
tp556
I8
s(I19
S'CGC'
p557
tp558
I52
s(I41
S'CTC'
p559
tp560
I1039
s(I39
S'AGA'
p561
tp562
I2
s(I19
S'TGT'
p563
tp564
I101
s(I17
S'AGA'
p565
tp566
I6
s(I73
S'GGC'
p567
tp568
I3
s(I39
S'GTG'
p569
tp570
I4
s(I53
S'GGC'
p571
tp572
I242
s(I43
S'GTA'
p573
tp574
I135
s(I9
S'CCC'
p575
tp576
I447
s(I11
S'GCG'
p577
tp578
I3267
s(I68
S'GTC'
p579
tp580
I316
s(I43
S'CTA'
p581
tp582
I370
s(I63
S'CTA'
p583
tp584
I148
s(I55
S'CAC'
p585
tp586
I42
s(I28
S'GCG'
p587
tp588
I6
s(I18
S'GGT'
p589
tp590
I484
s(I4
S'TAT'
p591
tp592
I55
s(I46
S'GCT'
p593
tp594
I39
s(I64
S'TCA'
p595
tp596
I5629
s(I58
S'TTA'
p597
tp598
I56
s(I73
S'TGG'
p599
tp600
I1
s(I13
S'TAT'
p601
tp602
I1
s(I45
S'CCG'
p603
tp604
I5
s(I63
S'TTT'
p605
tp606
I4
s(I12
S'TGA'
p607
tp608
I13
s(I40
S'GTT'
p609
tp610
I10
s(I29
S'ATA'
p611
tp612
I239
s(I3
S'CCA'
p613
tp614
I1
s(I66
S'TCG'
p615
tp616
I25
s(I19
S'CTT'
p617
tp618
I21
s(I64
S'CCC'
p619
tp620
I2
s(I12
S'TAC'
p621
tp622
I9
s(I24
S'CTT'
p623
tp624
I14
s(I36
S'GCG'
p625
tp626
I1
s(I42
S'CGA'
p627
tp628
I188
s(I6
S'GGG'
p629
tp630
I2129
s(I45
S'TTC'
p631
tp632
I17
s(I26
S'GTA'
p633
tp634
I240
s(I72
S'AGC'
p635
tp636
I290
s(I17
S'CGC'
p637
tp638
I4
s(I12
S'CCT'
p639
tp640
I81
s(I48
S'GGT'
p641
tp642
I21
s(I28
S'AAG'
p643
tp644
I3
s(I64
S'CTC'
p645
tp646
I1919
s(I31
S'GCC'
p647
tp648
I82
s(I65
S'ATA'
p649
tp650
I56
s(I53
S'AAC'
p651
tp652
I20
s(I40
S'TGA'
p653
tp654
I15
s(I10
S'CCT'
p655
tp656
I1
s(I76
S'AGG'
p657
tp658
I5
s(I14
S'CCA'
p659
tp660
I2
s(I6
S'TCG'
p661
tp662
I368
s(I41
S'CTT'
p663
tp664
I695
s(I73
S'GTT'
p665
tp666
I2944
s(I58
S'CAC'
p667
tp668
I6
s(I26
S'ACC'
p669
tp670
I194
s(I60
S'CCT'
p671
tp672
I155
s(I63
S'ATG'
p673
tp674
I43
s(I62
S'CCA'
p675
tp676
I127
s(I58
S'GCG'
p677
tp678
I11
s(I31
S'CAC'
p679
tp680
I25
s(I26
S'CGC'
p681
tp682
I1
s(I54
S'CAG'
p683
tp684
I120
s(I53
S'GGG'
p685
tp686
I329
s(I59
S'GTC'
p687
tp688
I39
s(I70
S'AGA'
p689
tp690
I374
s(I3
S'AAT'
p691
tp692
I1
s(I61
S'ATA'
p693
tp694
I173
s(I39
S'TTT'
p695
tp696
I10
s(I28
S'GGG'
p697
tp698
I118
s(I48
S'GCC'
p699
tp700
I2
s(I14
S'AGG'
p701
tp702
I4
s(I2
S'GCC'
p703
tp704
I2
s(I27
S'AAA'
p705
tp706
I39
s(I33
S'ACC'
p707
tp708
I3
s(I7
S'CGT'
p709
tp710
I1
s(I70
S'CAT'
p711
tp712
I2
s(I57
S'CCA'
p713
tp714
I59
s(I8
S'AAA'
p715
tp716
I5
s(I16
S'TGC'
p717
tp718
I59
s(I40
S'CTT'
p719
tp720
I151
s(I42
S'TGC'
p721
tp722
I13
s(I56
S'TTG'
p723
tp724
I21
s(I48
S'GTC'
p725
tp726
I10
s(I13
S'CAA'
p727
tp728
I277
s(I6
S'CCT'
p729
tp730
I5
s(I18
S'CAA'
p731
tp732
I472
s(I70
S'ACC'
p733
tp734
I317
s(I36
S'CAA'
p735
tp736
I1413
s(I49
S'TAG'
p737
tp738
I4
s(I22
S'CTA'
p739
tp740
I119
s(I8
S'GTG'
p741
tp742
I207
s(I58
S'CTG'
p743
tp744
I5
s(I22
S'GCA'
p745
tp746
I427
s(I60
S'TTC'
p747
tp748
I60
s(I38
S'TGA'
p749
tp750
I15
s(I38
S'CCT'
p751
tp752
I121
s(I52
S'AAA'
p753
tp754
I20
s(I7
S'GCA'
p755
tp756
I249
s(I58
S'CAA'
p757
tp758
I102
s(I5
S'GTG'
p759
tp760
I148
s(I18
S'AGT'
p761
tp762
I14
s(I57
S'AGC'
p763
tp764
I48
s(I17
S'ACA'
p765
tp766
I190
s(I51
S'CAT'
p767
tp768
I169
s(I41
S'AAA'
p769
tp770
I1
s(I73
S'TCA'
p771
tp772
I2
s(I66
S'CAC'
p773
tp774
I5477
s(I47
S'CTG'
p775
tp776
I1
s(I33
S'GCA'
p777
tp778
I6
s(I62
S'ATT'
p779
tp780
I891
s(I76
S'GGC'
p781
tp782
I36
s(I76
S'TTT'
p783
tp784
I4
s(I11
S'GCC'
p785
tp786
I877
s(I2
S'GAT'
p787
tp788
I1
s(I6
S'ACC'
p789
tp790
I82
s(I64
S'ATA'
p791
tp792
I38
s(I24
S'CGA'
p793
tp794
I16
s(I72
S'GGG'
p795
tp796
I829
s(I65
S'GCA'
p797
tp798
I686
s(I63
S'CTT'
p799
tp800
I20
s(I22
S'GAG'
p801
tp802
I563
s(I49
S'ATC'
p803
tp804
I141
s(I4
S'GGA'
p805
tp806
I3
s(I53
S'TCT'
p807
tp808
I60
s(I53
S'GCT'
p809
tp810
I88
s(I26
S'ATG'
p811
tp812
I16
s(I69
S'GAT'
p813
tp814
I10
s(I74
S'ATA'
p815
tp816
I33
s(I35
S'TCT'
p817
tp818
I102
s(I40
S'TCA'
p819
tp820
I45
s(I47
S'TCC'
p821
tp822
I1116
s(I14
S'TCC'
p823
tp824
I34
s(I65
S'GTG'
p825
tp826
I132
s(I72
S'AAC'
p827
tp828
I322
s(I24
S'CTA'
p829
tp830
I188
s(I38
S'ATC'
p831
tp832
I164
s(I5
S'GAA'
p833
tp834
I3
s(I34
S'TGT'
p835
tp836
I2
s(I65
S'GGG'
p837
tp838
I381
s(I36
S'AAC'
p839
tp840
I53
s(I33
S'AGC'
p841
tp842
I22
s(I70
S'GCG'
p843
tp844
I373
s(I67
S'ACT'
p845
tp846
I10699
s(I72
S'ATG'
p847
tp848
I7
s(I60
S'CGG'
p849
tp850
I281
s(I53
S'AAT'
p851
tp852
I70
s(I32
S'AAG'
p853
tp854
I12
s(I10
S'GAT'
p855
tp856
I35
s(I23
S'ATA'
p857
tp858
I74
s(I27
S'AGA'
p859
tp860
I371
s(I67
S'AAA'
p861
tp862
I3
s(I38
S'CAG'
p863
tp864
I465
s(I57
S'GAG'
p865
tp866
I6
s(I41
S'GTC'
p867
tp868
I136
s(I43
S'CAG'
p869
tp870
I1
s(I29
S'TGG'
p871
tp872
I180
s(I19
S'TTT'
p873
tp874
I73
s(I8
S'AGG'
p875
tp876
I1
s(I35
S'CCA'
p877
tp878
I91
s(I28
S'CTG'
p879
tp880
I4
s(I38
S'GAC'
p881
tp882
I2137
s(I56
S'ACC'
p883
tp884
I1
s(I71
S'ACT'
p885
tp886
I1
s(I9
S'TAT'
p887
tp888
I1
s(I25
S'TGC'
p889
tp890
I162
s(I32
S'CAT'
p891
tp892
I25
s(I16
S'ACG'
p893
tp894
I1
s(I30
S'GTC'
p895
tp896
I88
s(I29
S'GGA'
p897
tp898
I23
s(I63
S'TCG'
p899
tp900
I306
s(I44
S'AAC'
p901
tp902
I1
s(I45
S'TGT'
p903
tp904
I2329
s(I40
S'GAA'
p905
tp906
I1301
s(I64
S'GGA'
p907
tp908
I18139
s(I8
S'AAC'
p909
tp910
I2
s(I51
S'GAT'
p911
tp912
I17
s(I35
S'AGC'
p913
tp914
I62
s(I7
S'CGA'
p915
tp916
I47
s(I69
S'TTG'
p917
tp918
I245
s(I64
S'CAA'
p919
tp920
I5195
s(I16
S'TGT'
p921
tp922
I81
s(I40
S'AAG'
p923
tp924
I301
s(I33
S'AGA'
p925
tp926
I77
s(I26
S'CTG'
p927
tp928
I281
s(I5
S'ATA'
p929
tp930
I38
s(I17
S'CCC'
p931
tp932
I50
s(I61
S'GCA'
p933
tp934
I30
s(I21
S'TCA'
p935
tp936
I428
s(I75
S'CGG'
p937
tp938
I4
s(I36
S'GTT'
p939
tp940
I389
s(I46
S'TAC'
p941
tp942
I2278
s(I22
S'GCT'
p943
tp944
I132
s(I32
S'TTC'
p945
tp946
I8
s(I44
S'GCC'
p947
tp948
I18
s(I3
S'GTA'
p949
tp950
I538
s(I54
S'TAC'
p951
tp952
I230
s(I58
S'GTT'
p953
tp954
I39
s(I29
S'CTG'
p955
tp956
I48
s(I69
S'GCG'
p957
tp958
I283
s(I11
S'CCA'
p959
tp960
I1654
s(I72
S'CGC'
p961
tp962
I3
s(I72
S'CCC'
p963
tp964
I1
s(I13
S'TAC'
p965
tp966
I1
s(I44
S'GAG'
p967
tp968
I6
s(I73
S'AAC'
p969
tp970
I90
s(I43
S'ATG'
p971
tp972
I5
s(I14
S'TAG'
p973
tp974
I4
s(I58
S'AGA'
p975
tp976
I13
s(I17
S'TTG'
p977
tp978
I125
s(I76
S'CCG'
p979
tp980
I5
s(I11
S'TTG'
p981
tp982
I2
s(I23
S'ACA'
p983
tp984
I3
s(I21
S'GTC'
p985
tp986
I232
s(I46
S'CCG'
p987
tp988
I1
s(I44
S'TGC'
p989
tp990
I3572
s(I50
S'GAG'
p991
tp992
I1303
s(I63
S'GCT'
p993
tp994
I123
s(I29
S'GTC'
p995
tp996
I118
s(I35
S'GAG'
p997
tp998
I65
s(I16
S'CCG'
p999
tp1000
I122
s(I52
S'AGC'
p1001
tp1002
I6
s(I28
S'TGC'
p1003
tp1004
I75
s(I41
S'ACG'
p1005
tp1006
I146
s(I36
S'CTG'
p1007
tp1008
I1430
s(I34
S'GGG'
p1009
tp1010
I16
s(I25
S'ATT'
p1011
tp1012
I1
s(I70
S'CCA'
p1013
tp1014
I58
s(I54
S'TGC'
p1015
tp1016
I124
s(I34
S'CCC'
p1017
tp1018
I11
s(I20
S'ATG'
p1019
tp1020
I20
s(I64
S'ATT'
p1021
tp1022
I1640
s(I38
S'GTT'
p1023
tp1024
I23
s(I45
S'ATA'
p1025
tp1026
I864
s(I63
S'GTT'
p1027
tp1028
I215
s(I30
S'CAT'
p1029
tp1030
I4
s(I52
S'GCA'
p1031
tp1032
I80
s(I46
S'GGC'
p1033
tp1034
I1719
s(I53
S'CCG'
p1035
tp1036
I137
s(I53
S'GAG'
p1037
tp1038
I42
s(I32
S'TTT'
p1039
tp1040
I122
s(I74
S'CAC'
p1041
tp1042
I4
s(I35
S'GCA'
p1043
tp1044
I100
s(I35
S'CTC'
p1045
tp1046
I50
s(I68
S'AAA'
p1047
tp1048
I1
s(I10
S'TAG'
p1049
tp1050
I2
s(I18
S'ATA'
p1051
tp1052
I425
s(I23
S'GCT'
p1053
tp1054
I1
s(I38
S'ACT'
p1055
tp1056
I65
s(I6
S'GAG'
p1057
tp1058
I64
s(I24
S'GTA'
p1059
tp1060
I55
s(I16
S'TTC'
p1061
tp1062
I25
s(I3
S'ACG'
p1063
tp1064
I24
s(I48
S'GAT'
p1065
tp1066
I1
s(I24
S'AGG'
p1067
tp1068
I36
s(I24
S'TAC'
p1069
tp1070
I48
s(I33
S'TGG'
p1071
tp1072
I481
s(I50
S'ACC'
p1073
tp1074
I508
s(I3
S'CGC'
p1075
tp1076
I5
s(I21
S'TCC'
p1077
tp1078
I133
s(I59
S'CTG'
p1079
tp1080
I52
s(I55
S'GCT'
p1081
tp1082
I236
s(I24
S'GCC'
p1083
tp1084
I5
s(I32
S'CCT'
p1085
tp1086
I59
s(I15
S'ATC'
p1087
tp1088
I567
s(I30
S'GTT'
p1089
tp1090
I255
s(I38
S'GTC'
p1091
tp1092
I43
s(I17
S'GCC'
p1093
tp1094
I288
s(I62
S'CAA'
p1095
tp1096
I15
s(I54
S'CTC'
p1097
tp1098
I74
s(I72
S'ACT'
p1099
tp1100
I226
s(I35
S'GGC'
p1101
tp1102
I331
s(I21
S'AGT'
p1103
tp1104
I159
s(I51
S'CCG'
p1105
tp1106
I49
s(I61
S'CGC'
p1107
tp1108
I27
s(I41
S'GAC'
p1109
tp1110
I4
s(I46
S'GCG'
p1111
tp1112
I132
s(I68
S'GGT'
p1113
tp1114
I3
s(I38
S'AAG'
p1115
tp1116
I86
s(I6
S'TAC'
p1117
tp1118
I1045
s(I10
S'GTT'
p1119
tp1120
I1
s(I51
S'TCA'
p1121
tp1122
I126
s(I62
S'ACG'
p1123
tp1124
I1195
s(I41
S'GTG'
p1125
tp1126
I103
s(I46
S'GCA'
p1127
tp1128
I27
s(I58
S'CGG'
p1129
tp1130
I193
s(I48
S'AGT'
p1131
tp1132
I13
s(I55
S'AAT'
p1133
tp1134
I151
s(I34
S'CGA'
p1135
tp1136
I2
s(I37
S'AGC'
p1137
tp1138
I933
s(I46
S'GTG'
p1139
tp1140
I515
s(I65
S'AAT'
p1141
tp1142
I170
s(I41
S'TAT'
p1143
tp1144
I10
s(I33
S'ATC'
p1145
tp1146
I60
s(I57
S'ACC'
p1147
tp1148
I16
s(I40
S'TTT'
p1149
tp1150
I39
s(I10
S'ATG'
p1151
tp1152
I1
s(I23
S'AGT'
p1153
tp1154
I44
s(I18
S'GTC'
p1155
tp1156
I269
s(I62
S'GTG'
p1157
tp1158
I3569
s(I69
S'CGT'
p1159
tp1160
I1
s(I68
S'GGA'
p1161
tp1162
I1
s(I59
S'GGA'
p1163
tp1164
I1
s(I60
S'GAT'
p1165
tp1166
I818
s(I27
S'ATT'
p1167
tp1168
I44
s(I70
S'GAA'
p1169
tp1170
I3
s(I9
S'TCT'
p1171
tp1172
I120
s(I69
S'GTT'
p1173
tp1174
I263
s(I30
S'TCA'
p1175
tp1176
I11
s(I13
S'TGA'
p1177
tp1178
I1
s(I28
S'TTA'
p1179
tp1180
I136
s(I37
S'CGT'
p1181
tp1182
I110
s(I39
S'CCT'
p1183
tp1184
I10
s(I47
S'CAC'
p1185
tp1186
I16
s(I64
S'TTC'
p1187
tp1188
I80
s(I52
S'CAC'
p1189
tp1190
I14
s(I37
S'TGC'
p1191
tp1192
I20
s(I9
S'AGG'
p1193
tp1194
I1
s(I75
S'CCT'
p1195
tp1196
I2
s(I20
S'GTA'
p1197
tp1198
I107
s(I38
S'TAT'
p1199
tp1200
I71
s(I74
S'GGG'
p1201
tp1202
I2
s(I41
S'TCC'
p1203
tp1204
I198
s(I15
S'GGG'
p1205
tp1206
I1
s(I59
S'AGG'
p1207
tp1208
I2
s(I48
S'ATC'
p1209
tp1210
I4
s(I10
S'CGT'
p1211
tp1212
I15
s(I61
S'TTT'
p1213
tp1214
I742
s(I63
S'GCA'
p1215
tp1216
I257
s(I17
S'GGT'
p1217
tp1218
I528
s(I13
S'AGC'
p1219
tp1220
I1
s(I45
S'TCG'
p1221
tp1222
I8883
s(I11
S'GAC'
p1223
tp1224
I2261
s(I61
S'CTT'
p1225
tp1226
I280
s(I66
S'CTT'
p1227
tp1228
I4891
s(I65
S'TGT'
p1229
tp1230
I278
s(I17
S'CTC'
p1231
tp1232
I117
s(I24
S'ATG'
p1233
tp1234
I1
s(I63
S'GTC'
p1235
tp1236
I141
s(I54
S'ATC'
p1237
tp1238
I23
s(I48
S'CAC'
p1239
tp1240
I2
s(I33
S'GAA'
p1241
tp1242
I20
s(I34
S'CAA'
p1243
tp1244
I16
s(I8
S'GAG'
p1245
tp1246
I3
s(I34
S'CAG'
p1247
tp1248
I101
s(I25
S'CAT'
p1249
tp1250
I13
s(I68
S'AGG'
p1251
tp1252
I15
s(I75
S'AAG'
p1253
tp1254
I2
s(I60
S'GCT'
p1255
tp1256
I22
s(I7
S'GAA'
p1257
tp1258
I223
s(I29
S'CCG'
p1259
tp1260
I1
s(I6
S'CTC'
p1261
tp1262
I16
s(I37
S'ACC'
p1263
tp1264
I2161
s(I44
S'GTA'
p1265
tp1266
I49
s(I34
S'CGC'
p1267
tp1268
I2
s(I34
S'AGT'
p1269
tp1270
I9
s(I35
S'CGG'
p1271
tp1272
I308
s(I72
S'TCT'
p1273
tp1274
I227
s(I24
S'ATA'
p1275
tp1276
I31
s(I72
S'TAC'
p1277
tp1278
I172
s(I62
S'AGA'
p1279
tp1280
I741
s(I72
S'TCA'
p1281
tp1282
I77
s(I41
S'GCG'
p1283
tp1284
I44
s(I53
S'ACT'
p1285
tp1286
I19
s(I75
S'GAC'
p1287
tp1288
I3
s(I44
S'TGA'
p1289
tp1290
I2
s(I11
S'TGA'
p1291
tp1292
I2
s(I71
S'CTG'
p1293
tp1294
I2
s(I68
S'GTT'
p1295
tp1296
I239
s(I46
S'CGG'
p1297
tp1298
I544
s(I32
S'CCC'
p1299
tp1300
I30
s(I70
S'CGG'
p1301
tp1302
I2
s(I24
S'GGT'
p1303
tp1304
I36
s(I9
S'TTA'
p1305
tp1306
I117
s(I15
S'CCC'
p1307
tp1308
I3
s(I53
S'TAG'
p1309
tp1310
I2
s(I44
S'CAT'
p1311
tp1312
I5
s(I69
S'GTG'
p1313
tp1314
I163
s(I62
S'CAT'
p1315
tp1316
I633
s(I46
S'TGA'
p1317
tp1318
I23
s(I40
S'AGC'
p1319
tp1320
I54
s(I37
S'TAT'
p1321
tp1322
I21
s(I50
S'TGC'
p1323
tp1324
I85
s(I30
S'TTG'
p1325
tp1326
I113
s(I23
S'TAT'
p1327
tp1328
I1
s(I10
S'GTA'
p1329
tp1330
I3
s(I6
S'GTA'
p1331
tp1332
I1372
s(I55
S'ATC'
p1333
tp1334
I466
s(I28
S'CAA'
p1335
tp1336
I290
s(I28
S'GTG'
p1337
tp1338
I311
s(I33
S'TCA'
p1339
tp1340
I4
s(I44
S'GGA'
p1341
tp1342
I3
s(I32
S'CGA'
p1343
tp1344
I307
s(I62
S'TGG'
p1345
tp1346
I726
s(I20
S'TCT'
p1347
tp1348
I56
s(I35
S'ACG'
p1349
tp1350
I154
s(I71
S'GCG'
p1351
tp1352
I3
s(I15
S'AAC'
p1353
tp1354
I3
s(I41
S'TTG'
p1355
tp1356
I2728
s(I9
S'CGT'
p1357
tp1358
I93
s(I10
S'AGT'
p1359
tp1360
I67
s(I72
S'ATT'
p1361
tp1362
I14
s(I41
S'CTA'
p1363
tp1364
I212
s(I51
S'CTT'
p1365
tp1366
I290
s(I11
S'TAA'
p1367
tp1368
I3
s(I4
S'ATG'
p1369
tp1370
I37
s(I69
S'CGA'
p1371
tp1372
I1
s(I38
S'AGA'
p1373
tp1374
I162
s(I44
S'CGG'
p1375
tp1376
I1
s(I62
S'GCT'
p1377
tp1378
I332
s(I29
S'AAC'
p1379
tp1380
I58
s(I50
S'GCG'
p1381
tp1382
I33
s(I12
S'AAC'
p1383
tp1384
I7
s(I9
S'CTG'
p1385
tp1386
I73
s(I53
S'AGG'
p1387
tp1388
I8
s(I6
S'AGT'
p1389
tp1390
I220
s(I69
S'CAA'
p1391
tp1392
I6
s(I72
S'GTG'
p1393
tp1394
I10
s(I62
S'CTG'
p1395
tp1396
I90
s(I61
S'CCG'
p1397
tp1398
I2
s(I25
S'CGA'
p1399
tp1400
I79
s(I37
S'CGA'
p1401
tp1402
I259
s(I16
S'AGC'
p1403
tp1404
I156
s(I68
S'GAC'
p1405
tp1406
I17
s(I55
S'GAG'
p1407
tp1408
I119
s(I12
S'CCG'
p1409
tp1410
I159
s(I24
S'TTG'
p1411
tp1412
I17
s(I67
S'AGT'
p1413
tp1414
I69
s(I19
S'ATA'
p1415
tp1416
I6
s(I37
S'TTA'
p1417
tp1418
I60
s(I59
S'GCC'
p1419
tp1420
I3563
s(I61
S'TTA'
p1421
tp1422
I605
s(I19
S'CCC'
p1423
tp1424
I155
s(I61
S'AAC'
p1425
tp1426
I10
s(I12
S'TTT'
p1427
tp1428
I26
s(I17
S'CGT'
p1429
tp1430
I2
s(I6
S'CAA'
p1431
tp1432
I133
s(I45
S'GTC'
p1433
tp1434
I19073
s(I67
S'GTT'
p1435
tp1436
I7
s(I10
S'AAC'
p1437
tp1438
I341
s(I67
S'CTT'
p1439
tp1440
I84
s(I25
S'AGC'
p1441
tp1442
I40
s(I63
S'AGT'
p1443
tp1444
I174
s(I21
S'CGC'
p1445
tp1446
I2
s(I30
S'CGT'
p1447
tp1448
I105
s(I23
S'CCG'
p1449
tp1450
I5
s(I60
S'ACC'
p1451
tp1452
I120
s(I57
S'AAG'
p1453
tp1454
I99
s(I34
S'GAG'
p1455
tp1456
I41
s(I55
S'AAC'
p1457
tp1458
I392
s(I72
S'AAG'
p1459
tp1460
I250
s(I76
S'TGG'
p1461
tp1462
I1
s(I31
S'AGC'
p1463
tp1464
I197
s(I20
S'TCG'
p1465
tp1466
I159
s(I71
S'CCG'
p1467
tp1468
I3
s(I41
S'TGT'
p1469
tp1470
I57
s(I7
S'CAC'
p1471
tp1472
I42
s(I19
S'AGA'
p1473
tp1474
I25
s(I10
S'ACT'
p1475
tp1476
I4
s(I35
S'CAG'
p1477
tp1478
I108
s(I28
S'TGA'
p1479
tp1480
I1
s(I10
S'TTA'
p1481
tp1482
I3
s(I72
S'TGC'
p1483
tp1484
I35
s(I60
S'GTG'
p1485
tp1486
I648
s(I11
S'AAG'
p1487
tp1488
I89
s(I21
S'ATC'
p1489
tp1490
I6
s(I16
S'TCA'
p1491
tp1492
I39
s(I6
S'TTA'
p1493
tp1494
I4
s(I3
S'AGA'
p1495
tp1496
I5
s(I31
S'TGT'
p1497
tp1498
I266
s(I70
S'GAG'
p1499
tp1500
I1
s(I24
S'CAT'
p1501
tp1502
I42
s(I48
S'TAA'
p1503
tp1504
I11
s(I60
S'CAA'
p1505
tp1506
I287
s(I46
S'TCA'
p1507
tp1508
I719
s(I11
S'GGG'
p1509
tp1510
I117
s(I73
S'TAG'
p1511
tp1512
I4
s(I30
S'TCG'
p1513
tp1514
I1
s(I71
S'CAT'
p1515
tp1516
I6
s(I66
S'TGT'
p1517
tp1518
I1
s(I14
S'GCC'
p1519
tp1520
I5
s(I45
S'CAC'
p1521
tp1522
I810
s(I76
S'GCA'
p1523
tp1524
I2
s(I5
S'TGT'
p1525
tp1526
I841
s(I35
S'ACT'
p1527
tp1528
I215
s(I6
S'TGT'
p1529
tp1530
I22
s(I33
S'AGG'
p1531
tp1532
I19
s(I54
S'CGA'
p1533
tp1534
I28
s(I54
S'GCG'
p1535
tp1536
I63
s(I57
S'CTA'
p1537
tp1538
I394
s(I28
S'TTC'
p1539
tp1540
I7
s(I49
S'AAA'
p1541
tp1542
I234
s(I10
S'ACA'
p1543
tp1544
I14
s(I69
S'GAA'
p1545
tp1546
I7
s(I70
S'ATT'
p1547
tp1548
I14
s(I44
S'GGT'
p1549
tp1550
I1
s(I72
S'GAA'
p1551
tp1552
I7
s(I6
S'TCC'
p1553
tp1554
I593
s(I20
S'GAG'
p1555
tp1556
I104
s(I6
S'CAG'
p1557
tp1558
I335
s(I13
S'AAA'
p1559
tp1560
I158
s(I9
S'GTC'
p1561
tp1562
I10
s(I47
S'GAA'
p1563
tp1564
I10
s(I5
S'GGC'
p1565
tp1566
I7
s(I69
S'ACG'
p1567
tp1568
I233
s(I8
S'CGA'
p1569
tp1570
I5
s(I63
S'TTC'
p1571
tp1572
I51
s(I46
S'CTA'
p1573
tp1574
I102
s(I51
S'CTC'
p1575
tp1576
I213
s(I75
S'GGG'
p1577
tp1578
I28
s(I25
S'GTC'
p1579
tp1580
I98
s(I37
S'AAG'
p1581
tp1582
I1031
s(I16
S'AAT'
p1583
tp1584
I443
s(I66
S'CGT'
p1585
tp1586
I1
s(I71
S'TGG'
p1587
tp1588
I2
s(I42
S'AAT'
p1589
tp1590
I130
s(I25
S'GGG'
p1591
tp1592
I83
s(I76
S'CAA'
p1593
tp1594
I8
s(I59
S'TGG'
p1595
tp1596
I4
s(I47
S'TCA'
p1597
tp1598
I1406
s(I2
S'GGA'
p1599
tp1600
I2
s(I13
S'GTG'
p1601
tp1602
I170
s(I62
S'GAA'
p1603
tp1604
I622
s(I14
S'GTC'
p1605
tp1606
I14
s(I71
S'TCC'
p1607
tp1608
I21
s(I24
S'TTC'
p1609
tp1610
I48
s(I43
S'GTG'
p1611
tp1612
I459
s(I76
S'AGT'
p1613
tp1614
I4
s(I46
S'GAA'
p1615
tp1616
I5987
s(I3
S'GCA'
p1617
tp1618
I5891
s(I2
S'TGG'
p1619
tp1620
I1
s(I51
S'TGC'
p1621
tp1622
I7
s(I35
S'TTG'
p1623
tp1624
I60
s(I20
S'TGG'
p1625
tp1626
I337
s(I74
S'ACC'
p1627
tp1628
I2
s(I65
S'TCT'
p1629
tp1630
I158
s(I73
S'TGA'
p1631
tp1632
I3
s(I45
S'CGC'
p1633
tp1634
I461
s(I36
S'TAT'
p1635
tp1636
I12
s(I12
S'TGG'
p1637
tp1638
I1
s(I61
S'AAT'
p1639
tp1640
I38
s(I14
S'TGC'
p1641
tp1642
I69
s(I47
S'AAA'
p1643
tp1644
I1
s(I42
S'ACG'
p1645
tp1646
I19
s(I44
S'TAT'
p1647
tp1648
I3
s(I66
S'TCA'
p1649
tp1650
I5
s(I26
S'TTA'
p1651
tp1652
I34
s(I39
S'TTC'
p1653
tp1654
I76
s(I36
S'ACT'
p1655
tp1656
I5263
s(I42
S'CAG'
p1657
tp1658
I47
s(I37
S'TCG'
p1659
tp1660
I952
s(I42
S'CGG'
p1661
tp1662
I254
s(I48
S'GCT'
p1663
tp1664
I6
s(I41
S'TGG'
p1665
tp1666
I3
s(I26
S'GTG'
p1667
tp1668
I58
s(I18
S'CGA'
p1669
tp1670
I37
s(I28
S'TAT'
p1671
tp1672
I62
s(I23
S'GGC'
p1673
tp1674
I6
s(I9
S'TGC'
p1675
tp1676
I5311
s(I28
S'AAA'
p1677
tp1678
I15
s(I69
S'TAT'
p1679
tp1680
I60
s(I57
S'TCC'
p1681
tp1682
I1
s(I42
S'GTG'
p1683
tp1684
I12
s(I25
S'TAG'
p1685
tp1686
I4
s(I51
S'TTG'
p1687
tp1688
I20
s(I35
S'GAA'
p1689
tp1690
I27
s(I14
S'CCG'
p1691
tp1692
I1
s(I5
S'GCT'
p1693
tp1694
I3
s(I72
S'TGT'
p1695
tp1696
I317
s(I58
S'AAG'
p1697
tp1698
I18
s(I38
S'CGT'
p1699
tp1700
I136
s(I66
S'GAC'
p1701
tp1702
I2084
s(I40
S'TTC'
p1703
tp1704
I1
s(I31
S'GTG'
p1705
tp1706
I569
s(I4
S'CTG'
p1707
tp1708
I28
s(I9
S'CTA'
p1709
tp1710
I583
s(I2
S'CCC'
p1711
tp1712
I3
s(I61
S'ACC'
p1713
tp1714
I1
s(I2
S'CGC'
p1715
tp1716
I1
s(I43
S'AGG'
p1717
tp1718
I1
s(I5
S'GTT'
p1719
tp1720
I48
s(I25
S'ACG'
p1721
tp1722
I151
s(I60
S'TCT'
p1723
tp1724
I175
s(I73
S'ATC'
p1725
tp1726
I5585
s(I50
S'CCC'
p1727
tp1728
I1
s(I11
S'ACA'
p1729
tp1730
I1865
s(I68
S'TAG'
p1731
tp1732
I2
s(I54
S'TTA'
p1733
tp1734
I129
s(I76
S'TTA'
p1735
tp1736
I1
s(I70
S'TCT'
p1737
tp1738
I31
s(I57
S'CCG'
p1739
tp1740
I27
s(I17
S'TGG'
p1741
tp1742
I3
s(I6
S'ACT'
p1743
tp1744
I1013
s(I54
S'CGT'
p1745
tp1746
I425
s(I60
S'CCG'
p1747
tp1748
I1050
s(I36
S'GCT'
p1749
tp1750
I15
s(I12
S'GAC'
p1751
tp1752
I513
s(I40
S'GGC'
p1753
tp1754
I944
s(I36
S'CAG'
p1755
tp1756
I3707
s(I70
S'ATA'
p1757
tp1758
I22
s(I25
S'AAT'
p1759
tp1760
I194
s(I21
S'TAT'
p1761
tp1762
I49
s(I17
S'ACT'
p1763
tp1764
I209
s(I8
S'GTA'
p1765
tp1766
I266
s(I20
S'AAG'
p1767
tp1768
I175
s(I64
S'CAC'
p1769
tp1770
I193
s(I53
S'GCC'
p1771
tp1772
I76
s(I27
S'CGC'
p1773
tp1774
I105
s(I69
S'GAG'
p1775
tp1776
I29
s(I45
S'AAC'
p1777
tp1778
I7889
s(I47
S'GAT'
p1779
tp1780
I16
s(I27
S'ATC'
p1781
tp1782
I117
s(I22
S'GAT'
p1783
tp1784
I299
s(I5
S'TAC'
p1785
tp1786
I445
s(I23
S'TGA'
p1787
tp1788
I1
s(I19
S'TGC'
p1789
tp1790
I1
s(I65
S'GGC'
p1791
tp1792
I3
s(I8
S'GCC'
p1793
tp1794
I4
s(I27
S'CTA'
p1795
tp1796
I5
s(I41
S'AAG'
p1797
tp1798
I3
s(I41
S'CGA'
p1799
tp1800
I12
s(I64
S'GAA'
p1801
tp1802
I296
s(I31
S'GGC'
p1803
tp1804
I15
s(I51
S'GTC'
p1805
tp1806
I531
s(I61
S'TCG'
p1807
tp1808
I9
s(I61
S'AGA'
p1809
tp1810
I21
s(I25
S'GCT'
p1811
tp1812
I16
s(I64
S'ATG'
p1813
tp1814
I1394
s(I52
S'TTA'
p1815
tp1816
I29
s(I73
S'AGT'
p1817
tp1818
I4
s(I74
S'TCG'
p1819
tp1820
I2
s(I40
S'GCC'
p1821
tp1822
I11
s(I65
S'ATC'
p1823
tp1824
I214
s(I28
S'CGC'
p1825
tp1826
I104
s(I5
S'AGC'
p1827
tp1828
I2
s(I70
S'AAC'
p1829
tp1830
I2
s(I28
S'GCT'
p1831
tp1832
I34
s(I25
S'ACC'
p1833
tp1834
I180
s(I3
S'CTC'
p1835
tp1836
I30
s(I15
S'AAA'
p1837
tp1838
I3
s(I7
S'GGC'
p1839
tp1840
I14
s(I73
S'TGT'
p1841
tp1842
I1
s(I4
S'TTT'
p1843
tp1844
I68
s(I25
S'CGC'
p1845
tp1846
I46
s(I22
S'GGA'
p1847
tp1848
I292
s(I40
S'GTC'
p1849
tp1850
I13
s(I40
S'CAC'
p1851
tp1852
I582
s(I21
S'CAA'
p1853
tp1854
I6
s(I66
S'ATT'
p1855
tp1856
I727
s(I8
S'CTA'
p1857
tp1858
I26
s(I25
S'TGT'
p1859
tp1860
I301
s(I16
S'ACT'
p1861
tp1862
I309
s(I29
S'GGT'
p1863
tp1864
I53
s(I3
S'GGG'
p1865
tp1866
I3
s(I44
S'AAT'
p1867
tp1868
I9
s(I73
S'ACG'
p1869
tp1870
I8
s(I45
S'TGA'
p1871
tp1872
I2
s(I44
S'TCC'
p1873
tp1874
I13
s(I29
S'ATT'
p1875
tp1876
I487
s(I73
S'GCG'
p1877
tp1878
I24
s(I14
S'CGA'
p1879
tp1880
I2
s(I7
S'CCT'
p1881
tp1882
I7
s(I30
S'GAT'
p1883
tp1884
I1
s(I32
S'ACC'
p1885
tp1886
I27
s(I28
S'AAT'
p1887
tp1888
I114
s(I13
S'ACC'
p1889
tp1890
I15
s(I42
S'GAG'
p1891
tp1892
I1
s(I53
S'TAA'
p1893
tp1894
I1
s(I54
S'AAT'
p1895
tp1896
I178
s(I37
S'GGG'
p1897
tp1898
I101
s(I53
S'CGT'
p1899
tp1900
I59
s(I33
S'AAA'
p1901
tp1902
I75
s(I32
S'CTT'
p1903
tp1904
I13
s(I7
S'ATC'
p1905
tp1906
I5
s(I45
S'GGG'
p1907
tp1908
I1563
s(I5
S'GCA'
p1909
tp1910
I2
s(I27
S'AGG'
p1911
tp1912
I7
s(I49
S'AGT'
p1913
tp1914
I329
s(I5
S'CTA'
p1915
tp1916
I65
s(I56
S'ATA'
p1917
tp1918
I70
s(I33
S'TAC'
p1919
tp1920
I49
s(I26
S'CGT'
p1921
tp1922
I2
s(I47
S'GCA'
p1923
tp1924
I87
s(I29
S'CTT'
p1925
tp1926
I22
s(I70
S'CTG'
p1927
tp1928
I529
s(I16
S'GCA'
p1929
tp1930
I64
s(I72
S'CGT'
p1931
tp1932
I20
s(I33
S'CGT'
p1933
tp1934
I56
s(I27
S'ACT'
p1935
tp1936
I67
s(I5
S'CTC'
p1937
tp1938
I333
s(I65
S'GAA'
p1939
tp1940
I2468
s(I54
S'CCC'
p1941
tp1942
I1032
s(I67
S'TTT'
p1943
tp1944
I1175
s(I40
S'GAG'
p1945
tp1946
I12132
s(I41
S'GGA'
p1947
tp1948
I554
s(I62
S'TAA'
p1949
tp1950
I4
s(I36
S'AGG'
p1951
tp1952
I1
s(I58
S'GCA'
p1953
tp1954
I34
s(I2
S'GCT'
p1955
tp1956
I1
s(I70
S'TAA'
p1957
tp1958
I4
s(I24
S'GAG'
p1959
tp1960
I35
s(I5
S'ACC'
p1961
tp1962
I10
s(I36
S'GCC'
p1963
tp1964
I17
s(I46
S'CCT'
p1965
tp1966
I2
s(I35
S'AAT'
p1967
tp1968
I88
s(I64
S'ACA'
p1969
tp1970
I2792
s(I27
S'CAC'
p1971
tp1972
I17
s(I61
S'GCG'
p1973
tp1974
I42
s(I33
S'CAT'
p1975
tp1976
I3
s(I24
S'ACT'
p1977
tp1978
I24
s(I41
S'CAT'
p1979
tp1980
I4
s(I19
S'AAT'
p1981
tp1982
I147
s(I34
S'GGT'
p1983
tp1984
I1
s(I25
S'ATA'
p1985
tp1986
I171
s(I25
S'GCC'
p1987
tp1988
I10
s(I24
S'AAG'
p1989
tp1990
I7
s(I42
S'GGT'
p1991
tp1992
I250
s(I22
S'GAC'
p1993
tp1994
I342
s(I69
S'CTC'
p1995
tp1996
I230
s(I23
S'CAC'
p1997
tp1998
I1
s(I46
S'CAG'
p1999
tp2000
I1485
s(I51
S'CAG'
p2001
tp2002
I425
s(I48
S'CGC'
p2003
tp2004
I1
s(I48
S'AAA'
p2005
tp2006
I18
s(I59
S'TAG'
p2007
tp2008
I1
s(I69
S'TTC'
p2009
tp2010
I16806
s(I37
S'TTT'
p2011
tp2012
I401
s(I48
S'ACC'
p2013
tp2014
I3
s(I7
S'AAT'
p2015
tp2016
I3005
s(I23
S'GCG'
p2017
tp2018
I12
s(I51
S'TAA'
p2019
tp2020
I2
s(I8
S'ACG'
p2021
tp2022
I1
s(I18
S'TCC'
p2023
tp2024
I134
s(I66
S'CCC'
p2025
tp2026
I706
s(I73
S'AGA'
p2027
tp2028
I1
s(I72
S'GGT'
p2029
tp2030
I431
s(I62
S'GGA'
p2031
tp2032
I365
s(I60
S'CTT'
p2033
tp2034
I79
s(I51
S'ATT'
p2035
tp2036
I147
s(I39
S'GGG'
p2037
tp2038
I10
s(I61
S'GAT'
p2039
tp2040
I2
s(I11
S'CTC'
p2041
tp2042
I519
s(I16
S'CTA'
p2043
tp2044
I29
s(I61
S'CAC'
p2045
tp2046
I4
s(I70
S'AGC'
p2047
tp2048
I1
s(I36
S'CTA'
p2049
tp2050
I1284
s(I55
S'AGT'
p2051
tp2052
I23
s(I55
S'GCG'
p2053
tp2054
I4
s(I70
S'CCG'
p2055
tp2056
I2
s(I17
S'CAT'
p2057
tp2058
I101
s(I25
S'CGT'
p2059
tp2060
I4
s(I67
S'AGC'
p2061
tp2062
I112
s(I56
S'GCG'
p2063
tp2064
I4
s(I55
S'GTA'
p2065
tp2066
I28
s(I30
S'CTG'
p2067
tp2068
I195
s(I42
S'TAT'
p2069
tp2070
I1
s(I38
S'AAT'
p2071
tp2072
I358
s(I27
S'CAG'
p2073
tp2074
I23
s(I66
S'ACG'
p2075
tp2076
I252
s(I14
S'CGT'
p2077
tp2078
I8
s(I31
S'GAC'
p2079
tp2080
I3
s(I55
S'TCC'
p2081
tp2082
I19
s(I56
S'GTG'
p2083
tp2084
I112
s(I71
S'GTA'
p2085
tp2086
I17
s(I60
S'CGT'
p2087
tp2088
I21
s(I47
S'ACC'
p2089
tp2090
I21
s(I70
S'CTA'
p2091
tp2092
I267
s(I55
S'GAA'
p2093
tp2094
I189
s(I75
S'CTC'
p2095
tp2096
I1
s(I69
S'TCA'
p2097
tp2098
I104
s(I65
S'AAC'
p2099
tp2100
I494
s(I53
S'ATC'
p2101
tp2102
I25
s(I45
S'GCC'
p2103
tp2104
I4811
s(I49
S'AGA'
p2105
tp2106
I2
s(I19
S'TTG'
p2107
tp2108
I13
s(I15
S'ACA'
p2109
tp2110
I185
s(I13
S'GTC'
p2111
tp2112
I644
s(I23
S'TTA'
p2113
tp2114
I103
s(I24
S'GGG'
p2115
tp2116
I9
s(I37
S'CAC'
p2117
tp2118
I25
s(I42
S'CAC'
p2119
tp2120
I29
s(I60
S'AGT'
p2121
tp2122
I114
s(I15
S'CGA'
p2123
tp2124
I1
s(I65
S'CAG'
p2125
tp2126
I301
s(I9
S'TCA'
p2127
tp2128
I363
s(I66
S'GAG'
p2129
tp2130
I150
s(I32
S'GTC'
p2131
tp2132
I40
s(I32
S'TCC'
p2133
tp2134
I338
s(I39
S'CGG'
p2135
tp2136
I1
s(I39
S'CCG'
p2137
tp2138
I9
s(I72
S'TAT'
p2139
tp2140
I3
s(I57
S'TGT'
p2141
tp2142
I62
s(I46
S'AGA'
p2143
tp2144
I1596
s(I62
S'AGG'
p2145
tp2146
I829
s(I62
S'TCA'
p2147
tp2148
I538
s(I75
S'CCG'
p2149
tp2150
I4
s(I38
S'TAC'
p2151
tp2152
I20
s(I32
S'ATA'
p2153
tp2154
I172
s(I34
S'TAA'
p2155
tp2156
I1
s(I38
S'CTA'
p2157
tp2158
I139
s(I34
S'CGG'
p2159
tp2160
I3
s(I8
S'ATC'
p2161
tp2162
I175
s(I43
S'TGA'
p2163
tp2164
I2
s(I64
S'ACT'
p2165
tp2166
I2906
s(I15
S'TTC'
p2167
tp2168
I62
s(I71
S'TAA'
p2169
tp2170
I3
s(I15
S'GCT'
p2171
tp2172
I257
s(I7
S'TAC'
p2173
tp2174
I3
s(I63
S'CAA'
p2175
tp2176
I210
s(I68
S'CAA'
p2177
tp2178
I47
s(I15
S'TCC'
p2179
tp2180
I6
s(I67
S'CTC'
p2181
tp2182
I9
s(I19
S'TAT'
p2183
tp2184
I169
s(I18
S'ATT'
p2185
tp2186
I475
s(I49
S'TGC'
p2187
tp2188
I6
s(I27
S'TAT'
p2189
tp2190
I400
s(I18
S'GCA'
p2191
tp2192
I443
s(I28
S'ATA'
p2193
tp2194
I31
s(I21
S'GCT'
p2195
tp2196
I48
s(I7
S'AGT'
p2197
tp2198
I34
s(I28
S'TTG'
p2199
tp2200
I36
s(I59
S'TGC'
p2201
tp2202
I276
s(I13
S'CGT'
p2203
tp2204
I731
s(I60
S'GCA'
p2205
tp2206
I492
s(I25
S'CTA'
p2207
tp2208
I226
s(I51
S'ATC'
p2209
tp2210
I290
s(I76
S'CCT'
p2211
tp2212
I1
s(I23
S'AAC'
p2213
tp2214
I2
s(I75
S'ACC'
p2215
tp2216
I1
s(I21
S'GTT'
p2217
tp2218
I126
s(I16
S'GGC'
p2219
tp2220
I104
s(I15
S'GGA'
p2221
tp2222
I1
s(I12
S'TCG'
p2223
tp2224
I6
s(I54
S'ACG'
p2225
tp2226
I198
s(I53
S'ACG'
p2227
tp2228
I5
s(I36
S'GAG'
p2229
tp2230
I1
s(I67
S'CGC'
p2231
tp2232
I13
s(I45
S'TCA'
p2233
tp2234
I29884
s(I49
S'CGG'
p2235
tp2236
I1
s(I71
S'CCC'
p2237
tp2238
I11
s(I19
S'TCA'
p2239
tp2240
I67
s(I38
S'GTG'
p2241
tp2242
I18
s(I5
S'TAT'
p2243
tp2244
I68
s(I39
S'CAA'
p2245
tp2246
I7
s(I44
S'CAA'
p2247
tp2248
I1
s(I49
S'ACC'
p2249
tp2250
I13
s(I74
S'GCG'
p2251
tp2252
I1
s(I23
S'CGG'
p2253
tp2254
I1
s(I43
S'GAG'
p2255
tp2256
I1
s(I65
S'CGA'
p2257
tp2258
I475
s(I62
S'CGC'
p2259
tp2260
I80
s(I54
S'GTG'
p2261
tp2262
I16
s(I40
S'GAT'
p2263
tp2264
I164
s(I19
S'GGT'
p2265
tp2266
I1
s(I39
S'CAT'
p2267
tp2268
I189
s(I61
S'TGT'
p2269
tp2270
I91
s(I31
S'GAT'
p2271
tp2272
I48
s(I36
S'ATA'
p2273
tp2274
I219
s(I4
S'TTG'
p2275
tp2276
I13
s(I44
S'AGT'
p2277
tp2278
I3
s(I40
S'CCC'
p2279
tp2280
I5
s(I9
S'GCC'
p2281
tp2282
I249
s(I10
S'TGT'
p2283
tp2284
I8
s(I13
S'TTA'
p2285
tp2286
I24
s(I48
S'ATG'
p2287
tp2288
I24
s(I18
S'GGA'
p2289
tp2290
I263
s(I35
S'CGA'
p2291
tp2292
I16
s(I36
S'TTA'
p2293
tp2294
I3187
s(I33
S'CGA'
p2295
tp2296
I9
s(I49
S'GTC'
p2297
tp2298
I22
s(I75
S'GTT'
p2299
tp2300
I1
s(I9
S'ATA'
p2301
tp2302
I10318
s(I52
S'GGC'
p2303
tp2304
I26
s(I8
S'AGA'
p2305
tp2306
I1
s(I15
S'TAA'
p2307
tp2308
I2
s(I22
S'CGG'
p2309
tp2310
I7
s(I8
S'CCC'
p2311
tp2312
I5
s(I30
S'TCC'
p2313
tp2314
I5
s(I53
S'TCG'
p2315
tp2316
I139
s(I5
S'TCA'
p2317
tp2318
I2
s(I19
S'GAC'
p2319
tp2320
I54
s(I68
S'GCG'
p2321
tp2322
I24
s(I24
S'TGC'
p2323
tp2324
I31
s(I28
S'CAG'
p2325
tp2326
I184
s(I46
S'ATG'
p2327
tp2328
I2963
s(I75
S'TAG'
p2329
tp2330
I8
s(I3
S'CGG'
p2331
tp2332
I3
s(I62
S'TGA'
p2333
tp2334
I1
s(I63
S'TAT'
p2335
tp2336
I213
s(I9
S'CGA'
p2337
tp2338
I4
s(I23
S'ATT'
p2339
tp2340
I39
s(I41
S'TTA'
p2341
tp2342
I330
s(I12
S'GCT'
p2343
tp2344
I8
s(I58
S'TGG'
p2345
tp2346
I453
s(I66
S'AAC'
p2347
tp2348
I177
s(I71
S'TAT'
p2349
tp2350
I2
s(I68
S'TGT'
p2351
tp2352
I79
s(I68
S'AAT'
p2353
tp2354
I970
s(I7
S'TGT'
p2355
tp2356
I109
s(I72
S'GCA'
p2357
tp2358
I121
s(I29
S'ACC'
p2359
tp2360
I169
s(I39
S'ATA'
p2361
tp2362
I7
s(I69
S'CGG'
p2363
tp2364
I2
s(I36
S'GAC'
p2365
tp2366
I1
s(I70
S'TGG'
p2367
tp2368
I1
s(I3
S'GTG'
p2369
tp2370
I154
s(I19
S'TAC'
p2371
tp2372
I38
s(I18
S'CCC'
p2373
tp2374
I44
s(I44
S'GTC'
p2375
tp2376
I81
s(I58
S'GGG'
p2377
tp2378
I6
s(I53
S'AGA'
p2379
tp2380
I63
s(I27
S'TAC'
p2381
tp2382
I726
s(I9
S'GGT'
p2383
tp2384
I956
s(I66
S'GGG'
p2385
tp2386
I402
s(I72
S'GTA'
p2387
tp2388
I16
s(I64
S'CGG'
p2389
tp2390
I64
s(I65
S'AGT'
p2391
tp2392
I57
s(I37
S'CGG'
p2393
tp2394
I2
s(I64
S'TCT'
p2395
tp2396
I9516
s(I13
S'CGA'
p2397
tp2398
I244
s(I24
S'GCG'
p2399
tp2400
I93
s(I53
S'GAC'
p2401
tp2402
I18
s(I12
S'CCA'
p2403
tp2404
I191
s(I36
S'ACC'
p2405
tp2406
I1872
s(I58
S'CAT'
p2407
tp2408
I18
s(I4
S'CAG'
p2409
tp2410
I2
s(I70
S'CGT'
p2411
tp2412
I1
s(I38
S'TTG'
p2413
tp2414
I64
s(I72
S'ACC'
p2415
tp2416
I198
s(I21
S'CTG'
p2417
tp2418
I308
s(I5
S'GGA'
p2419
tp2420
I7
s(I68
S'CCT'
p2421
tp2422
I6
s(I56
S'TTT'
p2423
tp2424
I786
s(I54
S'GAT'
p2425
tp2426
I623
s(I20
S'TCA'
p2427
tp2428
I625
s(I15
S'ATG'
p2429
tp2430
I164
s(I37
S'GCC'
p2431
tp2432
I821
s(I63
S'GGT'
p2433
tp2434
I176
s(I26
S'TTC'
p2435
tp2436
I6
s(I60
S'AGC'
p2437
tp2438
I168
s(I66
S'CTG'
p2439
tp2440
I3294
s(I49
S'TTG'
p2441
tp2442
I7
s(I12
S'CTT'
p2443
tp2444
I5
s(I23
S'CCA'
p2445
tp2446
I6
s(I17
S'CTT'
p2447
tp2448
I53
s(I6
S'TGG'
p2449
tp2450
I81
s(I5
S'TGA'
p2451
tp2452
I124
s(I66
S'CAT'
p2453
tp2454
I7240
s(I69
S'CCG'
p2455
tp2456
I32
s(I71
S'CCA'
p2457
tp2458
I4
s(I19
S'GGA'
p2459
tp2460
I98
s(I53
S'TTC'
p2461
tp2462
I81
s(I19
S'AGG'
p2463
tp2464
I9
s(I61
S'TGC'
p2465
tp2466
I62
s(I14
S'AAT'
p2467
tp2468
I5
s(I32
S'TAT'
p2469
tp2470
I7
s(I35
S'GTC'
p2471
tp2472
I424
s(I67
S'GGC'
p2473
tp2474
I1603
s(I60
S'TTT'
p2475
tp2476
I47
s(I21
S'GGC'
p2477
tp2478
I12
s(I53
S'GTA'
p2479
tp2480
I1
s(I40
S'TAT'
p2481
tp2482
I101
s(I18
S'AAA'
p2483
tp2484
I74
s(I20
S'GAT'
p2485
tp2486
I209
s(I7
S'TAG'
p2487
tp2488
I5
s(I69
S'GGA'
p2489
tp2490
I1197
s(I57
S'TAA'
p2491
tp2492
I18
s(I23
S'AGC'
p2493
tp2494
I6
s(I57
S'TGG'
p2495
tp2496
I157
s(I27
S'ACA'
p2497
tp2498
I28
s(I43
S'TGC'
p2499
tp2500
I16
s(I71
S'CTT'
p2501
tp2502
I4
s(I21
S'TGG'
p2503
tp2504
I40
s(I66
S'CGA'
p2505
tp2506
I1
s(I32
S'GGA'
p2507
tp2508
I107
s(I51
S'GCC'
p2509
tp2510
I25
s(I63
S'CGC'
p2511
tp2512
I181
s(I22
S'GTG'
p2513
tp2514
I154
s(I25
S'TTG'
p2515
tp2516
I50
s(I45
S'GAT'
p2517
tp2518
I1
s(I22
S'CAT'
p2519
tp2520
I124
s(I60
S'GGG'
p2521
tp2522
I805
s(I5
S'TCT'
p2523
tp2524
I4
s(I36
S'CGA'
p2525
tp2526
I13
s(I66
S'AAG'
p2527
tp2528
I5
s(I52
S'ACC'
p2529
tp2530
I286
s(I76
S'ATC'
p2531
tp2532
I10
s(I48
S'TCG'
p2533
tp2534
I6
s(I62
S'CCG'
p2535
tp2536
I555
s(I9
S'GAC'
p2537
tp2538
I115
s(I54
S'TCC'
p2539
tp2540
I79
s(I18
S'GGG'
p2541
tp2542
I1
s(I4
S'TAA'
p2543
tp2544
I1
s(I56
S'GGC'
p2545
tp2546
I36
s(I17
S'AGT'
p2547
tp2548
I140
s(I52
S'CGG'
p2549
tp2550
I48
s(I23
S'TCA'
p2551
tp2552
I12
s(I58
S'TTT'
p2553
tp2554
I109
s(I64
S'GGC'
p2555
tp2556
I4842
s(I7
S'TCC'
p2557
tp2558
I67
s(I15
S'CAC'
p2559
tp2560
I16
s(I36
S'TAG'
p2561
tp2562
I3
s(I46
S'CTG'
p2563
tp2564
I162
s(I19
S'GTG'
p2565
tp2566
I4
s(I11
S'ATC'
p2567
tp2568
I155
s(I62
S'TTG'
p2569
tp2570
I433
s(I30
S'TGC'
p2571
tp2572
I986
s(I44
S'TAG'
p2573
tp2574
I8
s(I18
S'TGA'
p2575
tp2576
I3
s(I17
S'TCG'
p2577
tp2578
I300
s(I28
S'TCT'
p2579
tp2580
I111
s(I66
S'GTC'
p2581
tp2582
I47
s(I42
S'CGT'
p2583
tp2584
I259
s(I20
S'CGG'
p2585
tp2586
I135
s(I22
S'CCC'
p2587
tp2588
I111
s(I59
S'ACC'
p2589
tp2590
I2
s(I32
S'GGC'
p2591
tp2592
I210
s(I54
S'CAA'
p2593
tp2594
I22
s(I2
S'TCT'
p2595
tp2596
I2
s(I19
S'ACG'
p2597
tp2598
I64
s(I29
S'GCT'
p2599
tp2600
I21
s(I20
S'ATC'
p2601
tp2602
I1
s(I25
S'TAT'
p2603
tp2604
I236
s(I72
S'GAG'
p2605
tp2606
I1
s(I18
S'CTG'
p2607
tp2608
I307
s(I54
S'AGG'
p2609
tp2610
I134
s(I26
S'TGC'
p2611
tp2612
I51
s(I11
S'CAC'
p2613
tp2614
I29
s(I14
S'CCT'
p2615
tp2616
I6
s(I16
S'CAC'
p2617
tp2618
I121
s(I6
S'TTT'
p2619
tp2620
I378
s(I53
S'CAC'
p2621
tp2622
I378
s(I47
S'AGT'
p2623
tp2624
I497
s(I48
S'CCT'
p2625
tp2626
I2
s(I20
S'GCC'
p2627
tp2628
I66
s(I72
S'TAA'
p2629
tp2630
I2
s(I36
S'TGC'
p2631
tp2632
I4177
s(I16
S'TAC'
p2633
tp2634
I55
s(I39
S'GTA'
p2635
tp2636
I12
s(I70
S'AGT'
p2637
tp2638
I7
s(I54
S'GAC'
p2639
tp2640
I93
s(I65
S'CCC'
p2641
tp2642
I80
s(I67
S'CGG'
p2643
tp2644
I1
s(I37
S'TCA'
p2645
tp2646
I336
s(I63
S'AGG'
p2647
tp2648
I74
s(I74
S'TCT'
p2649
tp2650
I7
s(I36
S'GGG'
p2651
tp2652
I1
s(I60
S'ACT'
p2653
tp2654
I459
s(I18
S'CGG'
p2655
tp2656
I294
s(I70
S'TCG'
p2657
tp2658
I12
s(I9
S'GAT'
p2659
tp2660
I354
s(I29
S'AAG'
p2661
tp2662
I57
s(I70
S'CAC'
p2663
tp2664
I4
s(I36
S'GTC'
p2665
tp2666
I10
s(I62
S'AAA'
p2667
tp2668
I540
s(I8
S'AAT'
p2669
tp2670
I4
s(I53
S'CAA'
p2671
tp2672
I8
s(I7
S'GTT'
p2673
tp2674
I45
s(I41
S'AGA'
p2675
tp2676
I5
s(I75
S'ATC'
p2677
tp2678
I3
s(I42
S'TTG'
p2679
tp2680
I47
s(I57
S'TAG'
p2681
tp2682
I6
s(I52
S'ATG'
p2683
tp2684
I3
s(I27
S'TGT'
p2685
tp2686
I5
s(I8
S'GTT'
p2687
tp2688
I478
s(I6
S'GTC'
p2689
tp2690
I1373
s(I29
S'CAC'
p2691
tp2692
I93
s(I4
S'CTA'
p2693
tp2694
I73
s(I43
S'TTT'
p2695
tp2696
I90
s(I25
S'GTA'
p2697
tp2698
I66
s(I38
S'CCG'
p2699
tp2700
I93
s(I69
S'AGC'
p2701
tp2702
I742
s(I67
S'TTC'
p2703
tp2704
I2172
s(I72
S'TTC'
p2705
tp2706
I319
s(I39
S'ACC'
p2707
tp2708
I14
s(I8
S'TAA'
p2709
tp2710
I3
s(I39
S'GCG'
p2711
tp2712
I4
s(I8
S'GCT'
p2713
tp2714
I1
s(I55
S'CCT'
p2715
tp2716
I99
s(I24
S'CGG'
p2717
tp2718
I7
s(I49
S'CTA'
p2719
tp2720
I10
s(I34
S'AGA'
p2721
tp2722
I1
s(I4
S'GCC'
p2723
tp2724
I1
s(I76
S'TTG'
p2725
tp2726
I1
s(I39
S'AGG'
p2727
tp2728
I14
s(I34
S'ACG'
p2729
tp2730
I9
s(I11
S'TAT'
p2731
tp2732
I10
s(I68
S'TGA'
p2733
tp2734
I1
s(I73
S'GGA'
p2735
tp2736
I4
s(I50
S'GCC'
p2737
tp2738
I24
s(I40
S'GCT'
p2739
tp2740
I6
s(I9
S'CCA'
p2741
tp2742
I2144
s(I15
S'TTT'
p2743
tp2744
I57
s(I43
S'CTC'
p2745
tp2746
I102
s(I42
S'GAT'
p2747
tp2748
I23
s(I69
S'TTT'
p2749
tp2750
I21205
s(I63
S'CTC'
p2751
tp2752
I129
s(I55
S'CAA'
p2753
tp2754
I99
s(I28
S'GCA'
p2755
tp2756
I19
s(I76
S'CGT'
p2757
tp2758
I4
s(I68
S'TCG'
p2759
tp2760
I1478
s(I20
S'AAA'
p2761
tp2762
I219
s(I60
S'TCG'
p2763
tp2764
I585
s(I17
S'GGG'
p2765
tp2766
I290
s(I35
S'TCG'
p2767
tp2768
I28
s(I38
S'ATA'
p2769
tp2770
I114
s(I3
S'GAC'
p2771
tp2772
I1
s(I66
S'ATG'
p2773
tp2774
I374
s(I3
S'ACC'
p2775
tp2776
I5
s(I29
S'GAG'
p2777
tp2778
I153
s(I66
S'TTC'
p2779
tp2780
I16
s(I69
S'ATG'
p2781
tp2782
I210
s(I35
S'TGC'
p2783
tp2784
I204
s(I11
S'AGC'
p2785
tp2786
I2215
s(I72
S'AGA'
p2787
tp2788
I86
s(I17
S'CGA'
p2789
tp2790
I4
s(I45
S'TAC'
p2791
tp2792
I56
s(I13
S'GAG'
p2793
tp2794
I471
s(I30
S'ACA'
p2795
tp2796
I2
s(I4
S'CCC'
p2797
tp2798
I1
s(I54
S'AAA'
p2799
tp2800
I138
s(I52
S'TTG'
p2801
tp2802
I24
s(I53
S'CGC'
p2803
tp2804
I3
s(I75
S'TTC'
p2805
tp2806
I1
s(I11
S'CAT'
p2807
tp2808
I13
s(I10
S'GAC'
p2809
tp2810
I46
s(I6
S'CGG'
p2811
tp2812
I121
s(I57
S'GAT'
p2813
tp2814
I119
s(I63
S'TGC'
p2815
tp2816
I95
s(I71
S'ATT'
p2817
tp2818
I3
s(I71
S'TTG'
p2819
tp2820
I409
s(I65
S'CTG'
p2821
tp2822
I40
s(I15
S'CTG'
p2823
tp2824
I328
s(I6
S'GCC'
p2825
tp2826
I216
s(I9
S'TAG'
p2827
tp2828
I5
s(I55
S'TCA'
p2829
tp2830
I338
s(I61
S'ATC'
p2831
tp2832
I27
s(I72
S'TCG'
p2833
tp2834
I154
s(I17
S'TAG'
p2835
tp2836
I2
s(I62
S'TTT'
p2837
tp2838
I430
s(I20
S'CAA'
p2839
tp2840
I295
s(I73
S'ACA'
p2841
tp2842
I2
s(I51
S'CCA'
p2843
tp2844
I679
s(I36
S'AGT'
p2845
tp2846
I10
s(I28
S'ATC'
p2847
tp2848
I24
s(I2
S'GCA'
p2849
tp2850
I7
s(I57
S'AGT'
p2851
tp2852
I107
s(I57
S'ATG'
p2853
tp2854
I231
s(I76
S'TCC'
p2855
tp2856
I1
s(I48
S'AGA'
p2857
tp2858
I13
s(I24
S'GAT'
p2859
tp2860
I552
s(I44
S'CCT'
p2861
tp2862
I1
s(I60
S'ATC'
p2863
tp2864
I162
s(I7
S'GTC'
p2865
tp2866
I33
s(I6
S'ATT'
p2867
tp2868
I4167
s(I29
S'CGT'
p2869
tp2870
I15
s(I13
S'CAC'
p2871
tp2872
I10
s(I5
S'GCG'
p2873
tp2874
I12
s(I18
S'CAC'
p2875
tp2876
I372
s(I75
S'GCC'
p2877
tp2878
I2
s(I73
S'GTC'
p2879
tp2880
I9625
s(I41
S'CAG'
p2881
tp2882
I64
s(I75
S'CGT'
p2883
tp2884
I2
s(I22
S'ACG'
p2885
tp2886
I7
s(I19
S'AAG'
p2887
tp2888
I733
s(I46
S'TAT'
p2889
tp2890
I14102
s(I22
S'GCG'
p2891
tp2892
I2
s(I56
S'ATG'
p2893
tp2894
I2
s(I38
S'TGC'
p2895
tp2896
I1
s(I54
S'TAT'
p2897
tp2898
I63
s(I7
S'GCC'
p2899
tp2900
I4
s(I9
S'GGA'
p2901
tp2902
I531
s(I21
S'CCT'
p2903
tp2904
I1
s(I17
S'ACC'
p2905
tp2906
I422
s(I27
S'TGG'
p2907
tp2908
I1
s(I48
S'CGT'
p2909
tp2910
I2
s(I63
S'TCA'
p2911
tp2912
I220
s(I32
S'TGC'
p2913
tp2914
I81
s(I73
S'TCC'
p2915
tp2916
I3
s(I20
S'CAG'
p2917
tp2918
I125
s(I33
S'GCG'
p2919
tp2920
I14
s(I73
S'AAT'
p2921
tp2922
I1
s(I52
S'CTG'
p2923
tp2924
I18
s(I62
S'TAG'
p2925
tp2926
I27
s(I16
S'CGG'
p2927
tp2928
I207
s(I72
S'ACG'
p2929
tp2930
I393
s(I70
S'TAG'
p2931
tp2932
I3
s(I45
S'CTC'
p2933
tp2934
I162
s(I17
S'TGT'
p2935
tp2936
I90
s(I8
S'ACT'
p2937
tp2938
I1
s(I37
S'GAT'
p2939
tp2940
I511
s(I42
S'TGT'
p2941
tp2942
I848
s(I61
S'TTG'
p2943
tp2944
I2525
s(I65
S'ACG'
p2945
tp2946
I368
s(I72
S'GGA'
p2947
tp2948
I444
s(I52
S'TCC'
p2949
tp2950
I18
s(I65
S'GCG'
p2951
tp2952
I33
s(I17
S'GGA'
p2953
tp2954
I389
s(I76
S'CGC'
p2955
tp2956
I1
s(I24
S'ACC'
p2957
tp2958
I143
s(I24
S'TCT'
p2959
tp2960
I58
s(I39
S'CTA'
p2961
tp2962
I20
s(I47
S'GAG'
p2963
tp2964
I13
s(I17
S'CAG'
p2965
tp2966
I32
s(I76
S'ACC'
p2967
tp2968
I5
s(I65
S'TTA'
p2969
tp2970
I32
s(I36
S'GTA'
p2971
tp2972
I1015
s(I16
S'AGT'
p2973
tp2974
I13
s(I57
S'CCT'
p2975
tp2976
I201
s(I73
S'CGC'
p2977
tp2978
I3
s(I46
S'CAA'
p2979
tp2980
I10265
s(I24
S'CTC'
p2981
tp2982
I6
s(I37
S'ATG'
p2983
tp2984
I504
s(I5
S'GAC'
p2985
tp2986
I1
s(I29
S'AGT'
p2987
tp2988
I42
s(I16
S'ATT'
p2989
tp2990
I76
s(I4
S'GAT'
p2991
tp2992
I5
s(I42
S'GGA'
p2993
tp2994
I64
s(I16
S'AAA'
p2995
tp2996
I7
s(I50
S'GGC'
p2997
tp2998
I1
s(I52
S'TGT'
p2999
tp3000
I24
s(I27
S'GCG'
p3001
tp3002
I126
s(I60
S'CGA'
p3003
tp3004
I171
s(I73
S'GAA'
p3005
tp3006
I3
s(I59
S'ATC'
p3007
tp3008
I121
s(I40
S'CCG'
p3009
tp3010
I50
s(I62
S'GGG'
p3011
tp3012
I1729
s(I55
S'TTC'
p3013
tp3014
I78
s(I38
S'CTT'
p3015
tp3016
I93
s(I39
S'GGA'
p3017
tp3018
I3
s(I43
S'AAA'
p3019
tp3020
I2
s(I21
S'GAC'
p3021
tp3022
I2
s(I57
S'GAA'
p3023
tp3024
I236
s(I30
S'GCA'
p3025
tp3026
I35
s(I29
S'TGA'
p3027
tp3028
I41
s(I51
S'TTT'
p3029
tp3030
I9
s(I32
S'GAG'
p3031
tp3032
I35
s(I35
S'CCC'
p3033
tp3034
I991
s(I28
S'CCG'
p3035
tp3036
I2
s(I56
S'ACA'
p3037
tp3038
I36
s(I53
S'CTG'
p3039
tp3040
I82
s(I56
S'GCA'
p3041
tp3042
I4
s(I54
S'CTT'
p3043
tp3044
I44
s(I59
S'CTT'
p3045
tp3046
I2356
s(I41
S'GCA'
p3047
tp3048
I58
s(I51
S'CCT'
p3049
tp3050
I137
s(I69
S'TCT'
p3051
tp3052
I70
s(I17
S'ATA'
p3053
tp3054
I37
s(I33
S'AGT'
p3055
tp3056
I12
s(I30
S'TTT'
p3057
tp3058
I564
s(I73
S'TTG'
p3059
tp3060
I509
s(I75
S'GTG'
p3061
tp3062
I1552
s(I15
S'GTG'
p3063
tp3064
I1
s(I56
S'GTA'
p3065
tp3066
I44
s(I22
S'CTC'
p3067
tp3068
I734
s(I55
S'AAA'
p3069
tp3070
I491
s(I60
S'ATT'
p3071
tp3072
I216
s(I51
S'GGG'
p3073
tp3074
I5
s(I48
S'GAG'
p3075
tp3076
I24
s(I6
S'ATA'
p3077
tp3078
I6664
s(I5
S'ATC'
p3079
tp3080
I83
s(I17
S'CCA'
p3081
tp3082
I2
s(I29
S'GTA'
p3083
tp3084
I88
s(I67
S'ATC'
p3085
tp3086
I139
s(I40
S'ACC'
p3087
tp3088
I30
s(I13
S'GAC'
p3089
tp3090
I3
s(I10
S'ATT'
p3091
tp3092
I1
s(I55
S'CCA'
p3093
tp3094
I151
s(I15
S'GCG'
p3095
tp3096
I65
s(I46
S'TAA'
p3097
tp3098
I4
s(I15
S'ACG'
p3099
tp3100
I73
s(I7
S'ATA'
p3101
tp3102
I111
s(I54
S'TAA'
p3103
tp3104
I8
s(I74
S'ACA'
p3105
tp3106
I3
s(I69
S'AAT'
p3107
tp3108
I132
s(I63
S'TGT'
p3109
tp3110
I130
s(I27
S'ATG'
p3111
tp3112
I64
s(I34
S'CTG'
p3113
tp3114
I8
s(I5
S'CTT'
p3115
tp3116
I177
s(I11
S'CCC'
p3117
tp3118
I2
s(I65
S'CAA'
p3119
tp3120
I202
s(I59
S'AGC'
p3121
tp3122
I1060
s(I32
S'CAC'
p3123
tp3124
I205
s(I21
S'GCC'
p3125
tp3126
I199
s(I52
S'CCC'
p3127
tp3128
I127
s(I28
S'TTT'
p3129
tp3130
I7
s(I62
S'ATC'
p3131
tp3132
I139
s(I69
S'GGT'
p3133
tp3134
I1059
s(I39
S'CCA'
p3135
tp3136
I3
s(I63
S'ACC'
p3137
tp3138
I13
s(I47
S'CAT'
p3139
tp3140
I1
s(I41
S'GTA'
p3141
tp3142
I42
s(I9
S'AGT'
p3143
tp3144
I172
s(I21
S'GTA'
p3145
tp3146
I121
s(I38
S'GCT'
p3147
tp3148
I496
s(I15
S'GGT'
p3149
tp3150
I15
s(I74
S'GTT'
p3151
tp3152
I2
s(I20
S'ACA'
p3153
tp3154
I28
s(I39
S'GAC'
p3155
tp3156
I13
s(I37
S'GTA'
p3157
tp3158
I2087
s(I57
S'GGC'
p3159
tp3160
I168
s(I52
S'AGA'
p3161
tp3162
I36
s(I24
S'TCA'
p3163
tp3164
I138
s(I63
S'CAG'
p3165
tp3166
I209
s(I4
S'TCC'
p3167
tp3168
I1
s(I68
S'CAG'
p3169
tp3170
I302
s(I39
S'CTT'
p3171
tp3172
I11
s(I51
S'TAG'
p3173
tp3174
I8
s(I47
S'AAG'
p3175
tp3176
I1
s(I44
S'CTT'
p3177
tp3178
I3148
s(I23
S'GAC'
p3179
tp3180
I11
s(I48
S'TTT'
p3181
tp3182
I6
s(I45
S'ATC'
p3183
tp3184
I3589
s(I23
S'GTT'
p3185
tp3186
I345
s(I74
S'GCT'
p3187
tp3188
I11
s(I18
S'GCG'
p3189
tp3190
I66
s(I30
S'ACG'
p3191
tp3192
I1
s(I34
S'CAT'
p3193
tp3194
I62
s(I46
S'GGA'
p3195
tp3196
I259
s(I24
S'TGA'
p3197
tp3198
I48
s(I46
S'AGG'
p3199
tp3200
I337
s(I34
S'TGC'
p3201
tp3202
I1
s(I59
S'TAT'
p3203
tp3204
I23
s(I54
S'GGA'
p3205
tp3206
I140
s(I35
S'GCC'
p3207
tp3208
I12
s(I8
S'CAC'
p3209
tp3210
I7
s(I60
S'TGC'
p3211
tp3212
I122
s(I28
S'CCC'
p3213
tp3214
I1
s(I67
S'TAT'
p3215
tp3216
I4
s(I36
S'ATT'
p3217
tp3218
I40
s(I7
S'AAC'
p3219
tp3220
I26
s(I24
S'CAG'
p3221
tp3222
I178
s(I17
S'GCG'
p3223
tp3224
I57
s(I6
S'GAA'
p3225
tp3226
I78
s(I24
S'GTC'
p3227
tp3228
I109
s(I34
S'AGC'
p3229
tp3230
I23
s(I46
S'TGG'
p3231
tp3232
I302
s(I35
S'CGT'
p3233
tp3234
I159
s(I13
S'ACG'
p3235
tp3236
I14
s(I56
S'TGG'
p3237
tp3238
I1
s(I64
S'AAG'
p3239
tp3240
I39
s(I62
S'AGT'
p3241
tp3242
I1201
s(I76
S'TGA'
p3243
tp3244
I2
s(I61
S'GAC'
p3245
tp3246
I1
s(I54
S'ACA'
p3247
tp3248
I59
s(I74
S'CGC'
p3249
tp3250
I197
s(I53
S'GAA'
p3251
tp3252
I10
s(I66
S'GTT'
p3253
tp3254
I40
s(I19
S'TCG'
p3255
tp3256
I182
s(I28
S'AGA'
p3257
tp3258
I73
s(I56
S'ACT'
p3259
tp3260
I14
s(I7
S'GAT'
p3261
tp3262
I3
s(I33
S'GGC'
p3263
tp3264
I1
s(I22
S'TCT'
p3265
tp3266
I11
s(I56
S'GCT'
p3267
tp3268
I19
s(I62
S'CAC'
p3269
tp3270
I114
s(I54
S'CTA'
p3271
tp3272
I23
s(I67
S'GTC'
p3273
tp3274
I198
s(I67
S'CAC'
p3275
tp3276
I3
s(I59
S'CTC'
p3277
tp3278
I2107
s(I63
S'CGA'
p3279
tp3280
I21
s(I61
S'CGA'
p3281
tp3282
I1
s(I71
S'TGA'
p3283
tp3284
I5
s(I66
S'GCT'
p3285
tp3286
I2
s(I38
S'CGC'
p3287
tp3288
I35
s(I6
S'TAA'
p3289
tp3290
I2
s(I16
S'GAC'
p3291
tp3292
I127
s(I66
S'ACT'
p3293
tp3294
I23
s(I28
S'CAT'
p3295
tp3296
I9
s(I22
S'AGG'
p3297
tp3298
I56
s(I33
S'TCT'
p3299
tp3300
I42
s(I28
S'ATT'
p3301
tp3302
I19
s(I27
S'GTA'
p3303
tp3304
I2
s(I16
S'CCT'
p3305
tp3306
I346
s(I34
S'GAT'
p3307
tp3308
I237
s(I34
S'AAG'
p3309
tp3310
I20
s(I68
S'TGC'
p3311
tp3312
I163
s(I55
S'ACT'
p3313
tp3314
I144
s(I46
S'GTC'
p3315
tp3316
I4068
s(I63
S'CGT'
p3317
tp3318
I258
s(I38
S'AGT'
p3319
tp3320
I1
s(I9
S'GCA'
p3321
tp3322
I482
s(I37
S'CTG'
p3323
tp3324
I233
s(I33
S'CCC'
p3325
tp3326
I9
s(I72
S'CAA'
p3327
tp3328
I245
s(I59
S'GGC'
p3329
tp3330
I1
s(I76
S'TGC'
p3331
tp3332
I2
s(I69
S'ACT'
p3333
tp3334
I40
s(I31
S'AGG'
p3335
tp3336
I136
s(I17
S'GAC'
p3337
tp3338
I2
s(I58
S'GGT'
p3339
tp3340
I445
s(I9
S'CAT'
p3341
tp3342
I7287
s(I46
S'ACG'
p3343
tp3344
I1209
s(I45
S'ACG'
p3345
tp3346
I1240
s(I47
S'TAA'
p3347
tp3348
I1
s(I9
S'GGC'
p3349
tp3350
I1385
s(I5
S'TTC'
p3351
tp3352
I396
s(I52
S'TAT'
p3353
tp3354
I62
s(I13
S'TGC'
p3355
tp3356
I251
s(I65
S'AGG'
p3357
tp3358
I341
s(I29
S'TAG'
p3359
tp3360
I6
s(I17
S'TCT'
p3361
tp3362
I111
s(I13
S'TAG'
p3363
tp3364
I24
s(I47
S'CAA'
p3365
tp3366
I189
s(I67
S'GAG'
p3367
tp3368
I23
s(I52
S'CAA'
p3369
tp3370
I23
s(I8
S'TTC'
p3371
tp3372
I3
s(I20
S'GTC'
p3373
tp3374
I131
s(I18
S'ACA'
p3375
tp3376
I93
s(I68
S'ATA'
p3377
tp3378
I47
s(I20
S'ACT'
p3379
tp3380
I368
s(I8
S'GAC'
p3381
tp3382
I12
s(I35
S'ACA'
p3383
tp3384
I561
s(I51
S'GAG'
p3385
tp3386
I39
s(I26
S'ATA'
p3387
tp3388
I16
s(I63
S'GCC'
p3389
tp3390
I233
s(I22
S'AGC'
p3391
tp3392
I89
s(I15
S'AGG'
p3393
tp3394
I1
s(I52
S'AGT'
p3395
tp3396
I48
s(I36
S'CGT'
p3397
tp3398
I3
s(I74
S'AGG'
p3399
tp3400
I114
s(I21
S'TTA'
p3401
tp3402
I13
s(I63
S'GGG'
p3403
tp3404
I38
s(I55
S'AGA'
p3405
tp3406
I86
s(I71
S'GGG'
p3407
tp3408
I2
s(I33
S'GTC'
p3409
tp3410
I6
s(I17
S'CTA'
p3411
tp3412
I76
s(I51
S'AAG'
p3413
tp3414
I2
s(I22
S'ATT'
p3415
tp3416
I79
s(I41
S'CTG'
p3417
tp3418
I340
s(I37
S'CTA'
p3419
tp3420
I110
s(I33
S'GAC'
p3421
tp3422
I1
s(I42
S'CTC'
p3423
tp3424
I26
s(I34
S'CAC'
p3425
tp3426
I36
s(I64
S'CGA'
p3427
tp3428
I1
s(I7
S'AGG'
p3429
tp3430
I4
s(I18
S'GTT'
p3431
tp3432
I85
s(I57
S'CAG'
p3433
tp3434
I58
s(I40
S'TCG'
p3435
tp3436
I2
s(I75
S'AAA'
p3437
tp3438
I2
s(I65
S'CTA'
p3439
tp3440
I27
s(I13
S'CGG'
p3441
tp3442
I585
s(I14
S'AAA'
p3443
tp3444
I4
s(I13
S'CCG'
p3445
tp3446
I6
s(I49
S'GGT'
p3447
tp3448
I1
s(I6
S'CTA'
p3449
tp3450
I386
s(I12
S'ATC'
p3451
tp3452
I15
s(I7
S'TTG'
p3453
tp3454
I4
s(I40
S'TAG'
p3455
tp3456
I1
s(I57
S'CGG'
p3457
tp3458
I66
s(I31
S'CTC'
p3459
tp3460
I39
s(I34
S'GCC'
p3461
tp3462
I2
s(I38
S'TTA'
p3463
tp3464
I89
s(I37
S'TTG'
p3465
tp3466
I196
s(I10
S'GGG'
p3467
tp3468
I40
s(I62
S'AGC'
p3469
tp3470
I76
s(I54
S'ACT'
p3471
tp3472
I93
s(I20
S'TGA'
p3473
tp3474
I2
s(I75
S'GAA'
p3475
tp3476
I8
s(I38
S'GGT'
p3477
tp3478
I59
s(I61
S'TAG'
p3479
tp3480
I1
s(I68
S'TAA'
p3481
tp3482
I2
s(I37
S'TGT'
p3483
tp3484
I1085
s(I51
S'TCG'
p3485
tp3486
I27
s(I28
S'AGT'
p3487
tp3488
I355
s(I9
S'TAA'
p3489
tp3490
I6
s(I38
S'CTC'
p3491
tp3492
I5
s(I67
S'TGC'
p3493
tp3494
I1271
s(I22
S'TCA'
p3495
tp3496
I818
s(I7
S'GTA'
p3497
tp3498
I4
s(I14
S'ACT'
p3499
tp3500
I90
s(I6
S'TGA'
p3501
tp3502
I11
s(I40
S'AGA'
p3503
tp3504
I66
s(I20
S'GTT'
p3505
tp3506
I34
s(I3
S'GCG'
p3507
tp3508
I770
s(I45
S'GAG'
p3509
tp3510
I9
s(I9
S'TTT'
p3511
tp3512
I32
s(I15
S'GAT'
p3513
tp3514
I2
s(I10
S'CAC'
p3515
tp3516
I40
s(I57
S'CTT'
p3517
tp3518
I29
s(I55
S'CTA'
p3519
tp3520
I45
s(I28
S'GTA'
p3521
tp3522
I173
s(I3
S'CTG'
p3523
tp3524
I82
s(I33
S'CAG'
p3525
tp3526
I2
s(I33
S'TCC'
p3527
tp3528
I36
s(I53
S'GTG'
p3529
tp3530
I21
s(I44
S'GGC'
p3531
tp3532
I4
s(I8
S'TCG'
p3533
tp3534
I5
s(I55
S'GGA'
p3535
tp3536
I4
s(I7
S'TAA'
p3537
tp3538
I25
s(I27
S'GTT'
p3539
tp3540
I5
s(I69
S'TCG'
p3541
tp3542
I66
s(I66
S'AGT'
p3543
tp3544
I61
s(I68
S'ACG'
p3545
tp3546
I303
s(I10
S'GCT'
p3547
tp3548
I17
s(I59
S'AGA'
p3549
tp3550
I55
s(I61
S'GGC'
p3551
tp3552
I2
s(I39
S'TAG'
p3553
tp3554
I9
s(I28
S'TGG'
p3555
tp3556
I118
s(I40
S'GGG'
p3557
tp3558
I42
s(I72
S'GAC'
p3559
tp3560
I1
s(I8
S'TGC'
p3561
tp3562
I4
s(I38
S'AGC'
p3563
tp3564
I67
s(I60
S'CAC'
p3565
tp3566
I354
s(I72
S'CAT'
p3567
tp3568
I300
s(I38
S'TTC'
p3569
tp3570
I129
s(I46
S'TTG'
p3571
tp3572
I338
s(I4
S'AAA'
p3573
tp3574
I1
s(I53
S'TAC'
p3575
tp3576
I162
s(I27
S'TCG'
p3577
tp3578
I14
s(I27
S'AAC'
p3579
tp3580
I2
s(I76
S'GCG'
p3581
tp3582
I2
s(I25
S'TTA'
p3583
tp3584
I150
s(I60
S'GGA'
p3585
tp3586
I164
s(I29
S'GCC'
p3587
tp3588
I90
s(I67
S'CTG'
p3589
tp3590
I158
s(I59
S'TCA'
p3591
tp3592
I92
s(I68
S'GAA'
p3593
tp3594
I2
s(I57
S'TTG'
p3595
tp3596
I111
s(I31
S'TCC'
p3597
tp3598
I533
s(I51
S'AGC'
p3599
tp3600
I218
s(I48
S'CCA'
p3601
tp3602
I2
s(I11
S'TAC'
p3603
tp3604
I6
s(I40
S'CTG'
p3605
tp3606
I1166
s(I75
S'GCA'
p3607
tp3608
I1
s(I45
S'CGT'
p3609
tp3610
I78
s(I61
S'TTC'
p3611
tp3612
I2028
s(I70
S'TGC'
p3613
tp3614
I150
s(I19
S'GTA'
p3615
tp3616
I136
s(I42
S'TCA'
p3617
tp3618
I5
s(I45
S'GTA'
p3619
tp3620
I14980
s(I25
S'GAG'
p3621
tp3622
I909
s(I62
S'GCC'
p3623
tp3624
I386
s(I28
S'GAG'
p3625
tp3626
I362
s(I21
S'CGA'
p3627
tp3628
I4
s(I64
S'TGC'
p3629
tp3630
I18
s(I60
S'ACA'
p3631
tp3632
I293
s(I18
S'CGT'
p3633
tp3634
I7
s(I67
S'ACG'
p3635
tp3636
I19933
s(I67
S'CGT'
p3637
tp3638
I1
s(I49
S'TCG'
p3639
tp3640
I3515
s(I37
S'CTT'
p3641
tp3642
I8
s(I70
S'GGC'
p3643
tp3644
I4
s(I22
S'TTG'
p3645
tp3646
I723
s(I9
S'GAG'
p3647
tp3648
I19
s(I64
S'CGT'
p3649
tp3650
I48
s(I37
S'CCC'
p3651
tp3652
I172
s(I13
S'CTC'
p3653
tp3654
I4
s(I54
S'TTC'
p3655
tp3656
I69
s(I55
S'TTG'
p3657
tp3658
I131
s(I9
S'ACA'
p3659
tp3660
I2
s(I60
S'GTA'
p3661
tp3662
I22
s(I50
S'ATG'
p3663
tp3664
I81
s(I11
S'TGG'
p3665
tp3666
I2
s(I65
S'TAT'
p3667
tp3668
I28
s(I23
S'CCT'
p3669
tp3670
I63
s(I32
S'CGT'
p3671
tp3672
I88
s(I35
S'TAG'
p3673
tp3674
I17
s(I68
S'TCC'
p3675
tp3676
I490
s(I66
S'TTG'
p3677
tp3678
I2314
s(I44
S'ACC'
p3679
tp3680
I372
s(I35
S'AGT'
p3681
tp3682
I24
s(I34
S'TCC'
p3683
tp3684
I5
s(I48
S'TAC'
p3685
tp3686
I1
s(I61
S'CTA'
p3687
tp3688
I8
s(I67
S'CGA'
p3689
tp3690
I4
s(I62
S'AAT'
p3691
tp3692
I776
s(I25
S'AGT'
p3693
tp3694
I19
s(I11
S'GGA'
p3695
tp3696
I824
s(I11
S'TTT'
p3697
tp3698
I61
s(I36
S'GGA'
p3699
tp3700
I1
s(I46
S'TCC'
p3701
tp3702
I24
s(I13
S'GGC'
p3703
tp3704
I2
s(I23
S'GGA'
p3705
tp3706
I68
s(I74
S'GGC'
p3707
tp3708
I1
s(I64
S'TTT'
p3709
tp3710
I144
s(I16
S'TCG'
p3711
tp3712
I180
s(I60
S'GAC'
p3713
tp3714
I509
s(I25
S'TCG'
p3715
tp3716
I18
s(I54
S'CGG'
p3717
tp3718
I223
s(I75
S'CAC'
p3719
tp3720
I26
s(I11
S'CGG'
p3721
tp3722
I6
s(I51
S'ACC'
p3723
tp3724
I204
s(I42
S'AAG'
p3725
tp3726
I9
s(I74
S'AAG'
p3727
tp3728
I232
s(I31
S'TTG'
p3729
tp3730
I16
s(I66
S'GAA'
p3731
tp3732
I265
s(I11
S'ACG'
p3733
tp3734
I170
s(I9
S'GTA'
p3735
tp3736
I395
s(I8
S'CGC'
p3737
tp3738
I1
s(I63
S'TTA'
p3739
tp3740
I154
s(I19
S'CAC'
p3741
tp3742
I115
s(I71
S'CAG'
p3743
tp3744
I5
s(I24
S'CAC'
p3745
tp3746
I25
s(I75
S'GGA'
p3747
tp3748
I186
s(I14
S'GCA'
p3749
tp3750
I18
s(I8
S'TGT'
p3751
tp3752
I5
s(I43
S'ATT'
p3753
tp3754
I300
s(I9
S'AAC'
p3755
tp3756
I3708
s(I65
S'GGT'
p3757
tp3758
I1873
s(I27
S'CTT'
p3759
tp3760
I9
s(I13
S'AAC'
p3761
tp3762
I19
s(I49
S'CTG'
p3763
tp3764
I1
s(I2
S'GGG'
p3765
tp3766
I4
s(I40
S'AAC'
p3767
tp3768
I273
s(I45
S'CAT'
p3769
tp3770
I1375
s(I15
S'TGT'
p3771
tp3772
I42
s(I48
S'GGC'
p3773
tp3774
I7
s(I25
S'GCA'
p3775
tp3776
I22
s(I58
S'CCC'
p3777
tp3778
I2
s(I70
S'AGG'
p3779
tp3780
I3
s(I20
S'TAG'
p3781
tp3782
I4
s(I73
S'GCT'
p3783
tp3784
I3
s(I73
S'GGG'
p3785
tp3786
I1
s(I52
S'TTT'
p3787
tp3788
I66
s(I38
S'ACG'
p3789
tp3790
I33
s(I77
S'TGG'
p3791
tp3792
I106
s(I28
S'TAG'
p3793
tp3794
I3
s(I14
S'GGC'
p3795
tp3796
I325
s(I9
S'CCG'
p3797
tp3798
I2431
s(I70
S'ACG'
p3799
tp3800
I1214
s(I3
S'GCC'
p3801
tp3802
I179
s(I41
S'GGT'
p3803
tp3804
I625
s(I6
S'CGT'
p3805
tp3806
I126
s(I55
S'CAG'
p3807
tp3808
I345
s(I60
S'CAG'
p3809
tp3810
I92
s(I52
S'CGT'
p3811
tp3812
I6
s(I73
S'TGC'
p3813
tp3814
I1
s(I45
S'CGA'
p3815
tp3816
I156
s(I22
S'GGT'
p3817
tp3818
I2
s(I19
S'GTT'
p3819
tp3820
I116
s(I42
S'ACA'
p3821
tp3822
I15
s(I66
S'ATA'
p3823
tp3824
I126
s(I62
S'GAT'
p3825
tp3826
I616
s(I26
S'AGT'
p3827
tp3828
I1
s(I44
S'ATG'
p3829
tp3830
I3013
s(I64
S'CCG'
p3831
tp3832
I32
s(I39
S'TTA'
p3833
tp3834
I13
s(I26
S'AGG'
p3835
tp3836
I1
s(I29
S'GAA'
p3837
tp3838
I7
s(I72
S'ATC'
p3839
tp3840
I7
s(I42
S'AAC'
p3841
tp3842
I144
s(I73
S'ACT'
p3843
tp3844
I3
s(I20
S'CGT'
p3845
tp3846
I139
s(I13
S'GAA'
p3847
tp3848
I100
s(I40
S'ATC'
p3849
tp3850
I40
s(I55
S'ATA'
p3851
tp3852
I42
s(I30
S'TGT'
p3853
tp3854
I1594
s(I56
S'CCT'
p3855
tp3856
I1
s(I31
S'GCG'
p3857
tp3858
I386
s(I54
S'AAG'
p3859
tp3860
I50
s(I42
S'GTA'
p3861
tp3862
I209
s(I30
S'CCA'
p3863
tp3864
I5
s(I54
S'AGT'
p3865
tp3866
I257
s(I31
S'CGG'
p3867
tp3868
I147
s(I54
S'AAC'
p3869
tp3870
I1
s(I29
S'CGC'
p3871
tp3872
I337
s(I21
S'GAG'
p3873
tp3874
I87
s(I61
S'TGG'
p3875
tp3876
I3
s(I11
S'GAG'
p3877
tp3878
I257
s(I26
S'ACG'
p3879
tp3880
I12
s(I64
S'GGT'
p3881
tp3882
I7301
s(I25
S'TAA'
p3883
tp3884
I3
s(I71
S'GAC'
p3885
tp3886
I22
s(I20
S'GGG'
p3887
tp3888
I30
s(I3
S'CTA'
p3889
tp3890
I53
s(I20
S'AGA'
p3891
tp3892
I129
s(I42
S'GCC'
p3893
tp3894
I3267
s(I31
S'CAG'
p3895
tp3896
I73
s(I68
S'TCT'
p3897
tp3898
I293
s(I26
S'CGG'
p3899
tp3900
I2
s(I54
S'CAC'
p3901
tp3902
I56
s(I51
S'TCT'
p3903
tp3904
I294
s(I55
S'GAC'
p3905
tp3906
I176
s(I2
S'CGA'
p3907
tp3908
I1
s(I15
S'CTA'
p3909
tp3910
I3
s(I8
S'CTG'
p3911
tp3912
I127
s(I31
S'CGC'
p3913
tp3914
I108
s(I20
S'CAT'
p3915
tp3916
I1
s(I38
S'TAG'
p3917
tp3918
I88
s(I36
S'GGT'
p3919
tp3920
I7
s(I0
S'WT'
p3921
tp3922
I36
s(I66
S'TGC'
p3923
tp3924
I41
s(I5
S'CCT'
p3925
tp3926
I6
s(I13
S'GGT'
p3927
tp3928
I10
s(I2
S'GCG'
p3929
tp3930
I4
s(I35
S'ATG'
p3931
tp3932
I400
s(I30
S'AAT'
p3933
tp3934
I1
s(I37
S'GAG'
p3935
tp3936
I1702
s(I41
S'ACT'
p3937
tp3938
I378
s(I42
S'TGG'
p3939
tp3940
I119
s(I17
S'CTG'
p3941
tp3942
I19
s(I2
S'AGC'
p3943
tp3944
I2
s(I51
S'ACT'
p3945
tp3946
I397
s(I16
S'CTT'
p3947
tp3948
I33
s(I5
S'CGT'
p3949
tp3950
I10
s(I70
S'ATC'
p3951
tp3952
I14
s(I63
S'GTG'
p3953
tp3954
I47
s(I30
S'AGT'
p3955
tp3956
I9
s(I33
S'CTA'
p3957
tp3958
I6
s(I8
S'GTC'
p3959
tp3960
I86
s(I22
S'ACA'
p3961
tp3962
I15
s(I53
S'CTA'
p3963
tp3964
I6
s(I53
S'GCA'
p3965
tp3966
I48
s(I51
S'CGT'
p3967
tp3968
I1
s(I58
S'CTC'
p3969
tp3970
I9
s(I45
S'AAA'
p3971
tp3972
I62
s(I34
S'GTT'
p3973
tp3974
I15
s(I42
S'GGG'
p3975
tp3976
I259
s(I61
S'ACT'
p3977
tp3978
I14
s(I5
S'TAA'
p3979
tp3980
I6
s(I25
S'GTT'
p3981
tp3982
I100
s(I57
S'AGG'
p3983
tp3984
I60
s(I65
S'GGA'
p3985
tp3986
I961
s(I69
S'TGG'
p3987
tp3988
I392
s(I48
S'AAT'
p3989
tp3990
I6
s(I27
S'CTC'
p3991
tp3992
I14
s(I55
S'CCC'
p3993
tp3994
I11
s(I41
S'CGG'
p3995
tp3996
I3
s(I63
S'ATT'
p3997
tp3998
I607
s(I19
S'CGT'
p3999
tp4000
I352
s(I52
S'CTA'
p4001
tp4002
I1
s(I16
S'CGA'
p4003
tp4004
I11
s(I53
S'GGA'
p4005
tp4006
I60
s(I34
S'ACT'
p4007
tp4008
I8
s(I61
S'AGC'
p4009
tp4010
I10
s(I29
S'ACT'
p4011
tp4012
I35
s(I33
S'GGA'
p4013
tp4014
I1
s(I65
S'ACA'
p4015
tp4016
I671
s(I48
S'TCA'
p4017
tp4018
I34
s(I21
S'TAC'
p4019
tp4020
I583
s(I62
S'GAG'
p4021
tp4022
I205
s(I26
S'ATC'
p4023
tp4024
I16
s(I29
S'TAC'
p4025
tp4026
I102
s(I15
S'TTA'
p4027
tp4028
I27
s(I17
S'CAA'
p4029
tp4030
I26
s(I42
S'AGT'
p4031
tp4032
I16
s(I37
S'CCA'
p4033
tp4034
I269
s(I49
S'TAT'
p4035
tp4036
I47
s(I21
S'CAC'
p4037
tp4038
I226
s(I26
S'CAC'
p4039
tp4040
I3
s(I65
S'GTC'
p4041
tp4042
I13
s(I19
S'CTG'
p4043
tp4044
I14
s(I19
S'GCG'
p4045
tp4046
I133
s(I48
S'TAT'
p4047
tp4048
I7
s(I14
S'ACG'
p4049
tp4050
I94
s(I38
S'ATG'
p4051
tp4052
I162
s(I37
S'ATA'
p4053
tp4054
I379
s(I3
S'GGA'
p4055
tp4056
I1
s(I45
S'TGC'
p4057
tp4058
I10
s(I44
S'TCA'
p4059
tp4060
I6
s(I70
S'GCC'
p4061
tp4062
I262
s(I67
S'TCC'
p4063
tp4064
I49
s(I32
S'TAA'
p4065
tp4066
I17
s(I32
S'ACA'
p4067
tp4068
I114
s(I55
S'ATT'
p4069
tp4070
I64
s(I53
S'TGG'
p4071
tp4072
I190
s(I27
S'GCA'
p4073
tp4074
I36
s(I56
S'CCC'
p4075
tp4076
I2
s(I41
S'TCT'
p4077
tp4078
I75
s(I29
S'TAT'
p4079
tp4080
I114
s(I28
S'ACA'
p4081
tp4082
I33
s(I17
S'TCA'
p4083
tp4084
I14
s(I5
S'ATT'
p4085
tp4086
I33
s(I16
S'GTA'
p4087
tp4088
I69
s(I24
S'AAT'
p4089
tp4090
I18
s(I38
S'CAC'
p4091
tp4092
I122
s(I69
S'TAA'
p4093
tp4094
I1
s(I71
S'GAT'
p4095
tp4096
I1
s(I37
S'TAG'
p4097
tp4098
I6
s(I20
S'AGT'
p4099
tp4100
I553
s(I42
S'AGG'
p4101
tp4102
I102
s(I47
S'GCC'
p4103
tp4104
I137
s(I13
S'ATG'
p4105
tp4106
I1
s(I16
S'GCC'
p4107
tp4108
I39
s(I65
S'CAT'
p4109
tp4110
I187
s(I66
S'TAC'
p4111
tp4112
I4
s(I57
S'CTC'
p4113
tp4114
I51
s(I16
S'ACC'
p4115
tp4116
I75
s(I52
S'CCT'
p4117
tp4118
I27
s(I32
S'TCT'
p4119
tp4120
I106
s(I65
S'GAC'
p4121
tp4122
I8999
s(I10
S'CTC'
p4123
tp4124
I1
s(I54
S'CCA'
p4125
tp4126
I9
s(I25
S'CAG'
p4127
tp4128
I206
s(I73
S'TTA'
p4129
tp4130
I346
s(I24
S'CGC'
p4131
tp4132
I65
s(I49
S'GAC'
p4133
tp4134
I7
s(I33
S'ACT'
p4135
tp4136
I35
s(I57
S'ATT'
p4137
tp4138
I70
s(I29
S'ATG'
p4139
tp4140
I29
s(I8
S'ATT'
p4141
tp4142
I487
s(I12
S'GAT'
p4143
tp4144
I9
s(I64
S'ACG'
p4145
tp4146
I5265
s(I17
S'CCG'
p4147
tp4148
I7
s(I72
S'TAG'
p4149
tp4150
I20
s(I35
S'TAC'
p4151
tp4152
I4
s(I30
S'AGC'
p4153
tp4154
I3
s(I75
S'CGC'
p4155
tp4156
I1
s(I22
S'ACT'
p4157
tp4158
I307
s(I46
S'TAG'
p4159
tp4160
I4
s(I25
S'ATC'
p4161
tp4162
I305
s(I10
S'CGA'
p4163
tp4164
I2
s(I44
S'GCG'
p4165
tp4166
I56
s(I44
S'CTG'
p4167
tp4168
I957
s(I24
S'AAA'
p4169
tp4170
I5
s(I50
S'ATA'
p4171
tp4172
I591
s(I36
S'CCG'
p4173
tp4174
I136
s(I29
S'CTC'
p4175
tp4176
I60
s(I45
S'ATT'
p4177
tp4178
I433
s(I69
S'CTA'
p4179
tp4180
I373
s(I23
S'CAA'
p4181
tp4182
I5
s(I23
S'GTA'
p4183
tp4184
I4
s(I18
S'AGG'
p4185
tp4186
I8
s(I18
S'GCT'
p4187
tp4188
I67
s(I72
S'CCG'
p4189
tp4190
I5
s(I3
S'GCT'
p4191
tp4192
I236
s(I50
S'TAG'
p4193
tp4194
I1
s(I52
S'AAG'
p4195
tp4196
I14
s(I12
S'ACA'
p4197
tp4198
I15
s(I43
S'TAC'
p4199
tp4200
I43
s(I73
S'AAG'
p4201
tp4202
I4
s(I23
S'TTG'
p4203
tp4204
I32
s(I30
S'AGA'
p4205
tp4206
I1
s(I28
S'CCT'
p4207
tp4208
I1
s(I48
S'ACA'
p4209
tp4210
I5
s(I67
S'TAA'
p4211
tp4212
I1
s(I25
S'CTT'
p4213
tp4214
I23
s(I23
S'GCA'
p4215
tp4216
I14
s(I76
S'CCC'
p4217
tp4218
I2
s(I11
S'TTC'
p4219
tp4220
I29
s(I2
S'GAG'
p4221
tp4222
I113
s(I21
S'GTG'
p4223
tp4224
I135
s(I27
S'TTT'
p4225
tp4226
I9
s(I47
S'CCG'
p4227
tp4228
I4
s(I44
S'TGG'
p4229
tp4230
I3
s(I3
S'CAC'
p4231
tp4232
I1
s(I46
S'ATT'
p4233
tp4234
I988
s(I12
S'GTA'
p4235
tp4236
I14
s(I37
S'GTG'
p4237
tp4238
I334
s(I16
S'CTC'
p4239
tp4240
I18
s(I24
S'TCG'
p4241
tp4242
I66
s(I36
S'CTC'
p4243
tp4244
I2873
s(I34
S'GGC'
p4245
tp4246
I281
s(I55
S'GCA'
p4247
tp4248
I54
s(I40
S'TGC'
p4249
tp4250
I2
s(I6
S'AGC'
p4251
tp4252
I3190
s(I8
S'GGA'
p4253
tp4254
I19
s(I71
S'ACA'
p4255
tp4256
I2
s(I46
S'GGG'
p4257
tp4258
I436
s(I12
S'GGC'
p4259
tp4260
I21
s(I53
S'CCC'
p4261
tp4262
I115
s(I55
S'GTC'
p4263
tp4264
I68
s(I54
S'GGG'
p4265
tp4266
I201
s(I35
S'CTG'
p4267
tp4268
I94
s(I55
S'GAT'
p4269
tp4270
I478
s(I31
S'TGG'
p4271
tp4272
I15
s(I31
S'GAA'
p4273
tp4274
I11
s(I48
S'AGC'
p4275
tp4276
I4
s(I18
S'ATC'
p4277
tp4278
I223
s(I32
S'ACT'
p4279
tp4280
I71
s(I18
S'TAC'
p4281
tp4282
I364
s(I71
S'GTC'
p4283
tp4284
I1
s(I25
S'CTG'
p4285
tp4286
I6
s(I13
S'GCC'
p4287
tp4288
I65
s(I65
S'TTG'
p4289
tp4290
I78
s(I52
S'GCT'
p4291
tp4292
I50
s(I15
S'GAA'
p4293
tp4294
I4
s(I68
S'GAG'
p4295
tp4296
I2
s(I65
S'AAA'
p4297
tp4298
I65
s(I16
S'CCA'
p4299
tp4300
I1
s(I55
S'ACC'
p4301
tp4302
I32
s(I49
S'AGC'
p4303
tp4304
I5583
s(I7
S'CCA'
p4305
tp4306
I5892
s(I9
S'ATT'
p4307
tp4308
I6255
s(I34
S'AAT'
p4309
tp4310
I36
s(I67
S'CAT'
p4311
tp4312
I15
s(I63
S'CCT'
p4313
tp4314
I389
s(I15
S'TAC'
p4315
tp4316
I88
s(I13
S'GTA'
p4317
tp4318
I212
s(I10
S'GGC'
p4319
tp4320
I3
s(I71
S'TTA'
p4321
tp4322
I1407
s(I75
S'GCT'
p4323
tp4324
I1
s(I71
S'AGC'
p4325
tp4326
I1
s(I11
S'TCA'
p4327
tp4328
I1504
s(I47
S'TCG'
p4329
tp4330
I3118
s(I9
S'CAG'
p4331
tp4332
I5207
s(I72
S'CTC'
p4333
tp4334
I42
s(I9
S'TCC'
p4335
tp4336
I134
s(I35
S'GGG'
p4337
tp4338
I53
s(I34
S'ATC'
p4339
tp4340
I26
s(I32
S'TCA'
p4341
tp4342
I428
s(I43
S'GCT'
p4343
tp4344
I3
s(I61
S'CGG'
p4345
tp4346
I1
s(I10
S'CTT'
p4347
tp4348
I2
s(I43
S'GGG'
p4349
tp4350
I115
s(I57
S'GTC'
p4351
tp4352
I112
s(I39
S'CGA'
p4353
tp4354
I1
s(I19
S'GAT'
p4355
tp4356
I28
s(I6
S'TAG'
p4357
tp4358
I5
s(I67
S'AAT'
p4359
tp4360
I2
s(I62
S'ACC'
p4361
tp4362
I50
s(I25
S'CCC'
p4363
tp4364
I10
s(I15
S'GTT'
p4365
tp4366
I208
s(I13
S'TCG'
p4367
tp4368
I8
s(I75
S'CCA'
p4369
tp4370
I9
s(I38
S'TAA'
p4371
tp4372
I4
s(I32
S'GCG'
p4373
tp4374
I42
s(I18
S'GGC'
p4375
tp4376
I206
s(I63
S'TAC'
p4377
tp4378
I228
s(I8
S'ATA'
p4379
tp4380
I117
s(I23
S'ATG'
p4381
tp4382
I252
s(I57
S'GCC'
p4383
tp4384
I181
s(I58
S'TGT'
p4385
tp4386
I383
s(I71
S'TAC'
p4387
tp4388
I1
s(I7
S'TGG'
p4389
tp4390
I2
s(I62
S'GTC'
p4391
tp4392
I5759
s(I28
S'GTC'
p4393
tp4394
I132
s(I8
S'AGC'
p4395
tp4396
I1
s(I24
S'TTA'
p4397
tp4398
I1
s(I46
S'AAC'
p4399
tp4400
I433
s(I64
S'GCG'
p4401
tp4402
I7077
s(I37
S'CAT'
p4403
tp4404
I33
s(I4
S'GCG'
p4405
tp4406
I1
s(I56
S'AAG'
p4407
tp4408
I25
s(I22
S'ATG'
p4409
tp4410
I425
s(I46
S'ACA'
p4411
tp4412
I4669
s(I27
S'AGC'
p4413
tp4414
I3
s(I3
S'AAG'
p4415
tp4416
I1
s(I64
S'GTG'
p4417
tp4418
I18
s(I47
S'CAG'
p4419
tp4420
I322
s(I60
S'GCC'
p4421
tp4422
I631
s(I52
S'CAG'
p4423
tp4424
I73
s(I49
S'GGC'
p4425
tp4426
I4389
s(I37
S'TGG'
p4427
tp4428
I57
s(I18
S'TCA'
p4429
tp4430
I254
s(I27
S'ACG'
p4431
tp4432
I47
s(I76
S'GAC'
p4433
tp4434
I2
s(I43
S'TAG'
p4435
tp4436
I12
s(I37
S'TCT'
p4437
tp4438
I1185
s(I64
S'GTT'
p4439
tp4440
I3280
s(I15
S'CAG'
p4441
tp4442
I87
s(I15
S'GGC'
p4443
tp4444
I1
s(I74
S'GTG'
p4445
tp4446
I1
s(I32
S'AAA'
p4447
tp4448
I33
s(I6
S'GCG'
p4449
tp4450
I149
s(I53
S'ACA'
p4451
tp4452
I11
s(I38
S'TCG'
p4453
tp4454
I533
s(I5
S'TCC'
p4455
tp4456
I9
s(I38
S'GGA'
p4457
tp4458
I143
s(I39
S'ATC'
p4459
tp4460
I1
s(I37
S'GCT'
p4461
tp4462
I466
s(I70
S'CAG'
p4463
tp4464
I10
s(I63
S'GGA'
p4465
tp4466
I55
s(I40
S'TGT'
p4467
tp4468
I1
s(I55
S'TGT'
p4469
tp4470
I131
s(I4
S'CTT'
p4471
tp4472
I6
s(I2
S'GTA'
p4473
tp4474
I20
s(I22
S'AAT'
p4475
tp4476
I28
s(I71
S'GGA'
p4477
tp4478
I2
s(I58
S'GAG'
p4479
tp4480
I50
s(I2
S'AAC'
p4481
tp4482
I2
s(I4
S'TGT'
p4483
tp4484
I13
s(I53
S'CTC'
p4485
tp4486
I3
s(I65
S'CGG'
p4487
tp4488
I393
s(I62
S'CGA'
p4489
tp4490
I597
s(I9
S'TTG'
p4491
tp4492
I91
s(I46
S'AGT'
p4493
tp4494
I48
s(I68
S'AGC'
p4495
tp4496
I1531
s(I10
S'TAT'
p4497
tp4498
I127
s(I70
S'AAT'
p4499
tp4500
I3
s(I14
S'AAG'
p4501
tp4502
I3
s(I44
S'TAC'
p4503
tp4504
I1
s(I6
S'CTG'
p4505
tp4506
I187
s(I18
S'TAT'
p4507
tp4508
I39
s(I37
S'ACG'
p4509
tp4510
I1251
s(I76
S'CCA'
p4511
tp4512
I1
s(I13
S'TTC'
p4513
tp4514
I1
s(I35
S'CGC'
p4515
tp4516
I129
s(I33
S'CGG'
p4517
tp4518
I180
s(I33
S'CAA'
p4519
tp4520
I1
s(I52
S'GTG'
p4521
tp4522
I42
s(I20
S'CCA'
p4523
tp4524
I82
s(I59
S'AAA'
p4525
tp4526
I16
s(I75
S'GAG'
p4527
tp4528
I7
s(I9
S'ATC'
p4529
tp4530
I2287
s(I71
S'CTC'
p4531
tp4532
I229
s(I15
S'ATA'
p4533
tp4534
I468
s(I76
S'CTA'
p4535
tp4536
I1
s(I23
S'ACG'
p4537
tp4538
I36
s(I46
S'CGC'
p4539
tp4540
I1308
s(I32
S'CCG'
p4541
tp4542
I42
s(I50
S'AGA'
p4543
tp4544
I1
s(I20
S'CTT'
p4545
tp4546
I23
s(I27
S'TCT'
p4547
tp4548
I5
s(I20
S'TTG'
p4549
tp4550
I75
s(I25
S'TTT'
p4551
tp4552
I273
s(I45
S'GAA'
p4553
tp4554
I4
s(I52
S'TGC'
p4555
tp4556
I189
s(I30
S'TTC'
p4557
tp4558
I1
s(I19
S'GAA'
p4559
tp4560
I111
s(I68
S'GCA'
p4561
tp4562
I202
s(I24
S'CCT'
p4563
tp4564
I150
s(I28
S'TCA'
p4565
tp4566
I355
s(I44
S'CAG'
p4567
tp4568
I63
s(I22
S'AGT'
p4569
tp4570
I30
s(I44
S'AGC'
p4571
tp4572
I7
s(I62
S'TGC'
p4573
tp4574
I614
s(I18
S'TTG'
p4575
tp4576
I247
s(I48
S'GAA'
p4577
tp4578
I1
s(I57
S'GCT'
p4579
tp4580
I84
s(I41
S'TTC'
p4581
tp4582
I479
s(I69
S'ACA'
p4583
tp4584
I30
s(I66
S'AAA'
p4585
tp4586
I7
s(I24
S'GGA'
p4587
tp4588
I1
s(I64
S'GAT'
p4589
tp4590
I2521
s(I27
S'ACC'
p4591
tp4592
I49
s(I72
S'GCC'
p4593
tp4594
I435
s(I31
S'AAA'
p4595
tp4596
I84
s(I10
S'TGC'
p4597
tp4598
I2
s(I26
S'GCC'
p4599
tp4600
I6
s(I30
S'TAT'
p4601
tp4602
I172
s(I45
S'TTG'
p4603
tp4604
I53
s(I46
S'TTA'
p4605
tp4606
I6
s(I64
S'AGC'
p4607
tp4608
I3985
s(I18
S'CCA'
p4609
tp4610
I373
s(I59
S'TCC'
p4611
tp4612
I3147
s(I30
S'TAA'
p4613
tp4614
I3
s(I34
S'TAG'
p4615
tp4616
I44
s(I53
S'AGC'
p4617
tp4618
I15
s(I46
S'ACT'
p4619
tp4620
I321
s(I22
S'GTA'
p4621
tp4622
I43
s(I69
S'GTC'
p4623
tp4624
I759
s(I16
S'AAC'
p4625
tp4626
I130
s(I23
S'CTG'
p4627
tp4628
I37
s(I72
S'GTC'
p4629
tp4630
I12
s(I61
S'CCC'
p4631
tp4632
I1
s(I58
S'TGA'
p4633
tp4634
I2
s(I22
S'CTT'
p4635
tp4636
I162
s(I59
S'TCG'
p4637
tp4638
I61
s(I69
S'AGT'
p4639
tp4640
I3
s(I74
S'GAC'
p4641
tp4642
I1
s(I57
S'TTA'
p4643
tp4644
I74
s(I27
S'AAT'
p4645
tp4646
I1
s(I6
S'TTC'
p4647
tp4648
I238
s(I47
S'GGG'
p4649
tp4650
I180
s(I36
S'ACA'
p4651
tp4652
I34099
s(I47
S'AGA'
p4653
tp4654
I23
s(I9
S'TGT'
p4655
tp4656
I148
s(I55
S'GGG'
p4657
tp4658
I194
s(I31
S'ACT'
p4659
tp4660
I18
s(I63
S'TCC'
p4661
tp4662
I117
s(I16
S'TCT'
p4663
tp4664
I41
s(I10
S'CGC'
p4665
tp4666
I3
s(I26
S'CTC'
p4667
tp4668
I71
s(I19
S'CCG'
p4669
tp4670
I72
s(I5
S'GGG'
p4671
tp4672
I1
s(I40
S'TCC'
p4673
tp4674
I560
s(I7
S'TCT'
p4675
tp4676
I468
s(I17
S'TTC'
p4677
tp4678
I69
s(I67
S'CCT'
p4679
tp4680
I16
s(I65
S'CCT'
p4681
tp4682
I38
s(I9
S'ACG'
p4683
tp4684
I68
s(I32
S'GAA'
p4685
tp4686
I212
s(I25
S'AGG'
p4687
tp4688
I109
s(I9
S'CTC'
p4689
tp4690
I155
s(I23
S'GGG'
p4691
tp4692
I2
s(I74
S'TCA'
p4693
tp4694
I4
s(I65
S'TGG'
p4695
tp4696
I100
s(I23
S'CCC'
p4697
tp4698
I1
s(I60
S'ACG'
p4699
tp4700
I10
s(I34
S'GAC'
p4701
tp4702
I11
s(I75
S'AGG'
p4703
tp4704
I26
s(I22
S'TTA'
p4705
tp4706
I97
s(I67
S'AAG'
p4707
tp4708
I10
s(I20
S'ACC'
p4709
tp4710
I164
s(I2
S'ACT'
p4711
tp4712
I2
s(I29
S'AGC'
p4713
tp4714
I258
s(I19
S'GGC'
p4715
tp4716
I136
s(I7
S'CAG'
p4717
tp4718
I53
s(I6
S'AGA'
p4719
tp4720
I18
s(I60
S'CTG'
p4721
tp4722
I11
s(I35
S'CAC'
p4723
tp4724
I81
s(I21
S'GGA'
p4725
tp4726
I32
s(I74
S'AAT'
p4727
tp4728
I1
s(I18
S'AAG'
p4729
tp4730
I7
s(I33
S'TTA'
p4731
tp4732
I43
s(I34
S'GCT'
p4733
tp4734
I26
s(I69
S'GGG'
p4735
tp4736
I1273
s(I29
S'ACG'
p4737
tp4738
I269
s(I43
S'TTA'
p4739
tp4740
I285
s(I32
S'GTT'
p4741
tp4742
I80
s(I39
S'TCC'
p4743
tp4744
I14
s(I48
S'ATT'
p4745
tp4746
I2
s(I22
S'TGG'
p4747
tp4748
I75
s(I66
S'CCG'
p4749
tp4750
I3131
s(I2
S'GGT'
p4751
tp4752
I1
s(I45
S'CAG'
p4753
tp4754
I40648
s(I11
S'GTA'
p4755
tp4756
I19
s(I50
S'GTA'
p4757
tp4758
I111
s(I48
S'TAG'
p4759
tp4760
I6
s(I73
S'ATA'
p4761
tp4762
I6827
s(I64
S'CTG'
p4763
tp4764
I676
s(I32
S'CTC'
p4765
tp4766
I150
s(I39
S'GTT'
p4767
tp4768
I8
s(I23
S'TAG'
p4769
tp4770
I5
s(I54
S'GCC'
p4771
tp4772
I35
s(I10
S'TCT'
p4773
tp4774
I24
s(I11
S'CGA'
p4775
tp4776
I6
s(I52
S'ACA'
p4777
tp4778
I60
s(I76
S'ATA'
p4779
tp4780
I3
s(I67
S'GGT'
p4781
tp4782
I967
s(I41
S'GGC'
p4783
tp4784
I1
s(I57
S'TCG'
p4785
tp4786
I191
s(I58
S'CAG'
p4787
tp4788
I167
s(I60
S'CAT'
p4789
tp4790
I138
s(I71
S'GCT'
p4791
tp4792
I8
s(I6
S'CAC'
p4793
tp4794
I774
s(I41
S'TCA'
p4795
tp4796
I47
s(I52
S'CGA'
p4797
tp4798
I5
s(I66
S'AAT'
p4799
tp4800
I1022
s(I63
S'TTG'
p4801
tp4802
I112
s(I69
S'AGA'
p4803
tp4804
I9
s(I39
S'TAT'
p4805
tp4806
I13
s(I51
S'CTG'
p4807
tp4808
I236
s(I37
S'AAC'
p4809
tp4810
I76
s(I28
S'ACT'
p4811
tp4812
I44
s(I18
S'TGC'
p4813
tp4814
I99
s(I60
S'AGG'
p4815
tp4816
I79
s(I70
S'GTC'
p4817
tp4818
I1
s(I11
S'AGT'
p4819
tp4820
I1722
s(I18
S'CCT'
p4821
tp4822
I37
s(I20
S'CGA'
p4823
tp4824
I71
s(I72
S'ACA'
p4825
tp4826
I462
s(I22
S'CCA'
p4827
tp4828
I233
s(I72
S'AGT'
p4829
tp4830
I1220
s(I21
S'TAG'
p4831
tp4832
I1
s(I74
S'TTG'
p4833
tp4834
I1
s(I76
S'CGA'
p4835
tp4836
I4
s(I62
S'CTT'
p4837
tp4838
I298
s(I8
S'GGT'
p4839
tp4840
I2
s(I68
S'CCA'
p4841
tp4842
I5
s(I66
S'GCC'
p4843
tp4844
I1
s(I52
S'TAC'
p4845
tp4846
I18
s(I16
S'GGT'
p4847
tp4848
I85
s(I31
S'GTT'
p4849
tp4850
I481
s(I70
S'ACA'
p4851
tp4852
I2898
s(I16
S'CAA'
p4853
tp4854
I87
s(I49
S'GTA'
p4855
tp4856
I8
s(I16
S'TAG'
p4857
tp4858
I1
s(I71
S'AAG'
p4859
tp4860
I1
s(I48
S'TGC'
p4861
tp4862
I1
s(I44
S'AGA'
p4863
tp4864
I6
s(I7
S'ACC'
p4865
tp4866
I3
s(I15
S'AAG'
p4867
tp4868
I1
s(I36
S'TGA'
p4869
tp4870
I36
s(I59
S'GCT'
p4871
tp4872
I3652
s(I45
S'CGG'
p4873
tp4874
I1671
s(I69
S'AAG'
p4875
tp4876
I4
s(I38
S'TCT'
p4877
tp4878
I651
s(I54
S'CAT'
p4879
tp4880
I96
s(I3
S'GAT'
p4881
tp4882
I4
s(I41
S'TAC'
p4883
tp4884
I4
s(I3
S'TAT'
p4885
tp4886
I1
s(I65
S'CCA'
p4887
tp4888
I210
s(I39
S'TTG'
p4889
tp4890
I64
s(I63
S'TAA'
p4891
tp4892
I11
s(I62
S'TTC'
p4893
tp4894
I145
s(I4
S'CAT'
p4895
tp4896
I47
s(I16
S'AGG'
p4897
tp4898
I299
s(I49
S'TCT'
p4899
tp4900
I150
s(I70
S'GGT'
p4901
tp4902
I2
s(I70
S'TCA'
p4903
tp4904
I37
s(I76
S'TGT'
p4905
tp4906
I4
s(I35
S'ATT'
p4907
tp4908
I98
s(I50
S'TTG'
p4909
tp4910
I30
s(I61
S'GTC'
p4911
tp4912
I116
s(I15
S'CCG'
p4913
tp4914
I1
s(I35
S'CAT'
p4915
tp4916
I101
s(I62
S'ACA'
p4917
tp4918
I4084
s(I7
S'TTA'
p4919
tp4920
I1
s(I25
S'AAA'
p4921
tp4922
I6
s(I18
S'GAG'
p4923
tp4924
I64
s(I17
S'GCA'
p4925
tp4926
I52
s(I8
S'TAT'
p4927
tp4928
I2
s(I63
S'CCG'
p4929
tp4930
I43
s(I45
S'AAT'
p4931
tp4932
I3033
s(I4
S'CTC'
p4933
tp4934
I79
s(I28
S'GGA'
p4935
tp4936
I1
s(I34
S'GTC'
p4937
tp4938
I12
s(I45
S'AGG'
p4939
tp4940
I226
s(I55
S'TGA'
p4941
tp4942
I53
s(I55
S'AGC'
p4943
tp4944
I202
s(I61
S'ACG'
p4945
tp4946
I18
s(I72
S'TTA'
p4947
tp4948
I7
s(I39
S'ACA'
p4949
tp4950
I4
s(I12
S'CCC'
p4951
tp4952
I108
s(I50
S'GTC'
p4953
tp4954
I2147
s(I73
S'ATG'
p4955
tp4956
I2
s(I68
S'ATT'
p4957
tp4958
I14
s(I63
S'TAG'
p4959
tp4960
I2
s(I19
S'CGG'
p4961
tp4962
I114
s(I52
S'CTT'
p4963
tp4964
I1
s(I21
S'CCC'
p4965
tp4966
I1
s(I74
S'CTA'
p4967
tp4968
I3
s(I55
S'AAG'
p4969
tp4970
I178
s(I19
S'CTC'
p4971
tp4972
I80
s(I58
S'ATA'
p4973
tp4974
I13
s(I22
S'TAC'
p4975
tp4976
I340
s(I55
S'CTG'
p4977
tp4978
I123
s(I17
S'TGC'
p4979
tp4980
I72
s(I56
S'TCA'
p4981
tp4982
I70
s(I14
S'GCT'
p4983
tp4984
I122
s(I39
S'GTC'
p4985
tp4986
I7
s(I18
S'AAT'
p4987
tp4988
I89
s(I4
S'TAG'
p4989
tp4990
I4
s(I30
S'TTA'
p4991
tp4992
I208
s(I28
S'CTA'
p4993
tp4994
I40
s(I28
S'GCC'
p4995
tp4996
I11
s(I33
S'CTG'
p4997
tp4998
I8
s(I20
S'AAC'
p4999
tp5000
I3
s(I17
S'AGC'
p5001
tp5002
I316
s(I21
S'ATG'
p5003
tp5004
I160
s(I53
S'GCG'
p5005
tp5006
I61
s(I54
S'ATA'
p5007
tp5008
I11
s(I69
S'GAC'
p5009
tp5010
I42
s(I15
S'CGC'
p5011
tp5012
I1
s(I29
S'GTT'
p5013
tp5014
I332
s(I36
S'GGC'
p5015
tp5016
I1
s(I75
S'AGA'
p5017
tp5018
I22
s(I69
S'CAT'
p5019
tp5020
I381
s(I58
S'AAT'
p5021
tp5022
I23
s(I41
S'ACA'
p5023
tp5024
I78
s(I74
S'TGA'
p5025
tp5026
I12
s(I16
S'AAG'
p5027
tp5028
I96
s(I12
S'TAG'
p5029
tp5030
I1
s(I27
S'TGA'
p5031
tp5032
I41
s(I22
S'CTG'
p5033
tp5034
I137
s(I72
S'CTT'
p5035
tp5036
I10
s(I33
S'TGA'
p5037
tp5038
I3
s(I37
S'TAA'
p5039
tp5040
I2
s(I11
S'AGA'
p5041
tp5042
I2
s(I6
S'GGC'
p5043
tp5044
I6283
s(I72
S'CTA'
p5045
tp5046
I33
s(I72
S'GTT'
p5047
tp5048
I42
s(I17
S'CGG'
p5049
tp5050
I462
s(I45
S'TAA'
p5051
tp5052
I39
s(I34
S'ATA'
p5053
tp5054
I3
s(I21
S'CTA'
p5055
tp5056
I155
s(I20
S'TGC'
p5057
tp5058
I111
s(I28
S'GAC'
p5059
tp5060
I841
s(I30
S'ACC'
p5061
tp5062
I2
s(I67
S'ACC'
p5063
tp5064
I63
s(I53
S'AAG'
p5065
tp5066
I13
s(I53
S'CGA'
p5067
tp5068
I6
s(I33
S'GGG'
p5069
tp5070
I3
s(I41
S'GAT'
p5071
tp5072
I2
s(I28
S'CGG'
p5073
tp5074
I34
s(I16
S'CAT'
p5075
tp5076
I154
s(I27
S'CAT'
p5077
tp5078
I5
s(I23
S'CGA'
p5079
tp5080
I1
s(I42
S'ATC'
p5081
tp5082
I1
s(I29
S'TGT'
p5083
tp5084
I23
s(I48
S'TGT'
p5085
tp5086
I10
s(I26
S'GAC'
p5087
tp5088
I3
s(I65
S'TCG'
p5089
tp5090
I62
s(I36
S'GTG'
p5091
tp5092
I86
s(I61
S'TAC'
p5093
tp5094
I11
s(I16
S'GCT'
p5095
tp5096
I437
s(I19
S'GCA'
p5097
tp5098
I115
s(I69
S'TCC'
p5099
tp5100
I22
s(I45
S'GCA'
p5101
tp5102
I1158
s(I48
S'GCG'
p5103
tp5104
I1
s(I42
S'GGC'
p5105
tp5106
I92
s(I52
S'GAG'
p5107
tp5108
I68
s(I73
S'GCC'
p5109
tp5110
I3
s(I33
S'ACG'
p5111
tp5112
I62
s(I57
S'ATA'
p5113
tp5114
I80
s(I12
S'ATA'
p5115
tp5116
I26
s(I74
S'TAA'
p5117
tp5118
I13
s(I45
S'GTG'
p5119
tp5120
I4925
s(I16
S'TGG'
p5121
tp5122
I52
s(I74
S'GTC'
p5123
tp5124
I1
s(I37
S'GGC'
p5125
tp5126
I37
s(I60
S'ATA'
p5127
tp5128
I60
s(I51
S'GGT'
p5129
tp5130
I362
s(I75
S'GCG'
p5131
tp5132
I2
s(I45
S'GGC'
p5133
tp5134
I7
s(I7
S'CTA'
p5135
tp5136
I12
s(I29
S'TCA'
p5137
tp5138
I15
s(I37
S'GCA'
p5139
tp5140
I680
s(I26
S'ACT'
p5141
tp5142
I172
s(I60
S'CCA'
p5143
tp5144
I97
s(I46
S'ATA'
p5145
tp5146
I1057
s(I71
S'ATC'
p5147
tp5148
I1
s(I48
S'CTC'
p5149
tp5150
I3
s(I50
S'ATT'
p5151
tp5152
I164
s(I74
S'ACT'
p5153
tp5154
I2
s(I2
S'TGT'
p5155
tp5156
I4
s(I63
S'TGG'
p5157
tp5158
I136
s(I72
S'TTT'
p5159
tp5160
I164
s(I22
S'GGG'
p5161
tp5162
I738
s(I61
S'CTG'
p5163
tp5164
I749
s(I41
S'CCA'
p5165
tp5166
I1
s(I39
S'GCA'
p5167
tp5168
I25
s(I18
S'TCG'
p5169
tp5170
I546
s(I24
S'AGC'
p5171
tp5172
I41
s(I27
S'ATA'
p5173
tp5174
I45
s(I32
S'TGA'
p5175
tp5176
I8
s(I54
S'CCG'
p5177
tp5178
I99
s(I25
S'CAA'
p5179
tp5180
I316
s(I76
S'GGG'
p5181
tp5182
I18
s(I35
S'GCT'
p5183
tp5184
I178
s(I36
S'AGC'
p5185
tp5186
I9
s(I36
S'CCT'
p5187
tp5188
I90
s(I7
S'TCA'
p5189
tp5190
I841
s(I9
S'TGG'
p5191
tp5192
I5
s(I71
S'TGT'
p5193
tp5194
I2
s(I76
S'GTC'
p5195
tp5196
I1
s(I50
S'CTC'
p5197
tp5198
I128
s(I21
S'CGG'
p5199
tp5200
I13
s(I5
S'ACG'
p5201
tp5202
I89
s(I42
S'CCC'
p5203
tp5204
I6
s(I71
S'TTT'
p5205
tp5206
I9
s(I34
S'AAA'
p5207
tp5208
I2
s(I72
S'GGC'
p5209
tp5210
I396
s(I52
S'TCA'
p5211
tp5212
I6
s(I13
S'CAT'
p5213
tp5214
I119
s(I24
S'TAG'
p5215
tp5216
I14
s(I13
S'ATC'
p5217
tp5218
I196
s(I45
S'TCC'
p5219
tp5220
I3807
s(I37
S'GTT'
p5221
tp5222
I701
s(I24
S'ACA'
p5223
tp5224
I4
s(I74
S'GGA'
p5225
tp5226
I1
s(I35
S'TGG'
p5227
tp5228
I68
s(I17
S'TAA'
p5229
tp5230
I110
s(I39
S'CTC'
p5231
tp5232
I1
s(I24
S'ATT'
p5233
tp5234
I15
s(I44
S'CTA'
p5235
tp5236
I230
s(I76
S'ACA'
p5237
tp5238
I1
s(I65
S'TTC'
p5239
tp5240
I274
s(I36
S'CCA'
p5241
tp5242
I16
s(I40
S'ACT'
p5243
tp5244
I31
s(I23
S'CAG'
p5245
tp5246
I1
s(I23
S'TTC'
p5247
tp5248
I114
s(I18
S'AGA'
p5249
tp5250
I69
s(I46
S'CAC'
p5251
tp5252
I11828
s(I51
S'CAC'
p5253
tp5254
I145
s(I46
S'GGT'
p5255
tp5256
I3234
s(I12
S'ACG'
p5257
tp5258
I95
s(I35
S'TGT'
p5259
tp5260
I493
s(I54
S'GGT'
p5261
tp5262
I18
s(I60
S'TGT'
p5263
tp5264
I183
s(I45
S'TAT'
p5265
tp5266
I364
s(I31
S'GGT'
p5267
tp5268
I263
s(I30
S'GCC'
p5269
tp5270
I62
s(I74
S'GTA'
p5271
tp5272
I1347
s(I60
S'CGC'
p5273
tp5274
I171
s(I8
S'ACC'
p5275
tp5276
I10
s(I29
S'CAG'
p5277
tp5278
I249
s(I73
S'GAC'
p5279
tp5280
I2
s(I46
S'TGT'
p5281
tp5282
I4096
s(I47
S'CCA'
p5283
tp5284
I1
s(I32
S'AAC'
p5285
tp5286
I353
s(I60
S'AGA'
p5287
tp5288
I26
s(I39
S'GGC'
p5289
tp5290
I3
s(I31
S'TGC'
p5291
tp5292
I18
s(I57
S'GAC'
p5293
tp5294
I17
s(I25
S'ACT'
p5295
tp5296
I17
s(I29
S'TGC'
p5297
tp5298
I158
s(I61
S'CAG'
p5299
tp5300
I2
s(I27
S'TTA'
p5301
tp5302
I62
s(I66
S'CAG'
p5303
tp5304
I29
s(I7
S'GGT'
p5305
tp5306
I6233
s(I40
S'TCT'
p5307
tp5308
I27
s(I30
S'GTA'
p5309
tp5310
I64
s(I56
S'ACG'
p5311
tp5312
I6
s(I71
S'ACG'
p5313
tp5314
I1
s(I11
S'AAC'
p5315
tp5316
I2833
s(I35
S'TAT'
p5317
tp5318
I40
s(I56
S'GCC'
p5319
tp5320
I1
s(I70
S'AAG'
p5321
tp5322
I8
s(I39
S'TGC'
p5323
tp5324
I5
s(I25
S'TGG'
p5325
tp5326
I208
s(I21
S'AGC'
p5327
tp5328
I3
s(I30
S'GTG'
p5329
tp5330
I1
s(I46
S'TCT'
p5331
tp5332
I1098
s(I10
S'GCC'
p5333
tp5334
I38
s(I17
S'ATC'
p5335
tp5336
I318
s(I66
S'GCG'
p5337
tp5338
I47
s(I69
S'AAC'
p5339
tp5340
I48
s(I67
S'TCT'
p5341
tp5342
I173
s(I62
S'ACT'
p5343
tp5344
I113
s(I64
S'TGA'
p5345
tp5346
I9
s(I15
S'GTA'
p5347
tp5348
I86
s(I37
S'GGT'
p5349
tp5350
I13
s(I15
S'AGA'
p5351
tp5352
I6
s(I14
S'GCG'
p5353
tp5354
I33
s(I51
S'GGA'
p5355
tp5356
I28
s(I75
S'CTG'
p5357
tp5358
I2
s(I6
S'ATC'
p5359
tp5360
I6899
s(I65
S'AAG'
p5361
tp5362
I141
s(I45
S'GGT'
p5363
tp5364
I703
s(I27
S'AGT'
p5365
tp5366
I38
s(I15
S'GCA'
p5367
tp5368
I13
s(I19
S'TTC'
p5369
tp5370
I33
s(I35
S'CCT'
p5371
tp5372
I172
s(I33
S'CCT'
p5373
tp5374
I1
s(I26
S'CGA'
p5375
tp5376
I17
s(I36
S'TCG'
p5377
tp5378
I23
s(I37
S'CAG'
p5379
tp5380
I1349
s(I69
S'GCC'
p5381
tp5382
I236
s(I22
S'TAT'
p5383
tp5384
I66
s(I9
S'CAA'
p5385
tp5386
I18406
s(I72
S'CGG'
p5387
tp5388
I79
s(I65
S'CAC'
p5389
tp5390
I115
s(I29
S'GTG'
p5391
tp5392
I100
s(I32
S'CAA'
p5393
tp5394
I149
s(I21
S'GCA'
p5395
tp5396
I64
s(I32
S'TCG'
p5397
tp5398
I301
s(I71
S'TGC'
p5399
tp5400
I12
s(I30
S'CGA'
p5401
tp5402
I1
s(I39
S'CCC'
p5403
tp5404
I21
s(I63
S'ACA'
p5405
tp5406
I45
s(I71
S'CAA'
p5407
tp5408
I1
s(I16
S'GAT'
p5409
tp5410
I61
s(I45
S'CTT'
p5411
tp5412
I220
s(I18
S'ACT'
p5413
tp5414
I1
s(I32
S'GCA'
p5415
tp5416
I83
s(I57
S'GTT'
p5417
tp5418
I255
s(I31
S'ACA'
p5419
tp5420
I50
s(I46
S'CCC'
p5421
tp5422
I8
s(I8
S'ATG'
p5423
tp5424
I14
s(I57
S'GGT'
p5425
tp5426
I48
s(I7
S'ATG'
p5427
tp5428
I2
s(I61
S'GCT'
p5429
tp5430
I30
s(I58
S'ACA'
p5431
tp5432
I21
s(I41
S'GCC'
p5433
tp5434
I25
s(I39
S'GAA'
p5435
tp5436
I34
s(I37
S'AGT'
p5437
tp5438
I62
s(I57
S'GGA'
p5439
tp5440
I22
s(I52
S'AGG'
p5441
tp5442
I14
s(I17
S'TAT'
p5443
tp5444
I26
s(I54
S'TGG'
p5445
tp5446
I312
s(I34
S'CCG'
p5447
tp5448
I18
s(I64
S'AGT'
p5449
tp5450
I13979
s(I64
S'GCA'
p5451
tp5452
I2150
s(I24
S'CGT'
p5453
tp5454
I17
s(I54
S'TTT'
p5455
tp5456
I12
s(I11
S'CCT'
p5457
tp5458
I756
s(I4
S'TGC'
p5459
tp5460
I4
s(I17
S'ATG'
p5461
tp5462
I221
s(I72
S'CCT'
p5463
tp5464
I5
s(I60
S'AAA'
p5465
tp5466
I1278
s(I57
S'CAT'
p5467
tp5468
I56
s(I3
S'CAA'
p5469
tp5470
I1
s(I8
S'CAA'
p5471
tp5472
I1
s(I60
S'TGA'
p5473
tp5474
I14
s(I41
S'ATA'
p5475
tp5476
I1
s(I64
S'GTA'
p5477
tp5478
I61
s(I6
S'GAC'
p5479
tp5480
I51
s(I23
S'ACT'
p5481
tp5482
I90
s(I2
S'ACG'
p5483
tp5484
I1
s(I35
S'ACC'
p5485
tp5486
I190
s(I38
S'GCC'
p5487
tp5488
I24
s(I64
S'AAA'
p5489
tp5490
I4
s(I12
S'TCC'
p5491
tp5492
I18
s(I30
S'ATA'
p5493
tp5494
I18
s(I54
S'ACC'
p5495
tp5496
I159
s(I33
S'TGC'
p5497
tp5498
I430
s(I41
S'TCG'
p5499
tp5500
I53
s(I21
S'TCG'
p5501
tp5502
I110
s(I38
S'GGG'
p5503
tp5504
I54
s(I49
S'CGC'
p5505
tp5506
I13
s(I30
S'ACT'
p5507
tp5508
I1
s(I37
S'TAC'
p5509
tp5510
I4
s(I28
S'AGG'
p5511
tp5512
I10
s(I49
S'GCC'
p5513
tp5514
I2707
s(I58
S'GAA'
p5515
tp5516
I227
s(I3
S'TGA'
p5517
tp5518
I1
s(I40
S'AGT'
p5519
tp5520
I32
s(I71
S'TCG'
p5521
tp5522
I5
s(I48
S'CTT'
p5523
tp5524
I1
s(I51
S'CCC'
p5525
tp5526
I432
s(I54
S'GTC'
p5527
tp5528
I67
s(I38
S'CGA'
p5529
tp5530
I3
s(I38
S'AAC'
p5531
tp5532
I124
s(I35
S'CTT'
p5533
tp5534
I78
s(I24
S'TGT'
p5535
tp5536
I37
s(I22
S'GGC'
p5537
tp5538
I228
s(I22
S'AGA'
p5539
tp5540
I72
s(I11
S'CTA'
p5541
tp5542
I14
s(I38
S'ACA'
p5543
tp5544
I315
s(I27
S'GTC'
p5545
tp5546
I10
s(I37
S'AGG'
p5547
tp5548
I217
s(I38
S'TTT'
p5549
tp5550
I73
s(I57
S'ACG'
p5551
tp5552
I32
s(I24
S'GAA'
p5553
tp5554
I19
s(I7
S'GAG'
p5555
tp5556
I83
s(I72
S'GCT'
p5557
tp5558
I833
s(I71
S'GTT'
p5559
tp5560
I3
s(I49
S'CAC'
p5561
tp5562
I826
s(I33
S'CCA'
p5563
tp5564
I8
s(I72
S'CAG'
p5565
tp5566
I160
s(I44
S'CGT'
p5567
tp5568
I1
s(I22
S'CGC'
p5569
tp5570
I42
s(I44
S'GAT'
p5571
tp5572
I2
s(I8
S'CCG'
p5573
tp5574
I4
s(I22
S'TAA'
p5575
tp5576
I1
s(I73
S'CTT'
p5577
tp5578
I341
s(I41
S'GAG'
p5579
tp5580
I4
s(I45
S'ACA'
p5581
tp5582
I6270
s(I47
S'TAC'
p5583
tp5584
I11
s(I74
S'TGC'
p5585
tp5586
I1
s(I30
S'GAC'
p5587
tp5588
I2
s(I3
S'TGC'
p5589
tp5590
I535
s(I6
S'CAT'
p5591
tp5592
I559
s(I65
S'AGA'
p5593
tp5594
I90
s(I55
S'TAC'
p5595
tp5596
I263
s(I3
S'TAA'
p5597
tp5598
I2
s(I19
S'GAG'
p5599
tp5600
I132
s(I59
S'TCT'
p5601
tp5602
I64
s(I2
S'TGC'
p5603
tp5604
I2
s(I57
S'TTT'
p5605
tp5606
I450
s(I31
S'ATC'
p5607
tp5608
I291
s(I51
S'TGG'
p5609
tp5610
I2
s(I13
S'TCT'
p5611
tp5612
I18
s(I8
S'TTA'
p5613
tp5614
I22
s(I9
S'AGC'
p5615
tp5616
I374
s(I46
S'CTT'
p5617
tp5618
I77
s(I18
S'ACC'
p5619
tp5620
I304
s(I32
S'GCT'
p5621
tp5622
I57
s(I16
S'TCC'
p5623
tp5624
I611
s(I31
S'CCG'
p5625
tp5626
I9
s(I33
S'ATT'
p5627
tp5628
I33
s(I49
S'TAC'
p5629
tp5630
I27
s(I10
S'ACC'
p5631
tp5632
I2
s(I13
S'AGG'
p5633
tp5634
I224
s(I45
S'GTT'
p5635
tp5636
I74
s(I21
S'TTC'
p5637
tp5638
I15
s(I55
S'TGC'
p5639
tp5640
I2
s(I19
S'ATT'
p5641
tp5642
I374
s(I25
S'GAT'
p5643
tp5644
I7
s(I64
S'GCT'
p5645
tp5646
I3873
s(I19
S'TAG'
p5647
tp5648
I3
s(I44
S'GTG'
p5649
tp5650
I10
s(I58
S'GGC'
p5651
tp5652
I27
s(I24
S'ATC'
p5653
tp5654
I38
s(I27
S'TAG'
p5655
tp5656
I8
s(I48
S'CAG'
p5657
tp5658
I2
s(I42
S'CTA'
p5659
tp5660
I24
s(I66
S'GGC'
p5661
tp5662
I14
s(I64
S'CGC'
p5663
tp5664
I305
s(I2
S'ACA'
p5665
tp5666
I3
s(I42
S'TGA'
p5667
tp5668
I11
s(I39
S'AGT'
p5669
tp5670
I6
s(I8
S'CAT'
p5671
tp5672
I2
s(I50
S'CAG'
p5673
tp5674
I1
s(I9
S'TGA'
p5675
tp5676
I3
s(I20
S'CCG'
p5677
tp5678
I119
s(I47
S'GGA'
p5679
tp5680
I67
s(I21
S'GGT'
p5681
tp5682
I1
s(I39
S'AAC'
p5683
tp5684
I6
s(I36
S'ACG'
p5685
tp5686
I7549
s(I40
S'TAA'
p5687
tp5688
I6
s(I7
S'ATT'
p5689
tp5690
I82
s(I33
S'TTT'
p5691
tp5692
I34
s(I43
S'TAT'
p5693
tp5694
I10
s(I34
S'GCA'
p5695
tp5696
I7
s(I32
S'CGC'
p5697
tp5698
I65
s(I12
S'TCT'
p5699
tp5700
I7
s(I12
S'GCC'
p5701
tp5702
I2
s(I66
S'CCT'
p5703
tp5704
I648
s(I37
S'GCG'
p5705
tp5706
I647
s(I63
S'ACT'
p5707
tp5708
I86
s(I3
S'GAG'
p5709
tp5710
I5
s(I26
S'TTG'
p5711
tp5712
I44
s(I10
S'GCG'
p5713
tp5714
I3
s(I47
S'TTT'
p5715
tp5716
I8
s(I66
S'CTC'
p5717
tp5718
I217
s(I49
S'TTC'
p5719
tp5720
I80
s(I65
S'TGA'
p5721
tp5722
I1
s(I33
S'GTT'
p5723
tp5724
I24
s(I22
S'TCC'
p5725
tp5726
I141
s(I66
S'TAT'
p5727
tp5728
I59
s(I6
S'TGC'
p5729
tp5730
I1002
s(I67
S'GCC'
p5731
tp5732
I8647
s(I54
S'GTT'
p5733
tp5734
I97
s(I56
S'TAG'
p5735
tp5736
I8
s(I72
S'CTG'
p5737
tp5738
I38
s(I24
S'CCC'
p5739
tp5740
I366
s(I76
S'TCG'
p5741
tp5742
I1
s(I53
S'TTG'
p5743
tp5744
I167
s(I55
S'CTC'
p5745
tp5746
I10
s(I10
S'TCG'
p5747
tp5748
I87
s(I34
S'TCT'
p5749
tp5750
I11
s(I60
S'CTA'
p5751
tp5752
I192
s(I67
S'GGG'
p5753
tp5754
I436
s(I55
S'GGT'
p5755
tp5756
I117
s(I67
S'ATA'
p5757
tp5758
I298
s(I66
S'ATC'
p5759
tp5760
I1
s(I71
S'GCC'
p5761
tp5762
I9
s(I74
S'ACG'
p5763
tp5764
I1
s(I57
S'TGC'
p5765
tp5766
I54
s(I61
S'GGA'
p5767
tp5768
I12
s(I61
S'TCT'
p5769
tp5770
I11
s(I4
S'ACT'
p5771
tp5772
I1
s(I40
S'GGA'
p5773
tp5774
I6
s(I22
S'TGA'
p5775
tp5776
I1
s(I34
S'TCA'
p5777
tp5778
I1
s(I8
S'TGA'
p5779
tp5780
I60
s(I61
S'CTC'
p5781
tp5782
I268
s(I9
S'AAT'
p5783
tp5784
I2987
s(I44
S'CGC'
p5785
tp5786
I1
s(I31
S'CCC'
p5787
tp5788
I38
s(I41
S'TGC'
p5789
tp5790
I115
s(I8
S'CTT'
p5791
tp5792
I84
s(I15
S'ATT'
p5793
tp5794
I430
s(I25
S'TTC'
p5795
tp5796
I2
s(I62
S'CTC'
p5797
tp5798
I1854
s(I60
S'GGC'
p5799
tp5800
I15
s(I29
S'GCA'
p5801
tp5802
I154
s(I67
S'CTA'
p5803
tp5804
I120
s(I55
S'CGG'
p5805
tp5806
I121
s(I11
S'AAT'
p5807
tp5808
I534
s(I43
S'GTT'
p5809
tp5810
I13
s(I16
S'GGA'
p5811
tp5812
I200
s(I52
S'ACG'
p5813
tp5814
I75
s(I31
S'TCA'
p5815
tp5816
I75
s(I8
S'TTT'
p5817
tp5818
I8
s(I42
S'AAA'
p5819
tp5820
I2
s(I54
S'TCG'
p5821
tp5822
I115
s(I58
S'AAC'
p5823
tp5824
I27
s(I12
S'TTA'
p5825
tp5826
I2
s(I33
S'CTC'
p5827
tp5828
I4
s(I56
S'TGA'
p5829
tp5830
I13
s(I18
S'TTT'
p5831
tp5832
I410
s(I48
S'CCC'
p5833
tp5834
I1
s(I38
S'GCG'
p5835
tp5836
I346
s(I40
S'CTA'
p5837
tp5838
I1856
s(I64
S'GGG'
p5839
tp5840
I3156
s(I59
S'GCG'
p5841
tp5842
I800
s(I9
S'CGC'
p5843
tp5844
I64
s(I36
S'TAC'
p5845
tp5846
I11
s(I20
S'GAC'
p5847
tp5848
I4
s(I61
S'AAG'
p5849
tp5850
I4
s(I42
S'ACT'
p5851
tp5852
I11
s(I55
S'TAT'
p5853
tp5854
I107
s(I42
S'TCC'
p5855
tp5856
I1
s(I30
S'GGG'
p5857
tp5858
I1
s(I17
S'AAT'
p5859
tp5860
I335
s(I10
S'AAG'
p5861
tp5862
I55
s(I26
S'GCT'
p5863
tp5864
I9
s(I25
S'GAA'
p5865
tp5866
I22
s(I62
S'GCA'
p5867
tp5868
I753
s(I20
S'TTA'
p5869
tp5870
I20
s(I51
S'TTA'
p5871
tp5872
I221
s(I22
S'CCG'
p5873
tp5874
I35
s(I57
S'AAC'
p5875
tp5876
I35
s(I32
S'GGG'
p5877
tp5878
I4
s(I4
S'AGC'
p5879
tp5880
I1
s(I9
S'GAA'
p5881
tp5882
I3
s(I40
S'ATT'
p5883
tp5884
I15
s(I22
S'AAC'
p5885
tp5886
I212
s(I19
S'ACC'
p5887
tp5888
I165
s(I31
S'GCT'
p5889
tp5890
I1
s(I13
S'CTA'
p5891
tp5892
I151
s(I27
S'GCT'
p5893
tp5894
I77
s(I18
S'CTC'
p5895
tp5896
I556
s(I41
S'CCC'
p5897
tp5898
I1
s(I46
S'ATC'
p5899
tp5900
I1
s(I75
S'TAC'
p5901
tp5902
I3
s(I53
S'CAG'
p5903
tp5904
I9
s(I72
S'TGG'
p5905
tp5906
I23
s(I48
S'GGA'
p5907
tp5908
I3
s(I60
S'GTC'
p5909
tp5910
I396
s(I71
S'AAA'
p5911
tp5912
I3
s(I17
S'GCT'
p5913
tp5914
I58
s(I8
S'TAG'
p5915
tp5916
I3
s(I20
S'GCG'
p5917
tp5918
I223
s(I36
S'TGG'
p5919
tp5920
I5
s(I68
S'TCA'
p5921
tp5922
I717
s(I66
S'TTA'
p5923
tp5924
I620
s(I4
S'CCA'
p5925
tp5926
I3
s(I54
S'GAG'
p5927
tp5928
I89
s(I10
S'AGG'
p5929
tp5930
I9
s(I65
S'CCG'
p5931
tp5932
I1
s(I14
S'TCG'
p5933
tp5934
I33
s(I38
S'GGC'
p5935
tp5936
I63
s(I14
S'CAC'
p5937
tp5938
I14
s(I11
S'GGC'
p5939
tp5940
I1104
s(I31
S'CAT'
p5941
tp5942
I43
s(I63
S'AGC'
p5943
tp5944
I65
s(I38
S'GAG'
p5945
tp5946
I92
s(I67
S'TGT'
p5947
tp5948
I114
s(I13
S'GGA'
p5949
tp5950
I1
s(I70
S'TTC'
p5951
tp5952
I1
s(I61
S'TCC'
p5953
tp5954
I4
s(I69
S'CCC'
p5955
tp5956
I1
s(I2
S'TCC'
p5957
tp5958
I1
s(I60
S'GAA'
p5959
tp5960
I33
s(I25
S'TCA'
p5961
tp5962
I16
s(I42
S'GTC'
p5963
tp5964
I69
s(I48
S'AAC'
p5965
tp5966
I3
s(I19
S'AGT'
p5967
tp5968
I250
s(I15
S'CCA'
p5969
tp5970
I8
s(I40
S'GGT'
p5971
tp5972
I1854
s(I51
S'ACA'
p5973
tp5974
I41
s(I75
S'ATG'
p5975
tp5976
I3
s(I25
S'AAG'
p5977
tp5978
I22
s(I72
S'GAT'
p5979
tp5980
I1
s(I9
S'GTG'
p5981
tp5982
I293
s(I63
S'CCA'
p5983
tp5984
I221
s(I27
S'CCG'
p5985
tp5986
I4
s(I27
S'CGG'
p5987
tp5988
I226
s(I45
S'AGA'
p5989
tp5990
I221
s(I19
S'CAA'
p5991
tp5992
I177
s(I24
S'CAA'
p5993
tp5994
I19
s(I75
S'GGC'
p5995
tp5996
I10
s(I25
S'GTG'
p5997
tp5998
I8
s(I35
S'AGG'
p5999
tp6000
I480
s(I62
S'TCT'
p6001
tp6002
I268
s(I35
S'ATA'
p6003
tp6004
I222
s(I9
S'AAA'
p6005
tp6006
I15
s(I42
S'TTA'
p6007
tp6008
I1
s(I49
S'GCG'
p6009
tp6010
I584
s(I29
S'GAT'
p6011
tp6012
I6
s(I25
S'GGC'
p6013
tp6014
I22
s(I51
S'GCT'
p6015
tp6016
I1
s(I19
S'CGA'
p6017
tp6018
I648
s(I45
S'ATG'
p6019
tp6020
I3640
s(I35
S'TAA'
p6021
tp6022
I11
s(I27
S'TGC'
p6023
tp6024
I11
s(I39
S'AGC'
p6025
tp6026
I5
s(I56
S'TTC'
p6027
tp6028
I255
s(I25
S'GCG'
p6029
tp6030
I237
s(I58
S'CCA'
p6031
tp6032
I1
s(I42
S'GAC'
p6033
tp6034
I11
s(I47
S'TTG'
p6035
tp6036
I1
s(I71
S'AGT'
p6037
tp6038
I2
s(I16
S'TGA'
p6039
tp6040
I1
s(I14
S'GGA'
p6041
tp6042
I118
s(I68
S'GTA'
p6043
tp6044
I51
s(I43
S'CTG'
p6045
tp6046
I19
s(I31
S'TCT'
p6047
tp6048
I322
s(I55
S'TCG'
p6049
tp6050
I255
s(I6
S'GAT'
p6051
tp6052
I86
s(I6
S'CGC'
p6053
tp6054
I27
s(I60
S'TCC'
p6055
tp6056
I608
s(I44
S'TTT'
p6057
tp6058
I17
s(I12
S'TGC'
p6059
tp6060
I26
s(I68
S'TTC'
p6061
tp6062
I8
s(I42
S'ACC'
p6063
tp6064
I55
s(I3
S'CCG'
p6065
tp6066
I4
s(I26
S'ACA'
p6067
tp6068
I37
s(I64
S'CCA'
p6069
tp6070
I4
s(I29
S'GAC'
p6071
tp6072
I1
s(I38
S'ATT'
p6073
tp6074
I43
s(I69
S'ATC'
p6075
tp6076
I5
s(I42
S'CGC'
p6077
tp6078
I246
s(I51
S'TGA'
p6079
tp6080
I3
s(I13
S'ACT'
p6081
tp6082
I1
s(I26
S'GTC'
p6083
tp6084
I8
s(I52
S'GAT'
p6085
tp6086
I264
s(I7
S'CCC'
p6087
tp6088
I23
s(I40
S'ATA'
p6089
tp6090
I29
s(I55
S'ATG'
p6091
tp6092
I154
s(I19
S'ACT'
p6093
tp6094
I61
s(I37
S'GTC'
p6095
tp6096
I462
s(I31
S'GCA'
p6097
tp6098
I275
s(I65
S'ATG'
p6099
tp6100
I326
s(I13
S'CTT'
p6101
tp6102
I129
s(I25
S'TAC'
p6103
tp6104
I656
s(I53
S'CGG'
p6105
tp6106
I92
s(I18
S'CTT'
p6107
tp6108
I441
s(I52
S'GTT'
p6109
tp6110
I59
s(I17
S'GAT'
p6111
tp6112
I4
s(I76
S'AGA'
p6113
tp6114
I3838
s(I29
S'CGA'
p6115
tp6116
I9
s(I14
S'CCC'
p6117
tp6118
I1
s(I62
S'TAC'
p6119
tp6120
I165
s(I40
S'TTG'
p6121
tp6122
I1292
s(I17
S'GAA'
p6123
tp6124
I7
s(I31
S'ACC'
p6125
tp6126
I24
s(I39
S'ATT'
p6127
tp6128
I11
s(I62
S'CCC'
p6129
tp6130
I300
s(I42
S'GCA'
p6131
tp6132
I1345
s(I33
S'TAT'
p6133
tp6134
I30
s(I32
S'AGT'
p6135
tp6136
I69
s(I59
S'GTA'
p6137
tp6138
I4
s(I4
S'CCT'
p6139
tp6140
I1
s(I15
S'CTC'
p6141
tp6142
I371
s(I70
S'GAC'
p6143
tp6144
I4
s(I44
S'TTC'
p6145
tp6146
I86
s(I40
S'CCT'
p6147
tp6148
I9
s(I20
S'TAA'
p6149
tp6150
I16
s(I54
S'CCT'
p6151
tp6152
I490
s(I48
S'GCA'
p6153
tp6154
I10
s(I67
S'TTG'
p6155
tp6156
I51
s(I14
S'AGA'
p6157
tp6158
I2
s(I56
S'CTT'
p6159
tp6160
I24
s(I33
S'ACA'
p6161
tp6162
I30
s(I29
S'AAT'
p6163
tp6164
I65
s(I55
S'CGT'
p6165
tp6166
I140
s(I57
S'CCC'
p6167
tp6168
I34
s(I8
S'AAG'
p6169
tp6170
I18
s(I63
S'GTA'
p6171
tp6172
I84
s(I50
S'TTT'
p6173
tp6174
I1
s(I40
S'TGG'
p6175
tp6176
I2
s(I61
S'GTT'
p6177
tp6178
I119
s(I28
S'ACC'
p6179
tp6180
I17
s(I71
S'TTC'
p6181
tp6182
I26
s(I35
S'GAT'
p6183
tp6184
I67
s(I43
S'GTC'
p6185
tp6186
I120
s(I48
S'GTA'
p6187
tp6188
I4
s(I13
S'CAG'
p6189
tp6190
I35
s(I66
S'GCA'
p6191
tp6192
I34
s(I18
S'CAG'
p6193
tp6194
I143
s(I36
S'CAC'
p6195
tp6196
I4
s(I52
S'ATT'
p6197
tp6198
I220
s(I41
S'CAC'
p6199
tp6200
I55
s(I18
S'GAT'
p6201
tp6202
I23
s(I64
S'CAG'
p6203
tp6204
I18
s(I28
S'TAA'
p6205
tp6206
I28
s(I58
S'CTA'
p6207
tp6208
I22
s(I22
S'GCC'
p6209
tp6210
I852
s(I45
S'AAG'
p6211
tp6212
I222
s(I49
S'GCT'
p6213
tp6214
I638
s(I7
S'GCG'
p6215
tp6216
I243
s(I5
S'TAG'
p6217
tp6218
I2
s(I21
S'CTT'
p6219
tp6220
I167
s(I47
S'GTG'
p6221
tp6222
I1
s(I46
S'CAT'
p6223
tp6224
I2972
s(I14
S'GTG'
p6225
tp6226
I3
s(I8
S'GCG'
p6227
tp6228
I2
s(I12
S'ACT'
p6229
tp6230
I24
s(I41
S'AAC'
p6231
tp6232
I70
s(I73
S'TCG'
p6233
tp6234
I1
s(I33
S'GCC'
p6235
tp6236
I4
s(I52
S'CTC'
p6237
tp6238
I2
s(I74
S'GAA'
p6239
tp6240
I16
s(I16
S'CGC'
p6241
tp6242
I110
s(I31
S'GGG'
p6243
tp6244
I2
s(I34
S'CCA'
p6245
tp6246
I4
s(I51
S'GTG'
p6247
tp6248
I49
s(I11
S'GCA'
p6249
tp6250
I3542
s(I4
S'TGG'
p6251
tp6252
I15
s(I6
S'ACA'
p6253
tp6254
I2
s(I64
S'ATC'
p6255
tp6256
I2356
s(I47
S'CCT'
p6257
tp6258
I1
s(I40
S'GCG'
p6259
tp6260
I32
s(I65
S'ACC'
p6261
tp6262
I196
s(I9
S'CTT'
p6263
tp6264
I240
s(I5
S'AGG'
p6265
tp6266
I2
s(I65
S'GCC'
p6267
tp6268
I30
s(I45
S'GCG'
p6269
tp6270
I1317
s(I33
S'GAT'
p6271
tp6272
I3
s(I76
S'CGG'
p6273
tp6274
I2
s(I41
S'GTT'
p6275
tp6276
I35
s(I32
S'TGT'
p6277
tp6278
I376
s(I55
S'AGG'
p6279
tp6280
I11
s(I29
S'TAA'
p6281
tp6282
I3
s(I7
S'GGG'
p6283
tp6284
I2977
s(I63
S'AAC'
p6285
tp6286
I235
s(I18
S'CAT'
p6287
tp6288
I269
s(I17
S'CAC'
p6289
tp6290
I722
s(I25
S'CGG'
p6291
tp6292
I80
s(I69
S'AGG'
p6293
tp6294
I12
s(I40
S'GTG'
p6295
tp6296
I5
s(I40
S'CAG'
p6297
tp6298
I12
s(I65
S'GTA'
p6299
tp6300
I884
s(I72
S'AAA'
p6301
tp6302
I714
s(I35
S'TTC'
p6303
tp6304
I1
s(I24
S'CTG'
p6305
tp6306
I151
s(I20
S'CTA'
p6307
tp6308
I137
s(I13
S'ACA'
p6309
tp6310
I12
s(I37
S'ATC'
p6311
tp6312
I78
s(I3
S'GGC'
p6313
tp6314
I2
s(I75
S'GTC'
p6315
tp6316
I2
s(I6
S'GGT'
p6317
tp6318
I6159
s(I36
S'AAA'
p6319
tp6320
I1
s(I42
S'TAG'
p6321
tp6322
I4
s(I70
S'GCA'
p6323
tp6324
I8
s(I42
S'ATT'
p6325
tp6326
I1
s(I67
S'TCA'
p6327
tp6328
I108
s(I14
S'AGT'
p6329
tp6330
I59
s(I69
S'CAC'
p6331
tp6332
I13
s(I44
S'AAG'
p6333
tp6334
I6
s(I32
S'ACG'
p6335
tp6336
I87
s(I16
S'ATC'
p6337
tp6338
I12
s(I27
S'GCC'
p6339
tp6340
I42
s(I13
S'GCT'
p6341
tp6342
I21
s(I11
S'GTG'
p6343
tp6344
I84
s(I6
S'CCA'
p6345
tp6346
I1
s(I23
S'TCT'
p6347
tp6348
I15
s(I54
S'GGC'
p6349
tp6350
I207
s(I71
S'CAC'
p6351
tp6352
I1
s(I43
S'CAA'
p6353
tp6354
I9
s(I25
S'ATG'
p6355
tp6356
I32
s(I63
S'TCT'
p6357
tp6358
I121
s(I13
S'GTT'
p6359
tp6360
I239
s(I51
S'AAC'
p6361
tp6362
I60
s(I8
S'GGG'
p6363
tp6364
I4
s(I66
S'GTA'
p6365
tp6366
I202
s(I23
S'CGT'
p6367
tp6368
I1
s(I50
S'CAC'
p6369
tp6370
I1
s(I66
S'TAA'
p6371
tp6372
I8
s(I25
S'TGA'
p6373
tp6374
I8
s(I30
S'TAC'
p6375
tp6376
I253
s(I16
S'ACA'
p6377
tp6378
I161
s(I5
S'CTG'
p6379
tp6380
I768
s(I29
S'GGC'
p6381
tp6382
I82
s(I44
S'AAA'
p6383
tp6384
I4
s(I36
S'TGT'
p6385
tp6386
I2272
s(I16
S'AGA'
p6387
tp6388
I30
s(I73
S'TTC'
p6389
tp6390
I1
s(I17
S'GTC'
p6391
tp6392
I144
s(I7
S'CGG'
p6393
tp6394
I1
s(I64
S'AGG'
p6395
tp6396
I493
s(I53
S'TAT'
p6397
tp6398
I14
s(I34
S'ATT'
p6399
tp6400
I15
s(I28
S'AAC'
p6401
tp6402
I52
s(I16
S'GGG'
p6403
tp6404
I170
s(I26
S'TAA'
p6405
tp6406
I4
s(I61
S'GCC'
p6407
tp6408
I27
s(I18
S'TAG'
p6409
tp6410
I32
s(I4
S'GGC'
p6411
tp6412
I1
s(I31
S'GTC'
p6413
tp6414
I35
s(I4
S'TAC'
p6415
tp6416
I45
s(I34
S'CCT'
p6417
tp6418
I5
s(I38
S'TGT'
p6419
tp6420
I168
s(I24
S'AAC'
p6421
tp6422
I75
s(I50
S'ATC'
p6423
tp6424
I360
s(I47
S'GCT'
p6425
tp6426
I281
s(I29
S'CTA'
p6427
tp6428
I231
s(I72
S'ATA'
p6429
tp6430
I2
s(I7
S'GTG'
p6431
tp6432
I20
s(I34
S'CTC'
p6433
tp6434
I17
s(I23
S'GTC'
p6435
tp6436
I93
s(I11
S'CCG'
p6437
tp6438
I1426
s(I72
S'CGA'
p6439
tp6440
I157
s(I72
S'CCA'
p6441
tp6442
I38
s(I21
S'GCG'
p6443
tp6444
I137
s(I48
S'CGG'
p6445
tp6446
I13
s(I7
S'CCG'
p6447
tp6448
I2182
s(I33
S'GCT'
p6449
tp6450
I4
s(I62
S'ATG'
p6451
tp6452
I1164
s(I51
S'CGC'
p6453
tp6454
I24
s(I67
S'CCA'
p6455
tp6456
I3
s(I62
S'TAT'
p6457
tp6458
I567
s(I63
S'ACG'
p6459
tp6460
I10
s(I67
S'TAC'
p6461
tp6462
I1
s(I70
S'TAT'
p6463
tp6464
I4
s(I23
S'GCC'
p6465
tp6466
I9
s(I37
S'TCC'
p6467
tp6468
I87
s(I11
S'TTA'
p6469
tp6470
I80
s(I23
S'ACC'
p6471
tp6472
I90
s(I26
S'TGA'
p6473
tp6474
I1
s(I65
S'GCT'
p6475
tp6476
I977
s(I57
S'GGG'
p6477
tp6478
I198
s(I34
S'GGA'
p6479
tp6480
I156
s(I55
S'GCC'
p6481
tp6482
I29
s(I70
S'CCC'
p6483
tp6484
I1
s(I54
S'TGA'
p6485
tp6486
I10
s(I20
S'ATA'
p6487
tp6488
I24
s(I65
S'GTT'
p6489
tp6490
I750
s(I30
S'TGA'
p6491
tp6492
I10
s(I5
S'GAT'
p6493
tp6494
I5
s(I43
S'AAG'
p6495
tp6496
I2
s(I30
S'CTC'
p6497
tp6498
I20
s(I35
S'CTA'
p6499
tp6500
I418
s(I10
S'TAA'
p6501
tp6502
I1
s(I31
S'GAG'
p6503
tp6504
I496
s(I18
S'TAA'
p6505
tp6506
I4
s(I37
S'ACT'
p6507
tp6508
I244
s(I13
S'GCA'
p6509
tp6510
I96
s(I46
S'TGC'
p6511
tp6512
I3099
s(I15
S'GAG'
p6513
tp6514
I17
s(I55
S'TAG'
p6515
tp6516
I2
s(I56
S'TGC'
p6517
tp6518
I69
s(I53
S'ATG'
p6519
tp6520
I103
s(I55
S'ACA'
p6521
tp6522
I62
s(I6
S'GCA'
p6523
tp6524
I229
s(I3
S'CGA'
p6525
tp6526
I1
s(I74
S'CGG'
p6527
tp6528
I94
s(I56
S'TGT'
p6529
tp6530
I14
s(I24
S'GCA'
p6531
tp6532
I54
s(I61
S'AAA'
p6533
tp6534
I15
s(I3
S'GTC'
p6535
tp6536
I49
s(I39
S'TGT'
p6537
tp6538
I18
s(I75
S'CAA'
p6539
tp6540
I16
s(I32
S'GTG'
p6541
tp6542
I91
s(I34
S'TAC'
p6543
tp6544
I4
s(I28
S'TCC'
p6545
tp6546
I82
s(I41
S'GAA'
p6547
tp6548
I8
s(I57
S'GTA'
p6549
tp6550
I198
s(I39
S'CGC'
p6551
tp6552
I2
s(I16
S'GAG'
p6553
tp6554
I249
s(I43
S'AAT'
p6555
tp6556
I1
s(I58
S'TCC'
p6557
tp6558
I108
s(I44
S'CCC'
p6559
tp6560
I1
s(I44
S'TAA'
p6561
tp6562
I1
s(I75
S'CCC'
p6563
tp6564
I5
s(I55
S'TCT'
p6565
tp6566
I117
s(I70
S'CTT'
p6567
tp6568
I10
s(I11
S'TCC'
p6569
tp6570
I1
s(I75
S'CTT'
p6571
tp6572
I3
s(I57
S'GCA'
p6573
tp6574
I95
s(I54
S'ATT'
p6575
tp6576
I31
s(I33
S'ATA'
p6577
tp6578
I5
s(I57
S'ACA'
p6579
tp6580
I7
s(I6
S'AAT'
p6581
tp6582
I1539
s(I2
S'GAC'
p6583
tp6584
I2
s(I62
S'GTA'
p6585
tp6586
I512
s(I28
S'AGC'
p6587
tp6588
I18
s(I15
S'ACT'
p6589
tp6590
I5
s(I15
S'TCG'
p6591
tp6592
I19
s(I33
S'CCG'
p6593
tp6594
I4
s(I46
S'AAA'
p6595
tp6596
I38
s(I56
S'AAA'
p6597
tp6598
I1
s(I42
S'CAT'
p6599
tp6600
I153
s(I49
S'TGG'
p6601
tp6602
I3
s(I15
S'CGT'
p6603
tp6604
I81
s(I22
S'ATA'
p6605
tp6606
I135
s(I46
S'ACC'
p6607
tp6608
I3502
s(I7
S'GAC'
p6609
tp6610
I31
s(I3
S'ACT'
p6611
tp6612
I31
s(I9
S'GGG'
p6613
tp6614
I309
s(I57
S'AGA'
p6615
tp6616
I5
s(I5
S'TTG'
p6617
tp6618
I100
s(I73
S'AGG'
p6619
tp6620
I1
s(I15
S'TGC'
p6621
tp6622
I27
s(I52
S'ACT'
p6623
tp6624
I103
s(I75
S'ATA'
p6625
tp6626
I2
s(I49
S'GGA'
p6627
tp6628
I718
s(I37
S'TGA'
p6629
tp6630
I3
s(I20
S'GTG'
p6631
tp6632
I295
s(I76
S'GAA'
p6633
tp6634
I1
s(I53
S'GAT'
p6635
tp6636
I9
s(I48
S'GAC'
p6637
tp6638
I5
s(I8
S'AGT'
p6639
tp6640
I1
s(I31
S'CCA'
p6641
tp6642
I1
s(I51
S'TTC'
p6643
tp6644
I93
s(I63
S'GCG'
p6645
tp6646
I51
s(I19
S'CCT'
p6647
tp6648
I31
s(I53
S'ACC'
p6649
tp6650
I41
s(I13
S'AGA'
p6651
tp6652
I60
s(I68
S'ATG'
p6653
tp6654
I8
s(I63
S'CAT'
p6655
tp6656
I204
s(I9
S'ACT'
p6657
tp6658
I149
s(I3
S'AGG'
p6659
tp6660
I1
s(I63
S'GGC'
p6661
tp6662
I92
s(I43
S'TGT'
p6663
tp6664
I13
s(I23
S'GGT'
p6665
tp6666
I36
s(I12
S'CTC'
p6667
tp6668
I8
s(I24
S'TAT'
p6669
tp6670
I15
s(I63
S'CGG'
p6671
tp6672
I193
s(I49
S'ACG'
p6673
tp6674
I164
s(I74
S'GCC'
p6675
tp6676
I8
s(I22
S'GTC'
p6677
tp6678
I319
s(I33
S'GAG'
p6679
tp6680
I26
s(I20
S'GGA'
p6681
tp6682
I3
s(I48
S'CAT'
p6683
tp6684
I4
s(I62
S'CGG'
p6685
tp6686
I807
s(I7
S'AGC'
p6687
tp6688
I66
s(I57
S'CAC'
p6689
tp6690
I29
s(I3
S'CGT'
p6691
tp6692
I1
s(I68
S'AGA'
p6693
tp6694
I30
s(I76
S'GGA'
p6695
tp6696
I181
s(I51
S'CGG'
p6697
tp6698
I2
s(I42
S'CTT'
p6699
tp6700
I2
s(I13
S'CCC'
p6701
tp6702
I10
s(I60
S'AAT'
p6703
tp6704
I16
s(I57
S'GTG'
p6705
tp6706
I2
s(I37
S'ACA'
p6707
tp6708
I60
s(I74
S'CGT'
p6709
tp6710
I89
s(I24
S'GTT'
p6711
tp6712
I39
s(I57
S'CGC'
p6713
tp6714
I15
s(I20
S'TTT'
p6715
tp6716
I216
s(I34
S'GCG'
p6717
tp6718
I11
s(I48
S'TTA'
p6719
tp6720
I7
s(I24
S'AGT'
p6721
tp6722
I62
s(I52
S'GTA'
p6723
tp6724
I6
s(I20
S'CCC'
p6725
tp6726
I328
s(I59
S'AAC'
p6727
tp6728
I345
s(I61
S'GGT'
p6729
tp6730
I2
s(I16
S'TAT'
p6731
tp6732
I13
s(I18
S'GTA'
p6733
tp6734
I265
s(I22
S'TGT'
p6735
tp6736
I77
s(I21
S'TGT'
p6737
tp6738
I81
s(I52
S'GGG'
p6739
tp6740
I1
s(I76
S'CTC'
p6741
tp6742
I2
s(I15
S'AAT'
p6743
tp6744
I2
s(I24
S'GCT'
p6745
tp6746
I57
s(I46
S'CGA'
p6747
tp6748
I734
s(I32
S'CCA'
p6749
tp6750
I36
s(I50
S'AGC'
p6751
tp6752
I1
s(I23
S'CTA'
p6753
tp6754
I134
s(I45
S'GAC'
p6755
tp6756
I1
s(I60
S'GGT'
p6757
tp6758
I277
s(I67
S'CCC'
p6759
tp6760
I8
s(I52
S'TGA'
p6761
tp6762
I17
s(I68
S'GCC'
p6763
tp6764
I87
s(I5
S'CAG'
p6765
tp6766
I3
s(I24
S'TGG'
p6767
tp6768
I6
s(I10
S'CAG'
p6769
tp6770
I26
s(I28
S'CAC'
p6771
tp6772
I7
s(I10
S'TCA'
p6773
tp6774
I274
s(I33
S'CAC'
p6775
tp6776
I1
s(I33
S'TCG'
p6777
tp6778
I18
s(I58
S'CGT'
p6779
tp6780
I249
s(I32
S'TAC'
p6781
tp6782
I50
s(I18
S'TTA'
p6783
tp6784
I756
s(I64
S'TCG'
p6785
tp6786
I5185
s(I2
S'TCA'
p6787
tp6788
I1
s(I48
S'ATA'
p6789
tp6790
I2
s(I67
S'AAC'
p6791
tp6792
I3
s(I30
S'CCC'
p6793
tp6794
I4
s(I24
S'GGC'
p6795
tp6796
I42
s(I56
S'GTT'
p6797
tp6798
I176
s(I5
S'AAG'
p6799
tp6800
I1
s(I39
S'TAC'
p6801
tp6802
I11
s(I31
S'AAC'
p6803
tp6804
I91
s(I28
S'ACG'
p6805
tp6806
I229
s(I69
S'CGC'
p6807
tp6808
I1
s(I38
S'AGG'
p6809
tp6810
I100
s(I10
S'AAT'
p6811
tp6812
I638
s(I26
S'GCA'
p6813
tp6814
I6
s(I45
S'TTA'
p6815
tp6816
I123
s(I46
S'TTC'
p6817
tp6818
I19278
s(I18
S'CCG'
p6819
tp6820
I376
s(I8
S'CCT'
p6821
tp6822
I1
s(I64
S'TGT'
p6823
tp6824
I449
s(I22
S'CCT'
p6825
tp6826
I859
s(I3
S'TGT'
p6827
tp6828
I161
s(I67
S'GTG'
p6829
tp6830
I18
s(I69
S'GTA'
p6831
tp6832
I11
s(I69
S'CAG'
p6833
tp6834
I7
s(I29
S'GCG'
p6835
tp6836
I114
s(I61
S'CCA'
p6837
tp6838
I9
s(I37
S'CGC'
p6839
tp6840
I189
s(I34
S'TTG'
p6841
tp6842
I14
s(I57
S'TTC'
p6843
tp6844
I352
s(I29
S'AGG'
p6845
tp6846
I203
s(I67
S'GAT'
p6847
tp6848
I1
s(I39
S'ACG'
p6849
tp6850
I33
s(I47
S'ACT'
p6851
tp6852
I119
s(I47
S'AGG'
p6853
tp6854
I2
s(I4
S'CAC'
p6855
tp6856
I8
s(I11
S'TAG'
p6857
tp6858
I2
s(I68
S'TAT'
p6859
tp6860
I5
s(I32
S'GGT'
p6861
tp6862
I242
s(I26
S'CTA'
p6863
tp6864
I295
s(I19
S'CCA'
p6865
tp6866
I35
s(I57
S'TGA'
p6867
tp6868
I4
s(I57
S'GCG'
p6869
tp6870
I117
s(I69
S'TGA'
p6871
tp6872
I1
s(I25
S'AGA'
p6873
tp6874
I84
s(I74
S'TCC'
p6875
tp6876
I4
s(I24
S'TAA'
p6877
tp6878
I4
s(I21
S'TAA'
p6879
tp6880
I6
s(I26
S'TCA'
p6881
tp6882
I1
s(I22
S'TTC'
p6883
tp6884
I268
s(I30
S'GCG'
p6885
tp6886
I14
s(I71
S'TAG'
p6887
tp6888
I5
s(I31
S'TGA'
p6889
tp6890
I4
s(I8
S'GAT'
p6891
tp6892
I7
s(I23
S'CGC'
p6893
tp6894
I2
s(I52
S'TAA'
p6895
tp6896
I5
s(I19
S'AGC'
p6897
tp6898
I193
s(I15
S'CCT'
p6899
tp6900
I3
s(I35
S'GTG'
p6901
tp6902
I18
s(I35
S'CAA'
p6903
tp6904
I151
s(I21
S'GGG'
p6905
tp6906
I283
s(I10
S'TTG'
p6907
tp6908
I7
s(I57
S'CGT'
p6909
tp6910
I330
s(I33
S'TTC'
p6911
tp6912
I48
s(I11
S'TGC'
p6913
tp6914
I97
s(I70
S'CGA'
p6915
tp6916
I2
s(I9
S'GTT'
p6917
tp6918
I263
s(I64
S'TAA'
p6919
tp6920
I6
s(I34
S'ACA'
p6921
tp6922
I68
s(I69
S'AAA'
p6923
tp6924
I11
s(I45
S'AGT'
p6925
tp6926
I2227
s(I50
S'AGT'
p6927
tp6928
I14
s(I44
S'ACG'
p6929
tp6930
I688
s(I39
S'TCA'
p6931
tp6932
I2
s(I71
S'ATG'
p6933
tp6934
I1893
s(I21
S'TGC'
p6935
tp6936
I49
s(I62
S'TCG'
p6937
tp6938
I220
s(I50
S'GTT'
p6939
tp6940
I816
s(I46
S'CGT'
p6941
tp6942
I1325
s(I63
S'GAC'
p6943
tp6944
I160
s(I25
S'CCG'
p6945
tp6946
I1
s(I11
S'ATG'
p6947
tp6948
I142
s(I51
S'GCG'
p6949
tp6950
I27
s(I70
S'TTG'
p6951
tp6952
I13
s(I46
S'TCG'
p6953
tp6954
I2138
s(I45
S'CAA'
p6955
tp6956
I9449
s(I11
S'GTC'
p6957
tp6958
I9
s(I50
S'CAA'
p6959
tp6960
I2
s(I19
S'AAC'
p6961
tp6962
I220
s(I8
S'CTC'
p6963
tp6964
I137
s(I50
S'TCC'
p6965
tp6966
I1
s(I37
S'CCG'
p6967
tp6968
I74
s(I50
S'GCT'
p6969
tp6970
I16
s(I54
S'CGC'
p6971
tp6972
I188
s(I54
S'GCA'
p6973
tp6974
I69
s(I55
S'TTT'
p6975
tp6976
I45
s(I11
S'CGC'
p6977
tp6978
I10
s(I49
S'AAC'
p6979
tp6980
I881
s(I67
S'GCG'
p6981
tp6982
I1662
s(I51
S'TGT'
p6983
tp6984
I26
s(I57
S'TCA'
p6985
tp6986
I178
s(I66
S'AGG'
p6987
tp6988
I1
s(I74
S'AAC'
p6989
tp6990
I2
s(I6
S'TCA'
p6991
tp6992
I1225
s(I20
S'GAA'
p6993
tp6994
I286
s(I11
S'ACC'
p6995
tp6996
I308
s(I52
S'CGC'
p6997
tp6998
I8
s(I72
S'CAC'
p6999
tp7000
I2045
s(I62
S'TCC'
p7001
tp7002
I296
s(I48
S'TGA'
p7003
tp7004
I9
s(I27
S'CGA'
p7005
tp7006
I147
s(I46
S'CTC'
p7007
tp7008
I94
s(I51
S'CTA'
p7009
tp7010
I301
s(I37
S'AAA'
p7011
tp7012
I232
s(I49
S'GTG'
p7013
tp7014
I13
s(I17
S'TCC'
p7015
tp7016
I35
s(I70
S'GTA'
p7017
tp7018
I78
s(I69
S'ATT'
p7019
tp7020
I35
s(I76
S'CAC'
p7021
tp7022
I4
s(I20
S'CGC'
p7023
tp7024
I565
s(I4
S'AGT'
p7025
tp7026
I4
s(I2
S'GGC'
p7027
tp7028
I6
s(I59
S'ACG'
p7029
tp7030
I2
s(I55
S'TGG'
p7031
tp7032
I18
s(I63
S'GAG'
p7033
tp7034
I114
s(I19
S'CTA'
p7035
tp7036
I412
s(I48
S'GGG'
p7037
tp7038
I26
s(I33
S'ATG'
p7039
tp7040
I83
s(I35
S'TCA'
p7041
tp7042
I82
s(I73
S'CCG'
p7043
tp7044
I3
s(I20
S'TAC'
p7045
tp7046
I5
s(I6
S'TTG'
p7047
tp7048
I14
s(I54
S'AGC'
p7049
tp7050
I1805
s(I28
S'TAC'
p7051
tp7052
I53
s(I14
S'GGG'
p7053
tp7054
I27
s(I11
S'CAG'
p7055
tp7056
I148
s(I46
S'GAG'
p7057
tp7058
I1380
s(I31
S'GTA'
p7059
tp7060
I18
s(I64
S'TTA'
p7061
tp7062
I4846
s(I35
S'TTA'
p7063
tp7064
I457
s(I3
S'TGG'
p7065
tp7066
I6
s(I7
S'ACA'
p7067
tp7068
I177
s(I4
S'GGG'
p7069
tp7070
I1
s(I21
S'GAA'
p7071
tp7072
I1
s(I32
S'AGA'
p7073
tp7074
I80
s(I43
S'ACA'
p7075
tp7076
I35
s(I15
S'CTT'
p7077
tp7078
I42
s(I17
S'AAG'
p7079
tp7080
I2
s(I18
S'TGT'
p7081
tp7082
I68
s(I32
S'CGG'
p7083
tp7084
I140
s(I5
S'TTA'
p7085
tp7086
I1249
s(I40
S'ACG'
p7087
tp7088
I157
s(I18
S'CGC'
p7089
tp7090
I339
s(I63
S'ATC'
p7091
tp7092
I216
s(I58
S'GTA'
p7093
tp7094
I56
s(I70
S'TCC'
p7095
tp7096
I9
s(I17
S'GTG'
p7097
tp7098
I417
s(I31
S'ACG'
p7099
tp7100
I25
s(I44
S'TCG'
p7101
tp7102
I2
s(I67
S'CAA'
p7103
tp7104
I177
s(I75
S'CAG'
p7105
tp7106
I1
s(I67
S'CCG'
p7107
tp7108
I72
s(I61
S'GTA'
p7109
tp7110
I179
s(I27
S'GGT'
p7111
tp7112
I1
s(I35
S'GAC'
p7113
tp7114
I1
s(I48
S'GTT'
p7115
tp7116
I4
s(I29
S'CGG'
p7117
tp7118
I100
s(I57
S'TAC'
p7119
tp7120
I193
s(I6
S'GTG'
p7121
tp7122
I1680
s(I20
S'GGC'
p7123
tp7124
I55
s(I64
S'CAT'
p7125
tp7126
I719
s(I65
S'TAC'
p7127
tp7128
I189
s(I20
S'GCT'
p7129
tp7130
I9
s(I42
S'GCG'
p7131
tp7132
I11
s(I28
S'GGC'
p7133
tp7134
I19
s(I34
S'GTA'
p7135
tp7136
I21
s(I38
S'CCC'
p7137
tp7138
I333
s(I27
S'TTC'
p7139
tp7140
I59
s(I61
S'ACA'
p7141
tp7142
I8
s(I39
S'TCT'
p7143
tp7144
I2
s(I72
S'TTG'
p7145
tp7146
I5
s(I27
S'CGT'
p7147
tp7148
I241
s(I39
S'GCC'
p7149
tp7150
I17
s(I62
S'AAC'
p7151
tp7152
I422
s(I63
S'GAT'
p7153
tp7154
I141
s(I73
S'TAT'
p7155
tp7156
I4
s(I50
S'CGG'
p7157
tp7158
I2
s(I27
S'GAA'
p7159
tp7160
I1
s(I75
S'AAC'
p7161
tp7162
I1
s(I38
S'GAT'
p7163
tp7164
I411
s(I66
S'TGG'
p7165
tp7166
I49
s(I16
S'CGT'
p7167
tp7168
I123
s(I76
S'TTC'
p7169
tp7170
I5
s(I34
S'ACC'
p7171
tp7172
I81
s(I73
S'CGT'
p7173
tp7174
I7
s(I15
S'TCT'
p7175
tp7176
I8
s(I11
S'GCT'
p7177
tp7178
I209
s(I58
S'AGT'
p7179
tp7180
I29
s(I37
S'GAC'
p7181
tp7182
I3717
s(I5
S'ACT'
p7183
tp7184
I48
s(I54
S'GCT'
p7185
tp7186
I462
s(I63
S'CTG'
p7187
tp7188
I15
s(I28
S'CTC'
p7189
tp7190
I277
s(I31
S'TTT'
p7191
tp7192
I43
s(I17
S'GGC'
p7193
tp7194
I31
s(I35
S'TCC'
p7195
tp7196
I233
s(I37
S'CAA'
p7197
tp7198
I375
s(I76
S'ACT'
p7199
tp7200
I5
s(I44
S'GAC'
p7201
tp7202
I1
s(I41
S'ACC'
p7203
tp7204
I78
s(I11
S'GAA'
p7205
tp7206
I746
s(I23
S'TGC'
p7207
tp7208
I13
s(I65
S'TTT'
p7209
tp7210
I43
s(I43
S'ATC'
p7211
tp7212
I77
s(I8
S'GCA'
p7213
tp7214
I8
s(I37
S'ATT'
p7215
tp7216
I325
s(I27
S'CTG'
p7217
tp7218
I28
s(I18
S'ACG'
p7219
tp7220
I98
s(I41
S'CGC'
p7221
tp7222
I2
s(I45
S'TAG'
p7223
tp7224
I10
s(I31
S'GGA'
p7225
tp7226
I577
s(I20
S'AGC'
p7227
tp7228
I106
s(I28
S'ATG'
p7229
tp7230
I209
s(I51
S'GTA'
p7231
tp7232
I388
s(I9
S'CAC'
p7233
tp7234
I4645
s(I19
S'TGG'
p7235
tp7236
I65
s(I42
S'TTT'
p7237
tp7238
I17
s(I73
S'GGT'
p7239
tp7240
I3
s(I52
S'TTC'
p7241
tp7242
I22
s(I23
S'GAT'
p7243
tp7244
I2
s(I40
S'GCA'
p7245
tp7246
I30
s(I75
S'TTG'
p7247
tp7248
I4
s(I9
S'CCT'
p7249
tp7250
I6659
s(I16
S'CCC'
p7251
tp7252
I215
s(I28
S'CGA'
p7253
tp7254
I7
s(I43
S'CTT'
p7255
tp7256
I17
s(I10
S'GAG'
p7257
tp7258
I121
s(I7
S'CAA'
p7259
tp7260
I504
s(I25
S'ACA'
p7261
tp7262
I57
s(I61
S'CAT'
p7263
tp7264
I33
s(I35
S'TGA'
p7265
tp7266
I2
s(I7
S'GGA'
p7267
tp7268
I858
s(I67
S'GTA'
p7269
tp7270
I246
s(I60
S'GAG'
p7271
tp7272
I3
s(I65
S'CTC'
p7273
tp7274
I689
s(I40
S'GTA'
p7275
tp7276
I61
s(I58
S'TAT'
p7277
tp7278
I35
s(I21
S'CAG'
p7279
tp7280
I136
s(I61
S'TAA'
p7281
tp7282
I5
s(I9
S'TAC'
p7283
tp7284
I5
s(I61
S'ATG'
p7285
tp7286
I1451
s(I72
S'TCC'
p7287
tp7288
I387
s(I14
S'ACC'
p7289
tp7290
I2
s(I17
S'TAC'
p7291
tp7292
I144
s(I23
S'TCC'
p7293
tp7294
I1
s(I45
S'TGG'
p7295
tp7296
I786
s(I29
S'TCC'
p7297
tp7298
I169
s(I73
S'GCA'
p7299
tp7300
I3
s(I14
S'CGC'
p7301
tp7302
I6
s(I32
S'TAG'
p7303
tp7304
I24
s(I57
S'ATC'
p7305
tp7306
I14
s(I74
S'TAG'
p7307
tp7308
I19
s(I34
S'ATG'
p7309
tp7310
I1
s(I65
S'ATT'
p7311
tp7312
I1
s(I37
S'GGA'
p7313
tp7314
I93
s(I33
S'AAC'
p7315
tp7316
I11
s(I36
S'TCC'
p7317
tp7318
I20
s(I45
S'GGA'
p7319
tp7320
I3741
s(I42
S'CCA'
p7321
tp7322
I1
s(I5
S'GCC'
p7323
tp7324
I9
s(I7
S'CTC'
p7325
tp7326
I48
s(I73
S'GTG'
p7327
tp7328
I1318
s(I23
S'CAT'
p7329
tp7330
I1
s(I60
S'CCC'
p7331
tp7332
I27
s(I21
S'ACC'
p7333
tp7334
I50
s(I62
S'CCT'
p7335
tp7336
I2212
s(I56
S'ATC'
p7337
tp7338
I302
s(I71
S'ATA'
p7339
tp7340
I1
s(I38
S'TGG'
p7341
tp7342
I1
s(I29
S'AGA'
p7343
tp7344
I17
s(I47
S'GCG'
p7345
tp7346
I124
s(I69
S'GCT'
p7347
tp7348
I982
s(I5
S'GTA'
p7349
tp7350
I89
s(I66
S'GGT'
p7351
tp7352
I392
s(I35
S'CCG'
p7353
tp7354
I193
s(I17
S'ACG'
p7355
tp7356
I30
s(I19
S'TGA'
p7357
tp7358
I2
s(I65
S'GAG'
p7359
tp7360
I17437
s(I20
S'CAC'
p7361
tp7362
I173
s(I25
S'CAC'
p7363
tp7364
I30
s(I48
S'TCC'
p7365
tp7366
I26
s(I48
S'ACT'
p7367
tp7368
I2
s(I70
S'TAC'
p7369
tp7370
I1
s(I64
S'TAC'
p7371
tp7372
I57
s(I68
S'ACT'
p7373
tp7374
I238
s(I5
S'ACA'
p7375
tp7376
I62
s(I29
S'ATC'
p7377
tp7378
I3
s(I36
S'GCA'
p7379
tp7380
I20
s(I73
S'CCC'
p7381
tp7382
I1
s(I64
S'ACC'
p7383
tp7384
I11518
s(I52
S'TCG'
p7385
tp7386
I41
s(I70
S'AAA'
p7387
tp7388
I4
s(I53
S'TTA'
p7389
tp7390
I118
s(I75
S'TCA'
p7391
tp7392
I15
s(I36
S'CAT'
p7393
tp7394
I25
s(I58
S'TAA'
p7395
tp7396
I11
s(I48
S'TTC'
p7397
tp7398
I2
s(I24
S'ACG'
p7399
tp7400
I7
s(I52
S'AAC'
p7401
tp7402
I22
s(I74
S'ATG'
p7403
tp7404
I1
s(I54
S'TGT'
p7405
tp7406
I4
s(I51
S'TAT'
p7407
tp7408
I447
s(I44
S'CTC'
p7409
tp7410
I311
s(I13
S'CCT'
p7411
tp7412
I1
s(I36
S'CCC'
p7413
tp7414
I69
s(I22
S'GAA'
p7415
tp7416
I170
s(I77
S'TGT'
p7417
tp7418
I66
s(I73
S'CGG'
p7419
tp7420
I4
s(I18
S'AGC'
p7421
tp7422
I89
s(I68
S'TTT'
p7423
tp7424
I6
s(I44
S'GCA'
p7425
tp7426
I36
s(I51
S'CAA'
p7427
tp7428
I128
s(I5
S'GAG'
p7429
tp7430
I17
s(I41
S'CCG'
p7431
tp7432
I2
s(I73
S'TCT'
p7433
tp7434
I1
s(I64
S'TTG'
p7435
tp7436
I1189
s(I14
S'ATG'
p7437
tp7438
I6
s(I69
S'TTA'
p7439
tp7440
I36
s(I50
S'GGG'
p7441
tp7442
I4
s(I41
S'ATT'
p7443
tp7444
I3
s(I51
S'GTT'
p7445
tp7446
I1
s(I13
S'TAA'
p7447
tp7448
I1
s(I61
S'AGT'
p7449
tp7450
I8
s(I32
S'ATT'
p7451
tp7452
I129
s(I8
S'ACA'
p7453
tp7454
I2
s(I66
S'GAT'
p7455
tp7456
I14601
s(I47
S'CCC'
p7457
tp7458
I5
s(I16
S'GTT'
p7459
tp7460
I5
s(I62
S'GGC'
p7461
tp7462
I433
s(I34
S'AAC'
p7463
tp7464
I22
s(I74
S'GCA'
p7465
tp7466
I6
s(I16
S'CTG'
p7467
tp7468
I27
s(I26
S'TAG'
p7469
tp7470
I42
s(I71
S'AAT'
p7471
tp7472
I1
s(I26
S'ATT'
p7473
tp7474
I129
s(I66
S'GTG'
p7475
tp7476
I146
s(I37
S'CTC'
p7477
tp7478
I496
s(I6
S'AGG'
p7479
tp7480
I51
s(I11
S'ACT'
p7481
tp7482
I882
s(I17
S'GAG'
p7483
tp7484
I1
s(I21
S'AGA'
p7485
tp7486
I2
s(I39
S'TGA'
p7487
tp7488
I8
s(I41
S'AGC'
p7489
tp7490
I147
s(I58
S'ACC'
p7491
tp7492
I150
s(I10
S'GCA'
p7493
tp7494
I22
s(I55
S'GTG'
p7495
tp7496
I84
s(I21
S'CTC'
p7497
tp7498
I10
s(I67
S'ACA'
p7499
tp7500
I847
s(I17
S'TTA'
p7501
tp7502
I56
s(I35
S'TTT'
p7503
tp7504
I39
s(I15
S'GTC'
p7505
tp7506
I224
s(I40
S'GAC'
p7507
tp7508
I223
s(I13
S'GCG'
p7509
tp7510
I11
s(I43
S'TTC'
p7511
tp7512
I86
s(I73
S'GAT'
p7513
tp7514
I2
s(I70
S'CTC'
p7515
tp7516
I942
s(I51
S'GGC'
p7517
tp7518
I259
s(I68
S'ACA'
p7519
tp7520
I9
s(I5
S'ATG'
p7521
tp7522
I136
s(I31
S'ATG'
p7523
tp7524
I66
s(I49
S'AGG'
p7525
tp7526
I6
s(I15
S'GCC'
p7527
tp7528
I84
s(I62
S'GAC'
p7529
tp7530
I41
s(I62
S'GTT'
p7531
tp7532
I4339
s(I26
S'CCG'
p7533
tp7534
I426
s(I15
S'ACC'
p7535
tp7536
I63
s(I16
S'TAA'
p7537
tp7538
I8
s(I24
S'TTT'
p7539
tp7540
I45
s(I48
S'CTA'
p7541
tp7542
I8
s(I69
S'GCA'
p7543
tp7544
I1323
s(I42
S'CAA'
p7545
tp7546
I99
s(I18
S'TCT'
p7547
tp7548
I62
s(I15
S'CGG'
p7549
tp7550
I1
s(I73
S'CTG'
p7551
tp7552
I67
s(I9
S'TCG'
p7553
tp7554
I137
s(I10
S'GGA'
p7555
tp7556
I22
s(I32
S'CAG'
p7557
tp7558
I10
s(I32
S'GTA'
p7559
tp7560
I5
s(I52
S'CCG'
p7561
tp7562
I123
s(I36
S'CGC'
p7563
tp7564
I2
s(I54
S'TTG'
p7565
tp7566
I188
s(I2
S'TAG'
p7567
tp7568
I9
s(I59
S'TGT'
p7569
tp7570
I507
s(I6
S'TCT'
p7571
tp7572
I151
s(I58
S'AGG'
p7573
tp7574
I36
s(I53
S'TGC'
p7575
tp7576
I18
s(I36
S'TCA'
p7577
tp7578
I8
s(I3
S'ATA'
p7579
tp7580
I63
s(I32
S'GCC'
p7581
tp7582
I24
s(I42
S'CCT'
p7583
tp7584
I3
s(I46
S'CCA'
p7585
tp7586
I54
s(I35
S'AAG'
p7587
tp7588
I718
s(I46
S'AAG'
p7589
tp7590
I39
s(I17
S'CCT'
p7591
tp7592
I4
s(I69
S'TGC'
p7593
tp7594
I1593
s(I39
S'GAG'
p7595
tp7596
I7
s(I33
S'GGT'
p7597
tp7598
I1
s(I3
S'CCT'
p7599
tp7600
I3
s(I63
S'CAC'
p7601
tp7602
I77
s(I68
S'GAT'
p7603
tp7604
I28
s(I51
S'TAC'
p7605
tp7606
I130
s(I19
S'ATG'
p7607
tp7608
I34
s(I23
S'GAG'
p7609
tp7610
I3
s(I64
S'GCC'
p7611
tp7612
I6535
s.