(dp0
(I9
S'CCG'
p1
tp2
I8652
s(I49
S'TGA'
p3
tp4
I1
s(I47
S'ACA'
p5
tp6
I2
s(I18
S'GCC'
p7
tp8
I164
s(I3
S'GCC'
p9
tp10
I195
s(I62
S'CGT'
p11
tp12
I265
s(I46
S'AGC'
p13
tp14
I1416
s(I19
S'AAT'
p15
tp16
I118
s(I3
S'CAG'
p17
tp18
I3
s(I8
S'CAG'
p19
tp20
I2
s(I41
S'ATC'
p21
tp22
I20
s(I64
S'GTC'
p23
tp24
I51
s(I60
S'GCG'
p25
tp26
I50
s(I18
S'ATG'
p27
tp28
I43
s(I25
S'CTC'
p29
tp30
I41
s(I49
S'GGG'
p31
tp32
I2346
s(I40
S'GTC'
p33
tp34
I3
s(I31
S'CTA'
p35
tp36
I5
s(I4
S'TGA'
p37
tp38
I1
s(I24
S'GTG'
p39
tp40
I21
s(I38
S'GCA'
p41
tp42
I88
s(I14
S'AGG'
p43
tp44
I2
s(I24
S'AGA'
p45
tp46
I1
s(I20
S'CCT'
p47
tp48
I97
s(I4
S'GAC'
p49
tp50
I1
s(I61
S'GAG'
p51
tp52
I1
s(I14
S'CTC'
p53
tp54
I10
s(I36
S'CTT'
p55
tp56
I75
s(I14
S'CGG'
p57
tp58
I4
s(I41
S'CTT'
p59
tp60
I335
s(I60
S'CAG'
p61
tp62
I20
s(I9
S'GCT'
p63
tp64
I39
s(I19
S'TCC'
p65
tp66
I49
s(I49
S'GCA'
p67
tp68
I257
s(I41
S'GTT'
p69
tp70
I8
s(I39
S'CAC'
p71
tp72
I1
s(I49
S'GTA'
p73
tp74
I1
s(I44
S'CAC'
p75
tp76
I5
s(I49
S'ACA'
p77
tp78
I20
s(I67
S'CAG'
p79
tp80
I6
s(I34
S'TTA'
p81
tp82
I1
s(I27
S'TCA'
p83
tp84
I3
s(I65
S'CGC'
p85
tp86
I26
s(I54
S'GTA'
p87
tp88
I1
s(I23
S'TCG'
p89
tp90
I10
s(I11
S'ATA'
p91
tp92
I13
s(I64
S'TAT'
p93
tp94
I9
s(I72
S'TAC'
p95
tp96
I4
s(I55
S'TGT'
p97
tp98
I38
s(I63
S'AAA'
p99
tp100
I120
s(I22
S'AGC'
p101
tp102
I22
s(I38
S'ACC'
p103
tp104
I37
s(I3
S'TTC'
p105
tp106
I5
s(I58
S'CGA'
p107
tp108
I5
s(I13
S'TTG'
p109
tp110
I5
s(I36
S'TTC'
p111
tp112
I1
s(I33
S'CGC'
p113
tp114
I24
s(I53
S'ATT'
p115
tp116
I29
s(I66
S'CTC'
p117
tp118
I266
s(I32
S'ATG'
p119
tp120
I19
s(I53
S'ACT'
p121
tp122
I1
s(I9
S'ATG'
p123
tp124
I7
s(I52
S'GGA'
p125
tp126
I2
s(I46
S'TTT'
p127
tp128
I216
s(I22
S'CGA'
p129
tp130
I25
s(I30
S'TTT'
p131
tp132
I91
s(I65
S'CTT'
p133
tp134
I4
s(I45
S'ACC'
p135
tp136
I405
s(I61
S'CGT'
p137
tp138
I8
s(I65
S'AGC'
p139
tp140
I64
s(I52
S'TGG'
p141
tp142
I1
s(I61
S'CCT'
p143
tp144
I1
s(I38
S'TGT'
p145
tp146
I46
s(I6
S'TAT'
p147
tp148
I495
s(I67
S'GAC'
p149
tp150
I2
s(I67
S'CAC'
p151
tp152
I2
s(I51
S'ATA'
p153
tp154
I8
s(I29
S'TTT'
p155
tp156
I2
s(I28
S'GAT'
p157
tp158
I19
s(I26
S'CTT'
p159
tp160
I44
s(I51
S'AAA'
p161
tp162
I2
s(I37
S'GGC'
p163
tp164
I3
s(I67
S'CCA'
p165
tp166
I1
s(I15
S'TAG'
p167
tp168
I1
s(I17
S'AAC'
p169
tp170
I110
s(I10
S'GGG'
p171
tp172
I8
s(I19
S'TAA'
p173
tp174
I3
s(I51
S'GGT'
p175
tp176
I66
s(I44
S'GTA'
p177
tp178
I10
s(I58
S'GGA'
p179
tp180
I7
s(I24
S'ATA'
p181
tp182
I2
s(I27
S'TAA'
p183
tp184
I6
s(I70
S'GAT'
p185
tp186
I17
s(I69
S'GTG'
p187
tp188
I17
s(I42
S'CTG'
p189
tp190
I1
s(I66
S'GGA'
p191
tp192
I47
s(I3
S'GGT'
p193
tp194
I3
s(I48
S'ATA'
p195
tp196
I2
s(I13
S'TGT'
p197
tp198
I34
s(I20
S'TCT'
p199
tp200
I16
s(I72
S'CGA'
p201
tp202
I8
s(I48
S'GTG'
p203
tp204
I3
s(I26
S'TGT'
p205
tp206
I12
s(I13
S'CGC'
p207
tp208
I86
s(I47
S'GGC'
p209
tp210
I22
s(I69
S'ATA'
p211
tp212
I1
s(I40
S'TAC'
p213
tp214
I30
s(I31
S'CTG'
p215
tp216
I1
s(I55
S'GGC'
p217
tp218
I5
s(I49
S'CCC'
p219
tp220
I46
s(I44
S'CAT'
p221
tp222
I1
s(I67
S'GGC'
p223
tp224
I1867
s(I44
S'TGT'
p225
tp226
I121
s(I10
S'CGG'
p227
tp228
I2
s(I35
S'TTG'
p229
tp230
I5
s(I5
S'GGC'
p231
tp232
I3
s(I44
S'ACT'
p233
tp234
I8
s(I32
S'TTT'
p235
tp236
I4
s(I14
S'TCT'
p237
tp238
I1
s(I11
S'GAT'
p239
tp240
I61
s(I20
S'AGG'
p241
tp242
I6
s(I51
S'TCC'
p243
tp244
I28
s(I66
S'CTA'
p245
tp246
I1163
s(I20
S'TTC'
p247
tp248
I15
s(I65
S'TGC'
p249
tp250
I11
s(I58
S'AAG'
p251
tp252
I6
s(I11
S'GTT'
p253
tp254
I11
s(I65
S'CGT'
p255
tp256
I35
s(I36
S'GTT'
p257
tp258
I36
s(I25
S'TCT'
p259
tp260
I76
s(I19
S'GGG'
p261
tp262
I32
s(I64
S'TAA'
p263
tp264
I8
s(I30
S'ATC'
p265
tp266
I13
s(I70
S'AAC'
p267
tp268
I1
s(I72
S'CTA'
p269
tp270
I3
s(I60
S'CTC'
p271
tp272
I7
s(I35
S'GTA'
p273
tp274
I2
s(I8
S'CTA'
p275
tp276
I53
s(I6
S'CTT'
p277
tp278
I251
s(I53
S'GTC'
p279
tp280
I2
s(I44
S'GGG'
p281
tp282
I7
s(I18
S'AAC'
p283
tp284
I17
s(I8
S'TCC'
p285
tp286
I1
s(I16
S'AGC'
p287
tp288
I57
s(I69
S'GGC'
p289
tp290
I334
s(I9
S'CGG'
p291
tp292
I3
s(I29
S'CAT'
p293
tp294
I17
s(I62
S'TAT'
p295
tp296
I189
s(I61
S'GGG'
p297
tp298
I1
s(I36
S'TAG'
p299
tp300
I6
s(I5
S'TCG'
p301
tp302
I2
s(I37
S'AAT'
p303
tp304
I18
s(I22
S'TGC'
p305
tp306
I4
s(I66
S'CCC'
p307
tp308
I48
s(I8
S'TGG'
p309
tp310
I3
s(I28
S'AAC'
p311
tp312
I8
s(I72
S'ATG'
p313
tp314
I87
s(I71
S'ATC'
p315
tp316
I2
s(I25
S'GGT'
p317
tp318
I1
s(I22
S'CGT'
p319
tp320
I10
s(I51
S'GCA'
p321
tp322
I114
s(I27
S'TCC'
p323
tp324
I6
s(I62
S'CTA'
p325
tp326
I147
s(I8
S'GGC'
p327
tp328
I21
s(I55
S'CGA'
p329
tp330
I3
s(I36
S'CGG'
p331
tp332
I1
s(I10
S'CAT'
p333
tp334
I10
s(I16
S'GGC'
p335
tp336
I5
s(I14
S'GGT'
p337
tp338
I27
s(I28
S'GTT'
p339
tp340
I17
s(I70
S'ACT'
p341
tp342
I602
s(I10
S'GGA'
p343
tp344
I3
s(I31
S'TCG'
p345
tp346
I4
s(I41
S'GGG'
p347
tp348
I661
s(I21
S'AAC'
p349
tp350
I100
s(I29
S'TTA'
p351
tp352
I34
s(I18
S'GGA'
p353
tp354
I53
s(I52
S'ACC'
p355
tp356
I2
s(I62
S'TGT'
p357
tp358
I154
s(I40
S'CTC'
p359
tp360
I39
s(I41
S'TTT'
p361
tp362
I135
s(I9
S'CGA'
p363
tp364
I2
s(I38
S'TCA'
p365
tp366
I9
s(I10
S'AGC'
p367
tp368
I41
s(I14
S'TGT'
p369
tp370
I22
s(I43
S'ACT'
p371
tp372
I10
s(I67
S'ATT'
p373
tp374
I82
s(I64
S'CCT'
p375
tp376
I3
s(I26
S'ATA'
p377
tp378
I53
s(I18
S'TGG'
p379
tp380
I11
s(I69
S'TAC'
p381
tp382
I377
s(I25
S'GAC'
p383
tp384
I44
s(I62
S'GCG'
p385
tp386
I1
s(I51
S'TTG'
p387
tp388
I2
s(I57
S'AAA'
p389
tp390
I167
s(I32
S'GGA'
p391
tp392
I3
s(I49
S'TCC'
p393
tp394
I55
s(I9
S'GAC'
p395
tp396
I50
s(I58
S'GAC'
p397
tp398
I91
s(I30
S'TGC'
p399
tp400
I708
s(I42
S'GTT'
p401
tp402
I23
s(I13
S'CTG'
p403
tp404
I66
s(I18
S'CTA'
p405
tp406
I11
s(I26
S'TGA'
p407
tp408
I3
s(I64
S'CTA'
p409
tp410
I298
s(I58
S'CAA'
p411
tp412
I22
s(I60
S'TAC'
p413
tp414
I2
s(I8
S'TAA'
p415
tp416
I11
s(I20
S'GCA'
p417
tp418
I3
s(I7
S'ACG'
p419
tp420
I3
s(I68
S'TCG'
p421
tp422
I223
s(I25
S'GCG'
p423
tp424
I39
s(I66
S'TTC'
p425
tp426
I4
s(I32
S'AGG'
p427
tp428
I11
s(I4
S'CCC'
p429
tp430
I1
s(I54
S'GAA'
p431
tp432
I17
s(I54
S'CCG'
p433
tp434
I72
s(I14
S'TCA'
p435
tp436
I37
s(I73
S'TAA'
p437
tp438
I1
s(I63
S'AGA'
p439
tp440
I2
s(I21
S'CGT'
p441
tp442
I1
s(I38
S'GAA'
p443
tp444
I2
s(I13
S'GGG'
p445
tp446
I1
s(I70
S'CAA'
p447
tp448
I3
s(I27
S'TTG'
p449
tp450
I18
s(I57
S'CCT'
p451
tp452
I49
s(I71
S'CCT'
p453
tp454
I11
s(I25
S'TCC'
p455
tp456
I4
s(I61
S'GTG'
p457
tp458
I7
s(I64
S'TTT'
p459
tp460
I55
s(I7
S'CAT'
p461
tp462
I2
s(I74
S'GAG'
p463
tp464
I7
s(I32
S'TAG'
p465
tp466
I6
s(I50
S'ACG'
p467
tp468
I14
s(I20
S'AGA'
p469
tp470
I44
s(I52
S'ATA'
p471
tp472
I1
s(I60
S'GTT'
p473
tp474
I148
s(I31
S'TTC'
p475
tp476
I12
s(I18
S'GAC'
p477
tp478
I12
s(I32
S'GAA'
p479
tp480
I81
s(I54
S'TTG'
p481
tp482
I1
s(I63
S'CCC'
p483
tp484
I3
s(I31
S'GTA'
p485
tp486
I29
s(I29
S'CAA'
p487
tp488
I28
s(I69
S'CGA'
p489
tp490
I1
s(I64
S'GAC'
p491
tp492
I304
s(I45
S'AGC'
p493
tp494
I1374
s(I7
S'GCT'
p495
tp496
I144
s(I19
S'CAG'
p497
tp498
I24
s(I68
S'TCT'
p499
tp500
I154
s(I34
S'GGA'
p501
tp502
I40
s(I50
S'GTG'
p503
tp504
I23
s(I42
S'TTC'
p505
tp506
I1
s(I11
S'GGT'
p507
tp508
I356
s(I33
S'TGT'
p509
tp510
I3
s(I41
S'AAT'
p511
tp512
I18
s(I25
S'GGA'
p513
tp514
I5
s(I19
S'CGC'
p515
tp516
I141
s(I41
S'CTC'
p517
tp518
I976
s(I2
S'CCA'
p519
tp520
I1
s(I35
S'ACA'
p521
tp522
I89
s(I19
S'TGT'
p523
tp524
I17
s(I52
S'GGG'
p525
tp526
I3
s(I17
S'AGA'
p527
tp528
I3
s(I73
S'GGC'
p529
tp530
I2
s(I39
S'GTG'
p531
tp532
I1
s(I53
S'GGC'
p533
tp534
I65
s(I43
S'GTA'
p535
tp536
I46
s(I9
S'CCC'
p537
tp538
I1
s(I11
S'GCG'
p539
tp540
I1110
s(I3
S'GCG'
p541
tp542
I318
s(I43
S'CTA'
p543
tp544
I8
s(I63
S'CTA'
p545
tp546
I8
s(I66
S'AGT'
p547
tp548
I22
s(I28
S'GCG'
p549
tp550
I24
s(I18
S'GGT'
p551
tp552
I125
s(I60
S'CAC'
p553
tp554
I55
s(I26
S'TGC'
p555
tp556
I12
s(I58
S'TTA'
p557
tp558
I7
s(I45
S'CCG'
p559
tp560
I2
s(I63
S'TTT'
p561
tp562
I22
s(I40
S'GTT'
p563
tp564
I3
s(I29
S'ATA'
p565
tp566
I83
s(I9
S'TTC'
p567
tp568
I3
s(I66
S'TCG'
p569
tp570
I10
s(I19
S'CTT'
p571
tp572
I28
s(I64
S'CCC'
p573
tp574
I3
s(I12
S'TAC'
p575
tp576
I15
s(I24
S'CTT'
p577
tp578
I1
s(I36
S'GCG'
p579
tp580
I1
s(I42
S'CGA'
p581
tp582
I46
s(I6
S'GGG'
p583
tp584
I1295
s(I45
S'TTC'
p585
tp586
I10
s(I26
S'GTA'
p587
tp588
I70
s(I72
S'AGC'
p589
tp590
I2
s(I17
S'CGC'
p591
tp592
I1
s(I12
S'CCT'
p593
tp594
I21
s(I48
S'GGT'
p595
tp596
I7
s(I28
S'AAG'
p597
tp598
I1
s(I5
S'TCC'
p599
tp600
I1
s(I53
S'CAC'
p601
tp602
I83
s(I31
S'GCC'
p603
tp604
I35
s(I65
S'ATA'
p605
tp606
I11
s(I53
S'AAC'
p607
tp608
I10
s(I19
S'GAT'
p609
tp610
I8
s(I31
S'CGC'
p611
tp612
I8
s(I42
S'GCA'
p613
tp614
I191
s(I14
S'CCA'
p615
tp616
I1
s(I6
S'TCG'
p617
tp618
I263
s(I56
S'TTT'
p619
tp620
I133
s(I73
S'GTT'
p621
tp622
I863
s(I47
S'AGT'
p623
tp624
I70
s(I26
S'ACC'
p625
tp626
I5
s(I60
S'CCT'
p627
tp628
I16
s(I62
S'CCA'
p629
tp630
I61
s(I58
S'GCG'
p631
tp632
I1
s(I31
S'CAC'
p633
tp634
I7
s(I54
S'CAG'
p635
tp636
I20
s(I55
S'GAG'
p637
tp638
I4
s(I59
S'GTC'
p639
tp640
I7
s(I70
S'AGA'
p641
tp642
I1
s(I69
S'ACG'
p643
tp644
I191
s(I61
S'ATA'
p645
tp646
I36
s(I39
S'TTT'
p647
tp648
I2
s(I68
S'TGT'
p649
tp650
I59
s(I48
S'GCC'
p651
tp652
I1
s(I38
S'CGA'
p653
tp654
I12
s(I2
S'GCC'
p655
tp656
I2
s(I27
S'AAA'
p657
tp658
I11
s(I33
S'ACC'
p659
tp660
I1
s(I7
S'CGT'
p661
tp662
I2
s(I70
S'CAT'
p663
tp664
I1
s(I7
S'GTA'
p665
tp666
I1
s(I57
S'CCA'
p667
tp668
I23
s(I35
S'ATC'
p669
tp670
I82
s(I16
S'TGC'
p671
tp672
I11
s(I71
S'TTA'
p673
tp674
I17
s(I47
S'TCG'
p675
tp676
I179
s(I75
S'GCC'
p677
tp678
I1
s(I13
S'CAA'
p679
tp680
I135
s(I18
S'CAA'
p681
tp682
I55
s(I36
S'CAA'
p683
tp684
I768
s(I49
S'TAG'
p685
tp686
I2
s(I22
S'CTA'
p687
tp688
I13
s(I8
S'GTG'
p689
tp690
I51
s(I58
S'CTG'
p691
tp692
I1
s(I22
S'GCA'
p693
tp694
I4
s(I4
S'CTT'
p695
tp696
I32
s(I38
S'TGA'
p697
tp698
I12
s(I9
S'CTT'
p699
tp700
I122
s(I52
S'AAA'
p701
tp702
I4
s(I7
S'GCA'
p703
tp704
I71
s(I5
S'GTG'
p705
tp706
I59
s(I18
S'AGT'
p707
tp708
I13
s(I57
S'AGC'
p709
tp710
I52
s(I17
S'ACA'
p711
tp712
I53
s(I51
S'CAT'
p713
tp714
I14
s(I41
S'AAA'
p715
tp716
I1
s(I73
S'TCA'
p717
tp718
I1
s(I66
S'CAC'
p719
tp720
I2600
s(I47
S'CTG'
p721
tp722
I1
s(I22
S'GTA'
p723
tp724
I39
s(I62
S'ATT'
p725
tp726
I403
s(I76
S'GGC'
p727
tp728
I21
s(I76
S'TTT'
p729
tp730
I3
s(I11
S'GCC'
p731
tp732
I4
s(I6
S'ACC'
p733
tp734
I300
s(I64
S'ATA'
p735
tp736
I7
s(I24
S'CGA'
p737
tp738
I3
s(I72
S'GGG'
p739
tp740
I187
s(I31
S'TAG'
p741
tp742
I3
s(I65
S'GCA'
p743
tp744
I1
s(I63
S'CTT'
p745
tp746
I7
s(I21
S'TAG'
p747
tp748
I4
s(I49
S'ATC'
p749
tp750
I28
s(I20
S'AAC'
p751
tp752
I133
s(I53
S'GCT'
p753
tp754
I5
s(I26
S'ATG'
p755
tp756
I31
s(I69
S'GAT'
p757
tp758
I2
s(I74
S'ATA'
p759
tp760
I14
s(I35
S'TCT'
p761
tp762
I41
s(I40
S'TCA'
p763
tp764
I52
s(I56
S'TTC'
p765
tp766
I2
s(I67
S'CGG'
p767
tp768
I1
s(I65
S'GTG'
p769
tp770
I11
s(I72
S'AAC'
p771
tp772
I142
s(I24
S'CTA'
p773
tp774
I18
s(I11
S'AAC'
p775
tp776
I176
s(I2
S'AGC'
p777
tp778
I2
s(I5
S'GAA'
p779
tp780
I2
s(I34
S'TGT'
p781
tp782
I2
s(I36
S'AAC'
p783
tp784
I16
s(I3
S'ACC'
p785
tp786
I12
s(I70
S'GCG'
p787
tp788
I7
s(I27
S'CAT'
p789
tp790
I12
s(I60
S'CGG'
p791
tp792
I137
s(I53
S'AAT'
p793
tp794
I11
s(I32
S'AAG'
p795
tp796
I4
s(I36
S'AAA'
p797
tp798
I1
s(I10
S'GAT'
p799
tp800
I5
s(I23
S'ATA'
p801
tp802
I10
s(I27
S'AGA'
p803
tp804
I102
s(I67
S'AAA'
p805
tp806
I3
s(I38
S'CAG'
p807
tp808
I183
s(I57
S'GAG'
p809
tp810
I3
s(I30
S'GCC'
p811
tp812
I3
s(I29
S'TGG'
p813
tp814
I60
s(I19
S'TTT'
p815
tp816
I14
s(I12
S'ACG'
p817
tp818
I11
s(I35
S'CCA'
p819
tp820
I15
s(I70
S'ATC'
p821
tp822
I7
s(I36
S'GGG'
p823
tp824
I1
s(I56
S'ACC'
p825
tp826
I2
s(I58
S'TAG'
p827
tp828
I2
s(I9
S'TAT'
p829
tp830
I4
s(I25
S'TGC'
p831
tp832
I4
s(I30
S'TAA'
p833
tp834
I10
s(I16
S'ACG'
p835
tp836
I29
s(I30
S'GTC'
p837
tp838
I77
s(I29
S'GGA'
p839
tp840
I30
s(I63
S'TCG'
p841
tp842
I15
s(I44
S'AAC'
p843
tp844
I1
s(I45
S'TGT'
p845
tp846
I82
s(I40
S'GAA'
p847
tp848
I868
s(I8
S'AAC'
p849
tp850
I1
s(I48
S'ATC'
p851
tp852
I1
s(I7
S'CGA'
p853
tp854
I8
s(I69
S'TTG'
p855
tp856
I62
s(I64
S'CAA'
p857
tp858
I1146
s(I24
S'GAA'
p859
tp860
I4
s(I40
S'AAG'
p861
tp862
I66
s(I26
S'CTG'
p863
tp864
I60
s(I5
S'ATA'
p865
tp866
I4
s(I17
S'CCC'
p867
tp868
I1
s(I61
S'GCA'
p869
tp870
I7
s(I16
S'CTT'
p871
tp872
I13
s(I75
S'CGG'
p873
tp874
I2
s(I67
S'GGA'
p875
tp876
I1350
s(I29
S'AAG'
p877
tp878
I16
s(I46
S'TAC'
p879
tp880
I581
s(I33
S'GTT'
p881
tp882
I4
s(I32
S'TTC'
p883
tp884
I1
s(I44
S'GCC'
p885
tp886
I11
s(I3
S'GTA'
p887
tp888
I217
s(I54
S'TAC'
p889
tp890
I45
s(I58
S'GTT'
p891
tp892
I8
s(I29
S'CTG'
p893
tp894
I131
s(I69
S'GCG'
p895
tp896
I126
s(I11
S'CCA'
p897
tp898
I595
s(I72
S'CGC'
p899
tp900
I2
s(I72
S'CCC'
p901
tp902
I1
s(I69
S'GGT'
p903
tp904
I305
s(I44
S'GAG'
p905
tp906
I4
s(I73
S'AAC'
p907
tp908
I27
s(I58
S'AGA'
p909
tp910
I2
s(I17
S'TTG'
p911
tp912
I24
s(I66
S'AAG'
p913
tp914
I4
s(I76
S'CCG'
p915
tp916
I2
s(I11
S'TTG'
p917
tp918
I4
s(I20
S'CCC'
p919
tp920
I71
s(I23
S'ACA'
p921
tp922
I1
s(I21
S'GTC'
p923
tp924
I5
s(I46
S'CCG'
p925
tp926
I2
s(I44
S'TGC'
p927
tp928
I1629
s(I63
S'GCT'
p929
tp930
I26
s(I37
S'GTC'
p931
tp932
I35
s(I35
S'GAG'
p933
tp934
I1
s(I52
S'AGC'
p935
tp936
I17
s(I15
S'TTC'
p937
tp938
I6
s(I41
S'ACG'
p939
tp940
I55
s(I36
S'CTG'
p941
tp942
I1183
s(I34
S'GGG'
p943
tp944
I2
s(I25
S'ATT'
p945
tp946
I3
s(I70
S'CCA'
p947
tp948
I17
s(I54
S'TGC'
p949
tp950
I3
s(I34
S'CCC'
p951
tp952
I2
s(I20
S'ATG'
p953
tp954
I6
s(I64
S'ATT'
p955
tp956
I397
s(I49
S'GCT'
p957
tp958
I1076
s(I45
S'ATA'
p959
tp960
I13
s(I63
S'GTT'
p961
tp962
I37
s(I41
S'AGA'
p963
tp964
I3
s(I33
S'GAT'
p965
tp966
I1
s(I46
S'GGC'
p967
tp968
I480
s(I53
S'CCG'
p969
tp970
I16
s(I53
S'GAG'
p971
tp972
I13
s(I23
S'TCT'
p973
tp974
I2
s(I63
S'AGT'
p975
tp976
I62
s(I35
S'GCA'
p977
tp978
I11
s(I35
S'CTC'
p979
tp980
I13
s(I28
S'CCA'
p981
tp982
I1
s(I18
S'ATA'
p983
tp984
I6
s(I23
S'GCT'
p985
tp986
I5
s(I38
S'ACT'
p987
tp988
I130
s(I6
S'GAG'
p989
tp990
I7
s(I24
S'GTA'
p991
tp992
I13
s(I16
S'TTC'
p993
tp994
I9
s(I3
S'ACG'
p995
tp996
I2
s(I48
S'GAT'
p997
tp998
I4
s(I24
S'AGG'
p999
tp1000
I6
s(I23
S'CCG'
p1001
tp1002
I8
s(I39
S'GGT'
p1003
tp1004
I2
s(I3
S'CGC'
p1005
tp1006
I1
s(I21
S'TCC'
p1007
tp1008
I33
s(I55
S'GCT'
p1009
tp1010
I13
s(I24
S'GCC'
p1011
tp1012
I10
s(I32
S'CCT'
p1013
tp1014
I10
s(I15
S'ATC'
p1015
tp1016
I3
s(I38
S'GTC'
p1017
tp1018
I21
s(I17
S'GCC'
p1019
tp1020
I15
s(I62
S'CAA'
p1021
tp1022
I1
s(I54
S'CTC'
p1023
tp1024
I34
s(I64
S'GGA'
p1025
tp1026
I813
s(I35
S'GGC'
p1027
tp1028
I75
s(I21
S'AGT'
p1029
tp1030
I5
s(I63
S'CGG'
p1031
tp1032
I6
s(I61
S'CGC'
p1033
tp1034
I4
s(I41
S'GAC'
p1035
tp1036
I2
s(I57
S'GTG'
p1037
tp1038
I42
s(I68
S'GGT'
p1039
tp1040
I13
s(I38
S'AAG'
p1041
tp1042
I13
s(I6
S'TAC'
p1043
tp1044
I361
s(I51
S'TCA'
p1045
tp1046
I48
s(I62
S'ACG'
p1047
tp1048
I1163
s(I41
S'GTG'
p1049
tp1050
I14
s(I46
S'GCA'
p1051
tp1052
I6
s(I58
S'CGG'
p1053
tp1054
I30
s(I45
S'CTC'
p1055
tp1056
I40
s(I64
S'AAC'
p1057
tp1058
I2506
s(I48
S'AGT'
p1059
tp1060
I11
s(I55
S'AAT'
p1061
tp1062
I35
s(I11
S'TCA'
p1063
tp1064
I125
s(I37
S'AGC'
p1065
tp1066
I204
s(I57
S'GCG'
p1067
tp1068
I28
s(I65
S'AAT'
p1069
tp1070
I229
s(I41
S'TAT'
p1071
tp1072
I1
s(I33
S'ATC'
p1073
tp1074
I9
s(I57
S'ACC'
p1075
tp1076
I46
s(I40
S'TTT'
p1077
tp1078
I1
s(I43
S'TTT'
p1079
tp1080
I2
s(I18
S'GTC'
p1081
tp1082
I30
s(I62
S'GTG'
p1083
tp1084
I1109
s(I68
S'GGA'
p1085
tp1086
I1
s(I59
S'GGA'
p1087
tp1088
I1
s(I60
S'GAT'
p1089
tp1090
I273
s(I27
S'ATT'
p1091
tp1092
I27
s(I5
S'TCA'
p1093
tp1094
I2
s(I9
S'TCT'
p1095
tp1096
I69
s(I47
S'AAA'
p1097
tp1098
I1
s(I69
S'GTT'
p1099
tp1100
I70
s(I5
S'TTA'
p1101
tp1102
I329
s(I13
S'TGA'
p1103
tp1104
I3
s(I29
S'ACA'
p1105
tp1106
I45
s(I37
S'CGT'
p1107
tp1108
I12
s(I39
S'CCT'
p1109
tp1110
I3
s(I47
S'CAC'
p1111
tp1112
I4
s(I64
S'TTC'
p1113
tp1114
I9
s(I52
S'CAC'
p1115
tp1116
I2
s(I37
S'TGC'
p1117
tp1118
I141
s(I9
S'AGG'
p1119
tp1120
I8
s(I75
S'CCT'
p1121
tp1122
I2
s(I20
S'GTA'
p1123
tp1124
I10
s(I38
S'TAT'
p1125
tp1126
I16
s(I40
S'TCT'
p1127
tp1128
I16
s(I35
S'AGG'
p1129
tp1130
I4
s(I41
S'TCC'
p1131
tp1132
I16
s(I16
S'TCG'
p1133
tp1134
I51
s(I39
S'ACC'
p1135
tp1136
I2
s(I31
S'CCC'
p1137
tp1138
I2
s(I61
S'TTT'
p1139
tp1140
I184
s(I63
S'GCA'
p1141
tp1142
I33
s(I53
S'TGA'
p1143
tp1144
I3
s(I13
S'AGC'
p1145
tp1146
I6
s(I26
S'GCG'
p1147
tp1148
I1
s(I45
S'TCG'
p1149
tp1150
I3497
s(I11
S'GAC'
p1151
tp1152
I1028
s(I61
S'CTT'
p1153
tp1154
I3
s(I21
S'ACC'
p1155
tp1156
I49
s(I66
S'CTT'
p1157
tp1158
I2763
s(I65
S'TGT'
p1159
tp1160
I33
s(I17
S'CTC'
p1161
tp1162
I8
s(I24
S'ATG'
p1163
tp1164
I2
s(I63
S'GTC'
p1165
tp1166
I18
s(I37
S'CTC'
p1167
tp1168
I34
s(I33
S'GAA'
p1169
tp1170
I7
s(I34
S'CAA'
p1171
tp1172
I9
s(I7
S'AAT'
p1173
tp1174
I803
s(I8
S'GAG'
p1175
tp1176
I1
s(I34
S'CAG'
p1177
tp1178
I4
s(I68
S'AGG'
p1179
tp1180
I5
s(I75
S'AAG'
p1181
tp1182
I1
s(I60
S'GCT'
p1183
tp1184
I353
s(I7
S'GAA'
p1185
tp1186
I70
s(I6
S'CTC'
p1187
tp1188
I246
s(I37
S'ACC'
p1189
tp1190
I552
s(I49
S'TGT'
p1191
tp1192
I23
s(I34
S'CGC'
p1193
tp1194
I1
s(I34
S'AGT'
p1195
tp1196
I2
s(I35
S'CGG'
p1197
tp1198
I45
s(I51
S'AAC'
p1199
tp1200
I12
s(I52
S'GTC'
p1201
tp1202
I4
s(I62
S'AGA'
p1203
tp1204
I401
s(I72
S'TCA'
p1205
tp1206
I10
s(I30
S'GTG'
p1207
tp1208
I68
s(I32
S'TTG'
p1209
tp1210
I42
s(I75
S'GAC'
p1211
tp1212
I1
s(I11
S'TGA'
p1213
tp1214
I2
s(I71
S'CTG'
p1215
tp1216
I3
s(I68
S'GTT'
p1217
tp1218
I40
s(I46
S'CGG'
p1219
tp1220
I77
s(I32
S'CCC'
p1221
tp1222
I38
s(I70
S'CGG'
p1223
tp1224
I8
s(I9
S'TTA'
p1225
tp1226
I5
s(I15
S'CCC'
p1227
tp1228
I1
s(I22
S'TCG'
p1229
tp1230
I67
s(I46
S'TCT'
p1231
tp1232
I565
s(I62
S'CAT'
p1233
tp1234
I325
s(I40
S'AGC'
p1235
tp1236
I17
s(I37
S'TAT'
p1237
tp1238
I35
s(I50
S'TGC'
p1239
tp1240
I29
s(I30
S'TTG'
p1241
tp1242
I48
s(I10
S'GTA'
p1243
tp1244
I3
s(I10
S'CAA'
p1245
tp1246
I21
s(I28
S'CAA'
p1247
tp1248
I21
s(I10
S'TCC'
p1249
tp1250
I49
s(I33
S'TCA'
p1251
tp1252
I10
s(I42
S'GAA'
p1253
tp1254
I3
s(I62
S'TGG'
p1255
tp1256
I268
s(I8
S'GAA'
p1257
tp1258
I2
s(I18
S'TTC'
p1259
tp1260
I178
s(I71
S'GCG'
p1261
tp1262
I1
s(I15
S'AAC'
p1263
tp1264
I1
s(I41
S'TTG'
p1265
tp1266
I1064
s(I9
S'CGT'
p1267
tp1268
I21
s(I10
S'AGT'
p1269
tp1270
I17
s(I72
S'ATT'
p1271
tp1272
I3
s(I41
S'CTA'
p1273
tp1274
I106
s(I51
S'CTT'
p1275
tp1276
I8
s(I35
S'ATT'
p1277
tp1278
I96
s(I22
S'TAG'
p1279
tp1280
I1
s(I38
S'AGA'
p1281
tp1282
I50
s(I44
S'CGG'
p1283
tp1284
I1
s(I62
S'GCT'
p1285
tp1286
I147
s(I29
S'AAC'
p1287
tp1288
I16
s(I9
S'CTG'
p1289
tp1290
I70
s(I53
S'AGG'
p1291
tp1292
I9
s(I6
S'AGT'
p1293
tp1294
I77
s(I27
S'ACG'
p1295
tp1296
I14
s(I69
S'CAA'
p1297
tp1298
I12
s(I72
S'GTG'
p1299
tp1300
I5
s(I62
S'CTG'
p1301
tp1302
I367
s(I61
S'CCG'
p1303
tp1304
I2
s(I37
S'CCA'
p1305
tp1306
I55
s(I37
S'CGA'
p1307
tp1308
I3
s(I59
S'TCC'
p1309
tp1310
I1314
s(I68
S'GAC'
p1311
tp1312
I5
s(I16
S'GGG'
p1313
tp1314
I21
s(I12
S'CCG'
p1315
tp1316
I147
s(I24
S'TTG'
p1317
tp1318
I3
s(I11
S'TAA'
p1319
tp1320
I1
s(I37
S'TTA'
p1321
tp1322
I25
s(I59
S'GCC'
p1323
tp1324
I1595
s(I61
S'TTA'
p1325
tp1326
I159
s(I19
S'CCC'
p1327
tp1328
I61
s(I70
S'TGA'
p1329
tp1330
I2
s(I6
S'CCT'
p1331
tp1332
I1
s(I17
S'CGT'
p1333
tp1334
I2
s(I6
S'CAA'
p1335
tp1336
I107
s(I45
S'GTC'
p1337
tp1338
I2323
s(I50
S'GAG'
p1339
tp1340
I5
s(I10
S'AAC'
p1341
tp1342
I1
s(I53
S'ATC'
p1343
tp1344
I5
s(I25
S'AGC'
p1345
tp1346
I17
s(I74
S'CAC'
p1347
tp1348
I2
s(I21
S'CGC'
p1349
tp1350
I2
s(I38
S'CTA'
p1351
tp1352
I28
s(I24
S'TAC'
p1353
tp1354
I6
s(I60
S'ACC'
p1355
tp1356
I138
s(I57
S'AAG'
p1357
tp1358
I43
s(I34
S'GAG'
p1359
tp1360
I5
s(I15
S'AGA'
p1361
tp1362
I3
s(I19
S'CTG'
p1363
tp1364
I21
s(I76
S'TGG'
p1365
tp1366
I1
s(I31
S'AGC'
p1367
tp1368
I70
s(I20
S'TCG'
p1369
tp1370
I38
s(I71
S'CCG'
p1371
tp1372
I2
s(I51
S'GGA'
p1373
tp1374
I7
s(I7
S'CAC'
p1375
tp1376
I3
s(I62
S'AGG'
p1377
tp1378
I283
s(I19
S'AGA'
p1379
tp1380
I11
s(I30
S'CAG'
p1381
tp1382
I1
s(I15
S'CGT'
p1383
tp1384
I22
s(I35
S'CAG'
p1385
tp1386
I15
s(I28
S'TGA'
p1387
tp1388
I3
s(I30
S'GTT'
p1389
tp1390
I74
s(I72
S'TGC'
p1391
tp1392
I29
s(I60
S'GTG'
p1393
tp1394
I115
s(I38
S'ATG'
p1395
tp1396
I11
s(I3
S'TGA'
p1397
tp1398
I1
s(I16
S'TCA'
p1399
tp1400
I41
s(I58
S'TGT'
p1401
tp1402
I160
s(I31
S'TGT'
p1403
tp1404
I54
s(I70
S'GAG'
p1405
tp1406
I1
s(I24
S'CAT'
p1407
tp1408
I4
s(I62
S'TCA'
p1409
tp1410
I97
s(I11
S'GGG'
p1411
tp1412
I124
s(I73
S'TAG'
p1413
tp1414
I1
s(I3
S'CCG'
p1415
tp1416
I3
s(I27
S'AGT'
p1417
tp1418
I13
s(I66
S'TGT'
p1419
tp1420
I1
s(I46
S'TCA'
p1421
tp1422
I232
s(I45
S'CAC'
p1423
tp1424
I315
s(I6
S'TGT'
p1425
tp1426
I32
s(I5
S'TGT'
p1427
tp1428
I177
s(I60
S'TCG'
p1429
tp1430
I130
s(I44
S'TCA'
p1431
tp1432
I1
s(I54
S'CGA'
p1433
tp1434
I4
s(I35
S'ACT'
p1435
tp1436
I26
s(I57
S'CTA'
p1437
tp1438
I27
s(I28
S'TTC'
p1439
tp1440
I1
s(I49
S'AAA'
p1441
tp1442
I28
s(I10
S'ACA'
p1443
tp1444
I2
s(I57
S'TCC'
p1445
tp1446
I38
s(I70
S'ATT'
p1447
tp1448
I2
s(I44
S'GGT'
p1449
tp1450
I9
s(I6
S'TCC'
p1451
tp1452
I324
s(I20
S'GAG'
p1453
tp1454
I28
s(I6
S'CAG'
p1455
tp1456
I110
s(I13
S'AAA'
p1457
tp1458
I161
s(I9
S'GTC'
p1459
tp1460
I275
s(I47
S'GAA'
p1461
tp1462
I14
s(I66
S'TTT'
p1463
tp1464
I3
s(I27
S'CGC'
p1465
tp1466
I7
s(I8
S'CGA'
p1467
tp1468
I1
s(I63
S'TTC'
p1469
tp1470
I23
s(I46
S'CTA'
p1471
tp1472
I22
s(I51
S'CTC'
p1473
tp1474
I6
s(I75
S'GGG'
p1475
tp1476
I26
s(I25
S'GTC'
p1477
tp1478
I26
s(I37
S'AAG'
p1479
tp1480
I112
s(I16
S'AAT'
p1481
tp1482
I94
s(I71
S'TGG'
p1483
tp1484
I1
s(I42
S'AAT'
p1485
tp1486
I38
s(I25
S'GGG'
p1487
tp1488
I20
s(I76
S'CAA'
p1489
tp1490
I2
s(I59
S'TGG'
p1491
tp1492
I1
s(I2
S'GGA'
p1493
tp1494
I1
s(I13
S'GTG'
p1495
tp1496
I23
s(I48
S'GGA'
p1497
tp1498
I1
s(I25
S'GCC'
p1499
tp1500
I1
s(I71
S'TCC'
p1501
tp1502
I1
s(I43
S'GTG'
p1503
tp1504
I134
s(I46
S'GAA'
p1505
tp1506
I3235
s(I3
S'GCA'
p1507
tp1508
I53
s(I55
S'TCC'
p1509
tp1510
I8
s(I48
S'TGG'
p1511
tp1512
I6
s(I74
S'ACC'
p1513
tp1514
I2
s(I65
S'TCT'
p1515
tp1516
I32
s(I73
S'TGA'
p1517
tp1518
I7
s(I45
S'CGC'
p1519
tp1520
I15
s(I36
S'TAT'
p1521
tp1522
I3
s(I12
S'TGG'
p1523
tp1524
I2
s(I61
S'AAT'
p1525
tp1526
I2
s(I14
S'TGC'
p1527
tp1528
I3
s(I69
S'GAA'
p1529
tp1530
I3
s(I42
S'ACG'
p1531
tp1532
I5
s(I44
S'TAT'
p1533
tp1534
I1
s(I66
S'TCA'
p1535
tp1536
I14
s(I4
S'GTA'
p1537
tp1538
I1
s(I55
S'TGC'
p1539
tp1540
I10
s(I39
S'TTC'
p1541
tp1542
I6
s(I20
S'GTG'
p1543
tp1544
I44
s(I22
S'TAT'
p1545
tp1546
I23
s(I37
S'TCG'
p1547
tp1548
I175
s(I42
S'CGG'
p1549
tp1550
I17
s(I48
S'GCT'
p1551
tp1552
I2
s(I41
S'TGG'
p1553
tp1554
I1
s(I26
S'GTG'
p1555
tp1556
I22
s(I18
S'CGA'
p1557
tp1558
I56
s(I28
S'TAT'
p1559
tp1560
I9
s(I23
S'GGC'
p1561
tp1562
I3
s(I76
S'GAA'
p1563
tp1564
I8
s(I28
S'AAA'
p1565
tp1566
I2
s(I69
S'TAT'
p1567
tp1568
I528
s(I42
S'GTG'
p1569
tp1570
I73
s(I50
S'TTC'
p1571
tp1572
I2
s(I25
S'TAG'
p1573
tp1574
I3
s(I35
S'GAA'
p1575
tp1576
I6
s(I14
S'CCG'
p1577
tp1578
I1
s(I5
S'GCT'
p1579
tp1580
I4
s(I69
S'ATG'
p1581
tp1582
I60
s(I72
S'TGT'
p1583
tp1584
I3
s(I67
S'TGG'
p1585
tp1586
I3
s(I30
S'TAT'
p1587
tp1588
I28
s(I62
S'CCG'
p1589
tp1590
I18
s(I36
S'TGT'
p1591
tp1592
I124
s(I4
S'CTG'
p1593
tp1594
I54
s(I9
S'CTA'
p1595
tp1596
I51
s(I2
S'CCC'
p1597
tp1598
I1
s(I61
S'ACC'
p1599
tp1600
I11
s(I2
S'CGC'
p1601
tp1602
I1
s(I43
S'AGG'
p1603
tp1604
I1
s(I5
S'GTT'
p1605
tp1606
I16
s(I25
S'ACG'
p1607
tp1608
I53
s(I17
S'ACT'
p1609
tp1610
I58
s(I67
S'CAA'
p1611
tp1612
I68
s(I73
S'ATC'
p1613
tp1614
I3775
s(I11
S'ACA'
p1615
tp1616
I157
s(I67
S'TTC'
p1617
tp1618
I469
s(I48
S'GAC'
p1619
tp1620
I1
s(I29
S'TCA'
p1621
tp1622
I32
s(I59
S'ACT'
p1623
tp1624
I2
s(I76
S'TTA'
p1625
tp1626
I1
s(I27
S'GGG'
p1627
tp1628
I1
s(I70
S'TCT'
p1629
tp1630
I4
s(I57
S'CCG'
p1631
tp1632
I3
s(I17
S'TGG'
p1633
tp1634
I4
s(I6
S'ACT'
p1635
tp1636
I707
s(I54
S'CGT'
p1637
tp1638
I12
s(I36
S'GCT'
p1639
tp1640
I10
s(I12
S'GAC'
p1641
tp1642
I522
s(I36
S'CAG'
p1643
tp1644
I1488
s(I70
S'ATA'
p1645
tp1646
I6
s(I13
S'GAG'
p1647
tp1648
I144
s(I21
S'TAT'
p1649
tp1650
I14
s(I27
S'TGG'
p1651
tp1652
I3
s(I8
S'GTA'
p1653
tp1654
I243
s(I20
S'AAG'
p1655
tp1656
I8
s(I53
S'CTC'
p1657
tp1658
I8
s(I53
S'GCC'
p1659
tp1660
I11
s(I17
S'GGA'
p1661
tp1662
I45
s(I45
S'AAC'
p1663
tp1664
I1550
s(I47
S'GAT'
p1665
tp1666
I2
s(I44
S'GAA'
p1667
tp1668
I1
s(I22
S'GAT'
p1669
tp1670
I41
s(I5
S'TAC'
p1671
tp1672
I75
s(I16
S'AAC'
p1673
tp1674
I32
s(I30
S'ACA'
p1675
tp1676
I1
s(I65
S'GGC'
p1677
tp1678
I357
s(I8
S'GCC'
p1679
tp1680
I2
s(I27
S'CTA'
p1681
tp1682
I1
s(I55
S'CCA'
p1683
tp1684
I24
s(I41
S'CGA'
p1685
tp1686
I2
s(I64
S'GAA'
p1687
tp1688
I28
s(I31
S'GGC'
p1689
tp1690
I14
s(I51
S'GTC'
p1691
tp1692
I110
s(I61
S'TCG'
p1693
tp1694
I1
s(I61
S'AGA'
p1695
tp1696
I7
s(I30
S'ACG'
p1697
tp1698
I1
s(I45
S'GCC'
p1699
tp1700
I1700
s(I64
S'ATG'
p1701
tp1702
I63
s(I52
S'TTA'
p1703
tp1704
I7
s(I14
S'GCC'
p1705
tp1706
I1
s(I33
S'GGC'
p1707
tp1708
I2
s(I40
S'GCC'
p1709
tp1710
I3
s(I54
S'AAA'
p1711
tp1712
I1
s(I28
S'CGC'
p1713
tp1714
I10
s(I5
S'AGC'
p1715
tp1716
I2
s(I28
S'GCT'
p1717
tp1718
I35
s(I25
S'ACC'
p1719
tp1720
I5
s(I43
S'TGA'
p1721
tp1722
I3
s(I3
S'CTC'
p1723
tp1724
I3
s(I66
S'CAT'
p1725
tp1726
I2262
s(I7
S'GGC'
p1727
tp1728
I9694
s(I73
S'TGT'
p1729
tp1730
I1
s(I4
S'TTT'
p1731
tp1732
I9
s(I37
S'CCC'
p1733
tp1734
I82
s(I65
S'CTA'
p1735
tp1736
I19
s(I67
S'GCC'
p1737
tp1738
I6935
s(I40
S'CAC'
p1739
tp1740
I104
s(I21
S'CAA'
p1741
tp1742
I4
s(I66
S'ATT'
p1743
tp1744
I9
s(I9
S'TAA'
p1745
tp1746
I1
s(I25
S'TGT'
p1747
tp1748
I76
s(I16
S'ACT'
p1749
tp1750
I56
s(I29
S'GGT'
p1751
tp1752
I14
s(I3
S'GGG'
p1753
tp1754
I1112
s(I44
S'AAT'
p1755
tp1756
I3
s(I73
S'ACG'
p1757
tp1758
I2
s(I11
S'CAT'
p1759
tp1760
I4
s(I44
S'TCC'
p1761
tp1762
I14
s(I49
S'TAC'
p1763
tp1764
I8
s(I65
S'CAT'
p1765
tp1766
I226
s(I73
S'GCG'
p1767
tp1768
I5
s(I14
S'CGA'
p1769
tp1770
I1
s(I7
S'CCT'
p1771
tp1772
I4
s(I32
S'ACC'
p1773
tp1774
I2
s(I28
S'AAT'
p1775
tp1776
I38
s(I13
S'ACC'
p1777
tp1778
I10
s(I54
S'AAT'
p1779
tp1780
I69
s(I37
S'GGG'
p1781
tp1782
I3
s(I53
S'CGT'
p1783
tp1784
I10
s(I33
S'AAA'
p1785
tp1786
I28
s(I7
S'ATC'
p1787
tp1788
I227
s(I45
S'GGG'
p1789
tp1790
I191
s(I5
S'GCA'
p1791
tp1792
I3
s(I27
S'AGG'
p1793
tp1794
I2
s(I49
S'AGT'
p1795
tp1796
I87
s(I32
S'TCT'
p1797
tp1798
I21
s(I71
S'CGC'
p1799
tp1800
I1
s(I56
S'ATA'
p1801
tp1802
I12
s(I33
S'TAC'
p1803
tp1804
I11
s(I47
S'GCA'
p1805
tp1806
I7
s(I29
S'CTT'
p1807
tp1808
I48
s(I63
S'TGC'
p1809
tp1810
I13
s(I16
S'GCA'
p1811
tp1812
I25
s(I72
S'CGT'
p1813
tp1814
I51
s(I33
S'CGT'
p1815
tp1816
I10
s(I27
S'ACT'
p1817
tp1818
I26
s(I69
S'TGA'
p1819
tp1820
I1
s(I41
S'GGT'
p1821
tp1822
I186
s(I54
S'CCC'
p1823
tp1824
I218
s(I67
S'TTT'
p1825
tp1826
I339
s(I40
S'GAG'
p1827
tp1828
I9835
s(I41
S'GGA'
p1829
tp1830
I16
s(I48
S'TCA'
p1831
tp1832
I4
s(I36
S'AGG'
p1833
tp1834
I1
s(I58
S'GCA'
p1835
tp1836
I2
s(I2
S'GCT'
p1837
tp1838
I1
s(I70
S'TAA'
p1839
tp1840
I2
s(I24
S'GAG'
p1841
tp1842
I11
s(I5
S'ACC'
p1843
tp1844
I7
s(I36
S'GCC'
p1845
tp1846
I4
s(I35
S'AAT'
p1847
tp1848
I10
s(I64
S'ACA'
p1849
tp1850
I1456
s(I61
S'GCG'
p1851
tp1852
I3
s(I33
S'CAT'
p1853
tp1854
I1
s(I57
S'GGA'
p1855
tp1856
I44
s(I41
S'CAT'
p1857
tp1858
I11
s(I46
S'ATT'
p1859
tp1860
I111
s(I34
S'GGT'
p1861
tp1862
I5
s(I25
S'ATA'
p1863
tp1864
I100
s(I14
S'GTC'
p1865
tp1866
I1
s(I24
S'AAG'
p1867
tp1868
I2
s(I42
S'GGT'
p1869
tp1870
I5
s(I22
S'GAC'
p1871
tp1872
I17
s(I70
S'CTC'
p1873
tp1874
I789
s(I69
S'CTC'
p1875
tp1876
I16
s(I23
S'CAC'
p1877
tp1878
I1
s(I73
S'AGT'
p1879
tp1880
I1
s(I46
S'CAG'
p1881
tp1882
I228
s(I51
S'CAG'
p1883
tp1884
I166
s(I48
S'CGC'
p1885
tp1886
I21
s(I48
S'AAA'
p1887
tp1888
I11
s(I59
S'TAG'
p1889
tp1890
I2
s(I69
S'TTC'
p1891
tp1892
I2448
s(I35
S'GCT'
p1893
tp1894
I22
s(I39
S'ATC'
p1895
tp1896
I3
s(I40
S'GGC'
p1897
tp1898
I267
s(I23
S'GCG'
p1899
tp1900
I3
s(I62
S'TTG'
p1901
tp1902
I185
s(I8
S'ACG'
p1903
tp1904
I1
s(I23
S'ACG'
p1905
tp1906
I20
s(I30
S'AAG'
p1907
tp1908
I1
s(I73
S'AGA'
p1909
tp1910
I29
s(I37
S'TAA'
p1911
tp1912
I6
s(I8
S'GTC'
p1913
tp1914
I47
s(I72
S'GGT'
p1915
tp1916
I108
s(I62
S'GGA'
p1917
tp1918
I133
s(I54
S'TTT'
p1919
tp1920
I6
s(I64
S'AGT'
p1921
tp1922
I3711
s(I61
S'GAT'
p1923
tp1924
I2
s(I11
S'CTC'
p1925
tp1926
I50
s(I21
S'TCT'
p1927
tp1928
I22
s(I61
S'CAC'
p1929
tp1930
I19
s(I70
S'AGC'
p1931
tp1932
I1
s(I36
S'CTA'
p1933
tp1934
I369
s(I55
S'AGT'
p1935
tp1936
I56
s(I55
S'GCG'
p1937
tp1938
I1
s(I41
S'CTG'
p1939
tp1940
I289
s(I6
S'AGA'
p1941
tp1942
I7
s(I25
S'CGT'
p1943
tp1944
I18
s(I67
S'AGC'
p1945
tp1946
I33
s(I70
S'GTT'
p1947
tp1948
I9
s(I56
S'GCG'
p1949
tp1950
I1
s(I30
S'GAG'
p1951
tp1952
I1
s(I55
S'GTA'
p1953
tp1954
I6
s(I30
S'CTG'
p1955
tp1956
I54
s(I38
S'AAT'
p1957
tp1958
I64
s(I27
S'CAG'
p1959
tp1960
I10
s(I66
S'ACG'
p1961
tp1962
I6
s(I31
S'GAC'
p1963
tp1964
I12
s(I6
S'GTA'
p1965
tp1966
I897
s(I53
S'TAC'
p1967
tp1968
I63
s(I56
S'GTG'
p1969
tp1970
I24
s(I71
S'GTA'
p1971
tp1972
I2
s(I60
S'CGT'
p1973
tp1974
I2
s(I4
S'TGC'
p1975
tp1976
I5
s(I55
S'AAG'
p1977
tp1978
I28
s(I75
S'CTC'
p1979
tp1980
I2
s(I17
S'TAG'
p1981
tp1982
I1
s(I65
S'AAC'
p1983
tp1984
I135
s(I16
S'CCG'
p1985
tp1986
I14
s(I37
S'TCT'
p1987
tp1988
I19
s(I49
S'AGA'
p1989
tp1990
I1
s(I19
S'ATA'
p1991
tp1992
I6
s(I15
S'ACA'
p1993
tp1994
I26
s(I13
S'GTC'
p1995
tp1996
I322
s(I2
S'AGA'
p1997
tp1998
I1
s(I24
S'GGG'
p1999
tp2000
I5
s(I37
S'CAC'
p2001
tp2002
I4
s(I42
S'CAC'
p2003
tp2004
I5
s(I65
S'CAG'
p2005
tp2006
I65
s(I9
S'TCA'
p2007
tp2008
I182
s(I66
S'GAG'
p2009
tp2010
I29
s(I32
S'GTC'
p2011
tp2012
I7
s(I32
S'TCC'
p2013
tp2014
I28
s(I39
S'CCG'
p2015
tp2016
I1
s(I72
S'TAT'
p2017
tp2018
I7
s(I52
S'GTA'
p2019
tp2020
I8
s(I46
S'AGA'
p2021
tp2022
I234
s(I72
S'TAA'
p2023
tp2024
I3
s(I75
S'CCG'
p2025
tp2026
I16
s(I38
S'TAC'
p2027
tp2028
I61
s(I59
S'AAC'
p2029
tp2030
I104
s(I34
S'TAA'
p2031
tp2032
I3
s(I34
S'CGG'
p2033
tp2034
I1
s(I8
S'ATC'
p2035
tp2036
I43
s(I51
S'GAT'
p2037
tp2038
I9
s(I64
S'ACT'
p2039
tp2040
I615
s(I28
S'TGC'
p2041
tp2042
I11
s(I60
S'AAA'
p2043
tp2044
I247
s(I2
S'GCA'
p2045
tp2046
I2
s(I15
S'GCT'
p2047
tp2048
I35
s(I63
S'CAA'
p2049
tp2050
I30
s(I68
S'CAA'
p2051
tp2052
I2241
s(I15
S'TCC'
p2053
tp2054
I9
s(I52
S'AAG'
p2055
tp2056
I5
s(I6
S'GCT'
p2057
tp2058
I199
s(I57
S'ACA'
p2059
tp2060
I14
s(I18
S'ATT'
p2061
tp2062
I18
s(I49
S'TGC'
p2063
tp2064
I7
s(I27
S'TAT'
p2065
tp2066
I43
s(I18
S'GCA'
p2067
tp2068
I149
s(I28
S'ATA'
p2069
tp2070
I3
s(I21
S'GCT'
p2071
tp2072
I11
s(I65
S'AAA'
p2073
tp2074
I14
s(I7
S'AGT'
p2075
tp2076
I74
s(I28
S'TTG'
p2077
tp2078
I43
s(I59
S'TGC'
p2079
tp2080
I559
s(I13
S'CGT'
p2081
tp2082
I132
s(I60
S'GCA'
p2083
tp2084
I30
s(I25
S'CTA'
p2085
tp2086
I71
s(I24
S'AAA'
p2087
tp2088
I1
s(I24
S'GAT'
p2089
tp2090
I8
s(I21
S'GTT'
p2091
tp2092
I31
s(I49
S'GTG'
p2093
tp2094
I1
s(I15
S'GGA'
p2095
tp2096
I2
s(I12
S'TCG'
p2097
tp2098
I6
s(I54
S'ACG'
p2099
tp2100
I8
s(I53
S'ACG'
p2101
tp2102
I2
s(I38
S'GGC'
p2103
tp2104
I3
s(I45
S'TCA'
p2105
tp2106
I375
s(I49
S'CGG'
p2107
tp2108
I1
s(I19
S'TCA'
p2109
tp2110
I22
s(I38
S'GTG'
p2111
tp2112
I23
s(I5
S'TAT'
p2113
tp2114
I23
s(I39
S'CAA'
p2115
tp2116
I3
s(I44
S'CAA'
p2117
tp2118
I12
s(I49
S'ACC'
p2119
tp2120
I43
s(I74
S'GCG'
p2121
tp2122
I1
s(I40
S'ATC'
p2123
tp2124
I1
s(I65
S'CGA'
p2125
tp2126
I406
s(I62
S'CGC'
p2127
tp2128
I55
s(I54
S'GTG'
p2129
tp2130
I3
s(I19
S'GGT'
p2131
tp2132
I1
s(I61
S'TGT'
p2133
tp2134
I18
s(I31
S'GAT'
p2135
tp2136
I16
s(I63
S'AAC'
p2137
tp2138
I34
s(I62
S'GAA'
p2139
tp2140
I57
s(I44
S'AGT'
p2141
tp2142
I16
s(I40
S'CCC'
p2143
tp2144
I27
s(I6
S'GAT'
p2145
tp2146
I26
s(I13
S'TTA'
p2147
tp2148
I8
s(I48
S'ATG'
p2149
tp2150
I1
s(I72
S'CCG'
p2151
tp2152
I23
s(I35
S'CGA'
p2153
tp2154
I1
s(I27
S'GTG'
p2155
tp2156
I2
s(I33
S'CGA'
p2157
tp2158
I2
s(I49
S'GTC'
p2159
tp2160
I2
s(I75
S'GTT'
p2161
tp2162
I1
s(I9
S'ATA'
p2163
tp2164
I682
s(I52
S'GGC'
p2165
tp2166
I31
s(I48
S'AAC'
p2167
tp2168
I1
s(I15
S'TAA'
p2169
tp2170
I1
s(I22
S'CGG'
p2171
tp2172
I16
s(I8
S'CCC'
p2173
tp2174
I1
s(I30
S'TCC'
p2175
tp2176
I2
s(I53
S'TCG'
p2177
tp2178
I20
s(I32
S'CTT'
p2179
tp2180
I20
s(I19
S'GAC'
p2181
tp2182
I16
s(I3
S'GTC'
p2183
tp2184
I18
s(I28
S'TCC'
p2185
tp2186
I26
s(I7
S'TCA'
p2187
tp2188
I23
s(I4
S'TTG'
p2189
tp2190
I28
s(I28
S'CAG'
p2191
tp2192
I77
s(I19
S'AAG'
p2193
tp2194
I50
s(I75
S'TAG'
p2195
tp2196
I1
s(I56
S'GGT'
p2197
tp2198
I1
s(I63
S'TAT'
p2199
tp2200
I11
s(I23
S'ATT'
p2201
tp2202
I7
s(I46
S'TAT'
p2203
tp2204
I307
s(I64
S'GGT'
p2205
tp2206
I1
s(I67
S'AAG'
p2207
tp2208
I6
s(I66
S'AAC'
p2209
tp2210
I507
s(I71
S'TAT'
p2211
tp2212
I1
s(I46
S'GCT'
p2213
tp2214
I25
s(I12
S'TTA'
p2215
tp2216
I2
s(I7
S'TGT'
p2217
tp2218
I11
s(I72
S'GCA'
p2219
tp2220
I7
s(I29
S'ACC'
p2221
tp2222
I46
s(I12
S'AAC'
p2223
tp2224
I7
s(I55
S'ATC'
p2225
tp2226
I98
s(I3
S'GTG'
p2227
tp2228
I116
s(I74
S'TCG'
p2229
tp2230
I3
s(I19
S'TAC'
p2231
tp2232
I4
s(I18
S'CCC'
p2233
tp2234
I55
s(I44
S'GTC'
p2235
tp2236
I26
s(I58
S'GGG'
p2237
tp2238
I63
s(I32
S'GGT'
p2239
tp2240
I1
s(I27
S'TAC'
p2241
tp2242
I68
s(I8
S'AAA'
p2243
tp2244
I8
s(I9
S'GGT'
p2245
tp2246
I842
s(I66
S'GGG'
p2247
tp2248
I104
s(I72
S'GTA'
p2249
tp2250
I3
s(I64
S'CGG'
p2251
tp2252
I8
s(I65
S'AGT'
p2253
tp2254
I5
s(I37
S'CGG'
p2255
tp2256
I7
s(I55
S'TTT'
p2257
tp2258
I6
s(I13
S'CGA'
p2259
tp2260
I49
s(I53
S'GAC'
p2261
tp2262
I9
s(I6
S'TTA'
p2263
tp2264
I1407
s(I36
S'ACC'
p2265
tp2266
I1806
s(I58
S'CAT'
p2267
tp2268
I2
s(I4
S'CAG'
p2269
tp2270
I2
s(I21
S'ATG'
p2271
tp2272
I1
s(I70
S'CGT'
p2273
tp2274
I1
s(I32
S'CGG'
p2275
tp2276
I5
s(I21
S'CTC'
p2277
tp2278
I2
s(I21
S'CTG'
p2279
tp2280
I19
s(I5
S'GGA'
p2281
tp2282
I2
s(I68
S'CCT'
p2283
tp2284
I1
s(I47
S'TCT'
p2285
tp2286
I182
s(I54
S'GAT'
p2287
tp2288
I18
s(I15
S'ATG'
p2289
tp2290
I19
s(I37
S'GCC'
p2291
tp2292
I110
s(I63
S'GGT'
p2293
tp2294
I8
s(I26
S'TTC'
p2295
tp2296
I1
s(I60
S'AGC'
p2297
tp2298
I111
s(I66
S'CTG'
p2299
tp2300
I2223
s(I49
S'TTG'
p2301
tp2302
I2
s(I12
S'CTT'
p2303
tp2304
I4
s(I23
S'CCA'
p2305
tp2306
I2
s(I17
S'CTT'
p2307
tp2308
I21
s(I6
S'TGG'
p2309
tp2310
I47
s(I5
S'TGA'
p2311
tp2312
I55
s(I29
S'AGA'
p2313
tp2314
I2
s(I19
S'GGA'
p2315
tp2316
I1
s(I53
S'TTC'
p2317
tp2318
I6
s(I19
S'AGG'
p2319
tp2320
I2
s(I55
S'CTG'
p2321
tp2322
I59
s(I14
S'AAT'
p2323
tp2324
I3
s(I32
S'TAT'
p2325
tp2326
I2
s(I35
S'GTC'
p2327
tp2328
I29
s(I8
S'CTC'
p2329
tp2330
I50
s(I21
S'GGC'
p2331
tp2332
I18
s(I53
S'GTA'
p2333
tp2334
I4
s(I40
S'TAT'
p2335
tp2336
I8
s(I18
S'AAA'
p2337
tp2338
I23
s(I20
S'GAT'
p2339
tp2340
I14
s(I11
S'ACT'
p2341
tp2342
I287
s(I69
S'GGA'
p2343
tp2344
I402
s(I23
S'AGC'
p2345
tp2346
I2
s(I57
S'TGG'
p2347
tp2348
I18
s(I28
S'TCA'
p2349
tp2350
I38
s(I40
S'AGT'
p2351
tp2352
I15
s(I71
S'CTT'
p2353
tp2354
I15
s(I21
S'TGG'
p2355
tp2356
I6
s(I53
S'AGT'
p2357
tp2358
I4
s(I8
S'AAT'
p2359
tp2360
I1
s(I51
S'GCC'
p2361
tp2362
I1
s(I63
S'CGC'
p2363
tp2364
I18
s(I33
S'GCG'
p2365
tp2366
I4
s(I17
S'TCG'
p2367
tp2368
I63
s(I25
S'TTG'
p2369
tp2370
I49
s(I45
S'GAT'
p2371
tp2372
I2
s(I22
S'CAT'
p2373
tp2374
I23
s(I60
S'GGG'
p2375
tp2376
I165
s(I32
S'CTA'
p2377
tp2378
I38
s(I36
S'CGA'
p2379
tp2380
I31
s(I57
S'CTG'
p2381
tp2382
I36
s(I3
S'GCT'
p2383
tp2384
I679
s(I76
S'ATC'
p2385
tp2386
I1
s(I62
S'TAG'
p2387
tp2388
I5
s(I40
S'TTC'
p2389
tp2390
I1
s(I66
S'AGC'
p2391
tp2392
I13
s(I54
S'TCC'
p2393
tp2394
I1
s(I18
S'GGG'
p2395
tp2396
I12
s(I4
S'TAA'
p2397
tp2398
I2
s(I56
S'GGC'
p2399
tp2400
I2
s(I17
S'AGT'
p2401
tp2402
I111
s(I52
S'CGG'
p2403
tp2404
I5
s(I31
S'GTG'
p2405
tp2406
I2
s(I58
S'TTT'
p2407
tp2408
I39
s(I64
S'GGC'
p2409
tp2410
I3530
s(I7
S'TCC'
p2411
tp2412
I1
s(I15
S'CAC'
p2413
tp2414
I1
s(I23
S'CGC'
p2415
tp2416
I1
s(I46
S'CTG'
p2417
tp2418
I13
s(I19
S'GTG'
p2419
tp2420
I19
s(I11
S'ATC'
p2421
tp2422
I5
s(I19
S'ACA'
p2423
tp2424
I37
s(I42
S'TCG'
p2425
tp2426
I2
s(I18
S'TGA'
p2427
tp2428
I1
s(I60
S'AGA'
p2429
tp2430
I13
s(I28
S'TCT'
p2431
tp2432
I30
s(I66
S'GTC'
p2433
tp2434
I10
s(I42
S'CGT'
p2435
tp2436
I6
s(I20
S'CGG'
p2437
tp2438
I23
s(I22
S'CCC'
p2439
tp2440
I35
s(I59
S'ACC'
p2441
tp2442
I2
s(I32
S'GGC'
p2443
tp2444
I34
s(I54
S'CAA'
p2445
tp2446
I7
s(I2
S'TCT'
p2447
tp2448
I1
s(I19
S'ACG'
p2449
tp2450
I27
s(I29
S'GCT'
p2451
tp2452
I6
s(I40
S'TGC'
p2453
tp2454
I3
s(I25
S'TAT'
p2455
tp2456
I25
s(I72
S'GAG'
p2457
tp2458
I4
s(I18
S'CTG'
p2459
tp2460
I15
s(I54
S'AGG'
p2461
tp2462
I44
s(I64
S'TCA'
p2463
tp2464
I3385
s(I11
S'CAC'
p2465
tp2466
I24
s(I14
S'CCT'
p2467
tp2468
I1
s(I16
S'CAC'
p2469
tp2470
I26
s(I6
S'TTT'
p2471
tp2472
I59
s(I64
S'CTC'
p2473
tp2474
I256
s(I58
S'CAC'
p2475
tp2476
I2
s(I10
S'AAT'
p2477
tp2478
I100
s(I48
S'CCT'
p2479
tp2480
I2
s(I20
S'GCC'
p2481
tp2482
I51
s(I40
S'CTT'
p2483
tp2484
I72
s(I36
S'TGC'
p2485
tp2486
I136
s(I16
S'TAC'
p2487
tp2488
I18
s(I38
S'ACA'
p2489
tp2490
I64
s(I70
S'AGT'
p2491
tp2492
I2
s(I54
S'GAC'
p2493
tp2494
I63
s(I65
S'CCC'
p2495
tp2496
I240
s(I14
S'TCC'
p2497
tp2498
I4
s(I37
S'TCA'
p2499
tp2500
I49
s(I63
S'AGG'
p2501
tp2502
I28
s(I74
S'TCT'
p2503
tp2504
I2
s(I38
S'GAC'
p2505
tp2506
I53
s(I60
S'ACT'
p2507
tp2508
I76
s(I18
S'CGG'
p2509
tp2510
I10
s(I70
S'TCG'
p2511
tp2512
I2
s(I9
S'GAT'
p2513
tp2514
I373
s(I69
S'CCG'
p2515
tp2516
I6
s(I70
S'CAC'
p2517
tp2518
I6
s(I36
S'GTC'
p2519
tp2520
I6
s(I62
S'AAA'
p2521
tp2522
I7
s(I75
S'CAC'
p2523
tp2524
I1
s(I53
S'CAA'
p2525
tp2526
I19
s(I7
S'GTT'
p2527
tp2528
I36
s(I30
S'CAT'
p2529
tp2530
I1
s(I75
S'ATC'
p2531
tp2532
I1
s(I42
S'TTG'
p2533
tp2534
I9
s(I57
S'TAG'
p2535
tp2536
I3
s(I52
S'ATG'
p2537
tp2538
I18
s(I27
S'TGT'
p2539
tp2540
I25
s(I8
S'GTT'
p2541
tp2542
I35
s(I6
S'GTC'
p2543
tp2544
I1497
s(I29
S'CAC'
p2545
tp2546
I1
s(I4
S'CTA'
p2547
tp2548
I1
s(I23
S'AGT'
p2549
tp2550
I5
s(I38
S'CCG'
p2551
tp2552
I128
s(I4
S'CAT'
p2553
tp2554
I5
s(I72
S'TTC'
p2555
tp2556
I113
s(I35
S'AGC'
p2557
tp2558
I8
s(I20
S'GGT'
p2559
tp2560
I28
s(I39
S'GCG'
p2561
tp2562
I1
s(I55
S'CCT'
p2563
tp2564
I1
s(I24
S'CGG'
p2565
tp2566
I1
s(I49
S'CTA'
p2567
tp2568
I1
s(I69
S'GTA'
p2569
tp2570
I19
s(I76
S'TTG'
p2571
tp2572
I2
s(I39
S'AGG'
p2573
tp2574
I3
s(I34
S'ACG'
p2575
tp2576
I1
s(I11
S'TAT'
p2577
tp2578
I4
s(I68
S'TGA'
p2579
tp2580
I2
s(I73
S'GGA'
p2581
tp2582
I1
s(I50
S'GCC'
p2583
tp2584
I2
s(I40
S'GCT'
p2585
tp2586
I1
s(I28
S'GGT'
p2587
tp2588
I8
s(I9
S'CCA'
p2589
tp2590
I10541
s(I15
S'TTT'
p2591
tp2592
I132
s(I43
S'CTC'
p2593
tp2594
I33
s(I42
S'GAT'
p2595
tp2596
I1
s(I69
S'TTT'
p2597
tp2598
I9985
s(I63
S'CTC'
p2599
tp2600
I5
s(I55
S'CAA'
p2601
tp2602
I6
s(I28
S'GCA'
p2603
tp2604
I8
s(I60
S'CAA'
p2605
tp2606
I62
s(I20
S'AAA'
p2607
tp2608
I43
s(I6
S'CAT'
p2609
tp2610
I274
s(I35
S'CTG'
p2611
tp2612
I15
s(I17
S'GGG'
p2613
tp2614
I40
s(I35
S'TCG'
p2615
tp2616
I10
s(I66
S'ATG'
p2617
tp2618
I132
s(I23
S'TGG'
p2619
tp2620
I1
s(I29
S'GAG'
p2621
tp2622
I47
s(I5
S'GGT'
p2623
tp2624
I3
s(I25
S'CCC'
p2625
tp2626
I2
s(I35
S'TGC'
p2627
tp2628
I24
s(I11
S'AGC'
p2629
tp2630
I792
s(I72
S'AGA'
p2631
tp2632
I15
s(I17
S'CGA'
p2633
tp2634
I3
s(I45
S'TAC'
p2635
tp2636
I7
s(I7
S'CCG'
p2637
tp2638
I333
s(I19
S'TGC'
p2639
tp2640
I10
s(I36
S'TCC'
p2641
tp2642
I3
s(I65
S'ATC'
p2643
tp2644
I4
s(I52
S'TTG'
p2645
tp2646
I4
s(I53
S'CGC'
p2647
tp2648
I13
s(I75
S'TTC'
p2649
tp2650
I1
s(I72
S'TAG'
p2651
tp2652
I7
s(I10
S'GAC'
p2653
tp2654
I9
s(I6
S'CGG'
p2655
tp2656
I1
s(I57
S'GAT'
p2657
tp2658
I42
s(I71
S'ATT'
p2659
tp2660
I1
s(I71
S'TTG'
p2661
tp2662
I75
s(I22
S'GGG'
p2663
tp2664
I128
s(I15
S'CTG'
p2665
tp2666
I79
s(I6
S'GCC'
p2667
tp2668
I130
s(I9
S'TAG'
p2669
tp2670
I1
s(I53
S'TAA'
p2671
tp2672
I1
s(I61
S'ATC'
p2673
tp2674
I77
s(I72
S'TCG'
p2675
tp2676
I1
s(I69
S'TCA'
p2677
tp2678
I23
s(I62
S'TTT'
p2679
tp2680
I16
s(I31
S'TGC'
p2681
tp2682
I9
s(I73
S'ACA'
p2683
tp2684
I1
s(I51
S'CCA'
p2685
tp2686
I369
s(I36
S'AGT'
p2687
tp2688
I1
s(I28
S'ATC'
p2689
tp2690
I6
s(I46
S'TGA'
p2691
tp2692
I7
s(I46
S'CAA'
p2693
tp2694
I2909
s(I57
S'ATG'
p2695
tp2696
I58
s(I76
S'TCC'
p2697
tp2698
I1
s(I48
S'AGA'
p2699
tp2700
I1
s(I34
S'ATC'
p2701
tp2702
I1
s(I59
S'AGA'
p2703
tp2704
I9
s(I7
S'GTC'
p2705
tp2706
I33
s(I6
S'ATT'
p2707
tp2708
I2720
s(I29
S'CGT'
p2709
tp2710
I17
s(I13
S'CAC'
p2711
tp2712
I3
s(I55
S'CCC'
p2713
tp2714
I16
s(I18
S'CAC'
p2715
tp2716
I19
s(I73
S'GTC'
p2717
tp2718
I969
s(I41
S'CAG'
p2719
tp2720
I20
s(I75
S'CGT'
p2721
tp2722
I2
s(I22
S'ACG'
p2723
tp2724
I54
s(I46
S'ATG'
p2725
tp2726
I642
s(I54
S'ATC'
p2727
tp2728
I2
s(I22
S'GCG'
p2729
tp2730
I20
s(I56
S'ATG'
p2731
tp2732
I1
s(I38
S'TGC'
p2733
tp2734
I1
s(I54
S'TAT'
p2735
tp2736
I26
s(I7
S'GCC'
p2737
tp2738
I27
s(I25
S'AAT'
p2739
tp2740
I26
s(I9
S'GGA'
p2741
tp2742
I1814
s(I17
S'ACC'
p2743
tp2744
I91
s(I33
S'CTC'
p2745
tp2746
I2
s(I48
S'CGT'
p2747
tp2748
I1
s(I11
S'TAG'
p2749
tp2750
I3
s(I32
S'TGC'
p2751
tp2752
I10
s(I73
S'TCC'
p2753
tp2754
I1
s(I20
S'CAG'
p2755
tp2756
I9
s(I22
S'GTG'
p2757
tp2758
I44
s(I73
S'AAT'
p2759
tp2760
I1
s(I52
S'CTG'
p2761
tp2762
I4
s(I48
S'TCG'
p2763
tp2764
I2
s(I16
S'CGG'
p2765
tp2766
I37
s(I68
S'TAT'
p2767
tp2768
I2
s(I70
S'TAG'
p2769
tp2770
I1
s(I64
S'CAC'
p2771
tp2772
I60
s(I17
S'TGT'
p2773
tp2774
I35
s(I8
S'ACT'
p2775
tp2776
I2
s(I37
S'GAT'
p2777
tp2778
I422
s(I42
S'TGT'
p2779
tp2780
I665
s(I61
S'TTG'
p2781
tp2782
I579
s(I65
S'ACG'
p2783
tp2784
I11
s(I72
S'GGA'
p2785
tp2786
I90
s(I52
S'TCC'
p2787
tp2788
I21
s(I65
S'GCG'
p2789
tp2790
I8
s(I69
S'GAG'
p2791
tp2792
I8
s(I76
S'CGC'
p2793
tp2794
I1
s(I24
S'ACC'
p2795
tp2796
I21
s(I24
S'TCT'
p2797
tp2798
I9
s(I39
S'CTA'
p2799
tp2800
I1
s(I47
S'GAG'
p2801
tp2802
I1
s(I17
S'CAG'
p2803
tp2804
I4
s(I35
S'TCA'
p2805
tp2806
I10
s(I65
S'TTA'
p2807
tp2808
I3
s(I36
S'GTA'
p2809
tp2810
I20
s(I16
S'AGT'
p2811
tp2812
I6
s(I57
S'AGT'
p2813
tp2814
I3
s(I37
S'ATG'
p2815
tp2816
I26
s(I60
S'GAG'
p2817
tp2818
I12
s(I16
S'ATT'
p2819
tp2820
I22
s(I4
S'GAT'
p2821
tp2822
I1
s(I63
S'ATG'
p2823
tp2824
I14
s(I17
S'TAA'
p2825
tp2826
I20
s(I50
S'GGC'
p2827
tp2828
I1
s(I72
S'AAA'
p2829
tp2830
I37
s(I27
S'GCG'
p2831
tp2832
I22
s(I60
S'CGA'
p2833
tp2834
I43
s(I73
S'GAA'
p2835
tp2836
I1
s(I59
S'ATC'
p2837
tp2838
I17
s(I40
S'CCG'
p2839
tp2840
I12
s(I62
S'GGG'
p2841
tp2842
I150
s(I55
S'TTC'
p2843
tp2844
I14
s(I38
S'CTT'
p2845
tp2846
I26
s(I39
S'GGA'
p2847
tp2848
I2
s(I22
S'GGA'
p2849
tp2850
I67
s(I21
S'GAC'
p2851
tp2852
I37
s(I57
S'GAA'
p2853
tp2854
I18
s(I30
S'GCA'
p2855
tp2856
I9
s(I29
S'TGA'
p2857
tp2858
I23
s(I51
S'TTT'
p2859
tp2860
I1
s(I32
S'GAG'
p2861
tp2862
I59
s(I35
S'CCC'
p2863
tp2864
I173
s(I56
S'ACA'
p2865
tp2866
I7
s(I53
S'CTG'
p2867
tp2868
I17
s(I56
S'GCA'
p2869
tp2870
I17
s(I54
S'CTT'
p2871
tp2872
I13
s(I59
S'CTT'
p2873
tp2874
I877
s(I41
S'GCA'
p2875
tp2876
I5
s(I51
S'CCT'
p2877
tp2878
I21
s(I29
S'GGG'
p2879
tp2880
I85
s(I17
S'ATA'
p2881
tp2882
I23
s(I33
S'AGT'
p2883
tp2884
I1
s(I32
S'TCA'
p2885
tp2886
I69
s(I73
S'TTG'
p2887
tp2888
I122
s(I75
S'GTG'
p2889
tp2890
I671
s(I15
S'GTG'
p2891
tp2892
I11
s(I7
S'TTG'
p2893
tp2894
I1
s(I76
S'TCT'
p2895
tp2896
I1
s(I7
S'GAT'
p2897
tp2898
I3
s(I55
S'AAA'
p2899
tp2900
I139
s(I60
S'ATT'
p2901
tp2902
I40
s(I51
S'GGG'
p2903
tp2904
I2
s(I48
S'GAG'
p2905
tp2906
I1
s(I6
S'ATA'
p2907
tp2908
I2689
s(I5
S'ATC'
p2909
tp2910
I29
s(I17
S'CCA'
p2911
tp2912
I1
s(I29
S'GTA'
p2913
tp2914
I11
s(I40
S'ACC'
p2915
tp2916
I12
s(I13
S'GAC'
p2917
tp2918
I8
s(I41
S'AAG'
p2919
tp2920
I2
s(I15
S'GCG'
p2921
tp2922
I21
s(I23
S'AAC'
p2923
tp2924
I1
s(I15
S'ACG'
p2925
tp2926
I10
s(I7
S'ATA'
p2927
tp2928
I7
s(I54
S'TAA'
p2929
tp2930
I2
s(I74
S'ACA'
p2931
tp2932
I2
s(I69
S'AAT'
p2933
tp2934
I108
s(I63
S'TGT'
p2935
tp2936
I56
s(I27
S'ATG'
p2937
tp2938
I32
s(I34
S'CTG'
p2939
tp2940
I10
s(I5
S'CTT'
p2941
tp2942
I727
s(I11
S'CCC'
p2943
tp2944
I139
s(I65
S'CAA'
p2945
tp2946
I27
s(I59
S'AGC'
p2947
tp2948
I446
s(I32
S'CAC'
p2949
tp2950
I8
s(I21
S'GCC'
p2951
tp2952
I38
s(I52
S'CCC'
p2953
tp2954
I3
s(I28
S'TTT'
p2955
tp2956
I1
s(I16
S'TGA'
p2957
tp2958
I1
s(I62
S'ATC'
p2959
tp2960
I46
s(I29
S'TCG'
p2961
tp2962
I3
s(I63
S'ACC'
p2963
tp2964
I15
s(I47
S'CAT'
p2965
tp2966
I4
s(I41
S'GTA'
p2967
tp2968
I7
s(I9
S'AGT'
p2969
tp2970
I18
s(I21
S'GTA'
p2971
tp2972
I11
s(I68
S'AGA'
p2973
tp2974
I8
s(I38
S'GCT'
p2975
tp2976
I62
s(I15
S'GGT'
p2977
tp2978
I1
s(I69
S'TGG'
p2979
tp2980
I377
s(I20
S'ACA'
p2981
tp2982
I25
s(I39
S'GAC'
p2983
tp2984
I26
s(I37
S'GTA'
p2985
tp2986
I4
s(I57
S'GGC'
p2987
tp2988
I38
s(I52
S'AGA'
p2989
tp2990
I4
s(I15
S'TTA'
p2991
tp2992
I37
s(I63
S'CAG'
p2993
tp2994
I30
s(I68
S'CAG'
p2995
tp2996
I577
s(I39
S'CTT'
p2997
tp2998
I1
s(I53
S'TGG'
p2999
tp3000
I16
s(I47
S'AAG'
p3001
tp3002
I1
s(I44
S'CTT'
p3003
tp3004
I1581
s(I24
S'AAT'
p3005
tp3006
I2
s(I48
S'TTT'
p3007
tp3008
I1
s(I45
S'ATC'
p3009
tp3010
I1524
s(I22
S'CTG'
p3011
tp3012
I5
s(I23
S'GTT'
p3013
tp3014
I34
s(I74
S'GCT'
p3015
tp3016
I4
s(I18
S'GCG'
p3017
tp3018
I17
s(I25
S'GCT'
p3019
tp3020
I11
s(I34
S'CAT'
p3021
tp3022
I5
s(I46
S'GGA'
p3023
tp3024
I49
s(I46
S'AGG'
p3025
tp3026
I30
s(I34
S'TGC'
p3027
tp3028
I8
s(I3
S'CAC'
p3029
tp3030
I1
s(I54
S'GGA'
p3031
tp3032
I46
s(I35
S'GCC'
p3033
tp3034
I6
s(I60
S'TGC'
p3035
tp3036
I24
s(I67
S'TAT'
p3037
tp3038
I1
s(I36
S'ATT'
p3039
tp3040
I34
s(I7
S'AAC'
p3041
tp3042
I8336
s(I25
S'CTG'
p3043
tp3044
I1
s(I6
S'GAA'
p3045
tp3046
I34
s(I24
S'GTC'
p3047
tp3048
I25
s(I34
S'AGC'
p3049
tp3050
I1
s(I46
S'TGG'
p3051
tp3052
I90
s(I35
S'CGT'
p3053
tp3054
I7
s(I13
S'ACG'
p3055
tp3056
I3
s(I56
S'TGG'
p3057
tp3058
I1
s(I64
S'AAG'
p3059
tp3060
I10
s(I62
S'AGT'
p3061
tp3062
I544
s(I3
S'AAG'
p3063
tp3064
I1
s(I54
S'ACA'
p3065
tp3066
I3
s(I74
S'CGC'
p3067
tp3068
I114
s(I27
S'ATC'
p3069
tp3070
I5
s(I66
S'GTT'
p3071
tp3072
I33
s(I19
S'TCG'
p3073
tp3074
I49
s(I15
S'ATA'
p3075
tp3076
I136
s(I56
S'ACT'
p3077
tp3078
I7
s(I13
S'CCT'
p3079
tp3080
I3
s(I44
S'CAG'
p3081
tp3082
I2
s(I56
S'GCT'
p3083
tp3084
I4
s(I62
S'CAC'
p3085
tp3086
I42
s(I54
S'CTA'
p3087
tp3088
I1
s(I67
S'GTC'
p3089
tp3090
I34
s(I27
S'ACC'
p3091
tp3092
I53
s(I59
S'CTC'
p3093
tp3094
I93
s(I34
S'TAG'
p3095
tp3096
I43
s(I61
S'CGA'
p3097
tp3098
I3
s(I71
S'TGA'
p3099
tp3100
I2
s(I66
S'GCT'
p3101
tp3102
I8
s(I38
S'CGC'
p3103
tp3104
I6
s(I6
S'TAA'
p3105
tp3106
I2
s(I16
S'GAC'
p3107
tp3108
I38
s(I66
S'ACT'
p3109
tp3110
I15
s(I28
S'CAT'
p3111
tp3112
I27
s(I22
S'AGG'
p3113
tp3114
I71
s(I33
S'TCT'
p3115
tp3116
I15
s(I28
S'ATT'
p3117
tp3118
I10
s(I71
S'GCT'
p3119
tp3120
I2
s(I16
S'CCT'
p3121
tp3122
I74
s(I24
S'ATC'
p3123
tp3124
I5
s(I68
S'TGC'
p3125
tp3126
I87
s(I55
S'ACT'
p3127
tp3128
I6
s(I46
S'GTC'
p3129
tp3130
I150
s(I63
S'CGT'
p3131
tp3132
I54
s(I38
S'AGT'
p3133
tp3134
I2
s(I69
S'TCT'
p3135
tp3136
I20
s(I48
S'CAG'
p3137
tp3138
I1
s(I33
S'CCC'
p3139
tp3140
I1
s(I72
S'CAA'
p3141
tp3142
I90
s(I70
S'CGA'
p3143
tp3144
I1
s(I38
S'GAG'
p3145
tp3146
I77
s(I67
S'AAT'
p3147
tp3148
I1
s(I31
S'AGG'
p3149
tp3150
I10
s(I58
S'GGT'
p3151
tp3152
I12
s(I9
S'CAT'
p3153
tp3154
I2765
s(I70
S'GAC'
p3155
tp3156
I16
s(I45
S'ACG'
p3157
tp3158
I491
s(I47
S'TAA'
p3159
tp3160
I1
s(I9
S'GGC'
p3161
tp3162
I1001
s(I5
S'TTC'
p3163
tp3164
I115
s(I72
S'GTT'
p3165
tp3166
I20
s(I13
S'TGC'
p3167
tp3168
I38
s(I65
S'AGG'
p3169
tp3170
I77
s(I41
S'GAT'
p3171
tp3172
I1
s(I17
S'TCT'
p3173
tp3174
I18
s(I47
S'CAA'
p3175
tp3176
I31
s(I67
S'GAG'
p3177
tp3178
I1
s(I52
S'CAA'
p3179
tp3180
I3
s(I8
S'TTC'
p3181
tp3182
I4
s(I41
S'TCG'
p3183
tp3184
I6
s(I20
S'GTC'
p3185
tp3186
I2
s(I18
S'ACA'
p3187
tp3188
I18
s(I60
S'TCT'
p3189
tp3190
I30
s(I9
S'TGG'
p3191
tp3192
I4
s(I8
S'GAC'
p3193
tp3194
I1
s(I51
S'GAG'
p3195
tp3196
I13
s(I55
S'AGC'
p3197
tp3198
I16
s(I74
S'GTA'
p3199
tp3200
I1
s(I52
S'AGT'
p3201
tp3202
I6
s(I36
S'CGT'
p3203
tp3204
I1
s(I74
S'AGG'
p3205
tp3206
I29
s(I21
S'TTA'
p3207
tp3208
I1
s(I63
S'GGG'
p3209
tp3210
I4
s(I71
S'GGG'
p3211
tp3212
I59
s(I33
S'GTC'
p3213
tp3214
I1
s(I17
S'CTA'
p3215
tp3216
I108
s(I51
S'AAG'
p3217
tp3218
I1
s(I22
S'ATT'
p3219
tp3220
I12
s(I37
S'CTA'
p3221
tp3222
I32
s(I33
S'GAC'
p3223
tp3224
I3
s(I42
S'CTC'
p3225
tp3226
I1
s(I34
S'CAC'
p3227
tp3228
I2
s(I64
S'CGA'
p3229
tp3230
I27
s(I7
S'AGG'
p3231
tp3232
I2
s(I18
S'GTT'
p3233
tp3234
I2
s(I57
S'CAG'
p3235
tp3236
I8
s(I25
S'CGC'
p3237
tp3238
I2
s(I75
S'AAA'
p3239
tp3240
I5
s(I64
S'GTT'
p3241
tp3242
I52
s(I13
S'CGG'
p3243
tp3244
I11
s(I14
S'AAA'
p3245
tp3246
I9
s(I13
S'CCG'
p3247
tp3248
I2
s(I49
S'GGT'
p3249
tp3250
I2686
s(I6
S'CTA'
p3251
tp3252
I422
s(I12
S'ATC'
p3253
tp3254
I2
s(I56
S'GTA'
p3255
tp3256
I15
s(I40
S'TAG'
p3257
tp3258
I2
s(I57
S'CGG'
p3259
tp3260
I5
s(I31
S'CTC'
p3261
tp3262
I14
s(I34
S'GCC'
p3263
tp3264
I1
s(I38
S'TTA'
p3265
tp3266
I120
s(I37
S'TTG'
p3267
tp3268
I24
s(I62
S'AGC'
p3269
tp3270
I147
s(I54
S'ACT'
p3271
tp3272
I14
s(I75
S'GAA'
p3273
tp3274
I4
s(I38
S'GGT'
p3275
tp3276
I17
s(I61
S'TAG'
p3277
tp3278
I1
s(I68
S'TAA'
p3279
tp3280
I1
s(I37
S'TGT'
p3281
tp3282
I76
s(I61
S'CTC'
p3283
tp3284
I195
s(I28
S'AGT'
p3285
tp3286
I10
s(I38
S'CTC'
p3287
tp3288
I80
s(I67
S'TGC'
p3289
tp3290
I190
s(I22
S'TCA'
p3291
tp3292
I219
s(I12
S'ATA'
p3293
tp3294
I19
s(I6
S'TGA'
p3295
tp3296
I7
s(I40
S'AGA'
p3297
tp3298
I178
s(I20
S'GTT'
p3299
tp3300
I7
s(I68
S'GTC'
p3301
tp3302
I12
s(I45
S'GAG'
p3303
tp3304
I1
s(I9
S'TTT'
p3305
tp3306
I10
s(I15
S'GAT'
p3307
tp3308
I1
s(I10
S'CAC'
p3309
tp3310
I7
s(I57
S'CTT'
p3311
tp3312
I14
s(I55
S'CTA'
p3313
tp3314
I22
s(I28
S'GTA'
p3315
tp3316
I21
s(I3
S'CTG'
p3317
tp3318
I9
s(I33
S'CAG'
p3319
tp3320
I3
s(I51
S'ATC'
p3321
tp3322
I52
s(I33
S'TCC'
p3323
tp3324
I9
s(I53
S'GTG'
p3325
tp3326
I10
s(I44
S'GGC'
p3327
tp3328
I3
s(I55
S'GGA'
p3329
tp3330
I3
s(I7
S'TAA'
p3331
tp3332
I7
s(I27
S'GTT'
p3333
tp3334
I4
s(I69
S'TCG'
p3335
tp3336
I24
s(I55
S'CAC'
p3337
tp3338
I7
s(I68
S'ACG'
p3339
tp3340
I130
s(I10
S'GCT'
p3341
tp3342
I4
s(I50
S'AGT'
p3343
tp3344
I3
s(I39
S'TAG'
p3345
tp3346
I5
s(I14
S'TTA'
p3347
tp3348
I2
s(I40
S'GGG'
p3349
tp3350
I10
s(I28
S'ACC'
p3351
tp3352
I3
s(I8
S'TGC'
p3353
tp3354
I2
s(I38
S'AGC'
p3355
tp3356
I9
s(I20
S'ATA'
p3357
tp3358
I87
s(I4
S'TAT'
p3359
tp3360
I88
s(I72
S'CAT'
p3361
tp3362
I13
s(I38
S'TTC'
p3363
tp3364
I66
s(I46
S'TTG'
p3365
tp3366
I39
s(I31
S'ATC'
p3367
tp3368
I144
s(I27
S'TCG'
p3369
tp3370
I5
s(I18
S'ACT'
p3371
tp3372
I20
s(I27
S'AAC'
p3373
tp3374
I3
s(I25
S'TTA'
p3375
tp3376
I31
s(I60
S'GGA'
p3377
tp3378
I256
s(I29
S'GCC'
p3379
tp3380
I2
s(I67
S'CTG'
p3381
tp3382
I51
s(I16
S'AGA'
p3383
tp3384
I1
s(I68
S'GAA'
p3385
tp3386
I5
s(I57
S'TTG'
p3387
tp3388
I90
s(I31
S'TCC'
p3389
tp3390
I3
s(I51
S'AGC'
p3391
tp3392
I78
s(I27
S'TTT'
p3393
tp3394
I1
s(I40
S'CTG'
p3395
tp3396
I255
s(I75
S'GCA'
p3397
tp3398
I1
s(I45
S'CGT'
p3399
tp3400
I21
s(I61
S'TTC'
p3401
tp3402
I39
s(I61
S'AAA'
p3403
tp3404
I2
s(I19
S'GTA'
p3405
tp3406
I12
s(I44
S'TAA'
p3407
tp3408
I2
s(I45
S'GTA'
p3409
tp3410
I4701
s(I10
S'CGT'
p3411
tp3412
I2
s(I25
S'GAG'
p3413
tp3414
I105
s(I62
S'GCC'
p3415
tp3416
I593
s(I28
S'GAG'
p3417
tp3418
I99
s(I21
S'CGA'
p3419
tp3420
I1
s(I64
S'TGC'
p3421
tp3422
I668
s(I60
S'ACA'
p3423
tp3424
I64
s(I18
S'CGT'
p3425
tp3426
I3
s(I69
S'AAG'
p3427
tp3428
I2
s(I13
S'ATC'
p3429
tp3430
I38
s(I49
S'TCG'
p3431
tp3432
I283
s(I48
S'CAT'
p3433
tp3434
I1
s(I70
S'GGC'
p3435
tp3436
I2
s(I22
S'TTG'
p3437
tp3438
I36
s(I9
S'GAG'
p3439
tp3440
I6
s(I64
S'CGT'
p3441
tp3442
I7
s(I18
S'GTA'
p3443
tp3444
I23
s(I3
S'CTA'
p3445
tp3446
I28
s(I23
S'TGA'
p3447
tp3448
I1
s(I13
S'CTC'
p3449
tp3450
I1
s(I54
S'TTC'
p3451
tp3452
I18
s(I55
S'TTG'
p3453
tp3454
I40
s(I69
S'TGT'
p3455
tp3456
I483
s(I52
S'TAC'
p3457
tp3458
I7
s(I37
S'GCG'
p3459
tp3460
I2
s(I60
S'GTA'
p3461
tp3462
I6
s(I50
S'ATG'
p3463
tp3464
I119
s(I11
S'TGG'
p3465
tp3466
I3
s(I65
S'TAT'
p3467
tp3468
I106
s(I23
S'CCT'
p3469
tp3470
I4
s(I32
S'CGT'
p3471
tp3472
I23
s(I35
S'TAG'
p3473
tp3474
I8
s(I68
S'TCC'
p3475
tp3476
I491
s(I55
S'GCC'
p3477
tp3478
I13
s(I66
S'TTG'
p3479
tp3480
I2692
s(I44
S'ACC'
p3481
tp3482
I160
s(I48
S'ATT'
p3483
tp3484
I3
s(I34
S'TCC'
p3485
tp3486
I19
s(I62
S'TCC'
p3487
tp3488
I183
s(I26
S'TTG'
p3489
tp3490
I21
s(I67
S'CGA'
p3491
tp3492
I5
s(I62
S'AAT'
p3493
tp3494
I184
s(I25
S'AGT'
p3495
tp3496
I26
s(I63
S'GAG'
p3497
tp3498
I1
s(I43
S'CGG'
p3499
tp3500
I1
s(I36
S'GGA'
p3501
tp3502
I1
s(I46
S'TCC'
p3503
tp3504
I194
s(I13
S'GGC'
p3505
tp3506
I1
s(I11
S'GTG'
p3507
tp3508
I13
s(I27
S'GGT'
p3509
tp3510
I14
s(I53
S'TAT'
p3511
tp3512
I7
s(I27
S'TTC'
p3513
tp3514
I19
s(I43
S'TAT'
p3515
tp3516
I4
s(I57
S'TCA'
p3517
tp3518
I69
s(I25
S'TCG'
p3519
tp3520
I6
s(I54
S'CGG'
p3521
tp3522
I45
s(I11
S'CGG'
p3523
tp3524
I1
s(I51
S'ACC'
p3525
tp3526
I57
s(I74
S'AAG'
p3527
tp3528
I26
s(I31
S'TTG'
p3529
tp3530
I2
s(I66
S'GAA'
p3531
tp3532
I5
s(I40
S'TCG'
p3533
tp3534
I34
s(I9
S'GTA'
p3535
tp3536
I23
s(I22
S'GGC'
p3537
tp3538
I16
s(I8
S'CGC'
p3539
tp3540
I1
s(I63
S'TTA'
p3541
tp3542
I5
s(I19
S'CAC'
p3543
tp3544
I37
s(I71
S'CAG'
p3545
tp3546
I1
s(I24
S'CAC'
p3547
tp3548
I2
s(I75
S'GGA'
p3549
tp3550
I7
s(I25
S'GTA'
p3551
tp3552
I77
s(I8
S'TGT'
p3553
tp3554
I1
s(I43
S'ATT'
p3555
tp3556
I75
s(I9
S'AAC'
p3557
tp3558
I68
s(I65
S'GGT'
p3559
tp3560
I274
s(I27
S'CTT'
p3561
tp3562
I5
s(I13
S'AAC'
p3563
tp3564
I2
s(I49
S'CTG'
p3565
tp3566
I1
s(I2
S'GGG'
p3567
tp3568
I3
s(I40
S'AAC'
p3569
tp3570
I73
s(I45
S'CAT'
p3571
tp3572
I829
s(I15
S'TGT'
p3573
tp3574
I16
s(I48
S'GGC'
p3575
tp3576
I1
s(I25
S'GCA'
p3577
tp3578
I4
s(I58
S'CCC'
p3579
tp3580
I1
s(I20
S'TAG'
p3581
tp3582
I1
s(I73
S'GCT'
p3583
tp3584
I1
s(I73
S'GGG'
p3585
tp3586
I2
s(I52
S'TTT'
p3587
tp3588
I16
s(I38
S'ACG'
p3589
tp3590
I4
s(I33
S'GGT'
p3591
tp3592
I4
s(I68
S'GAT'
p3593
tp3594
I2
s(I14
S'GGC'
p3595
tp3596
I4
s(I38
S'CTG'
p3597
tp3598
I13
s(I70
S'ACG'
p3599
tp3600
I2298
s(I68
S'GTG'
p3601
tp3602
I186
s(I64
S'TTA'
p3603
tp3604
I162
s(I6
S'CGT'
p3605
tp3606
I3
s(I55
S'CAG'
p3607
tp3608
I74
s(I6
S'TCT'
p3609
tp3610
I901
s(I52
S'CGT'
p3611
tp3612
I5
s(I68
S'ACA'
p3613
tp3614
I10
s(I45
S'CGA'
p3615
tp3616
I124
s(I21
S'ATC'
p3617
tp3618
I1
s(I22
S'GGT'
p3619
tp3620
I10
s(I19
S'GTT'
p3621
tp3622
I16
s(I67
S'ATC'
p3623
tp3624
I17
s(I66
S'ATA'
p3625
tp3626
I42
s(I62
S'GAT'
p3627
tp3628
I71
s(I44
S'ATG'
p3629
tp3630
I743
s(I64
S'CCG'
p3631
tp3632
I4
s(I39
S'TTA'
p3633
tp3634
I1
s(I38
S'GGA'
p3635
tp3636
I49
s(I42
S'ACA'
p3637
tp3638
I5
s(I42
S'AAC'
p3639
tp3640
I12
s(I73
S'ACT'
p3641
tp3642
I2
s(I20
S'CGT'
p3643
tp3644
I29
s(I2
S'TCC'
p3645
tp3646
I9
s(I13
S'GAA'
p3647
tp3648
I58
s(I20
S'TGC'
p3649
tp3650
I10
s(I55
S'ATA'
p3651
tp3652
I14
s(I30
S'TGT'
p3653
tp3654
I541
s(I31
S'GCG'
p3655
tp3656
I14
s(I54
S'AAG'
p3657
tp3658
I13
s(I42
S'GTA'
p3659
tp3660
I33
s(I30
S'CCA'
p3661
tp3662
I5
s(I54
S'AGT'
p3663
tp3664
I75
s(I31
S'CGG'
p3665
tp3666
I3
s(I54
S'AAC'
p3667
tp3668
I1
s(I29
S'CGC'
p3669
tp3670
I21
s(I55
S'CTC'
p3671
tp3672
I3
s(I11
S'GAG'
p3673
tp3674
I128
s(I26
S'ACG'
p3675
tp3676
I2
s(I40
S'TGT'
p3677
tp3678
I5
s(I71
S'GAC'
p3679
tp3680
I2
s(I20
S'GGG'
p3681
tp3682
I98
s(I11
S'CGT'
p3683
tp3684
I2
s(I40
S'TTA'
p3685
tp3686
I258
s(I42
S'GCC'
p3687
tp3688
I526
s(I31
S'CAG'
p3689
tp3690
I23
s(I28
S'GGG'
p3691
tp3692
I32
s(I26
S'CGG'
p3693
tp3694
I1
s(I54
S'CAC'
p3695
tp3696
I12
s(I55
S'GAC'
p3697
tp3698
I4
s(I2
S'CGA'
p3699
tp3700
I46
s(I15
S'CTA'
p3701
tp3702
I34
s(I59
S'TCA'
p3703
tp3704
I415
s(I8
S'CTG'
p3705
tp3706
I43
s(I10
S'CCT'
p3707
tp3708
I1
s(I20
S'CAT'
p3709
tp3710
I95
s(I38
S'TAG'
p3711
tp3712
I32
s(I36
S'GGT'
p3713
tp3714
I1
s(I0
S'WT'
p3715
tp3716
I22
s(I66
S'TGC'
p3717
tp3718
I5
s(I13
S'GGT'
p3719
tp3720
I2
s(I2
S'GCG'
p3721
tp3722
I1
s(I35
S'ATG'
p3723
tp3724
I59
s(I71
S'CAC'
p3725
tp3726
I1
s(I37
S'GAG'
p3727
tp3728
I72
s(I35
S'AGT'
p3729
tp3730
I1
s(I41
S'ACT'
p3731
tp3732
I124
s(I42
S'TGG'
p3733
tp3734
I23
s(I47
S'TCC'
p3735
tp3736
I40
s(I44
S'TGA'
p3737
tp3738
I1
s(I51
S'ACT'
p3739
tp3740
I85
s(I5
S'CGT'
p3741
tp3742
I1
s(I21
S'GAG'
p3743
tp3744
I24
s(I47
S'ACT'
p3745
tp3746
I34
s(I30
S'AGT'
p3747
tp3748
I1
s(I33
S'CTA'
p3749
tp3750
I1
s(I16
S'CTA'
p3751
tp3752
I1
s(I22
S'ACA'
p3753
tp3754
I3
s(I53
S'CTA'
p3755
tp3756
I2
s(I53
S'GCA'
p3757
tp3758
I22
s(I63
S'CCT'
p3759
tp3760
I69
s(I58
S'CTC'
p3761
tp3762
I5
s(I65
S'GAA'
p3763
tp3764
I1342
s(I45
S'AAA'
p3765
tp3766
I5
s(I34
S'GTT'
p3767
tp3768
I3
s(I42
S'GGG'
p3769
tp3770
I40
s(I61
S'ACT'
p3771
tp3772
I4
s(I23
S'CAT'
p3773
tp3774
I34
s(I14
S'GCT'
p3775
tp3776
I32
s(I57
S'AGG'
p3777
tp3778
I6
s(I65
S'GGA'
p3779
tp3780
I449
s(I48
S'AAT'
p3781
tp3782
I17
s(I27
S'CTC'
p3783
tp3784
I36
s(I68
S'ATA'
p3785
tp3786
I14
s(I41
S'CGG'
p3787
tp3788
I1
s(I63
S'ATT'
p3789
tp3790
I96
s(I19
S'CGT'
p3791
tp3792
I72
s(I52
S'CTA'
p3793
tp3794
I1
s(I16
S'CGA'
p3795
tp3796
I4
s(I53
S'GGA'
p3797
tp3798
I36
s(I34
S'ACT'
p3799
tp3800
I1
s(I61
S'AGC'
p3801
tp3802
I1
s(I22
S'CTC'
p3803
tp3804
I145
s(I5
S'GCG'
p3805
tp3806
I4
s(I33
S'GGA'
p3807
tp3808
I2
s(I65
S'ACA'
p3809
tp3810
I143
s(I62
S'TAA'
p3811
tp3812
I1
s(I21
S'TAC'
p3813
tp3814
I89
s(I41
S'GCG'
p3815
tp3816
I7
s(I48
S'GGG'
p3817
tp3818
I7
s(I26
S'ATC'
p3819
tp3820
I62
s(I29
S'TAC'
p3821
tp3822
I21
s(I24
S'TCA'
p3823
tp3824
I18
s(I17
S'CAA'
p3825
tp3826
I139
s(I42
S'AGT'
p3827
tp3828
I2
s(I25
S'CGA'
p3829
tp3830
I2
s(I67
S'AGT'
p3831
tp3832
I13
s(I21
S'CAC'
p3833
tp3834
I41
s(I65
S'GTC'
p3835
tp3836
I13
s(I72
S'AAG'
p3837
tp3838
I3
s(I19
S'GCG'
p3839
tp3840
I23
s(I14
S'ACG'
p3841
tp3842
I23
s(I11
S'AAG'
p3843
tp3844
I32
s(I37
S'ATA'
p3845
tp3846
I57
s(I3
S'GGA'
p3847
tp3848
I1
s(I48
S'TAA'
p3849
tp3850
I7
s(I45
S'TGC'
p3851
tp3852
I6
s(I33
S'AGG'
p3853
tp3854
I40
s(I70
S'GCC'
p3855
tp3856
I111
s(I67
S'TCC'
p3857
tp3858
I30
s(I37
S'ACG'
p3859
tp3860
I191
s(I27
S'GAC'
p3861
tp3862
I1
s(I32
S'ACA'
p3863
tp3864
I13
s(I55
S'ATT'
p3865
tp3866
I12
s(I51
S'TAG'
p3867
tp3868
I1
s(I27
S'GCA'
p3869
tp3870
I11
s(I41
S'TCT'
p3871
tp3872
I13
s(I29
S'TAT'
p3873
tp3874
I22
s(I72
S'GAA'
p3875
tp3876
I5
s(I53
S'GGG'
p3877
tp3878
I49
s(I33
S'TGG'
p3879
tp3880
I13
s(I5
S'ATT'
p3881
tp3882
I11
s(I20
S'CAA'
p3883
tp3884
I72
s(I16
S'GTA'
p3885
tp3886
I10
s(I23
S'GAC'
p3887
tp3888
I3
s(I38
S'CAC'
p3889
tp3890
I51
s(I60
S'CCG'
p3891
tp3892
I62
s(I20
S'AGT'
p3893
tp3894
I147
s(I42
S'AGG'
p3895
tp3896
I14
s(I47
S'GCC'
p3897
tp3898
I10
s(I13
S'ATG'
p3899
tp3900
I1
s(I16
S'GCC'
p3901
tp3902
I8
s(I46
S'GAG'
p3903
tp3904
I903
s(I66
S'TAC'
p3905
tp3906
I64
s(I57
S'CTC'
p3907
tp3908
I6
s(I16
S'ACC'
p3909
tp3910
I6
s(I52
S'CCT'
p3911
tp3912
I31
s(I5
S'CTA'
p3913
tp3914
I17
s(I65
S'GAC'
p3915
tp3916
I3149
s(I10
S'CTC'
p3917
tp3918
I1
s(I54
S'CCA'
p3919
tp3920
I2
s(I25
S'CAG'
p3921
tp3922
I32
s(I73
S'TTA'
p3923
tp3924
I81
s(I49
S'GAC'
p3925
tp3926
I3
s(I33
S'ACT'
p3927
tp3928
I4
s(I57
S'ATT'
p3929
tp3930
I12
s(I11
S'AAT'
p3931
tp3932
I44
s(I29
S'ATG'
p3933
tp3934
I8
s(I8
S'ATT'
p3935
tp3936
I180
s(I12
S'GAT'
p3937
tp3938
I1
s(I64
S'ACG'
p3939
tp3940
I656
s(I17
S'CCG'
p3941
tp3942
I2
s(I35
S'TAC'
p3943
tp3944
I1
s(I30
S'AGC'
p3945
tp3946
I5
s(I75
S'CGC'
p3947
tp3948
I3
s(I22
S'ACT'
p3949
tp3950
I75
s(I46
S'TAG'
p3951
tp3952
I3
s(I25
S'ATC'
p3953
tp3954
I22
s(I10
S'CGA'
p3955
tp3956
I4
s(I44
S'GCG'
p3957
tp3958
I10
s(I44
S'CTG'
p3959
tp3960
I411
s(I64
S'AGC'
p3961
tp3962
I2618
s(I50
S'ATA'
p3963
tp3964
I100
s(I36
S'CCG'
p3965
tp3966
I37
s(I29
S'CTC'
p3967
tp3968
I20
s(I45
S'ATT'
p3969
tp3970
I180
s(I69
S'CTA'
p3971
tp3972
I56
s(I23
S'CAA'
p3973
tp3974
I1
s(I18
S'AGG'
p3975
tp3976
I4
s(I18
S'GCT'
p3977
tp3978
I18
s(I48
S'TGA'
p3979
tp3980
I1
s(I50
S'TAG'
p3981
tp3982
I1
s(I12
S'ACA'
p3983
tp3984
I7
s(I43
S'TAC'
p3985
tp3986
I18
s(I73
S'AAG'
p3987
tp3988
I2
s(I23
S'TTG'
p3989
tp3990
I15
s(I68
S'AAT'
p3991
tp3992
I542
s(I48
S'ACA'
p3993
tp3994
I14
s(I20
S'CTT'
p3995
tp3996
I5
s(I25
S'CTT'
p3997
tp3998
I14
s(I23
S'GCA'
p3999
tp4000
I9
s(I63
S'TCT'
p4001
tp4002
I31
s(I11
S'TTC'
p4003
tp4004
I45
s(I2
S'GAG'
p4005
tp4006
I20
s(I21
S'GTG'
p4007
tp4008
I18
s(I47
S'CCG'
p4009
tp4010
I16
s(I44
S'TGG'
p4011
tp4012
I1
s(I59
S'TAT'
p4013
tp4014
I44
s(I72
S'CTT'
p4015
tp4016
I2
s(I12
S'GTA'
p4017
tp4018
I2
s(I37
S'GTG'
p4019
tp4020
I71
s(I16
S'CTC'
p4021
tp4022
I1
s(I28
S'TGG'
p4023
tp4024
I14
s(I36
S'CTC'
p4025
tp4026
I25
s(I34
S'GGC'
p4027
tp4028
I41
s(I55
S'GCA'
p4029
tp4030
I12
s(I20
S'ATC'
p4031
tp4032
I96
s(I6
S'AGC'
p4033
tp4034
I1128
s(I8
S'GGA'
p4035
tp4036
I1
s(I71
S'ACA'
p4037
tp4038
I1
s(I36
S'ATA'
p4039
tp4040
I14
s(I46
S'GGG'
p4041
tp4042
I33
s(I12
S'GGC'
p4043
tp4044
I4
s(I53
S'CCC'
p4045
tp4046
I36
s(I55
S'GTC'
p4047
tp4048
I21
s(I54
S'GGG'
p4049
tp4050
I53
s(I24
S'TCG'
p4051
tp4052
I6
s(I43
S'ACG'
p4053
tp4054
I1
s(I32
S'AGA'
p4055
tp4056
I1
s(I31
S'TGG'
p4057
tp4058
I28
s(I31
S'GAA'
p4059
tp4060
I2
s(I48
S'AGC'
p4061
tp4062
I7
s(I18
S'ATC'
p4063
tp4064
I42
s(I32
S'ACT'
p4065
tp4066
I8
s(I18
S'TAC'
p4067
tp4068
I43
s(I13
S'GCC'
p4069
tp4070
I38
s(I65
S'TTG'
p4071
tp4072
I8
s(I52
S'GCT'
p4073
tp4074
I8
s(I15
S'GAA'
p4075
tp4076
I4
s(I16
S'GGA'
p4077
tp4078
I3
s(I28
S'CTG'
p4079
tp4080
I19
s(I16
S'CCA'
p4081
tp4082
I8
s(I55
S'ACC'
p4083
tp4084
I56
s(I49
S'AGC'
p4085
tp4086
I2
s(I7
S'CCA'
p4087
tp4088
I387
s(I9
S'ATT'
p4089
tp4090
I862
s(I34
S'AAT'
p4091
tp4092
I1
s(I67
S'CAT'
p4093
tp4094
I2
s(I15
S'TAC'
p4095
tp4096
I13
s(I13
S'GTA'
p4097
tp4098
I65
s(I69
S'CAC'
p4099
tp4100
I10
s(I10
S'GGC'
p4101
tp4102
I54
s(I42
S'TGC'
p4103
tp4104
I2
s(I56
S'TTG'
p4105
tp4106
I7
s(I9
S'CAG'
p4107
tp4108
I3234
s(I9
S'TCC'
p4109
tp4110
I68
s(I35
S'GGG'
p4111
tp4112
I23
s(I18
S'TGT'
p4113
tp4114
I69
s(I23
S'TTA'
p4115
tp4116
I1
s(I29
S'GAA'
p4117
tp4118
I2
s(I61
S'CGG'
p4119
tp4120
I2
s(I10
S'CTT'
p4121
tp4122
I1
s(I43
S'GGG'
p4123
tp4124
I24
s(I57
S'GTC'
p4125
tp4126
I60
s(I48
S'GTC'
p4127
tp4128
I1
s(I67
S'ACA'
p4129
tp4130
I280
s(I6
S'TAG'
p4131
tp4132
I2
s(I62
S'ACC'
p4133
tp4134
I3202
s(I15
S'GTT'
p4135
tp4136
I2
s(I13
S'TCG'
p4137
tp4138
I10
s(I23
S'TGC'
p4139
tp4140
I1
s(I75
S'CCA'
p4141
tp4142
I1
s(I38
S'TAA'
p4143
tp4144
I2
s(I32
S'GCG'
p4145
tp4146
I6
s(I18
S'GGC'
p4147
tp4148
I116
s(I63
S'TAC'
p4149
tp4150
I36
s(I8
S'ATA'
p4151
tp4152
I342
s(I23
S'ATG'
p4153
tp4154
I65
s(I57
S'GCC'
p4155
tp4156
I15
s(I69
S'ACT'
p4157
tp4158
I139
s(I71
S'TAC'
p4159
tp4160
I2
s(I62
S'GTC'
p4161
tp4162
I587
s(I28
S'GTC'
p4163
tp4164
I56
s(I8
S'AGC'
p4165
tp4166
I1
s(I24
S'TTA'
p4167
tp4168
I5
s(I46
S'AAC'
p4169
tp4170
I1976
s(I64
S'GCG'
p4171
tp4172
I1070
s(I4
S'CCG'
p4173
tp4174
I1
s(I37
S'CAT'
p4175
tp4176
I38
s(I4
S'GCG'
p4177
tp4178
I2
s(I56
S'AAG'
p4179
tp4180
I4
s(I22
S'ATG'
p4181
tp4182
I100
s(I46
S'ACA'
p4183
tp4184
I1179
s(I14
S'ATA'
p4185
tp4186
I1
s(I61
S'GAC'
p4187
tp4188
I5
s(I64
S'GTG'
p4189
tp4190
I877
s(I47
S'CAG'
p4191
tp4192
I56
s(I60
S'GCC'
p4193
tp4194
I4
s(I52
S'CAG'
p4195
tp4196
I5
s(I49
S'GGC'
p4197
tp4198
I1132
s(I37
S'TGG'
p4199
tp4200
I8
s(I18
S'TCA'
p4201
tp4202
I115
s(I11
S'TTT'
p4203
tp4204
I7
s(I76
S'GAC'
p4205
tp4206
I1
s(I43
S'TAG'
p4207
tp4208
I1
s(I15
S'CAG'
p4209
tp4210
I12
s(I15
S'GGC'
p4211
tp4212
I1
s(I74
S'GTG'
p4213
tp4214
I2
s(I32
S'AAA'
p4215
tp4216
I2
s(I6
S'GCG'
p4217
tp4218
I76
s(I53
S'ACA'
p4219
tp4220
I17
s(I38
S'TCG'
p4221
tp4222
I19
s(I24
S'CCA'
p4223
tp4224
I25
s(I24
S'AGC'
p4225
tp4226
I6
s(I20
S'TGG'
p4227
tp4228
I62
s(I48
S'ACC'
p4229
tp4230
I3
s(I18
S'ACG'
p4231
tp4232
I18
s(I37
S'GCT'
p4233
tp4234
I75
s(I63
S'GGA'
p4235
tp4236
I3
s(I39
S'GCC'
p4237
tp4238
I2
s(I51
S'TCT'
p4239
tp4240
I83
s(I60
S'TTC'
p4241
tp4242
I31
s(I2
S'GTA'
p4243
tp4244
I1
s(I71
S'GGA'
p4245
tp4246
I1
s(I58
S'GAG'
p4247
tp4248
I28
s(I2
S'AAC'
p4249
tp4250
I1
s(I63
S'GTG'
p4251
tp4252
I2
s(I13
S'TAG'
p4253
tp4254
I1
s(I65
S'CGG'
p4255
tp4256
I3
s(I62
S'CGA'
p4257
tp4258
I9
s(I9
S'TTG'
p4259
tp4260
I205
s(I32
S'AGT'
p4261
tp4262
I7
s(I46
S'AGT'
p4263
tp4264
I19
s(I68
S'AGC'
p4265
tp4266
I984
s(I10
S'TAT'
p4267
tp4268
I50
s(I70
S'AAT'
p4269
tp4270
I1
s(I14
S'AAG'
p4271
tp4272
I11
s(I64
S'TCC'
p4273
tp4274
I2651
s(I44
S'TAC'
p4275
tp4276
I1
s(I6
S'CTG'
p4277
tp4278
I190
s(I18
S'TAT'
p4279
tp4280
I16
s(I9
S'GCA'
p4281
tp4282
I395
s(I69
S'AAC'
p4283
tp4284
I25
s(I13
S'TTC'
p4285
tp4286
I3
s(I35
S'CGC'
p4287
tp4288
I3
s(I33
S'CGG'
p4289
tp4290
I29
s(I74
S'GGG'
p4291
tp4292
I2
s(I33
S'CAA'
p4293
tp4294
I2
s(I52
S'GTG'
p4295
tp4296
I3
s(I20
S'CCA'
p4297
tp4298
I150
s(I59
S'AAA'
p4299
tp4300
I8
s(I75
S'GAG'
p4301
tp4302
I1
s(I9
S'ATC'
p4303
tp4304
I570
s(I71
S'CTC'
p4305
tp4306
I47
s(I28
S'AGA'
p4307
tp4308
I2
s(I76
S'CTA'
p4309
tp4310
I2
s(I46
S'CGC'
p4311
tp4312
I219
s(I32
S'CCG'
p4313
tp4314
I12
s(I48
S'GTT'
p4315
tp4316
I3
s(I27
S'TCT'
p4317
tp4318
I3
s(I20
S'TTG'
p4319
tp4320
I28
s(I25
S'TTT'
p4321
tp4322
I80
s(I45
S'GAA'
p4323
tp4324
I5
s(I52
S'TGC'
p4325
tp4326
I52
s(I30
S'TTC'
p4327
tp4328
I65
s(I19
S'GAA'
p4329
tp4330
I39
s(I68
S'GCA'
p4331
tp4332
I22
s(I24
S'CCT'
p4333
tp4334
I22
s(I24
S'TGA'
p4335
tp4336
I5
s(I22
S'TCT'
p4337
tp4338
I1
s(I22
S'AGT'
p4339
tp4340
I12
s(I44
S'AGC'
p4341
tp4342
I14
s(I62
S'TGC'
p4343
tp4344
I238
s(I49
S'TAT'
p4345
tp4346
I8
s(I18
S'TTG'
p4347
tp4348
I43
s(I48
S'GAA'
p4349
tp4350
I1
s(I57
S'GCT'
p4351
tp4352
I56
s(I41
S'TTC'
p4353
tp4354
I616
s(I69
S'ACA'
p4355
tp4356
I22
s(I64
S'TGA'
p4357
tp4358
I3
s(I24
S'GGA'
p4359
tp4360
I11
s(I64
S'GAT'
p4361
tp4362
I780
s(I6
S'AAA'
p4363
tp4364
I15
s(I12
S'TTT'
p4365
tp4366
I3
s(I72
S'GCC'
p4367
tp4368
I14
s(I31
S'AAA'
p4369
tp4370
I5
s(I10
S'TGC'
p4371
tp4372
I1
s(I26
S'GCC'
p4373
tp4374
I5
s(I45
S'TTG'
p4375
tp4376
I2509
s(I46
S'TTA'
p4377
tp4378
I22
s(I18
S'CCA'
p4379
tp4380
I1
s(I17
S'GCG'
p4381
tp4382
I50
s(I53
S'AGC'
p4383
tp4384
I12
s(I46
S'ACT'
p4385
tp4386
I92
s(I33
S'GCA'
p4387
tp4388
I5
s(I69
S'GTC'
p4389
tp4390
I112
s(I23
S'CTG'
p4391
tp4392
I16
s(I72
S'GTC'
p4393
tp4394
I27
s(I3
S'TAT'
p4395
tp4396
I1
s(I58
S'TGA'
p4397
tp4398
I2
s(I24
S'CAG'
p4399
tp4400
I12
s(I59
S'TCG'
p4401
tp4402
I8
s(I66
S'AAA'
p4403
tp4404
I1
s(I57
S'TTA'
p4405
tp4406
I21
s(I27
S'AAT'
p4407
tp4408
I18
s(I12
S'CCC'
p4409
tp4410
I147
s(I47
S'GGG'
p4411
tp4412
I33
s(I76
S'TGC'
p4413
tp4414
I1
s(I47
S'AGA'
p4415
tp4416
I7
s(I9
S'TGT'
p4417
tp4418
I216
s(I55
S'GGG'
p4419
tp4420
I37
s(I31
S'ACT'
p4421
tp4422
I23
s(I63
S'TCC'
p4423
tp4424
I26
s(I16
S'TCT'
p4425
tp4426
I4
s(I10
S'CGC'
p4427
tp4428
I1
s(I26
S'CTC'
p4429
tp4430
I23
s(I19
S'CCG'
p4431
tp4432
I5
s(I5
S'GGG'
p4433
tp4434
I2
s(I7
S'TCT'
p4435
tp4436
I156
s(I17
S'TTC'
p4437
tp4438
I22
s(I29
S'ACT'
p4439
tp4440
I13
s(I65
S'CCT'
p4441
tp4442
I119
s(I9
S'ACG'
p4443
tp4444
I28
s(I67
S'CGT'
p4445
tp4446
I4
s(I25
S'AGG'
p4447
tp4448
I16
s(I38
S'CCC'
p4449
tp4450
I38
s(I23
S'GGG'
p4451
tp4452
I1
s(I74
S'TCA'
p4453
tp4454
I1
s(I65
S'TGG'
p4455
tp4456
I7
s(I24
S'TAG'
p4457
tp4458
I7
s(I60
S'ACG'
p4459
tp4460
I51
s(I46
S'GAC'
p4461
tp4462
I17192
s(I34
S'GAC'
p4463
tp4464
I13
s(I75
S'AGG'
p4465
tp4466
I12
s(I22
S'TTA'
p4467
tp4468
I25
s(I20
S'ACC'
p4469
tp4470
I1
s(I2
S'ACT'
p4471
tp4472
I1
s(I29
S'AGC'
p4473
tp4474
I80
s(I19
S'GGC'
p4475
tp4476
I4
s(I7
S'CAG'
p4477
tp4478
I14
s(I17
S'CAT'
p4479
tp4480
I26
s(I60
S'CTG'
p4481
tp4482
I4
s(I35
S'CAC'
p4483
tp4484
I7
s(I21
S'GGA'
p4485
tp4486
I16
s(I18
S'AAG'
p4487
tp4488
I45
s(I33
S'TTA'
p4489
tp4490
I10
s(I34
S'GCT'
p4491
tp4492
I3
s(I69
S'GGG'
p4493
tp4494
I137
s(I29
S'ACG'
p4495
tp4496
I105
s(I43
S'TTA'
p4497
tp4498
I74
s(I32
S'GTT'
p4499
tp4500
I18
s(I8
S'CGT'
p4501
tp4502
I1
s(I51
S'AGA'
p4503
tp4504
I1
s(I39
S'TCC'
p4505
tp4506
I1
s(I25
S'GAT'
p4507
tp4508
I3
s(I22
S'TGG'
p4509
tp4510
I5
s(I21
S'TGA'
p4511
tp4512
I2
s(I70
S'AAA'
p4513
tp4514
I8
s(I2
S'GGT'
p4515
tp4516
I1
s(I25
S'CGG'
p4517
tp4518
I2
s(I45
S'CAG'
p4519
tp4520
I32
s(I11
S'GTA'
p4521
tp4522
I2
s(I50
S'GTA'
p4523
tp4524
I27
s(I48
S'TAG'
p4525
tp4526
I2
s(I73
S'ATA'
p4527
tp4528
I4117
s(I64
S'CTG'
p4529
tp4530
I187
s(I32
S'CTC'
p4531
tp4532
I3
s(I39
S'GTT'
p4533
tp4534
I1
s(I23
S'TAG'
p4535
tp4536
I1
s(I54
S'GCC'
p4537
tp4538
I2
s(I57
S'TGA'
p4539
tp4540
I1
s(I34
S'TCA'
p4541
tp4542
I4
s(I52
S'ACA'
p4543
tp4544
I19
s(I76
S'ATA'
p4545
tp4546
I2
s(I8
S'CTT'
p4547
tp4548
I30
s(I41
S'GGC'
p4549
tp4550
I1
s(I57
S'TCG'
p4551
tp4552
I112
s(I60
S'CAT'
p4553
tp4554
I34
s(I27
S'GTA'
p4555
tp4556
I1
s(I6
S'CAC'
p4557
tp4558
I1188
s(I41
S'TCA'
p4559
tp4560
I11
s(I52
S'CGA'
p4561
tp4562
I1
s(I15
S'CAA'
p4563
tp4564
I1
s(I63
S'TTG'
p4565
tp4566
I18
s(I10
S'AGG'
p4567
tp4568
I8
s(I39
S'TAT'
p4569
tp4570
I1
s(I51
S'CTG'
p4571
tp4572
I15
s(I37
S'AAC'
p4573
tp4574
I5
s(I30
S'GGA'
p4575
tp4576
I1
s(I28
S'ACT'
p4577
tp4578
I3
s(I18
S'TGC'
p4579
tp4580
I30
s(I60
S'AGG'
p4581
tp4582
I21
s(I70
S'GTC'
p4583
tp4584
I107
s(I11
S'AGT'
p4585
tp4586
I483
s(I18
S'CCT'
p4587
tp4588
I8
s(I20
S'CGA'
p4589
tp4590
I2
s(I72
S'ACA'
p4591
tp4592
I116
s(I22
S'CCA'
p4593
tp4594
I33
s(I72
S'AGT'
p4595
tp4596
I123
s(I76
S'CGA'
p4597
tp4598
I13
s(I21
S'CCA'
p4599
tp4600
I1
s(I20
S'GCG'
p4601
tp4602
I59
s(I72
S'ACT'
p4603
tp4604
I36
s(I62
S'CTT'
p4605
tp4606
I72
s(I67
S'CTT'
p4607
tp4608
I1
s(I66
S'GCC'
p4609
tp4610
I2
s(I43
S'GTC'
p4611
tp4612
I43
s(I28
S'TAA'
p4613
tp4614
I1
s(I70
S'ACA'
p4615
tp4616
I1261
s(I16
S'CAA'
p4617
tp4618
I7
s(I56
S'TGT'
p4619
tp4620
I10
s(I35
S'TTC'
p4621
tp4622
I10
s(I44
S'AGA'
p4623
tp4624
I1
s(I36
S'TGA'
p4625
tp4626
I2
s(I59
S'GCT'
p4627
tp4628
I1399
s(I45
S'CGG'
p4629
tp4630
I61
s(I67
S'ACG'
p4631
tp4632
I516
s(I29
S'TAG'
p4633
tp4634
I4
s(I54
S'CAT'
p4635
tp4636
I28
s(I3
S'GAT'
p4637
tp4638
I3
s(I19
S'ATG'
p4639
tp4640
I41
s(I61
S'CCC'
p4641
tp4642
I3
s(I65
S'CCA'
p4643
tp4644
I76
s(I39
S'TTG'
p4645
tp4646
I3
s(I41
S'GAA'
p4647
tp4648
I4
s(I62
S'TTC'
p4649
tp4650
I49
s(I23
S'TAA'
p4651
tp4652
I1
s(I16
S'AGG'
p4653
tp4654
I5
s(I20
S'ACG'
p4655
tp4656
I56
s(I49
S'TCT'
p4657
tp4658
I860
s(I70
S'GGT'
p4659
tp4660
I1
s(I70
S'TCA'
p4661
tp4662
I2
s(I76
S'TGT'
p4663
tp4664
I1
s(I75
S'CAA'
p4665
tp4666
I1
s(I50
S'TTG'
p4667
tp4668
I16
s(I61
S'GTC'
p4669
tp4670
I28
s(I15
S'CCG'
p4671
tp4672
I1
s(I50
S'ACC'
p4673
tp4674
I129
s(I62
S'ACA'
p4675
tp4676
I1271
s(I25
S'AAA'
p4677
tp4678
I16
s(I18
S'GAG'
p4679
tp4680
I6
s(I17
S'GCA'
p4681
tp4682
I13
s(I20
S'GGA'
p4683
tp4684
I6
s(I63
S'CCG'
p4685
tp4686
I38
s(I45
S'AAT'
p4687
tp4688
I1293
s(I4
S'CTC'
p4689
tp4690
I53
s(I28
S'GGA'
p4691
tp4692
I14
s(I34
S'GTC'
p4693
tp4694
I2
s(I45
S'AGG'
p4695
tp4696
I175
s(I55
S'TGA'
p4697
tp4698
I16
s(I61
S'ACG'
p4699
tp4700
I5
s(I67
S'CGC'
p4701
tp4702
I3
s(I35
S'AGA'
p4703
tp4704
I1
s(I6
S'TTC'
p4705
tp4706
I6
s(I61
S'AAC'
p4707
tp4708
I4
s(I39
S'GCA'
p4709
tp4710
I4
s(I73
S'ATG'
p4711
tp4712
I8
s(I68
S'ATT'
p4713
tp4714
I25
s(I72
S'TTA'
p4715
tp4716
I2
s(I19
S'CGG'
p4717
tp4718
I12
s(I70
S'CTA'
p4719
tp4720
I169
s(I36
S'ACA'
p4721
tp4722
I20
s(I58
S'ATA'
p4723
tp4724
I1
s(I22
S'TAC'
p4725
tp4726
I53
s(I17
S'TGC'
p4727
tp4728
I22
s(I47
S'TTA'
p4729
tp4730
I1
s(I74
S'CAT'
p4731
tp4732
I2
s(I18
S'AAT'
p4733
tp4734
I12
s(I55
S'TCA'
p4735
tp4736
I107
s(I4
S'TAG'
p4737
tp4738
I4
s(I30
S'TTA'
p4739
tp4740
I86
s(I21
S'GAA'
p4741
tp4742
I97
s(I28
S'GCC'
p4743
tp4744
I23
s(I27
S'TGC'
p4745
tp4746
I2
s(I38
S'ATC'
p4747
tp4748
I24
s(I17
S'AGC'
p4749
tp4750
I6
s(I46
S'ACG'
p4751
tp4752
I552
s(I53
S'GCG'
p4753
tp4754
I2
s(I54
S'ATA'
p4755
tp4756
I9
s(I69
S'GAC'
p4757
tp4758
I3
s(I29
S'GTT'
p4759
tp4760
I8
s(I27
S'CGT'
p4761
tp4762
I6
s(I75
S'AGA'
p4763
tp4764
I1
s(I67
S'TGT'
p4765
tp4766
I24
s(I41
S'ACA'
p4767
tp4768
I75
s(I74
S'TGA'
p4769
tp4770
I2
s(I16
S'AAG'
p4771
tp4772
I20
s(I12
S'TAG'
p4773
tp4774
I4
s(I27
S'TGA'
p4775
tp4776
I11
s(I65
S'GGG'
p4777
tp4778
I2
s(I33
S'TGA'
p4779
tp4780
I3
s(I66
S'GGT'
p4781
tp4782
I2
s(I11
S'AGA'
p4783
tp4784
I2
s(I6
S'GGC'
p4785
tp4786
I4133
s(I52
S'TAT'
p4787
tp4788
I9
s(I17
S'CGG'
p4789
tp4790
I8
s(I45
S'TAA'
p4791
tp4792
I1
s(I21
S'CTA'
p4793
tp4794
I33
s(I28
S'GAC'
p4795
tp4796
I174
s(I30
S'ACC'
p4797
tp4798
I1
s(I67
S'ACC'
p4799
tp4800
I43
s(I29
S'GAT'
p4801
tp4802
I4
s(I53
S'AAG'
p4803
tp4804
I18
s(I53
S'CGA'
p4805
tp4806
I22
s(I33
S'GGG'
p4807
tp4808
I1
s(I23
S'CGT'
p4809
tp4810
I1
s(I28
S'CGG'
p4811
tp4812
I17
s(I16
S'CAT'
p4813
tp4814
I30
s(I67
S'ACT'
p4815
tp4816
I3468
s(I29
S'TGT'
p4817
tp4818
I41
s(I48
S'TGT'
p4819
tp4820
I3
s(I65
S'TCG'
p4821
tp4822
I61
s(I36
S'GTG'
p4823
tp4824
I63
s(I61
S'TAC'
p4825
tp4826
I2
s(I16
S'GCT'
p4827
tp4828
I84
s(I8
S'GAT'
p4829
tp4830
I1
s(I19
S'GCA'
p4831
tp4832
I1
s(I19
S'TTG'
p4833
tp4834
I3
s(I69
S'TCC'
p4835
tp4836
I83
s(I45
S'GCA'
p4837
tp4838
I3217
s(I48
S'GCG'
p4839
tp4840
I19
s(I44
S'GAC'
p4841
tp4842
I1
s(I52
S'GAG'
p4843
tp4844
I23
s(I73
S'GCC'
p4845
tp4846
I3
s(I33
S'ACG'
p4847
tp4848
I5
s(I57
S'ATA'
p4849
tp4850
I26
s(I74
S'TAA'
p4851
tp4852
I3
s(I45
S'GTG'
p4853
tp4854
I5115
s(I16
S'TGG'
p4855
tp4856
I9
s(I74
S'GTC'
p4857
tp4858
I1
s(I40
S'AAT'
p4859
tp4860
I160
s(I60
S'ATA'
p4861
tp4862
I11
s(I41
S'TGA'
p4863
tp4864
I1
s(I75
S'GCG'
p4865
tp4866
I1
s(I45
S'GGC'
p4867
tp4868
I575
s(I7
S'CTA'
p4869
tp4870
I2
s(I37
S'GCA'
p4871
tp4872
I137
s(I26
S'ACT'
p4873
tp4874
I36
s(I60
S'CCA'
p4875
tp4876
I19
s(I19
S'AAA'
p4877
tp4878
I303
s(I33
S'TAG'
p4879
tp4880
I3
s(I48
S'CTC'
p4881
tp4882
I4
s(I50
S'ATT'
p4883
tp4884
I19
s(I58
S'GTG'
p4885
tp4886
I6
s(I63
S'TGG'
p4887
tp4888
I15
s(I72
S'TTT'
p4889
tp4890
I53
s(I61
S'CTG'
p4891
tp4892
I154
s(I18
S'TCG'
p4893
tp4894
I115
s(I27
S'ATA'
p4895
tp4896
I102
s(I43
S'ATC'
p4897
tp4898
I17
s(I25
S'CAA'
p4899
tp4900
I86
s(I76
S'GGG'
p4901
tp4902
I8
s(I36
S'AGC'
p4903
tp4904
I4
s(I36
S'CCT'
p4905
tp4906
I10
s(I63
S'ACT'
p4907
tp4908
I20
s(I54
S'TTA'
p4909
tp4910
I28
s(I76
S'GTC'
p4911
tp4912
I3
s(I50
S'CTC'
p4913
tp4914
I22
s(I21
S'CGG'
p4915
tp4916
I1
s(I5
S'ACG'
p4917
tp4918
I7
s(I62
S'GAC'
p4919
tp4920
I32
s(I71
S'TTT'
p4921
tp4922
I8
s(I34
S'AAA'
p4923
tp4924
I1
s(I72
S'GGC'
p4925
tp4926
I125
s(I52
S'TCA'
p4927
tp4928
I5
s(I13
S'CAT'
p4929
tp4930
I16
s(I23
S'CCC'
p4931
tp4932
I130
s(I33
S'TGC'
p4933
tp4934
I68
s(I45
S'TCC'
p4935
tp4936
I1401
s(I37
S'GTT'
p4937
tp4938
I181
s(I24
S'ACA'
p4939
tp4940
I2
s(I37
S'TAG'
p4941
tp4942
I28
s(I39
S'CTC'
p4943
tp4944
I3
s(I24
S'ATT'
p4945
tp4946
I2
s(I44
S'CTA'
p4947
tp4948
I835
s(I76
S'ACA'
p4949
tp4950
I1
s(I65
S'TTC'
p4951
tp4952
I13
s(I36
S'CCA'
p4953
tp4954
I9
s(I40
S'ACT'
p4955
tp4956
I1
s(I23
S'CAG'
p4957
tp4958
I2
s(I23
S'TTC'
p4959
tp4960
I17
s(I18
S'AGA'
p4961
tp4962
I14
s(I46
S'CAC'
p4963
tp4964
I1975
s(I51
S'CAC'
p4965
tp4966
I15
s(I46
S'GGT'
p4967
tp4968
I836
s(I8
S'AGG'
p4969
tp4970
I1
s(I35
S'TGT'
p4971
tp4972
I14
s(I42
S'GGA'
p4973
tp4974
I74
s(I54
S'GGT'
p4975
tp4976
I10
s(I60
S'TGT'
p4977
tp4978
I7
s(I45
S'TAT'
p4979
tp4980
I104
s(I31
S'GGT'
p4981
tp4982
I40
s(I41
S'GTC'
p4983
tp4984
I3
s(I63
S'GCC'
p4985
tp4986
I25
s(I60
S'CGC'
p4987
tp4988
I16
s(I8
S'ACC'
p4989
tp4990
I7
s(I29
S'CAG'
p4991
tp4992
I14
s(I73
S'GAC'
p4993
tp4994
I2
s(I46
S'TGT'
p4995
tp4996
I1169
s(I32
S'AAC'
p4997
tp4998
I5
s(I39
S'GGC'
p4999
tp5000
I3
s(I3
S'AAT'
p5001
tp5002
I1
s(I57
S'GAC'
p5003
tp5004
I11
s(I25
S'ACT'
p5005
tp5006
I9
s(I29
S'TGC'
p5007
tp5008
I24
s(I26
S'TAA'
p5009
tp5010
I1
s(I51
S'GTA'
p5011
tp5012
I68
s(I27
S'TTA'
p5013
tp5014
I45
s(I66
S'CAG'
p5015
tp5016
I9
s(I7
S'GGT'
p5017
tp5018
I34
s(I71
S'CCC'
p5019
tp5020
I1
s(I30
S'GTA'
p5021
tp5022
I16
s(I56
S'ACG'
p5023
tp5024
I1
s(I71
S'ACG'
p5025
tp5026
I1
s(I35
S'TAT'
p5027
tp5028
I1
s(I56
S'GCC'
p5029
tp5030
I2
s(I39
S'TGC'
p5031
tp5032
I4
s(I25
S'TGG'
p5033
tp5034
I66
s(I21
S'AGC'
p5035
tp5036
I57
s(I14
S'ACT'
p5037
tp5038
I80
s(I10
S'GCC'
p5039
tp5040
I3
s(I17
S'ATC'
p5041
tp5042
I37
s(I66
S'GCG'
p5043
tp5044
I2
s(I27
S'CAC'
p5045
tp5046
I43
s(I67
S'TCT'
p5047
tp5048
I29
s(I62
S'ACT'
p5049
tp5050
I625
s(I15
S'GTA'
p5051
tp5052
I2
s(I5
S'TCT'
p5053
tp5054
I1
s(I41
S'TTA'
p5055
tp5056
I136
s(I37
S'GGT'
p5057
tp5058
I5
s(I55
S'AAC'
p5059
tp5060
I16
s(I25
S'GTG'
p5061
tp5062
I1
s(I41
S'TGT'
p5063
tp5064
I4
s(I75
S'CTG'
p5065
tp5066
I8
s(I6
S'ATC'
p5067
tp5068
I595
s(I65
S'AAG'
p5069
tp5070
I26
s(I45
S'GGT'
p5071
tp5072
I726
s(I71
S'CAT'
p5073
tp5074
I1
s(I15
S'GCA'
p5075
tp5076
I7
s(I19
S'TTC'
p5077
tp5078
I8
s(I62
S'TCT'
p5079
tp5080
I737
s(I33
S'CCT'
p5081
tp5082
I6
s(I52
S'GCA'
p5083
tp5084
I11
s(I36
S'TCG'
p5085
tp5086
I5
s(I37
S'CAG'
p5087
tp5088
I89
s(I69
S'GCC'
p5089
tp5090
I203
s(I42
S'CAG'
p5091
tp5092
I9
s(I9
S'CAA'
p5093
tp5094
I3126
s(I72
S'CGG'
p5095
tp5096
I3
s(I65
S'CAC'
p5097
tp5098
I33
s(I29
S'GTG'
p5099
tp5100
I29
s(I66
S'GAC'
p5101
tp5102
I862
s(I21
S'GCA'
p5103
tp5104
I32
s(I32
S'TCG'
p5105
tp5106
I18
s(I42
S'TTA'
p5107
tp5108
I1
s(I30
S'CGA'
p5109
tp5110
I1
s(I39
S'CCC'
p5111
tp5112
I7
s(I63
S'ACA'
p5113
tp5114
I89
s(I52
S'CAT'
p5115
tp5116
I1
s(I16
S'GAT'
p5117
tp5118
I13
s(I45
S'CTT'
p5119
tp5120
I117
s(I2
S'GTG'
p5121
tp5122
I1
s(I32
S'GCA'
p5123
tp5124
I9
s(I29
S'ATT'
p5125
tp5126
I171
s(I31
S'ACA'
p5127
tp5128
I10
s(I46
S'CCC'
p5129
tp5130
I40
s(I8
S'ATG'
p5131
tp5132
I6
s(I57
S'GGT'
p5133
tp5134
I13
s(I7
S'ATG'
p5135
tp5136
I2
s(I61
S'GCT'
p5137
tp5138
I3
s(I58
S'ACA'
p5139
tp5140
I37
s(I41
S'GCC'
p5141
tp5142
I94
s(I39
S'GAA'
p5143
tp5144
I1
s(I24
S'ACT'
p5145
tp5146
I3
s(I52
S'AGG'
p5147
tp5148
I2
s(I17
S'TAT'
p5149
tp5150
I84
s(I54
S'TGG'
p5151
tp5152
I5
s(I34
S'CCG'
p5153
tp5154
I1
s(I51
S'ATT'
p5155
tp5156
I43
s(I64
S'GCA'
p5157
tp5158
I3656
s(I24
S'CGT'
p5159
tp5160
I3
s(I17
S'GAA'
p5161
tp5162
I5
s(I11
S'CCT'
p5163
tp5164
I364
s(I47
S'ACC'
p5165
tp5166
I7
s(I17
S'ATG'
p5167
tp5168
I43
s(I72
S'CCT'
p5169
tp5170
I5
s(I71
S'TAA'
p5171
tp5172
I3
s(I33
S'AGC'
p5173
tp5174
I5
s(I57
S'CAT'
p5175
tp5176
I11
s(I3
S'CAA'
p5177
tp5178
I1
s(I74
S'GCA'
p5179
tp5180
I1
s(I60
S'TGA'
p5181
tp5182
I1
s(I41
S'ATA'
p5183
tp5184
I1
s(I64
S'GTA'
p5185
tp5186
I422
s(I60
S'ATC'
p5187
tp5188
I23
s(I6
S'GAC'
p5189
tp5190
I12
s(I23
S'ACT'
p5191
tp5192
I30
s(I2
S'ACG'
p5193
tp5194
I1
s(I39
S'AGC'
p5195
tp5196
I1
s(I38
S'GCC'
p5197
tp5198
I3
s(I70
S'CCG'
p5199
tp5200
I2
s(I64
S'AAA'
p5201
tp5202
I2
s(I12
S'TCC'
p5203
tp5204
I2
s(I30
S'ATA'
p5205
tp5206
I10
s(I54
S'ACC'
p5207
tp5208
I50
s(I12
S'GCT'
p5209
tp5210
I1
s(I21
S'TCG'
p5211
tp5212
I75
s(I38
S'GGG'
p5213
tp5214
I150
s(I49
S'CGC'
p5215
tp5216
I1
s(I24
S'GCG'
p5217
tp5218
I10
s(I28
S'AGG'
p5219
tp5220
I20
s(I49
S'GCC'
p5221
tp5222
I1402
s(I6
S'TGC'
p5223
tp5224
I299
s(I58
S'GAA'
p5225
tp5226
I50
s(I8
S'GGT'
p5227
tp5228
I3
s(I20
S'TTT'
p5229
tp5230
I63
s(I71
S'TCG'
p5231
tp5232
I1
s(I48
S'CTT'
p5233
tp5234
I11
s(I51
S'CCC'
p5235
tp5236
I57
s(I54
S'GTC'
p5237
tp5238
I3
s(I72
S'ACC'
p5239
tp5240
I62
s(I23
S'TCA'
p5241
tp5242
I8
s(I38
S'AAC'
p5243
tp5244
I59
s(I35
S'CTT'
p5245
tp5246
I11
s(I24
S'TGT'
p5247
tp5248
I6
s(I54
S'GCG'
p5249
tp5250
I45
s(I22
S'AGA'
p5251
tp5252
I29
s(I24
S'TTC'
p5253
tp5254
I2
s(I66
S'CCG'
p5255
tp5256
I11
s(I27
S'GTC'
p5257
tp5258
I4
s(I37
S'AGG'
p5259
tp5260
I22
s(I38
S'TTT'
p5261
tp5262
I16
s(I57
S'ACG'
p5263
tp5264
I26
s(I16
S'TGT'
p5265
tp5266
I17
s(I7
S'GAG'
p5267
tp5268
I126
s(I72
S'GCT'
p5269
tp5270
I90
s(I19
S'TAT'
p5271
tp5272
I55
s(I49
S'CAC'
p5273
tp5274
I278
s(I33
S'CCA'
p5275
tp5276
I1
s(I72
S'CAG'
p5277
tp5278
I5
s(I22
S'CGC'
p5279
tp5280
I8
s(I44
S'GAT'
p5281
tp5282
I1
s(I22
S'TAA'
p5283
tp5284
I1
s(I73
S'CTT'
p5285
tp5286
I24
s(I41
S'GAG'
p5287
tp5288
I1
s(I45
S'ACA'
p5289
tp5290
I1673
s(I47
S'TAC'
p5291
tp5292
I2
s(I74
S'TGC'
p5293
tp5294
I1
s(I66
S'TAT'
p5295
tp5296
I11
s(I3
S'TGC'
p5297
tp5298
I114
s(I43
S'GCC'
p5299
tp5300
I1
s(I65
S'AGA'
p5301
tp5302
I23
s(I55
S'TAC'
p5303
tp5304
I116
s(I3
S'TAA'
p5305
tp5306
I2
s(I19
S'GAG'
p5307
tp5308
I36
s(I59
S'TCT'
p5309
tp5310
I47
s(I52
S'AAC'
p5311
tp5312
I32
s(I2
S'TGC'
p5313
tp5314
I1
s(I57
S'TTT'
p5315
tp5316
I34
s(I53
S'TAG'
p5317
tp5318
I5
s(I13
S'TCT'
p5319
tp5320
I3
s(I8
S'TTA'
p5321
tp5322
I3
s(I9
S'AGC'
p5323
tp5324
I124
s(I46
S'CTT'
p5325
tp5326
I22
s(I18
S'ACC'
p5327
tp5328
I31
s(I57
S'GTT'
p5329
tp5330
I73
s(I32
S'GCT'
p5331
tp5332
I8
s(I71
S'AAC'
p5333
tp5334
I1
s(I16
S'TCC'
p5335
tp5336
I21
s(I31
S'CCG'
p5337
tp5338
I4
s(I33
S'ATT'
p5339
tp5340
I25
s(I13
S'AGG'
p5341
tp5342
I96
s(I57
S'GTA'
p5343
tp5344
I2
s(I45
S'GTT'
p5345
tp5346
I706
s(I21
S'TTC'
p5347
tp5348
I3
s(I26
S'TTA'
p5349
tp5350
I316
s(I19
S'ATT'
p5351
tp5352
I6
s(I32
S'CGA'
p5353
tp5354
I43
s(I64
S'GCT'
p5355
tp5356
I630
s(I19
S'TAG'
p5357
tp5358
I1
s(I44
S'GTG'
p5359
tp5360
I2
s(I58
S'GGC'
p5361
tp5362
I6
s(I34
S'GAT'
p5363
tp5364
I89
s(I27
S'TAG'
p5365
tp5366
I1
s(I37
S'CTG'
p5367
tp5368
I45
s(I42
S'CTA'
p5369
tp5370
I4
s(I66
S'GGC'
p5371
tp5372
I17
s(I64
S'CGC'
p5373
tp5374
I30
s(I2
S'ACA'
p5375
tp5376
I6
s(I42
S'TGA'
p5377
tp5378
I1
s(I75
S'AAC'
p5379
tp5380
I1
s(I42
S'TAG'
p5381
tp5382
I22
s(I9
S'TGA'
p5383
tp5384
I1
s(I20
S'CCG'
p5385
tp5386
I15
s(I47
S'GGA'
p5387
tp5388
I7
s(I21
S'GGT'
p5389
tp5390
I2
s(I39
S'AAC'
p5391
tp5392
I1
s(I36
S'ACG'
p5393
tp5394
I16
s(I40
S'TAA'
p5395
tp5396
I1
s(I7
S'ATT'
p5397
tp5398
I30
s(I33
S'TTT'
p5399
tp5400
I9
s(I53
S'GAA'
p5401
tp5402
I7
s(I34
S'GCA'
p5403
tp5404
I2
s(I32
S'CGC'
p5405
tp5406
I17
s(I12
S'TCT'
p5407
tp5408
I2
s(I59
S'CCC'
p5409
tp5410
I1
s(I12
S'GCC'
p5411
tp5412
I2
s(I70
S'CCT'
p5413
tp5414
I9
s(I66
S'CCT'
p5415
tp5416
I1
s(I9
S'ACA'
p5417
tp5418
I48
s(I55
S'AGA'
p5419
tp5420
I3
s(I3
S'GAG'
p5421
tp5422
I1
s(I61
S'CTA'
p5423
tp5424
I7
s(I10
S'GCG'
p5425
tp5426
I2
s(I47
S'TTT'
p5427
tp5428
I1
s(I23
S'GGA'
p5429
tp5430
I1
s(I49
S'TTC'
p5431
tp5432
I5
s(I22
S'GCT'
p5433
tp5434
I57
s(I22
S'TCC'
p5435
tp5436
I23
s(I67
S'CCC'
p5437
tp5438
I3
s(I54
S'GTT'
p5439
tp5440
I27
s(I56
S'TAG'
p5441
tp5442
I10
s(I72
S'CTG'
p5443
tp5444
I3
s(I24
S'CCC'
p5445
tp5446
I66
s(I76
S'TCG'
p5447
tp5448
I1
s(I53
S'TTG'
p5449
tp5450
I39
s(I61
S'TGG'
p5451
tp5452
I1
s(I10
S'TCG'
p5453
tp5454
I9
s(I34
S'TCT'
p5455
tp5456
I2
s(I60
S'CTA'
p5457
tp5458
I7
s(I67
S'GGG'
p5459
tp5460
I33
s(I55
S'GGT'
p5461
tp5462
I1
s(I67
S'ATA'
p5463
tp5464
I58
s(I36
S'GAC'
p5465
tp5466
I1
s(I7
S'TAC'
p5467
tp5468
I1
s(I71
S'GCC'
p5469
tp5470
I3
s(I57
S'TGC'
p5471
tp5472
I18
s(I61
S'GGA'
p5473
tp5474
I7
s(I10
S'TCT'
p5475
tp5476
I16
s(I61
S'TCT'
p5477
tp5478
I3
s(I40
S'GGA'
p5479
tp5480
I160
s(I22
S'TGA'
p5481
tp5482
I1
s(I28
S'ACA'
p5483
tp5484
I10
s(I8
S'TGA'
p5485
tp5486
I6
s(I51
S'TCG'
p5487
tp5488
I16
s(I9
S'AAT'
p5489
tp5490
I1180
s(I44
S'CGC'
p5491
tp5492
I8
s(I4
S'ATG'
p5493
tp5494
I32
s(I28
S'GTG'
p5495
tp5496
I56
s(I67
S'GGT'
p5497
tp5498
I1238
s(I15
S'ATT'
p5499
tp5500
I140
s(I25
S'TTC'
p5501
tp5502
I1
s(I62
S'CTC'
p5503
tp5504
I704
s(I60
S'GGC'
p5505
tp5506
I132
s(I29
S'GCA'
p5507
tp5508
I36
s(I67
S'CTA'
p5509
tp5510
I33
s(I55
S'CGG'
p5511
tp5512
I31
s(I13
S'ACT'
p5513
tp5514
I2
s(I43
S'GTT'
p5515
tp5516
I90
s(I68
S'GAG'
p5517
tp5518
I1
s(I32
S'TAA'
p5519
tp5520
I3
s(I52
S'ACG'
p5521
tp5522
I13
s(I31
S'TCA'
p5523
tp5524
I22
s(I8
S'TTT'
p5525
tp5526
I3
s(I42
S'AAA'
p5527
tp5528
I1
s(I54
S'TCG'
p5529
tp5530
I67
s(I58
S'AAC'
p5531
tp5532
I3
s(I56
S'TGA'
p5533
tp5534
I6
s(I18
S'TTT'
p5535
tp5536
I47
s(I48
S'CCC'
p5537
tp5538
I5
s(I38
S'GCG'
p5539
tp5540
I65
s(I40
S'CTA'
p5541
tp5542
I447
s(I64
S'GGG'
p5543
tp5544
I141
s(I59
S'GCG'
p5545
tp5546
I205
s(I7
S'CTC'
p5547
tp5548
I21
s(I9
S'CGC'
p5549
tp5550
I2
s(I36
S'TAC'
p5551
tp5552
I2
s(I20
S'GAC'
p5553
tp5554
I73
s(I7
S'TGA'
p5555
tp5556
I2
s(I42
S'ACT'
p5557
tp5558
I5
s(I55
S'TAT'
p5559
tp5560
I18
s(I42
S'TCC'
p5561
tp5562
I1
s(I30
S'GGG'
p5563
tp5564
I22
s(I17
S'AAT'
p5565
tp5566
I85
s(I10
S'AAG'
p5567
tp5568
I6
s(I76
S'GCT'
p5569
tp5570
I2
s(I26
S'GCT'
p5571
tp5572
I1
s(I25
S'GAA'
p5573
tp5574
I15
s(I62
S'GCA'
p5575
tp5576
I259
s(I20
S'TTA'
p5577
tp5578
I21
s(I51
S'TTA'
p5579
tp5580
I25
s(I22
S'CCG'
p5581
tp5582
I13
s(I57
S'AAC'
p5583
tp5584
I23
s(I69
S'CAT'
p5585
tp5586
I1076
s(I9
S'GAA'
p5587
tp5588
I10
s(I40
S'ATT'
p5589
tp5590
I21
s(I22
S'AAC'
p5591
tp5592
I43
s(I19
S'ACC'
p5593
tp5594
I35
s(I67
S'CTC'
p5595
tp5596
I10
s(I74
S'CGG'
p5597
tp5598
I31
s(I31
S'GCT'
p5599
tp5600
I1
s(I13
S'CTA'
p5601
tp5602
I18
s(I27
S'GCT'
p5603
tp5604
I22
s(I18
S'CTC'
p5605
tp5606
I14
s(I31
S'CGT'
p5607
tp5608
I2
s(I41
S'CCC'
p5609
tp5610
I1
s(I72
S'CTC'
p5611
tp5612
I2
s(I75
S'TAC'
p5613
tp5614
I1
s(I53
S'CAG'
p5615
tp5616
I7
s(I72
S'TGG'
p5617
tp5618
I2
s(I58
S'CAG'
p5619
tp5620
I11
s(I60
S'GTC'
p5621
tp5622
I54
s(I69
S'AGA'
p5623
tp5624
I1
s(I17
S'GCT'
p5625
tp5626
I2
s(I8
S'TAG'
p5627
tp5628
I1
s(I66
S'AAT'
p5629
tp5630
I93
s(I31
S'GTT'
p5631
tp5632
I146
s(I68
S'TCA'
p5633
tp5634
I441
s(I66
S'TTA'
p5635
tp5636
I1396
s(I4
S'CCA'
p5637
tp5638
I1
s(I74
S'GGC'
p5639
tp5640
I2
s(I54
S'GAG'
p5641
tp5642
I36
s(I65
S'CCG'
p5643
tp5644
I4
s(I76
S'CCC'
p5645
tp5646
I1
s(I14
S'TCG'
p5647
tp5648
I8
s(I14
S'CAC'
p5649
tp5650
I4
s(I11
S'GGC'
p5651
tp5652
I23
s(I31
S'CAT'
p5653
tp5654
I7
s(I63
S'AGC'
p5655
tp5656
I5
s(I36
S'GGC'
p5657
tp5658
I1
s(I58
S'AAT'
p5659
tp5660
I1
s(I13
S'GGA'
p5661
tp5662
I5
s(I61
S'TCC'
p5663
tp5664
I1
s(I69
S'CCC'
p5665
tp5666
I19
s(I20
S'ACT'
p5667
tp5668
I26
s(I60
S'GAA'
p5669
tp5670
I5
s(I25
S'TCA'
p5671
tp5672
I4
s(I27
S'ACA'
p5673
tp5674
I10
s(I42
S'GTC'
p5675
tp5676
I9
s(I19
S'AGT'
p5677
tp5678
I48
s(I15
S'CCA'
p5679
tp5680
I1
s(I40
S'GGT'
p5681
tp5682
I391
s(I51
S'ACA'
p5683
tp5684
I24
s(I70
S'AAG'
p5685
tp5686
I3
s(I25
S'AAG'
p5687
tp5688
I3
s(I72
S'GAT'
p5689
tp5690
I1
s(I9
S'GTG'
p5691
tp5692
I116
s(I63
S'CCA'
p5693
tp5694
I43
s(I27
S'CCG'
p5695
tp5696
I2
s(I27
S'CGG'
p5697
tp5698
I27
s(I45
S'AGA'
p5699
tp5700
I20
s(I19
S'CAA'
p5701
tp5702
I114
s(I24
S'CAA'
p5703
tp5704
I9
s(I75
S'GGC'
p5705
tp5706
I13
s(I14
S'GCG'
p5707
tp5708
I11
s(I39
S'ACG'
p5709
tp5710
I7
s(I48
S'TAT'
p5711
tp5712
I2
s(I35
S'ATA'
p5713
tp5714
I29
s(I9
S'AAA'
p5715
tp5716
I2
s(I71
S'TGC'
p5717
tp5718
I357
s(I49
S'GCG'
p5719
tp5720
I213
s(I17
S'TCA'
p5721
tp5722
I29
s(I25
S'GGC'
p5723
tp5724
I8
s(I51
S'GCT'
p5725
tp5726
I8
s(I19
S'CGA'
p5727
tp5728
I62
s(I45
S'ATG'
p5729
tp5730
I1617
s(I35
S'ACC'
p5731
tp5732
I18
s(I30
S'ACT'
p5733
tp5734
I3
s(I58
S'CCA'
p5735
tp5736
I1
s(I42
S'GAC'
p5737
tp5738
I2
s(I47
S'TTG'
p5739
tp5740
I3
s(I51
S'TGG'
p5741
tp5742
I5
s(I50
S'GCG'
p5743
tp5744
I2
s(I14
S'GGA'
p5745
tp5746
I17
s(I22
S'GTT'
p5747
tp5748
I46
s(I68
S'GTA'
p5749
tp5750
I6
s(I43
S'CTG'
p5751
tp5752
I17
s(I31
S'TCT'
p5753
tp5754
I73
s(I55
S'TCG'
p5755
tp5756
I34
s(I60
S'TCC'
p5757
tp5758
I94
s(I65
S'GAG'
p5759
tp5760
I25
s(I32
S'CAA'
p5761
tp5762
I27
s(I12
S'TGC'
p5763
tp5764
I2
s(I68
S'TTC'
p5765
tp5766
I4
s(I32
S'CAT'
p5767
tp5768
I5
s(I42
S'ACC'
p5769
tp5770
I1
s(I66
S'ATC'
p5771
tp5772
I89
s(I17
S'AAA'
p5773
tp5774
I1
s(I64
S'CCA'
p5775
tp5776
I2
s(I29
S'GAC'
p5777
tp5778
I1
s(I38
S'ATT'
p5779
tp5780
I11
s(I69
S'ATC'
p5781
tp5782
I7
s(I42
S'CGC'
p5783
tp5784
I24
s(I51
S'TGA'
p5785
tp5786
I1
s(I26
S'GTC'
p5787
tp5788
I37
s(I53
S'ATG'
p5789
tp5790
I15
s(I52
S'GAT'
p5791
tp5792
I63
s(I7
S'CCC'
p5793
tp5794
I6
s(I38
S'AAA'
p5795
tp5796
I9
s(I40
S'ATA'
p5797
tp5798
I15
s(I55
S'ATG'
p5799
tp5800
I52
s(I19
S'ACT'
p5801
tp5802
I11
s(I60
S'AGT'
p5803
tp5804
I33
s(I31
S'GCA'
p5805
tp5806
I371
s(I65
S'ATG'
p5807
tp5808
I65
s(I13
S'CTT'
p5809
tp5810
I45
s(I25
S'TAC'
p5811
tp5812
I53
s(I53
S'CGG'
p5813
tp5814
I13
s(I18
S'CTT'
p5815
tp5816
I116
s(I52
S'GTT'
p5817
tp5818
I8
s(I17
S'GAT'
p5819
tp5820
I1
s(I76
S'AGA'
p5821
tp5822
I1006
s(I29
S'CGA'
p5823
tp5824
I36
s(I14
S'CCC'
p5825
tp5826
I2
s(I62
S'TAC'
p5827
tp5828
I41
s(I6
S'CGC'
p5829
tp5830
I20
s(I26
S'ACA'
p5831
tp5832
I23
s(I47
S'CGT'
p5833
tp5834
I1
s(I40
S'TTG'
p5835
tp5836
I60
s(I31
S'GTC'
p5837
tp5838
I117
s(I33
S'TAT'
p5839
tp5840
I26
s(I61
S'GGC'
p5841
tp5842
I1
s(I55
S'GAA'
p5843
tp5844
I41
s(I59
S'GTA'
p5845
tp5846
I3
s(I15
S'CTC'
p5847
tp5848
I56
s(I44
S'TTC'
p5849
tp5850
I13
s(I45
S'GCG'
p5851
tp5852
I4062
s(I32
S'TGT'
p5853
tp5854
I55
s(I54
S'CCT'
p5855
tp5856
I211
s(I48
S'GCA'
p5857
tp5858
I4
s(I67
S'TTG'
p5859
tp5860
I24
s(I25
S'CAT'
p5861
tp5862
I31
s(I29
S'AGT'
p5863
tp5864
I26
s(I56
S'CTT'
p5865
tp5866
I8
s(I33
S'ACA'
p5867
tp5868
I18
s(I29
S'AAT'
p5869
tp5870
I21
s(I55
S'CGT'
p5871
tp5872
I70
s(I57
S'CCC'
p5873
tp5874
I82
s(I8
S'AAG'
p5875
tp5876
I3
s(I63
S'GTA'
p5877
tp5878
I5
s(I61
S'GTT'
p5879
tp5880
I35
s(I72
S'GAC'
p5881
tp5882
I3
s(I71
S'TTC'
p5883
tp5884
I43
s(I35
S'GAT'
p5885
tp5886
I7
s(I48
S'GTA'
p5887
tp5888
I1
s(I13
S'CAG'
p5889
tp5890
I30
s(I66
S'GCA'
p5891
tp5892
I13
s(I18
S'CAG'
p5893
tp5894
I37
s(I36
S'CAC'
p5895
tp5896
I5
s(I52
S'ATT'
p5897
tp5898
I37
s(I41
S'CAC'
p5899
tp5900
I18
s(I18
S'GAT'
p5901
tp5902
I8
s(I64
S'CAG'
p5903
tp5904
I183
s(I16
S'GGT'
p5905
tp5906
I2
s(I58
S'CTA'
p5907
tp5908
I5
s(I22
S'GCC'
p5909
tp5910
I21
s(I45
S'AAG'
p5911
tp5912
I33
s(I38
S'GTT'
p5913
tp5914
I99
s(I7
S'GCG'
p5915
tp5916
I93
s(I5
S'TAG'
p5917
tp5918
I2
s(I9
S'GCC'
p5919
tp5920
I111
s(I47
S'GTG'
p5921
tp5922
I6
s(I57
S'AGA'
p5923
tp5924
I6
s(I8
S'GCG'
p5925
tp5926
I1
s(I12
S'ACT'
p5927
tp5928
I9
s(I36
S'GCA'
p5929
tp5930
I5
s(I68
S'ATG'
p5931
tp5932
I177
s(I73
S'TCG'
p5933
tp5934
I1
s(I33
S'GCC'
p5935
tp5936
I5
s(I52
S'CTC'
p5937
tp5938
I1
s(I76
S'GGA'
p5939
tp5940
I49
s(I16
S'CGC'
p5941
tp5942
I11
s(I31
S'GGG'
p5943
tp5944
I2
s(I51
S'GTG'
p5945
tp5946
I11
s(I11
S'GCA'
p5947
tp5948
I1288
s(I4
S'TGG'
p5949
tp5950
I4
s(I6
S'ACA'
p5951
tp5952
I40
s(I64
S'ATC'
p5953
tp5954
I342
s(I40
S'GCG'
p5955
tp5956
I10
s(I65
S'ACC'
p5957
tp5958
I31
s(I38
S'CCT'
p5959
tp5960
I6
s(I42
S'CCC'
p5961
tp5962
I2
s(I65
S'GCC'
p5963
tp5964
I11
s(I30
S'GCT'
p5965
tp5966
I1
s(I36
S'TTA'
p5967
tp5968
I951
s(I55
S'AGG'
p5969
tp5970
I13
s(I17
S'GGT'
p5971
tp5972
I80
s(I7
S'GGG'
p5973
tp5974
I10547
s(I17
S'CAC'
p5975
tp5976
I106
s(I75
S'GTA'
p5977
tp5978
I1
s(I40
S'TCC'
p5979
tp5980
I129
s(I71
S'AAG'
p5981
tp5982
I2
s(I67
S'GCG'
p5983
tp5984
I212
s(I40
S'CAG'
p5985
tp5986
I25
s(I65
S'GTA'
p5987
tp5988
I4
s(I19
S'CTA'
p5989
tp5990
I8
s(I48
S'TGC'
p5991
tp5992
I2
s(I24
S'CTG'
p5993
tp5994
I32
s(I20
S'CTA'
p5995
tp5996
I32
s(I13
S'ACA'
p5997
tp5998
I1
s(I37
S'ATC'
p5999
tp6000
I46
s(I3
S'GGC'
p6001
tp6002
I1
s(I75
S'GTC'
p6003
tp6004
I2
s(I6
S'GGT'
p6005
tp6006
I2953
s(I14
S'AGA'
p6007
tp6008
I1
s(I33
S'AGA'
p6009
tp6010
I24
s(I70
S'GCA'
p6011
tp6012
I602
s(I19
S'CTC'
p6013
tp6014
I9
s(I67
S'TCA'
p6015
tp6016
I7
s(I14
S'AGT'
p6017
tp6018
I17
s(I4
S'AGT'
p6019
tp6020
I1
s(I44
S'AAG'
p6021
tp6022
I4
s(I32
S'ACG'
p6023
tp6024
I14
s(I16
S'ATC'
p6025
tp6026
I3
s(I27
S'GCC'
p6027
tp6028
I5
s(I13
S'GCT'
p6029
tp6030
I102
s(I6
S'CCA'
p6031
tp6032
I1
s(I38
S'CGT'
p6033
tp6034
I6
s(I54
S'GGC'
p6035
tp6036
I16
s(I27
S'AGC'
p6037
tp6038
I7
s(I43
S'CAA'
p6039
tp6040
I9
s(I17
S'CTG'
p6041
tp6042
I59
s(I35
S'CCG'
p6043
tp6044
I40
s(I8
S'GGG'
p6045
tp6046
I3
s(I58
S'TAA'
p6047
tp6048
I1
s(I38
S'TCT'
p6049
tp6050
I17
s(I62
S'CCC'
p6051
tp6052
I90
s(I66
S'TAA'
p6053
tp6054
I6
s(I25
S'TGA'
p6055
tp6056
I2
s(I30
S'TAC'
p6057
tp6058
I14
s(I16
S'ACA'
p6059
tp6060
I9
s(I5
S'CTG'
p6061
tp6062
I266
s(I29
S'GGC'
p6063
tp6064
I17
s(I44
S'AAA'
p6065
tp6066
I3
s(I40
S'GAC'
p6067
tp6068
I442
s(I41
S'TAC'
p6069
tp6070
I5
s(I17
S'GTC'
p6071
tp6072
I46
s(I34
S'ATT'
p6073
tp6074
I5
s(I33
S'AAT'
p6075
tp6076
I1
s(I24
S'CGC'
p6077
tp6078
I11
s(I4
S'TGT'
p6079
tp6080
I3
s(I61
S'GCC'
p6081
tp6082
I2
s(I18
S'TAG'
p6083
tp6084
I17
s(I4
S'GGC'
p6085
tp6086
I2
s(I4
S'TAC'
p6087
tp6088
I7
s(I34
S'CCT'
p6089
tp6090
I3
s(I44
S'GCA'
p6091
tp6092
I13
s(I24
S'AAC'
p6093
tp6094
I9
s(I50
S'ATC'
p6095
tp6096
I95
s(I47
S'GCT'
p6097
tp6098
I1
s(I29
S'CTA'
p6099
tp6100
I81
s(I72
S'ATA'
p6101
tp6102
I3
s(I47
S'TCA'
p6103
tp6104
I512
s(I34
S'CTC'
p6105
tp6106
I1
s(I23
S'GTC'
p6107
tp6108
I32
s(I11
S'CCG'
p6109
tp6110
I55
s(I2
S'TGT'
p6111
tp6112
I1
s(I72
S'CCA'
p6113
tp6114
I6
s(I21
S'GCG'
p6115
tp6116
I82
s(I48
S'CGG'
p6117
tp6118
I8
s(I67
S'CCT'
p6119
tp6120
I7
s(I33
S'GCT'
p6121
tp6122
I1
s(I62
S'ATG'
p6123
tp6124
I136
s(I51
S'CGC'
p6125
tp6126
I3
s(I48
S'TCT'
p6127
tp6128
I9
s(I63
S'ACG'
p6129
tp6130
I39
s(I67
S'TAC'
p6131
tp6132
I14
s(I70
S'TAT'
p6133
tp6134
I2
s(I23
S'GCC'
p6135
tp6136
I2
s(I37
S'TCC'
p6137
tp6138
I31
s(I11
S'TTA'
p6139
tp6140
I14
s(I23
S'ACC'
p6141
tp6142
I17
s(I3
S'ATG'
p6143
tp6144
I20
s(I65
S'GCT'
p6145
tp6146
I171
s(I57
S'GGG'
p6147
tp6148
I69
s(I62
S'GGT'
p6149
tp6150
I6
s(I66
S'GTA'
p6151
tp6152
I21
s(I70
S'CCC'
p6153
tp6154
I1
s(I54
S'TGA'
p6155
tp6156
I5
s(I40
S'TGA'
p6157
tp6158
I6
s(I20
S'TAA'
p6159
tp6160
I6
s(I65
S'GTT'
p6161
tp6162
I129
s(I30
S'TGA'
p6163
tp6164
I2
s(I30
S'CTC'
p6165
tp6166
I5
s(I35
S'CTA'
p6167
tp6168
I50
s(I31
S'GAG'
p6169
tp6170
I2
s(I18
S'TAA'
p6171
tp6172
I4
s(I37
S'ACT'
p6173
tp6174
I61
s(I63
S'CGA'
p6175
tp6176
I8
s(I13
S'GCA'
p6177
tp6178
I86
s(I46
S'TGC'
p6179
tp6180
I825
s(I15
S'GAG'
p6181
tp6182
I11
s(I55
S'TAG'
p6183
tp6184
I1
s(I56
S'TGC'
p6185
tp6186
I28
s(I16
S'CCC'
p6187
tp6188
I12
s(I55
S'ACA'
p6189
tp6190
I71
s(I6
S'GCA'
p6191
tp6192
I1
s(I3
S'CGA'
p6193
tp6194
I1
s(I21
S'TCA'
p6195
tp6196
I1
s(I10
S'ACT'
p6197
tp6198
I2
s(I24
S'GCA'
p6199
tp6200
I7
s(I70
S'TGC'
p6201
tp6202
I64
s(I68
S'GCG'
p6203
tp6204
I3
s(I31
S'ACC'
p6205
tp6206
I19
s(I39
S'TGT'
p6207
tp6208
I2
s(I59
S'CTG'
p6209
tp6210
I700
s(I32
S'GTG'
p6211
tp6212
I6
s(I34
S'TAC'
p6213
tp6214
I2
s(I24
S'TGC'
p6215
tp6216
I4
s(I53
S'TCT'
p6217
tp6218
I8
s(I52
S'TGT'
p6219
tp6220
I35
s(I39
S'CGC'
p6221
tp6222
I1
s(I16
S'GAG'
p6223
tp6224
I2
s(I58
S'TCC'
p6225
tp6226
I9
s(I75
S'CCC'
p6227
tp6228
I1
s(I55
S'TCT'
p6229
tp6230
I19
s(I70
S'CTT'
p6231
tp6232
I10
s(I11
S'TCC'
p6233
tp6234
I168
s(I75
S'CTT'
p6235
tp6236
I2
s(I57
S'GCA'
p6237
tp6238
I44
s(I54
S'ATT'
p6239
tp6240
I18
s(I24
S'GGT'
p6241
tp6242
I7
s(I6
S'AAT'
p6243
tp6244
I726
s(I30
S'CGT'
p6245
tp6246
I10
s(I65
S'CTG'
p6247
tp6248
I21
s(I62
S'GTA'
p6249
tp6250
I693
s(I28
S'AGC'
p6251
tp6252
I7
s(I15
S'ACT'
p6253
tp6254
I1
s(I15
S'TCG'
p6255
tp6256
I41
s(I33
S'CCG'
p6257
tp6258
I5
s(I46
S'AAA'
p6259
tp6260
I4
s(I42
S'CAT'
p6261
tp6262
I20
s(I49
S'TGG'
p6263
tp6264
I1
s(I76
S'CCA'
p6265
tp6266
I1
s(I22
S'ATA'
p6267
tp6268
I28
s(I46
S'ACC'
p6269
tp6270
I1371
s(I7
S'GAC'
p6271
tp6272
I6
s(I3
S'ACT'
p6273
tp6274
I4
s(I9
S'GGG'
p6275
tp6276
I221
s(I46
S'CAT'
p6277
tp6278
I447
s(I5
S'TTG'
p6279
tp6280
I44
s(I23
S'CTA'
p6281
tp6282
I43
s(I15
S'TGC'
p6283
tp6284
I5
s(I52
S'ACT'
p6285
tp6286
I1
s(I5
S'CTC'
p6287
tp6288
I87
s(I35
S'CAT'
p6289
tp6290
I45
s(I49
S'GGA'
p6291
tp6292
I1019
s(I37
S'TGA'
p6293
tp6294
I12
s(I62
S'TGA'
p6295
tp6296
I1
s(I36
S'ACT'
p6297
tp6298
I2009
s(I9
S'TGC'
p6299
tp6300
I5439
s(I53
S'GAT'
p6301
tp6302
I5
s(I7
S'GTG'
p6303
tp6304
I49
s(I62
S'GGC'
p6305
tp6306
I187
s(I8
S'AGT'
p6307
tp6308
I1
s(I31
S'CCA'
p6309
tp6310
I2
s(I51
S'TTC'
p6311
tp6312
I8
s(I63
S'GCG'
p6313
tp6314
I4
s(I19
S'CCT'
p6315
tp6316
I15
s(I53
S'ACC'
p6317
tp6318
I1
s(I13
S'AGA'
p6319
tp6320
I21
s(I41
S'AAC'
p6321
tp6322
I14
s(I63
S'CAT'
p6323
tp6324
I3
s(I9
S'ACT'
p6325
tp6326
I49
s(I3
S'AGG'
p6327
tp6328
I1
s(I63
S'GGC'
p6329
tp6330
I7
s(I43
S'TGT'
p6331
tp6332
I5
s(I23
S'GGT'
p6333
tp6334
I3
s(I71
S'GGC'
p6335
tp6336
I1
s(I24
S'TAT'
p6337
tp6338
I7
s(I51
S'CCG'
p6339
tp6340
I44
s(I49
S'ACG'
p6341
tp6342
I50
s(I74
S'GCC'
p6343
tp6344
I5
s(I22
S'GTC'
p6345
tp6346
I9
s(I33
S'GAG'
p6347
tp6348
I2
s(I8
S'TAT'
p6349
tp6350
I1
s(I37
S'CTT'
p6351
tp6352
I15
s(I62
S'CGG'
p6353
tp6354
I235
s(I7
S'AGC'
p6355
tp6356
I22
s(I57
S'CAC'
p6357
tp6358
I74
s(I58
S'TGG'
p6359
tp6360
I52
s(I74
S'GAA'
p6361
tp6362
I5
s(I51
S'CGG'
p6363
tp6364
I1
s(I60
S'CTT'
p6365
tp6366
I11
s(I13
S'CCC'
p6367
tp6368
I1
s(I60
S'AAT'
p6369
tp6370
I1
s(I46
S'GCG'
p6371
tp6372
I7
s(I9
S'GCG'
p6373
tp6374
I65
s(I16
S'CTG'
p6375
tp6376
I9
s(I24
S'GTT'
p6377
tp6378
I6
s(I57
S'CGC'
p6379
tp6380
I6
s(I34
S'GCG'
p6381
tp6382
I2
s(I48
S'TTA'
p6383
tp6384
I1
s(I24
S'AGT'
p6385
tp6386
I18
s(I57
S'TGT'
p6387
tp6388
I24
s(I60
S'TTT'
p6389
tp6390
I4
s(I32
S'ATA'
p6391
tp6392
I10
s(I61
S'GGT'
p6393
tp6394
I1
s(I11
S'ATG'
p6395
tp6396
I14
s(I18
S'TCC'
p6397
tp6398
I32
s(I22
S'TGT'
p6399
tp6400
I14
s(I21
S'TGT'
p6401
tp6402
I44
s(I10
S'ACC'
p6403
tp6404
I1
s(I76
S'CTC'
p6405
tp6406
I3
s(I15
S'AAT'
p6407
tp6408
I2
s(I24
S'GCT'
p6409
tp6410
I3
s(I46
S'CGA'
p6411
tp6412
I273
s(I32
S'CCA'
p6413
tp6414
I5
s(I39
S'CAT'
p6415
tp6416
I1
s(I21
S'ACA'
p6417
tp6418
I3
s(I45
S'GAC'
p6419
tp6420
I10
s(I60
S'GGT'
p6421
tp6422
I45
s(I70
S'CTG'
p6423
tp6424
I438
s(I52
S'TGA'
p6425
tp6426
I1
s(I68
S'GCC'
p6427
tp6428
I55
s(I24
S'TGG'
p6429
tp6430
I5
s(I10
S'CAG'
p6431
tp6432
I8
s(I28
S'CAC'
p6433
tp6434
I2
s(I10
S'TCA'
p6435
tp6436
I7
s(I33
S'CAC'
p6437
tp6438
I12
s(I33
S'TCG'
p6439
tp6440
I6
s(I58
S'CGT'
p6441
tp6442
I15
s(I32
S'TAC'
p6443
tp6444
I6
s(I18
S'TTA'
p6445
tp6446
I80
s(I64
S'TCG'
p6447
tp6448
I2572
s(I21
S'CTT'
p6449
tp6450
I33
s(I39
S'ACA'
p6451
tp6452
I24
s(I67
S'AAC'
p6453
tp6454
I33
s(I30
S'CCC'
p6455
tp6456
I2
s(I24
S'GGC'
p6457
tp6458
I11
s(I56
S'GTT'
p6459
tp6460
I41
s(I31
S'AAC'
p6461
tp6462
I34
s(I28
S'ACG'
p6463
tp6464
I38
s(I39
S'GTA'
p6465
tp6466
I1
s(I38
S'AGG'
p6467
tp6468
I59
s(I37
S'TTT'
p6469
tp6470
I76
s(I26
S'GCA'
p6471
tp6472
I1
s(I45
S'TTA'
p6473
tp6474
I899
s(I46
S'TTC'
p6475
tp6476
I1138
s(I18
S'CCG'
p6477
tp6478
I40
s(I8
S'CCT'
p6479
tp6480
I2
s(I64
S'TGT'
p6481
tp6482
I425
s(I22
S'CCT'
p6483
tp6484
I234
s(I3
S'TGT'
p6485
tp6486
I1
s(I67
S'GTG'
p6487
tp6488
I3
s(I50
S'GTC'
p6489
tp6490
I670
s(I69
S'CAG'
p6491
tp6492
I36
s(I29
S'GCG'
p6493
tp6494
I2
s(I61
S'CCA'
p6495
tp6496
I3
s(I37
S'CGC'
p6497
tp6498
I1
s(I34
S'TTG'
p6499
tp6500
I1
s(I35
S'ACG'
p6501
tp6502
I35
s(I29
S'AGG'
p6503
tp6504
I58
s(I47
S'AGG'
p6505
tp6506
I1
s(I4
S'CAC'
p6507
tp6508
I7
s(I63
S'TCA'
p6509
tp6510
I51
s(I72
S'ACG'
p6511
tp6512
I76
s(I53
S'AGA'
p6513
tp6514
I1
s(I26
S'CTA'
p6515
tp6516
I13
s(I19
S'CCA'
p6517
tp6518
I13
s(I46
S'GTG'
p6519
tp6520
I67
s(I25
S'AGA'
p6521
tp6522
I1
s(I26
S'AGG'
p6523
tp6524
I2
s(I74
S'TCC'
p6525
tp6526
I1
s(I24
S'TAA'
p6527
tp6528
I1
s(I25
S'GTT'
p6529
tp6530
I1
s(I22
S'TTC'
p6531
tp6532
I63
s(I30
S'GCG'
p6533
tp6534
I14
s(I71
S'TAG'
p6535
tp6536
I1
s(I31
S'TGA'
p6537
tp6538
I3
s(I20
S'TCA'
p6539
tp6540
I19
s(I52
S'TAA'
p6541
tp6542
I7
s(I19
S'AGC'
p6543
tp6544
I50
s(I29
S'GTC'
p6545
tp6546
I38
s(I15
S'CCT'
p6547
tp6548
I3
s(I35
S'GTG'
p6549
tp6550
I108
s(I35
S'CAA'
p6551
tp6552
I8
s(I21
S'GGG'
p6553
tp6554
I14
s(I76
S'ACC'
p6555
tp6556
I1
s(I57
S'CGT'
p6557
tp6558
I91
s(I33
S'TTC'
p6559
tp6560
I12
s(I11
S'TGC'
p6561
tp6562
I16
s(I49
S'CCT'
p6563
tp6564
I1
s(I9
S'GTT'
p6565
tp6566
I77
s(I34
S'ACA'
p6567
tp6568
I2
s(I27
S'CAA'
p6569
tp6570
I7
s(I45
S'AGT'
p6571
tp6572
I842
s(I44
S'ACG'
p6573
tp6574
I103
s(I39
S'TCA'
p6575
tp6576
I4
s(I71
S'ATG'
p6577
tp6578
I350
s(I21
S'TGC'
p6579
tp6580
I4
s(I62
S'TCG'
p6581
tp6582
I388
s(I50
S'GTT'
p6583
tp6584
I621
s(I46
S'CGT'
p6585
tp6586
I212
s(I63
S'GAC'
p6587
tp6588
I38
s(I25
S'CCG'
p6589
tp6590
I2
s(I51
S'GCG'
p6591
tp6592
I5
s(I70
S'TTG'
p6593
tp6594
I14
s(I46
S'TCG'
p6595
tp6596
I209
s(I45
S'CAA'
p6597
tp6598
I7965
s(I11
S'GTC'
p6599
tp6600
I37
s(I19
S'AAC'
p6601
tp6602
I1
s(I56
S'TCA'
p6603
tp6604
I10
s(I37
S'CCG'
p6605
tp6606
I18
s(I50
S'GCT'
p6607
tp6608
I4
s(I54
S'CGC'
p6609
tp6610
I71
s(I54
S'GCA'
p6611
tp6612
I6
s(I64
S'TCT'
p6613
tp6614
I2298
s(I11
S'CGC'
p6615
tp6616
I2
s(I49
S'AAC'
p6617
tp6618
I187
s(I40
S'GTG'
p6619
tp6620
I4
s(I51
S'TGT'
p6621
tp6622
I55
s(I39
S'GTC'
p6623
tp6624
I2
s(I74
S'AAC'
p6625
tp6626
I1
s(I6
S'TCA'
p6627
tp6628
I392
s(I20
S'GAA'
p6629
tp6630
I14
s(I11
S'ACC'
p6631
tp6632
I119
s(I52
S'CGC'
p6633
tp6634
I6
s(I72
S'CAC'
p6635
tp6636
I3
s(I48
S'TAC'
p6637
tp6638
I1
s(I27
S'CGA'
p6639
tp6640
I26
s(I46
S'CTC'
p6641
tp6642
I31
s(I51
S'CTA'
p6643
tp6644
I37
s(I37
S'AAA'
p6645
tp6646
I21
s(I12
S'CCA'
p6647
tp6648
I88
s(I17
S'TCC'
p6649
tp6650
I65
s(I70
S'GTA'
p6651
tp6652
I94
s(I69
S'ATT'
p6653
tp6654
I1
s(I76
S'CAC'
p6655
tp6656
I1
s(I20
S'CGC'
p6657
tp6658
I207
s(I2
S'GGC'
p6659
tp6660
I4
s(I59
S'ACG'
p6661
tp6662
I2
s(I55
S'TGG'
p6663
tp6664
I5
s(I11
S'GGA'
p6665
tp6666
I1953
s(I18
S'TCT'
p6667
tp6668
I7
s(I62
S'GAG'
p6669
tp6670
I341
s(I33
S'ATG'
p6671
tp6672
I41
s(I6
S'TTG'
p6673
tp6674
I28
s(I54
S'AGC'
p6675
tp6676
I2881
s(I28
S'TAC'
p6677
tp6678
I8
s(I14
S'GGG'
p6679
tp6680
I2
s(I11
S'CAG'
p6681
tp6682
I72
s(I70
S'ACC'
p6683
tp6684
I3602
s(I11
S'CGA'
p6685
tp6686
I20
s(I38
S'ATA'
p6687
tp6688
I126
s(I35
S'TTA'
p6689
tp6690
I72
s(I3
S'TGG'
p6691
tp6692
I2
s(I7
S'ACA'
p6693
tp6694
I6
s(I4
S'GGG'
p6695
tp6696
I3
s(I28
S'CTA'
p6697
tp6698
I50
s(I55
S'GAT'
p6699
tp6700
I31
s(I43
S'ACA'
p6701
tp6702
I3
s(I15
S'CTT'
p6703
tp6704
I25
s(I17
S'AAG'
p6705
tp6706
I4
s(I33
S'CTG'
p6707
tp6708
I3
s(I35
S'CCT'
p6709
tp6710
I51
s(I38
S'TTG'
p6711
tp6712
I218
s(I30
S'TCA'
p6713
tp6714
I1
s(I31
S'ATG'
p6715
tp6716
I13
s(I18
S'CGC'
p6717
tp6718
I1
s(I63
S'ATC'
p6719
tp6720
I16
s(I58
S'GTA'
p6721
tp6722
I3
s(I70
S'TCC'
p6723
tp6724
I3
s(I17
S'GTG'
p6725
tp6726
I28
s(I31
S'ACG'
p6727
tp6728
I5
s(I70
S'CAG'
p6729
tp6730
I3
s(I22
S'AAT'
p6731
tp6732
I14
s(I75
S'CAG'
p6733
tp6734
I1
s(I67
S'CCG'
p6735
tp6736
I13
s(I61
S'GTA'
p6737
tp6738
I10
s(I35
S'GAC'
p6739
tp6740
I2
s(I28
S'TTA'
p6741
tp6742
I40
s(I29
S'CGG'
p6743
tp6744
I67
s(I57
S'TAC'
p6745
tp6746
I19
s(I34
S'TTC'
p6747
tp6748
I2
s(I6
S'GTG'
p6749
tp6750
I4834
s(I20
S'GGC'
p6751
tp6752
I4
s(I64
S'CAT'
p6753
tp6754
I108
s(I65
S'TAC'
p6755
tp6756
I176
s(I20
S'GCT'
p6757
tp6758
I11
s(I42
S'GCG'
p6759
tp6760
I1
s(I28
S'GGC'
p6761
tp6762
I12
s(I34
S'GTA'
p6763
tp6764
I3
s(I9
S'CTC'
p6765
tp6766
I14
s(I2
S'TCA'
p6767
tp6768
I5
s(I61
S'ACA'
p6769
tp6770
I3
s(I39
S'TCT'
p6771
tp6772
I2
s(I72
S'TTG'
p6773
tp6774
I7
s(I37
S'ACA'
p6775
tp6776
I106
s(I62
S'AAC'
p6777
tp6778
I14
s(I63
S'GAT'
p6779
tp6780
I41
s(I73
S'TAT'
p6781
tp6782
I1
s(I60
S'GAC'
p6783
tp6784
I152
s(I27
S'GAA'
p6785
tp6786
I1
s(I38
S'GAT'
p6787
tp6788
I99
s(I66
S'TGG'
p6789
tp6790
I7
s(I16
S'CGT'
p6791
tp6792
I18
s(I34
S'ACC'
p6793
tp6794
I3
s(I73
S'CGT'
p6795
tp6796
I2
s(I15
S'TCT'
p6797
tp6798
I4
s(I11
S'GCT'
p6799
tp6800
I678
s(I58
S'AGT'
p6801
tp6802
I4
s(I37
S'GAC'
p6803
tp6804
I30
s(I5
S'ACT'
p6805
tp6806
I5
s(I54
S'GCT'
p6807
tp6808
I94
s(I36
S'TTT'
p6809
tp6810
I1
s(I63
S'CTG'
p6811
tp6812
I2
s(I28
S'CTC'
p6813
tp6814
I74
s(I31
S'TTT'
p6815
tp6816
I6
s(I47
S'ATG'
p6817
tp6818
I1
s(I17
S'GGC'
p6819
tp6820
I268
s(I35
S'TCC'
p6821
tp6822
I13
s(I37
S'CAA'
p6823
tp6824
I102
s(I76
S'ACT'
p6825
tp6826
I1
s(I42
S'GGC'
p6827
tp6828
I88
s(I41
S'ACC'
p6829
tp6830
I5
s(I11
S'GAA'
p6831
tp6832
I303
s(I16
S'AAA'
p6833
tp6834
I5
s(I65
S'TTT'
p6835
tp6836
I8
s(I71
S'TGT'
p6837
tp6838
I6
s(I8
S'GCA'
p6839
tp6840
I1
s(I37
S'ATT'
p6841
tp6842
I46
s(I27
S'CTG'
p6843
tp6844
I10
s(I35
S'TGG'
p6845
tp6846
I11
s(I41
S'CGC'
p6847
tp6848
I2
s(I38
S'TCC'
p6849
tp6850
I27
s(I45
S'TAG'
p6851
tp6852
I1
s(I31
S'GGA'
p6853
tp6854
I155
s(I20
S'AGC'
p6855
tp6856
I68
s(I28
S'ATG'
p6857
tp6858
I40
s(I15
S'TGA'
p6859
tp6860
I1
s(I9
S'CAC'
p6861
tp6862
I1974
s(I19
S'TGG'
p6863
tp6864
I7
s(I42
S'TTT'
p6865
tp6866
I1
s(I43
S'CCC'
p6867
tp6868
I1
s(I52
S'TTC'
p6869
tp6870
I9
s(I40
S'GCA'
p6871
tp6872
I13
s(I9
S'CCT'
p6873
tp6874
I5166
s(I69
S'AGC'
p6875
tp6876
I170
s(I28
S'CGA'
p6877
tp6878
I33
s(I43
S'CTT'
p6879
tp6880
I5
s(I10
S'GAG'
p6881
tp6882
I17
s(I7
S'CAA'
p6883
tp6884
I62
s(I25
S'ACA'
p6885
tp6886
I20
s(I61
S'CAT'
p6887
tp6888
I15
s(I35
S'TGA'
p6889
tp6890
I1
s(I7
S'GGA'
p6891
tp6892
I651
s(I32
S'GTA'
p6893
tp6894
I10
s(I74
S'ACT'
p6895
tp6896
I1
s(I67
S'GTA'
p6897
tp6898
I3
s(I65
S'CTC'
p6899
tp6900
I336
s(I40
S'GTA'
p6901
tp6902
I2
s(I58
S'TAT'
p6903
tp6904
I7
s(I21
S'CAG'
p6905
tp6906
I6
s(I67
S'GTT'
p6907
tp6908
I14
s(I61
S'TAA'
p6909
tp6910
I1
s(I9
S'TAC'
p6911
tp6912
I2
s(I61
S'ATG'
p6913
tp6914
I393
s(I72
S'TCC'
p6915
tp6916
I1
s(I14
S'ACC'
p6917
tp6918
I83
s(I17
S'TAC'
p6919
tp6920
I12
s(I11
S'ACG'
p6921
tp6922
I75
s(I23
S'TCC'
p6923
tp6924
I6
s(I45
S'TGG'
p6925
tp6926
I271
s(I29
S'TCC'
p6927
tp6928
I185
s(I14
S'CGC'
p6929
tp6930
I2
s(I57
S'ATC'
p6931
tp6932
I1
s(I74
S'TAG'
p6933
tp6934
I3
s(I65
S'ATT'
p6935
tp6936
I27
s(I37
S'GGA'
p6937
tp6938
I26
s(I33
S'AAC'
p6939
tp6940
I2
s(I41
S'TGC'
p6941
tp6942
I14
s(I45
S'GGA'
p6943
tp6944
I14
s(I5
S'GCC'
p6945
tp6946
I2
s(I40
S'GAT'
p6947
tp6948
I50
s(I73
S'GTG'
p6949
tp6950
I691
s(I60
S'CCC'
p6951
tp6952
I185
s(I46
S'ATC'
p6953
tp6954
I335
s(I62
S'CCT'
p6955
tp6956
I1685
s(I56
S'ATC'
p6957
tp6958
I51
s(I71
S'ATA'
p6959
tp6960
I2
s(I38
S'TGG'
p6961
tp6962
I56
s(I71
S'CCA'
p6963
tp6964
I1
s(I47
S'GCG'
p6965
tp6966
I52
s(I69
S'GCT'
p6967
tp6968
I304
s(I57
S'TTC'
p6969
tp6970
I36
s(I5
S'GTA'
p6971
tp6972
I7
s(I13
S'GTT'
p6973
tp6974
I28
s(I17
S'ACG'
p6975
tp6976
I2
s(I19
S'TGA'
p6977
tp6978
I13
s(I46
S'ATA'
p6979
tp6980
I573
s(I44
S'TTT'
p6981
tp6982
I5
s(I20
S'CAC'
p6983
tp6984
I17
s(I25
S'CAC'
p6985
tp6986
I53
s(I48
S'TCC'
p6987
tp6988
I6
s(I48
S'ACT'
p6989
tp6990
I2
s(I64
S'TAC'
p6991
tp6992
I1
s(I68
S'ACT'
p6993
tp6994
I61
s(I5
S'ACA'
p6995
tp6996
I2
s(I14
S'GCA'
p6997
tp6998
I67
s(I64
S'ACC'
p6999
tp7000
I2188
s(I52
S'TCG'
p7001
tp7002
I1
s(I51
S'TGC'
p7003
tp7004
I19
s(I61
S'TGC'
p7005
tp7006
I3
s(I18
S'CAT'
p7007
tp7008
I6
s(I75
S'TCA'
p7009
tp7010
I9
s(I36
S'CAT'
p7011
tp7012
I2
s(I48
S'TTC'
p7013
tp7014
I3
s(I24
S'ACG'
p7015
tp7016
I21
s(I25
S'ATG'
p7017
tp7018
I82
s(I74
S'ATG'
p7019
tp7020
I1
s(I54
S'TGT'
p7021
tp7022
I43
s(I51
S'TAT'
p7023
tp7024
I8
s(I44
S'CTC'
p7025
tp7026
I25
s(I64
S'AGG'
p7027
tp7028
I80
s(I36
S'CCC'
p7029
tp7030
I8
s(I22
S'GAA'
p7031
tp7032
I50
s(I77
S'TGT'
p7033
tp7034
I17
s(I73
S'CGG'
p7035
tp7036
I3
s(I18
S'AGC'
p7037
tp7038
I49
s(I68
S'TTT'
p7039
tp7040
I1
s(I51
S'CAA'
p7041
tp7042
I44
s(I48
S'CGA'
p7043
tp7044
I1
s(I5
S'GAG'
p7045
tp7046
I6
s(I22
S'CTT'
p7047
tp7048
I51
s(I73
S'TCT'
p7049
tp7050
I1
s(I64
S'TTG'
p7051
tp7052
I299
s(I14
S'ATG'
p7053
tp7054
I2
s(I69
S'TTA'
p7055
tp7056
I2
s(I41
S'ATT'
p7057
tp7058
I10
s(I51
S'GTT'
p7059
tp7060
I37
s(I61
S'AGT'
p7061
tp7062
I2
s(I32
S'ATT'
p7063
tp7064
I11
s(I66
S'GAT'
p7065
tp7066
I6742
s(I16
S'GTT'
p7067
tp7068
I5
s(I72
S'TCT'
p7069
tp7070
I32
s(I34
S'AAC'
p7071
tp7072
I2
s(I11
S'CTA'
p7073
tp7074
I3
s(I74
S'CGT'
p7075
tp7076
I19
s(I26
S'TAG'
p7077
tp7078
I1
s(I26
S'ATT'
p7079
tp7080
I39
s(I66
S'GTG'
p7081
tp7082
I17
s(I48
S'CAC'
p7083
tp7084
I2
s(I6
S'AGG'
p7085
tp7086
I7
s(I10
S'AGA'
p7087
tp7088
I6
s(I7
S'TAG'
p7089
tp7090
I5
s(I17
S'GAG'
p7091
tp7092
I5
s(I21
S'AGA'
p7093
tp7094
I1
s(I39
S'TGA'
p7095
tp7096
I2
s(I41
S'AGC'
p7097
tp7098
I50
s(I58
S'ACC'
p7099
tp7100
I23
s(I10
S'GCA'
p7101
tp7102
I2
s(I55
S'GTG'
p7103
tp7104
I24
s(I69
S'AAA'
p7105
tp7106
I2
s(I17
S'TTA'
p7107
tp7108
I16
s(I35
S'TTT'
p7109
tp7110
I8
s(I15
S'GTC'
p7111
tp7112
I57
s(I13
S'GCG'
p7113
tp7114
I36
s(I43
S'TTC'
p7115
tp7116
I6
s(I73
S'GAT'
p7117
tp7118
I2
s(I15
S'AGG'
p7119
tp7120
I1
s(I51
S'GGC'
p7121
tp7122
I72
s(I37
S'AGT'
p7123
tp7124
I21
s(I5
S'ATG'
p7125
tp7126
I34
s(I14
S'TAC'
p7127
tp7128
I2
s(I40
S'ACG'
p7129
tp7130
I25
s(I49
S'AGG'
p7131
tp7132
I4
s(I15
S'GCC'
p7133
tp7134
I14
s(I56
S'CGG'
p7135
tp7136
I2
s(I62
S'GTT'
p7137
tp7138
I768
s(I26
S'CCG'
p7139
tp7140
I17
s(I15
S'ACC'
p7141
tp7142
I5
s(I16
S'TAA'
p7143
tp7144
I1
s(I24
S'TTT'
p7145
tp7146
I2
s(I48
S'CTA'
p7147
tp7148
I6
s(I22
S'GAG'
p7149
tp7150
I5
s(I69
S'GCA'
p7151
tp7152
I153
s(I42
S'CAA'
p7153
tp7154
I38
s(I15
S'CGG'
p7155
tp7156
I1
s(I73
S'CTG'
p7157
tp7158
I22
s(I9
S'TCG'
p7159
tp7160
I10
s(I32
S'CAG'
p7161
tp7162
I2
s(I44
S'TCG'
p7163
tp7164
I13
s(I52
S'CCG'
p7165
tp7166
I1
s(I36
S'CGC'
p7167
tp7168
I1
s(I2
S'TAG'
p7169
tp7170
I4
s(I59
S'TGT'
p7171
tp7172
I259
s(I58
S'AGG'
p7173
tp7174
I14
s(I51
S'TAC'
p7175
tp7176
I12
s(I36
S'TCA'
p7177
tp7178
I2
s(I3
S'ATA'
p7179
tp7180
I14
s(I32
S'GCC'
p7181
tp7182
I3
s(I46
S'CCA'
p7183
tp7184
I5
s(I35
S'AAG'
p7185
tp7186
I25
s(I43
S'TGC'
p7187
tp7188
I17
s(I17
S'CCT'
p7189
tp7190
I1
s(I69
S'TGC'
p7191
tp7192
I1168
s(I39
S'GAG'
p7193
tp7194
I2
s(I13
S'CCA'
p7195
tp7196
I1
s(I77
S'TGG'
p7197
tp7198
I78
s(I53
S'TTA'
p7199
tp7200
I32
s(I3
S'CCT'
p7201
tp7202
I3
s(I63
S'CAC'
p7203
tp7204
I1
s(I28
S'TAG'
p7205
tp7206
I4
s(I53
S'TGC'
p7207
tp7208
I14
s(I46
S'AAG'
p7209
tp7210
I8
s(I64
S'GCC'
p7211
tp7212
I1773
s.