(dp0
(I38
S'CTG'
p1
tp2
I54
s(I49
S'TGA'
p3
tp4
I4
s(I4
S'TGA'
p5
tp6
I103
s(I18
S'GCC'
p7
tp8
I19
s(I68
S'GTG'
p9
tp10
I55
s(I62
S'CGT'
p11
tp12
I481
s(I46
S'AGC'
p13
tp14
I3258
s(I3
S'CAG'
p15
tp16
I4
s(I8
S'CAG'
p17
tp18
I2
s(I28
S'CCG'
p19
tp20
I3
s(I64
S'GTC'
p21
tp22
I121
s(I60
S'GCG'
p23
tp24
I95
s(I18
S'ATG'
p25
tp26
I62
s(I41
S'GGT'
p27
tp28
I37
s(I49
S'GGG'
p29
tp30
I3525
s(I40
S'GTC'
p31
tp32
I2
s(I31
S'CTA'
p33
tp34
I8
s(I47
S'ACA'
p35
tp36
I4
s(I24
S'GTG'
p37
tp38
I1
s(I38
S'GCA'
p39
tp40
I111
s(I24
S'AGA'
p41
tp42
I10
s(I20
S'CCT'
p43
tp44
I266
s(I30
S'ATC'
p45
tp46
I36
s(I14
S'CTC'
p47
tp48
I24
s(I36
S'GAA'
p49
tp50
I3
s(I6
S'AAA'
p51
tp52
I14
s(I36
S'CTT'
p53
tp54
I817
s(I14
S'CGG'
p55
tp56
I5
s(I70
S'CCT'
p57
tp58
I13
s(I41
S'GTA'
p59
tp60
I5
s(I9
S'GCT'
p61
tp62
I23
s(I19
S'TCC'
p63
tp64
I76
s(I49
S'GCA'
p65
tp66
I5128
s(I30
S'GCT'
p67
tp68
I3
s(I39
S'CAC'
p69
tp70
I6
s(I58
S'GAC'
p71
tp72
I284
s(I44
S'CAC'
p73
tp74
I8
s(I49
S'ACA'
p75
tp76
I155
s(I67
S'CAG'
p77
tp78
I22
s(I68
S'ATA'
p79
tp80
I27
s(I34
S'TTA'
p81
tp82
I2
s(I65
S'CGC'
p83
tp84
I43
s(I54
S'GTA'
p85
tp86
I14
s(I23
S'TCG'
p87
tp88
I4
s(I11
S'ATA'
p89
tp90
I24
s(I64
S'TAT'
p91
tp92
I1
s(I52
S'GTC'
p93
tp94
I8
s(I63
S'AAA'
p95
tp96
I209
s(I22
S'AGC'
p97
tp98
I50
s(I38
S'ACC'
p99
tp100
I142
s(I58
S'CGA'
p101
tp102
I23
s(I13
S'TTG'
p103
tp104
I26
s(I33
S'CGC'
p105
tp106
I46
s(I53
S'ATT'
p107
tp108
I17
s(I32
S'ATG'
p109
tp110
I19
s(I9
S'ATG'
p111
tp112
I30
s(I52
S'GGA'
p113
tp114
I15
s(I46
S'TTT'
p115
tp116
I536
s(I22
S'CGA'
p117
tp118
I77
s(I41
S'ATC'
p119
tp120
I34
s(I5
S'TCT'
p121
tp122
I1
s(I65
S'CTT'
p123
tp124
I28
s(I45
S'ACC'
p125
tp126
I522
s(I61
S'CGT'
p127
tp128
I18
s(I65
S'AGC'
p129
tp130
I171
s(I52
S'TGG'
p131
tp132
I31
s(I62
S'AGG'
p133
tp134
I509
s(I3
S'GTA'
p135
tp136
I409
s(I6
S'TAT'
p137
tp138
I414
s(I67
S'GAC'
p139
tp140
I4
s(I13
S'TAT'
p141
tp142
I1
s(I24
S'AAC'
p143
tp144
I37
s(I25
S'CTC'
p145
tp146
I18
s(I28
S'GAT'
p147
tp148
I94
s(I26
S'CTT'
p149
tp150
I373
s(I51
S'AAA'
p151
tp152
I1
s(I40
S'AAT'
p153
tp154
I1
s(I67
S'CCA'
p155
tp156
I9
s(I15
S'TAG'
p157
tp158
I1
s(I17
S'AAC'
p159
tp160
I95
s(I52
S'ACC'
p161
tp162
I110
s(I19
S'TAA'
p163
tp164
I4
s(I41
S'TGA'
p165
tp166
I1
s(I44
S'GTA'
p167
tp168
I20
s(I58
S'GGA'
p169
tp170
I13
s(I24
S'ATA'
p171
tp172
I12
s(I27
S'TAA'
p173
tp174
I8
s(I70
S'GAT'
p175
tp176
I87
s(I69
S'GTG'
p177
tp178
I46
s(I42
S'CTG'
p179
tp180
I4
s(I66
S'GGA'
p181
tp182
I56
s(I3
S'GGT'
p183
tp184
I1
s(I13
S'TGT'
p185
tp186
I69
s(I20
S'TCT'
p187
tp188
I37
s(I75
S'GCG'
p189
tp190
I1
s(I26
S'TGT'
p191
tp192
I24
s(I13
S'CGC'
p193
tp194
I1
s(I15
S'CAA'
p195
tp196
I1
s(I47
S'GGC'
p197
tp198
I93
s(I69
S'ATA'
p199
tp200
I1
s(I40
S'TAC'
p201
tp202
I132
s(I31
S'CTG'
p203
tp204
I9
s(I55
S'GGC'
p205
tp206
I12
s(I49
S'CCC'
p207
tp208
I140
s(I44
S'CAT'
p209
tp210
I2
s(I49
S'GTA'
p211
tp212
I5
s(I10
S'CGG'
p213
tp214
I18
s(I35
S'TTG'
p215
tp216
I16
s(I75
S'CAT'
p217
tp218
I4
s(I5
S'GGC'
p219
tp220
I5
s(I44
S'ACT'
p221
tp222
I132
s(I53
S'TGA'
p223
tp224
I2
s(I14
S'TCT'
p225
tp226
I33
s(I11
S'GAT'
p227
tp228
I92
s(I64
S'AAC'
p229
tp230
I7239
s(I23
S'GGC'
p231
tp232
I2
s(I40
S'AGC'
p233
tp234
I14
s(I65
S'TGC'
p235
tp236
I64
s(I67
S'TGG'
p237
tp238
I4
s(I11
S'GTT'
p239
tp240
I16
s(I65
S'CGT'
p241
tp242
I83
s(I36
S'GTT'
p243
tp244
I52
s(I25
S'TCT'
p245
tp246
I43
s(I19
S'GGG'
p247
tp248
I32
s(I64
S'TAA'
p249
tp250
I3
s(I61
S'GAG'
p251
tp252
I7
s(I33
S'GCT'
p253
tp254
I4
s(I46
S'ATA'
p255
tp256
I251
s(I60
S'CTC'
p257
tp258
I48
s(I35
S'GTA'
p259
tp260
I5
s(I67
S'GGA'
p261
tp262
I1494
s(I6
S'CTT'
p263
tp264
I1
s(I53
S'GTC'
p265
tp266
I10
s(I44
S'GGG'
p267
tp268
I3
s(I18
S'AAC'
p269
tp270
I275
s(I16
S'AGC'
p271
tp272
I99
s(I69
S'GGC'
p273
tp274
I93
s(I15
S'CAC'
p275
tp276
I9
s(I29
S'CAT'
p277
tp278
I5
s(I48
S'TCT'
p279
tp280
I2
s(I61
S'GGG'
p281
tp282
I2
s(I36
S'TAG'
p283
tp284
I2
s(I48
S'GAT'
p285
tp286
I2
s(I30
S'TTG'
p287
tp288
I52
s(I37
S'AAT'
p289
tp290
I39
s(I22
S'TGC'
p291
tp292
I157
s(I66
S'CCC'
p293
tp294
I334
s(I8
S'TGG'
p295
tp296
I6
s(I55
S'ATA'
p297
tp298
I34
s(I46
S'CTG'
p299
tp300
I67
s(I33
S'TAG'
p301
tp302
I5
s(I25
S'GGT'
p303
tp304
I16
s(I22
S'CGT'
p305
tp306
I8
s(I51
S'GCA'
p307
tp308
I2
s(I71
S'TAC'
p309
tp310
I4
s(I27
S'TCC'
p311
tp312
I1
s(I62
S'CTA'
p313
tp314
I1044
s(I8
S'GGC'
p315
tp316
I1
s(I10
S'CAA'
p317
tp318
I40
s(I55
S'CGA'
p319
tp320
I17
s(I36
S'CGG'
p321
tp322
I2
s(I10
S'CAT'
p323
tp324
I20
s(I16
S'GGC'
p325
tp326
I67
s(I14
S'GGT'
p327
tp328
I26
s(I28
S'GTT'
p329
tp330
I45
s(I70
S'ACT'
p331
tp332
I1645
s(I10
S'GGA'
p333
tp334
I15
s(I31
S'TCG'
p335
tp336
I208
s(I41
S'GGG'
p337
tp338
I901
s(I29
S'TTA'
p339
tp340
I56
s(I28
S'GTG'
p341
tp342
I124
s(I62
S'TGT'
p343
tp344
I297
s(I40
S'CTC'
p345
tp346
I74
s(I41
S'TTT'
p347
tp348
I298
s(I9
S'CGA'
p349
tp350
I8
s(I38
S'TCA'
p351
tp352
I41
s(I10
S'AGC'
p353
tp354
I100
s(I3
S'GAA'
p355
tp356
I1
s(I14
S'TGT'
p357
tp358
I28
s(I43
S'ACT'
p359
tp360
I1
s(I67
S'ATT'
p361
tp362
I255
s(I64
S'CCT'
p363
tp364
I2
s(I26
S'ATA'
p365
tp366
I34
s(I18
S'TGG'
p367
tp368
I6
s(I69
S'TAC'
p369
tp370
I827
s(I25
S'GAC'
p371
tp372
I53
s(I60
S'AGA'
p373
tp374
I11
s(I76
S'AGC'
p375
tp376
I1
s(I51
S'TTG'
p377
tp378
I8
s(I57
S'AAA'
p379
tp380
I356
s(I53
S'AGT'
p381
tp382
I28
s(I49
S'TCC'
p383
tp384
I446
s(I9
S'GAC'
p385
tp386
I116
s(I30
S'TGC'
p387
tp388
I469
s(I42
S'GTT'
p389
tp390
I56
s(I13
S'CTG'
p391
tp392
I2
s(I18
S'CTA'
p393
tp394
I41
s(I64
S'TCC'
p395
tp396
I7555
s(I10
S'CCA'
p397
tp398
I3
s(I64
S'CTA'
p399
tp400
I544
s(I66
S'CGG'
p401
tp402
I1
s(I69
S'AGC'
p403
tp404
I572
s(I8
S'TAA'
p405
tp406
I2
s(I20
S'GCA'
p407
tp408
I66
s(I7
S'ACG'
p409
tp410
I100
s(I68
S'TCG'
p411
tp412
I2090
s(I25
S'GCG'
p413
tp414
I16
s(I8
S'CTA'
p415
tp416
I85
s(I66
S'TTC'
p417
tp418
I1
s(I32
S'AGG'
p419
tp420
I27
s(I4
S'CCC'
p421
tp422
I2
s(I54
S'GAA'
p423
tp424
I6
s(I54
S'CCG'
p425
tp426
I2
s(I14
S'TCA'
p427
tp428
I92
s(I73
S'TAA'
p429
tp430
I1
s(I63
S'AGA'
p431
tp432
I5
s(I21
S'CGT'
p433
tp434
I3
s(I44
S'TCG'
p435
tp436
I18
s(I38
S'GAA'
p437
tp438
I6
s(I13
S'GGG'
p439
tp440
I1
s(I69
S'CCA'
p441
tp442
I2
s(I70
S'CAA'
p443
tp444
I1
s(I27
S'TTG'
p445
tp446
I38
s(I9
S'TTC'
p447
tp448
I1
s(I71
S'CCT'
p449
tp450
I2
s(I25
S'TCC'
p451
tp452
I8
s(I61
S'GTG'
p453
tp454
I137
s(I7
S'CAT'
p455
tp456
I2
s(I74
S'GAG'
p457
tp458
I14
s(I15
S'CCC'
p459
tp460
I3
s(I50
S'ACG'
p461
tp462
I9
s(I20
S'AGA'
p463
tp464
I92
s(I52
S'ATA'
p465
tp466
I39
s(I60
S'GTT'
p467
tp468
I235
s(I31
S'TTC'
p469
tp470
I2
s(I18
S'GAC'
p471
tp472
I15
s(I70
S'TGA'
p473
tp474
I6
s(I29
S'TCG'
p475
tp476
I103
s(I63
S'CCC'
p477
tp478
I213
s(I32
S'TTG'
p479
tp480
I96
s(I29
S'CAA'
p481
tp482
I60
s(I64
S'GAC'
p483
tp484
I1732
s(I45
S'AGC'
p485
tp486
I237
s(I7
S'GCT'
p487
tp488
I317
s(I19
S'CAG'
p489
tp490
I121
s(I38
S'AAA'
p491
tp492
I68
s(I50
S'GTG'
p493
tp494
I33
s(I42
S'TTC'
p495
tp496
I12
s(I11
S'GGT'
p497
tp498
I404
s(I33
S'TGT'
p499
tp500
I4
s(I66
S'GTA'
p501
tp502
I81
s(I25
S'GGA'
p503
tp504
I6
s(I19
S'CGC'
p505
tp506
I41
s(I41
S'CTC'
p507
tp508
I839
s(I2
S'CCA'
p509
tp510
I2
s(I35
S'ACA'
p511
tp512
I134
s(I19
S'TGT'
p513
tp514
I37
s(I58
S'CCG'
p515
tp516
I1
s(I17
S'AGA'
p517
tp518
I2
s(I73
S'GGC'
p519
tp520
I4
s(I20
S'ATA'
p521
tp522
I137
s(I53
S'GGC'
p523
tp524
I133
s(I43
S'GTA'
p525
tp526
I49
s(I38
S'CTC'
p527
tp528
I14
s(I11
S'GCG'
p529
tp530
I1445
s(I3
S'GCG'
p531
tp532
I420
s(I43
S'CTA'
p533
tp534
I219
s(I63
S'CTA'
p535
tp536
I36
s(I55
S'CAC'
p537
tp538
I16
s(I28
S'GCG'
p539
tp540
I1
s(I18
S'GGT'
p541
tp542
I268
s(I60
S'CAC'
p543
tp544
I91
s(I64
S'TCA'
p545
tp546
I8670
s(I58
S'TTA'
p547
tp548
I2
s(I63
S'TTT'
p549
tp550
I25
s(I12
S'TGA'
p551
tp552
I10
s(I40
S'GTT'
p553
tp554
I3
s(I29
S'ATA'
p555
tp556
I62
s(I66
S'TCG'
p557
tp558
I14
s(I19
S'CTT'
p559
tp560
I40
s(I64
S'CCC'
p561
tp562
I4
s(I12
S'TAC'
p563
tp564
I4
s(I24
S'CTT'
p565
tp566
I5
s(I71
S'TTT'
p567
tp568
I5
s(I42
S'CGA'
p569
tp570
I103
s(I6
S'GGG'
p571
tp572
I4
s(I45
S'TTC'
p573
tp574
I1
s(I26
S'GTA'
p575
tp576
I184
s(I72
S'AGC'
p577
tp578
I17
s(I17
S'CGC'
p579
tp580
I1
s(I6
S'TTT'
p581
tp582
I92
s(I36
S'CGA'
p583
tp584
I20
s(I48
S'GGT'
p585
tp586
I10
s(I28
S'AAG'
p587
tp588
I25
s(I64
S'CTC'
p589
tp590
I76
s(I31
S'GCC'
p591
tp592
I182
s(I65
S'ATA'
p593
tp594
I1
s(I53
S'AAC'
p595
tp596
I61
s(I31
S'CGC'
p597
tp598
I44
s(I76
S'AGG'
p599
tp600
I7
s(I6
S'TCG'
p601
tp602
I331
s(I13
S'CAT'
p603
tp604
I37
s(I41
S'CTT'
p605
tp606
I585
s(I73
S'GTT'
p607
tp608
I4727
s(I26
S'ACC'
p609
tp610
I82
s(I60
S'CCT'
p611
tp612
I92
s(I62
S'CCA'
p613
tp614
I127
s(I58
S'GCG'
p615
tp616
I7
s(I31
S'CAC'
p617
tp618
I14
s(I54
S'CAG'
p619
tp620
I79
s(I63
S'GAG'
p621
tp622
I10
s(I53
S'GGG'
p623
tp624
I164
s(I59
S'GTC'
p625
tp626
I32
s(I70
S'AGA'
p627
tp628
I2
s(I61
S'ATA'
p629
tp630
I14
s(I39
S'TTT'
p631
tp632
I4
s(I28
S'GGG'
p633
tp634
I91
s(I75
S'GTC'
p635
tp636
I2
s(I14
S'AGG'
p637
tp638
I1
s(I48
S'CCT'
p639
tp640
I3
s(I2
S'GCC'
p641
tp642
I1
s(I27
S'AAA'
p643
tp644
I30
s(I33
S'ACC'
p645
tp646
I1
s(I70
S'CAT'
p647
tp648
I5
s(I57
S'CCA'
p649
tp650
I9
s(I8
S'AAA'
p651
tp652
I1
s(I16
S'TGC'
p653
tp654
I41
s(I71
S'TTA'
p655
tp656
I29
s(I56
S'TTG'
p657
tp658
I120
s(I2
S'AGG'
p659
tp660
I1
s(I48
S'GTC'
p661
tp662
I5
s(I13
S'CAA'
p663
tp664
I128
s(I18
S'CAA'
p665
tp666
I250
s(I70
S'ACC'
p667
tp668
I6811
s(I36
S'CAA'
p669
tp670
I1411
s(I49
S'TAG'
p671
tp672
I12
s(I8
S'GTG'
p673
tp674
I151
s(I58
S'CTG'
p675
tp676
I8
s(I22
S'GCA'
p677
tp678
I365
s(I60
S'TTC'
p679
tp680
I18
s(I38
S'TGA'
p681
tp682
I27
s(I9
S'CTT'
p683
tp684
I29
s(I52
S'AAA'
p685
tp686
I5
s(I7
S'GCA'
p687
tp688
I125
s(I58
S'CAA'
p689
tp690
I71
s(I5
S'GTG'
p691
tp692
I107
s(I18
S'AGT'
p693
tp694
I1
s(I57
S'AGC'
p695
tp696
I8
s(I17
S'ACA'
p697
tp698
I134
s(I51
S'CAT'
p699
tp700
I14
s(I41
S'AAA'
p701
tp702
I1
s(I73
S'TCA'
p703
tp704
I2
s(I66
S'CAC'
p705
tp706
I7191
s(I47
S'CTG'
p707
tp708
I3
s(I33
S'GCA'
p709
tp710
I7
s(I62
S'ATT'
p711
tp712
I520
s(I76
S'GGC'
p713
tp714
I15
s(I66
S'GAT'
p715
tp716
I14286
s(I35
S'ATG'
p717
tp718
I124
s(I11
S'GCC'
p719
tp720
I614
s(I6
S'ACC'
p721
tp722
I148
s(I64
S'ATA'
p723
tp724
I9
s(I24
S'CGA'
p725
tp726
I4
s(I72
S'GGG'
p727
tp728
I444
s(I31
S'TAG'
p729
tp730
I2
s(I65
S'GCA'
p731
tp732
I550
s(I63
S'CTT'
p733
tp734
I14
s(I76
S'CGA'
p735
tp736
I5
s(I49
S'ATC'
p737
tp738
I69
s(I20
S'AAC'
p739
tp740
I26
s(I53
S'GCT'
p741
tp742
I7
s(I15
S'AAG'
p743
tp744
I1
s(I69
S'GAT'
p745
tp746
I7
s(I74
S'ATA'
p747
tp748
I15
s(I35
S'TCT'
p749
tp750
I18
s(I40
S'TCA'
p751
tp752
I90
s(I56
S'TTC'
p753
tp754
I6
s(I67
S'CGG'
p755
tp756
I1
s(I65
S'GTG'
p757
tp758
I48
s(I72
S'AAC'
p759
tp760
I202
s(I24
S'CTA'
p761
tp762
I6
s(I11
S'AAC'
p763
tp764
I1483
s(I5
S'GAA'
p765
tp766
I3
s(I34
S'TGT'
p767
tp768
I15
s(I65
S'GGG'
p769
tp770
I272
s(I36
S'AAC'
p771
tp772
I2
s(I3
S'ACC'
p773
tp774
I7
s(I70
S'GCG'
p775
tp776
I8
s(I27
S'CAT'
p777
tp778
I17
s(I8
S'CCA'
p779
tp780
I1
s(I72
S'GAT'
p781
tp782
I4
s(I60
S'CGG'
p783
tp784
I154
s(I53
S'AAT'
p785
tp786
I24
s(I53
S'TGG'
p787
tp788
I106
s(I32
S'AAG'
p789
tp790
I8
s(I34
S'AAC'
p791
tp792
I10
s(I36
S'AAA'
p793
tp794
I2
s(I10
S'GAT'
p795
tp796
I17
s(I27
S'AGA'
p797
tp798
I171
s(I67
S'AAA'
p799
tp800
I1
s(I38
S'CAG'
p801
tp802
I263
s(I57
S'GAG'
p803
tp804
I2
s(I30
S'GCC'
p805
tp806
I33
s(I29
S'TGG'
p807
tp808
I73
s(I19
S'TTT'
p809
tp810
I33
s(I8
S'AGG'
p811
tp812
I2
s(I35
S'CCA'
p813
tp814
I41
s(I28
S'CTG'
p815
tp816
I2
s(I53
S'ATG'
p817
tp818
I40
s(I56
S'ACC'
p819
tp820
I2
s(I9
S'TAT'
p821
tp822
I13
s(I25
S'TGC'
p823
tp824
I170
s(I30
S'TAA'
p825
tp826
I11
s(I16
S'ACG'
p827
tp828
I40
s(I30
S'GTC'
p829
tp830
I12
s(I29
S'GGA'
p831
tp832
I17
s(I10
S'GCG'
p833
tp834
I1
s(I44
S'AAC'
p835
tp836
I2
s(I45
S'TGT'
p837
tp838
I160
s(I40
S'GAA'
p839
tp840
I839
s(I64
S'GGA'
p841
tp842
I8770
s(I8
S'AAC'
p843
tp844
I1
s(I51
S'GAT'
p845
tp846
I21
s(I35
S'AGC'
p847
tp848
I7
s(I7
S'CGA'
p849
tp850
I19
s(I69
S'TTG'
p851
tp852
I147
s(I53
S'CTA'
p853
tp854
I2
s(I24
S'GAA'
p855
tp856
I33
s(I40
S'AAG'
p857
tp858
I89
s(I26
S'CTG'
p859
tp860
I115
s(I5
S'ATA'
p861
tp862
I13
s(I17
S'CCC'
p863
tp864
I3
s(I61
S'GCA'
p865
tp866
I17
s(I74
S'CGG'
p867
tp868
I54
s(I75
S'CGG'
p869
tp870
I3
s(I61
S'CCT'
p871
tp872
I16
s(I29
S'AAG'
p873
tp874
I44
s(I46
S'TAC'
p875
tp876
I1699
s(I22
S'GCT'
p877
tp878
I55
s(I32
S'TTC'
p879
tp880
I4
s(I44
S'GCC'
p881
tp882
I11
s(I54
S'TAC'
p883
tp884
I92
s(I58
S'GTT'
p885
tp886
I16
s(I29
S'CTG'
p887
tp888
I242
s(I69
S'GCG'
p889
tp890
I1
s(I11
S'CCA'
p891
tp892
I1125
s(I72
S'CGC'
p893
tp894
I36
s(I72
S'CCC'
p895
tp896
I1
s(I13
S'TAC'
p897
tp898
I2
s(I44
S'GAG'
p899
tp900
I1
s(I73
S'AAC'
p901
tp902
I40
s(I14
S'TAG'
p903
tp904
I1
s(I58
S'AGA'
p905
tp906
I4
s(I17
S'TTG'
p907
tp908
I60
s(I66
S'AAG'
p909
tp910
I2
s(I76
S'CCG'
p911
tp912
I2
s(I11
S'TTG'
p913
tp914
I14
s(I23
S'ACA'
p915
tp916
I28
s(I21
S'GTC'
p917
tp918
I3
s(I46
S'CCG'
p919
tp920
I4
s(I7
S'TCT'
p921
tp922
I367
s(I50
S'GAG'
p923
tp924
I1
s(I63
S'GCT'
p925
tp926
I3
s(I37
S'GTC'
p927
tp928
I308
s(I35
S'GAG'
p929
tp930
I24
s(I16
S'CCG'
p931
tp932
I50
s(I52
S'AGC'
p933
tp934
I27
s(I28
S'TGC'
p935
tp936
I33
s(I25
S'GTT'
p937
tp938
I12
s(I36
S'CTG'
p939
tp940
I1986
s(I34
S'GGG'
p941
tp942
I2
s(I25
S'ATT'
p943
tp944
I85
s(I41
S'CTA'
p945
tp946
I207
s(I54
S'TGC'
p947
tp948
I2
s(I34
S'CCC'
p949
tp950
I7
s(I20
S'ATG'
p951
tp952
I13
s(I38
S'GTT'
p953
tp954
I125
s(I45
S'ATA'
p955
tp956
I36
s(I63
S'GTT'
p957
tp958
I69
s(I32
S'TAA'
p959
tp960
I4
s(I52
S'GCA'
p961
tp962
I43
s(I46
S'GGC'
p963
tp964
I966
s(I61
S'AAG'
p965
tp966
I1
s(I29
S'TTT'
p967
tp968
I8
s(I53
S'CCG'
p969
tp970
I61
s(I23
S'TCT'
p971
tp972
I2
s(I63
S'AGT'
p973
tp974
I113
s(I35
S'GCA'
p975
tp976
I31
s(I35
S'CTC'
p977
tp978
I22
s(I18
S'ATA'
p979
tp980
I3
s(I23
S'GCT'
p981
tp982
I1
s(I38
S'ACT'
p983
tp984
I251
s(I4
S'GGC'
p985
tp986
I1
s(I24
S'GTA'
p987
tp988
I26
s(I16
S'TTC'
p989
tp990
I38
s(I3
S'ACG'
p991
tp992
I5
s(I62
S'GGT'
p993
tp994
I18
s(I24
S'AGG'
p995
tp996
I12
s(I24
S'TAC'
p997
tp998
I18
s(I33
S'TGG'
p999
tp1000
I10
s(I50
S'ACC'
p1001
tp1002
I214
s(I3
S'CGC'
p1003
tp1004
I2
s(I21
S'TCC'
p1005
tp1006
I79
s(I55
S'GCT'
p1007
tp1008
I15
s(I24
S'GCC'
p1009
tp1010
I19
s(I32
S'CCT'
p1011
tp1012
I25
s(I15
S'ATC'
p1013
tp1014
I371
s(I38
S'GTC'
p1015
tp1016
I42
s(I17
S'GCC'
p1017
tp1018
I67
s(I3
S'AAT'
p1019
tp1020
I1
s(I54
S'CTC'
p1021
tp1022
I37
s(I72
S'ACT'
p1023
tp1024
I110
s(I35
S'GGC'
p1025
tp1026
I186
s(I21
S'AGT'
p1027
tp1028
I4
s(I51
S'CCG'
p1029
tp1030
I100
s(I61
S'CGC'
p1031
tp1032
I18
s(I43
S'GGC'
p1033
tp1034
I1
s(I57
S'GTG'
p1035
tp1036
I220
s(I68
S'GGT'
p1037
tp1038
I20
s(I38
S'AAG'
p1039
tp1040
I32
s(I6
S'TAC'
p1041
tp1042
I688
s(I51
S'TCA'
p1043
tp1044
I95
s(I62
S'ACG'
p1045
tp1046
I2122
s(I30
S'GCG'
p1047
tp1048
I25
s(I56
S'GTT'
p1049
tp1050
I90
s(I58
S'CGG'
p1051
tp1052
I56
s(I45
S'CTC'
p1053
tp1054
I116
s(I27
S'CCC'
p1055
tp1056
I1
s(I35
S'ATT'
p1057
tp1058
I168
s(I55
S'AAT'
p1059
tp1060
I76
s(I11
S'TCA'
p1061
tp1062
I732
s(I37
S'AGC'
p1063
tp1064
I423
s(I57
S'GCG'
p1065
tp1066
I48
s(I65
S'AAT'
p1067
tp1068
I220
s(I41
S'TAT'
p1069
tp1070
I2
s(I33
S'ATC'
p1071
tp1072
I28
s(I57
S'ACC'
p1073
tp1074
I87
s(I40
S'TTT'
p1075
tp1076
I10
s(I64
S'GAA'
p1077
tp1078
I8
s(I20
S'TCG'
p1079
tp1080
I115
s(I62
S'GTG'
p1081
tp1082
I993
s(I69
S'CGT'
p1083
tp1084
I2
s(I16
S'GAG'
p1085
tp1086
I108
s(I60
S'GAT'
p1087
tp1088
I549
s(I27
S'ATT'
p1089
tp1090
I210
s(I70
S'GAA'
p1091
tp1092
I1
s(I9
S'TCT'
p1093
tp1094
I102
s(I69
S'GTT'
p1095
tp1096
I89
s(I5
S'TTA'
p1097
tp1098
I334
s(I13
S'TGA'
p1099
tp1100
I1
s(I29
S'ACA'
p1101
tp1102
I86
s(I37
S'CGT'
p1103
tp1104
I3
s(I39
S'CCT'
p1105
tp1106
I9
s(I33
S'GCG'
p1107
tp1108
I2
s(I47
S'CAC'
p1109
tp1110
I10
s(I64
S'TTC'
p1111
tp1112
I31
s(I52
S'CAC'
p1113
tp1114
I15
s(I37
S'TGC'
p1115
tp1116
I294
s(I9
S'AGG'
p1117
tp1118
I48
s(I75
S'CCT'
p1119
tp1120
I1
s(I20
S'GTA'
p1121
tp1122
I15
s(I38
S'TAT'
p1123
tp1124
I28
s(I74
S'GGG'
p1125
tp1126
I3
s(I41
S'TCC'
p1127
tp1128
I2
s(I52
S'TGA'
p1129
tp1130
I24
s(I15
S'GGG'
p1131
tp1132
I1
s(I56
S'TGT'
p1133
tp1134
I23
s(I16
S'TCG'
p1135
tp1136
I125
s(I48
S'ATC'
p1137
tp1138
I1
s(I31
S'CCC'
p1139
tp1140
I6
s(I61
S'TTT'
p1141
tp1142
I151
s(I63
S'GCA'
p1143
tp1144
I72
s(I13
S'AGC'
p1145
tp1146
I23
s(I26
S'GCG'
p1147
tp1148
I3
s(I17
S'GGA'
p1149
tp1150
I63
s(I45
S'TCG'
p1151
tp1152
I609
s(I11
S'GAC'
p1153
tp1154
I1586
s(I61
S'CTT'
p1155
tp1156
I1118
s(I21
S'ACC'
p1157
tp1158
I33
s(I66
S'CTT'
p1159
tp1160
I5332
s(I65
S'TGT'
p1161
tp1162
I157
s(I17
S'CTC'
p1163
tp1164
I1
s(I24
S'ATG'
p1165
tp1166
I21
s(I74
S'GCA'
p1167
tp1168
I1
s(I54
S'ATC'
p1169
tp1170
I7
s(I48
S'CAC'
p1171
tp1172
I4
s(I33
S'GAA'
p1173
tp1174
I4
s(I34
S'CAA'
p1175
tp1176
I1
s(I8
S'GAG'
p1177
tp1178
I4
s(I25
S'CAT'
p1179
tp1180
I46
s(I68
S'AGG'
p1181
tp1182
I12
s(I75
S'AAG'
p1183
tp1184
I1
s(I60
S'GCT'
p1185
tp1186
I721
s(I7
S'GAA'
p1187
tp1188
I90
s(I29
S'CCG'
p1189
tp1190
I2
s(I6
S'CTC'
p1191
tp1192
I24
s(I37
S'ACC'
p1193
tp1194
I1158
s(I49
S'TGT'
p1195
tp1196
I101
s(I34
S'CGC'
p1197
tp1198
I1
s(I34
S'AGT'
p1199
tp1200
I7
s(I35
S'CGG'
p1201
tp1202
I113
s(I72
S'TCT'
p1203
tp1204
I43
s(I75
S'CTT'
p1205
tp1206
I2
s(I51
S'AAC'
p1207
tp1208
I23
s(I72
S'TAC'
p1209
tp1210
I131
s(I62
S'AGA'
p1211
tp1212
I758
s(I72
S'TCA'
p1213
tp1214
I14
s(I41
S'GCG'
p1215
tp1216
I20
s(I53
S'ACT'
p1217
tp1218
I13
s(I75
S'GAC'
p1219
tp1220
I5
s(I44
S'TGA'
p1221
tp1222
I3
s(I11
S'TGA'
p1223
tp1224
I2
s(I70
S'CTA'
p1225
tp1226
I235
s(I71
S'CTG'
p1227
tp1228
I102
s(I68
S'GTT'
p1229
tp1230
I68
s(I46
S'CGG'
p1231
tp1232
I199
s(I32
S'CCC'
p1233
tp1234
I65
s(I70
S'CGG'
p1235
tp1236
I17
s(I9
S'TTA'
p1237
tp1238
I16
s(I22
S'TCG'
p1239
tp1240
I41
s(I74
S'TGT'
p1241
tp1242
I1
s(I62
S'CAT'
p1243
tp1244
I444
s(I46
S'TGA'
p1245
tp1246
I11
s(I20
S'TTC'
p1247
tp1248
I31
s(I37
S'TAT'
p1249
tp1250
I53
s(I50
S'TGC'
p1251
tp1252
I653
s(I5
S'TCG'
p1253
tp1254
I1
s(I10
S'GTA'
p1255
tp1256
I1
s(I52
S'TGT'
p1257
tp1258
I4
s(I55
S'ATC'
p1259
tp1260
I260
s(I28
S'CAA'
p1261
tp1262
I70
s(I10
S'TCC'
p1263
tp1264
I103
s(I33
S'TCA'
p1265
tp1266
I9
s(I42
S'GAA'
p1267
tp1268
I2
s(I62
S'TGG'
p1269
tp1270
I417
s(I2
S'ACC'
p1271
tp1272
I3
s(I35
S'ACG'
p1273
tp1274
I52
s(I71
S'GCG'
p1275
tp1276
I2
s(I15
S'AAC'
p1277
tp1278
I1
s(I41
S'TTG'
p1279
tp1280
I2421
s(I30
S'CCG'
p1281
tp1282
I1
s(I9
S'CGT'
p1283
tp1284
I19
s(I10
S'AGT'
p1285
tp1286
I80
s(I72
S'ATT'
p1287
tp1288
I8
s(I51
S'CTT'
p1289
tp1290
I100
s(I4
S'ATG'
p1291
tp1292
I20
s(I69
S'CGA'
p1293
tp1294
I5
s(I38
S'AGA'
p1295
tp1296
I48
s(I44
S'CGG'
p1297
tp1298
I2
s(I62
S'GCT'
p1299
tp1300
I342
s(I38
S'CCG'
p1301
tp1302
I4
s(I53
S'AGG'
p1303
tp1304
I18
s(I6
S'AGT'
p1305
tp1306
I177
s(I27
S'ACG'
p1307
tp1308
I18
s(I69
S'CAA'
p1309
tp1310
I8
s(I72
S'GTG'
p1311
tp1312
I3
s(I62
S'CTG'
p1313
tp1314
I903
s(I61
S'CCG'
p1315
tp1316
I2
s(I37
S'CCA'
p1317
tp1318
I135
s(I37
S'CGA'
p1319
tp1320
I14
s(I59
S'TCC'
p1321
tp1322
I2512
s(I68
S'GAC'
p1323
tp1324
I9
s(I55
S'GAG'
p1325
tp1326
I3
s(I12
S'CCG'
p1327
tp1328
I173
s(I15
S'TCG'
p1329
tp1330
I4
s(I63
S'TCG'
p1331
tp1332
I5
s(I62
S'TCA'
p1333
tp1334
I128
s(I59
S'GCC'
p1335
tp1336
I2969
s(I61
S'TTA'
p1337
tp1338
I318
s(I19
S'CCC'
p1339
tp1340
I98
s(I61
S'AAC'
p1341
tp1342
I8
s(I6
S'CCT'
p1343
tp1344
I3
s(I6
S'CAA'
p1345
tp1346
I98
s(I45
S'GTC'
p1347
tp1348
I17881
s(I45
S'CCG'
p1349
tp1350
I1
s(I10
S'AAC'
p1351
tp1352
I100
s(I25
S'AGC'
p1353
tp1354
I29
s(I58
S'CAG'
p1355
tp1356
I79
s(I21
S'CGC'
p1357
tp1358
I2
s(I38
S'CTA'
p1359
tp1360
I41
s(I23
S'CCG'
p1361
tp1362
I3
s(I60
S'ACC'
p1363
tp1364
I46
s(I57
S'AAG'
p1365
tp1366
I175
s(I34
S'GAG'
p1367
tp1368
I30
s(I15
S'AGA'
p1369
tp1370
I3
s(I19
S'CTG'
p1371
tp1372
I17
s(I76
S'TGG'
p1373
tp1374
I1
s(I31
S'AGC'
p1375
tp1376
I104
s(I73
S'TAG'
p1377
tp1378
I1
s(I18
S'GTC'
p1379
tp1380
I251
s(I71
S'CCG'
p1381
tp1382
I1
s(I41
S'TGT'
p1383
tp1384
I23
s(I7
S'CAC'
p1385
tp1386
I7
s(I34
S'TAG'
p1387
tp1388
I2
s(I19
S'AGA'
p1389
tp1390
I6
s(I30
S'CAG'
p1391
tp1392
I2
s(I35
S'CAG'
p1393
tp1394
I2
s(I15
S'TTA'
p1395
tp1396
I84
s(I30
S'GTT'
p1397
tp1398
I138
s(I72
S'TGC'
p1399
tp1400
I28
s(I60
S'GTG'
p1401
tp1402
I295
s(I38
S'ATG'
p1403
tp1404
I65
s(I21
S'ATC'
p1405
tp1406
I2
s(I16
S'TCA'
p1407
tp1408
I104
s(I31
S'TGT'
p1409
tp1410
I163
s(I70
S'GAG'
p1411
tp1412
I11
s(I24
S'CAT'
p1413
tp1414
I94
s(I48
S'TAA'
p1415
tp1416
I1
s(I60
S'CAA'
p1417
tp1418
I143
s(I11
S'GGG'
p1419
tp1420
I84
s(I20
S'AGG'
p1421
tp1422
I19
s(I71
S'CAT'
p1423
tp1424
I4
s(I66
S'TGT'
p1425
tp1426
I1
s(I46
S'TCA'
p1427
tp1428
I392
s(I45
S'CAC'
p1429
tp1430
I53
s(I6
S'TGT'
p1431
tp1432
I4
s(I5
S'TGT'
p1433
tp1434
I463
s(I35
S'ACT'
p1435
tp1436
I48
s(I76
S'GCA'
p1437
tp1438
I1
s(I33
S'AGG'
p1439
tp1440
I60
s(I73
S'CAG'
p1441
tp1442
I1
s(I54
S'CGA'
p1443
tp1444
I17
s(I54
S'GCG'
p1445
tp1446
I36
s(I57
S'CTA'
p1447
tp1448
I37
s(I28
S'TTC'
p1449
tp1450
I1
s(I49
S'AAA'
p1451
tp1452
I36
s(I10
S'ACA'
p1453
tp1454
I10
s(I69
S'GAA'
p1455
tp1456
I9
s(I70
S'ATT'
p1457
tp1458
I6
s(I44
S'GGT'
p1459
tp1460
I2
s(I72
S'GAA'
p1461
tp1462
I7
s(I4
S'TAG'
p1463
tp1464
I6
s(I20
S'GAG'
p1465
tp1466
I96
s(I6
S'CAG'
p1467
tp1468
I197
s(I13
S'AAA'
p1469
tp1470
I81
s(I9
S'GTC'
p1471
tp1472
I105
s(I47
S'GAA'
p1473
tp1474
I1
s(I66
S'TTT'
p1475
tp1476
I4
s(I27
S'CGC'
p1477
tp1478
I23
s(I63
S'TTC'
p1479
tp1480
I57
s(I46
S'CTA'
p1481
tp1482
I43
s(I51
S'CTC'
p1483
tp1484
I241
s(I75
S'GGG'
p1485
tp1486
I71
s(I14
S'GCC'
p1487
tp1488
I14
s(I37
S'AAG'
p1489
tp1490
I46
s(I16
S'AAT'
p1491
tp1492
I288
s(I71
S'TGG'
p1493
tp1494
I3
s(I42
S'AAT'
p1495
tp1496
I110
s(I25
S'GGG'
p1497
tp1498
I26
s(I76
S'CAA'
p1499
tp1500
I6
s(I2
S'GGA'
p1501
tp1502
I1
s(I35
S'CCT'
p1503
tp1504
I2
s(I48
S'GGA'
p1505
tp1506
I2
s(I25
S'GCC'
p1507
tp1508
I16
s(I71
S'TCC'
p1509
tp1510
I25
s(I24
S'TTC'
p1511
tp1512
I21
s(I43
S'GTG'
p1513
tp1514
I183
s(I76
S'AGT'
p1515
tp1516
I5
s(I46
S'GAA'
p1517
tp1518
I9476
s(I3
S'GCA'
p1519
tp1520
I3233
s(I2
S'TGG'
p1521
tp1522
I1
s(I55
S'TCC'
p1523
tp1524
I2
s(I65
S'GGA'
p1525
tp1526
I1038
s(I48
S'TGG'
p1527
tp1528
I13
s(I65
S'TCT'
p1529
tp1530
I94
s(I37
S'TGA'
p1531
tp1532
I27
s(I45
S'CGC'
p1533
tp1534
I98
s(I36
S'TAT'
p1535
tp1536
I15
s(I12
S'TGG'
p1537
tp1538
I1
s(I61
S'AAT'
p1539
tp1540
I5
s(I14
S'TGC'
p1541
tp1542
I5
s(I47
S'AAA'
p1543
tp1544
I1
s(I42
S'ACG'
p1545
tp1546
I11
s(I44
S'TAT'
p1547
tp1548
I2
s(I66
S'TCA'
p1549
tp1550
I8
s(I51
S'TCC'
p1551
tp1552
I272
s(I39
S'TTC'
p1553
tp1554
I23
s(I36
S'ACT'
p1555
tp1556
I4379
s(I22
S'TAT'
p1557
tp1558
I37
s(I62
S'TTG'
p1559
tp1560
I344
s(I42
S'CGG'
p1561
tp1562
I41
s(I48
S'GCT'
p1563
tp1564
I3
s(I41
S'TGG'
p1565
tp1566
I2
s(I26
S'GTG'
p1567
tp1568
I48
s(I18
S'CGA'
p1569
tp1570
I11
s(I28
S'TAT'
p1571
tp1572
I26
s(I66
S'CTA'
p1573
tp1574
I2330
s(I9
S'TGC'
p1575
tp1576
I2317
s(I28
S'AAA'
p1577
tp1578
I8
s(I69
S'TAT'
p1579
tp1580
I131
s(I57
S'TCC'
p1581
tp1582
I36
s(I42
S'GTG'
p1583
tp1584
I158
s(I50
S'TTC'
p1585
tp1586
I1
s(I25
S'TAG'
p1587
tp1588
I2
s(I56
S'TTT'
p1589
tp1590
I295
s(I14
S'CCG'
p1591
tp1592
I2
s(I38
S'CGA'
p1593
tp1594
I19
s(I57
S'TAA'
p1595
tp1596
I1
s(I58
S'AAG'
p1597
tp1598
I5
s(I38
S'CGT'
p1599
tp1600
I14
s(I32
S'CAA'
p1601
tp1602
I76
s(I62
S'CCG'
p1603
tp1604
I1737
s(I31
S'GTG'
p1605
tp1606
I369
s(I4
S'CTG'
p1607
tp1608
I14
s(I64
S'TGG'
p1609
tp1610
I2
s(I9
S'CTA'
p1611
tp1612
I163
s(I2
S'CCC'
p1613
tp1614
I1
s(I61
S'ACC'
p1615
tp1616
I6
s(I2
S'CGC'
p1617
tp1618
I1
s(I23
S'TTG'
p1619
tp1620
I14
s(I5
S'GTT'
p1621
tp1622
I35
s(I21
S'CTA'
p1623
tp1624
I38
s(I17
S'ACT'
p1625
tp1626
I138
s(I62
S'AAA'
p1627
tp1628
I6
s(I9
S'GCA'
p1629
tp1630
I107
s(I11
S'ACA'
p1631
tp1632
I828
s(I68
S'TAG'
p1633
tp1634
I1
s(I54
S'TTA'
p1635
tp1636
I59
s(I75
S'TCA'
p1637
tp1638
I10
s(I72
S'AGA'
p1639
tp1640
I34
s(I76
S'TTA'
p1641
tp1642
I1
s(I27
S'GGG'
p1643
tp1644
I1
s(I70
S'TCT'
p1645
tp1646
I3
s(I57
S'CCG'
p1647
tp1648
I10
s(I6
S'ACT'
p1649
tp1650
I823
s(I54
S'CGT'
p1651
tp1652
I27
s(I60
S'CCG'
p1653
tp1654
I562
s(I36
S'GCT'
p1655
tp1656
I2
s(I12
S'GAC'
p1657
tp1658
I740
s(I40
S'GGC'
p1659
tp1660
I271
s(I36
S'CAG'
p1661
tp1662
I2245
s(I70
S'ATA'
p1663
tp1664
I6
s(I25
S'AAT'
p1665
tp1666
I32
s(I21
S'TAT'
p1667
tp1668
I82
s(I27
S'TGG'
p1669
tp1670
I9
s(I8
S'GTA'
p1671
tp1672
I147
s(I20
S'AAG'
p1673
tp1674
I147
s(I53
S'CTC'
p1675
tp1676
I25
s(I53
S'GCC'
p1677
tp1678
I35
s(I29
S'TAT'
p1679
tp1680
I55
s(I45
S'AAC'
p1681
tp1682
I365
s(I47
S'GAT'
p1683
tp1684
I7
s(I42
S'GGA'
p1685
tp1686
I189
s(I22
S'GAT'
p1687
tp1688
I156
s(I5
S'TAC'
p1689
tp1690
I86
s(I16
S'AAC'
p1691
tp1692
I74
s(I30
S'ACA'
p1693
tp1694
I1
s(I65
S'GGC'
p1695
tp1696
I2
s(I8
S'GCC'
p1697
tp1698
I3
s(I27
S'CTA'
p1699
tp1700
I4
s(I55
S'CCA'
p1701
tp1702
I2
s(I41
S'CGA'
p1703
tp1704
I2
s(I31
S'GGC'
p1705
tp1706
I53
s(I48
S'CAT'
p1707
tp1708
I1
s(I51
S'GTC'
p1709
tp1710
I231
s(I61
S'TCG'
p1711
tp1712
I1
s(I61
S'AGA'
p1713
tp1714
I32
s(I25
S'GCT'
p1715
tp1716
I7
s(I64
S'ATG'
p1717
tp1718
I85
s(I52
S'TTA'
p1719
tp1720
I8
s(I25
S'GTC'
p1721
tp1722
I51
s(I33
S'GGC'
p1723
tp1724
I1
s(I40
S'GCC'
p1725
tp1726
I3
s(I54
S'AAA'
p1727
tp1728
I41
s(I28
S'CGC'
p1729
tp1730
I37
s(I70
S'AAC'
p1731
tp1732
I3
s(I22
S'TAG'
p1733
tp1734
I2
s(I28
S'GCT'
p1735
tp1736
I79
s(I25
S'ACC'
p1737
tp1738
I12
s(I13
S'GTG'
p1739
tp1740
I92
s(I3
S'CTC'
p1741
tp1742
I10
s(I66
S'CAT'
p1743
tp1744
I5343
s(I7
S'GGC'
p1745
tp1746
I18
s(I73
S'TGT'
p1747
tp1748
I1
s(I4
S'TTT'
p1749
tp1750
I140
s(I37
S'CCC'
p1751
tp1752
I124
s(I22
S'GGA'
p1753
tp1754
I138
s(I67
S'GCC'
p1755
tp1756
I13390
s(I40
S'CAC'
p1757
tp1758
I177
s(I21
S'CAA'
p1759
tp1760
I5
s(I61
S'TAG'
p1761
tp1762
I7
s(I9
S'TAA'
p1763
tp1764
I1
s(I25
S'TGT'
p1765
tp1766
I208
s(I16
S'ACT'
p1767
tp1768
I176
s(I29
S'GGT'
p1769
tp1770
I15
s(I3
S'GGG'
p1771
tp1772
I3
s(I44
S'AAT'
p1773
tp1774
I3
s(I73
S'ACG'
p1775
tp1776
I2
s(I45
S'TGA'
p1777
tp1778
I1
s(I44
S'TCC'
p1779
tp1780
I19
s(I49
S'TAC'
p1781
tp1782
I11
s(I73
S'GCG'
p1783
tp1784
I5
s(I14
S'CGA'
p1785
tp1786
I2
s(I7
S'CCT'
p1787
tp1788
I6
s(I32
S'ACC'
p1789
tp1790
I54
s(I28
S'AAT'
p1791
tp1792
I82
s(I38
S'ATC'
p1793
tp1794
I67
s(I42
S'GAG'
p1795
tp1796
I4
s(I27
S'TGC'
p1797
tp1798
I4
s(I54
S'AAT'
p1799
tp1800
I85
s(I37
S'GGG'
p1801
tp1802
I7
s(I53
S'CGT'
p1803
tp1804
I29
s(I33
S'AAA'
p1805
tp1806
I61
s(I7
S'ATC'
p1807
tp1808
I185
s(I45
S'GGG'
p1809
tp1810
I429
s(I5
S'GCA'
p1811
tp1812
I4
s(I27
S'AGG'
p1813
tp1814
I5
s(I74
S'GCC'
p1815
tp1816
I8
s(I5
S'CTA'
p1817
tp1818
I39
s(I71
S'CGC'
p1819
tp1820
I6
s(I56
S'ATA'
p1821
tp1822
I23
s(I33
S'TAC'
p1823
tp1824
I22
s(I47
S'GCA'
p1825
tp1826
I34
s(I33
S'GAG'
p1827
tp1828
I9
s(I29
S'CTT'
p1829
tp1830
I125
s(I63
S'TGC'
p1831
tp1832
I49
s(I16
S'GCA'
p1833
tp1834
I51
s(I72
S'CGT'
p1835
tp1836
I15
s(I54
S'CCA'
p1837
tp1838
I4
s(I27
S'ACT'
p1839
tp1840
I14
s(I5
S'CTC'
p1841
tp1842
I208
s(I65
S'GAA'
p1843
tp1844
I3092
s(I54
S'CCC'
p1845
tp1846
I320
s(I67
S'TTT'
p1847
tp1848
I644
s(I21
S'CCA'
p1849
tp1850
I1
s(I40
S'GAG'
p1851
tp1852
I12457
s(I41
S'GGA'
p1853
tp1854
I24
s(I48
S'TCA'
p1855
tp1856
I13
s(I47
S'GTC'
p1857
tp1858
I1
s(I2
S'GCT'
p1859
tp1860
I3
s(I58
S'AAC'
p1861
tp1862
I8
s(I70
S'TAA'
p1863
tp1864
I2
s(I24
S'GAG'
p1865
tp1866
I55
s(I5
S'ACC'
p1867
tp1868
I30
s(I36
S'GCC'
p1869
tp1870
I6
s(I46
S'CCT'
p1871
tp1872
I1
s(I35
S'AAT'
p1873
tp1874
I26
s(I64
S'ACA'
p1875
tp1876
I296
s(I61
S'GCG'
p1877
tp1878
I8
s(I24
S'ACT'
p1879
tp1880
I5
s(I41
S'CAT'
p1881
tp1882
I12
s(I46
S'ATT'
p1883
tp1884
I197
s(I34
S'GGT'
p1885
tp1886
I51
s(I25
S'ATA'
p1887
tp1888
I299
s(I14
S'GTC'
p1889
tp1890
I3
s(I24
S'AAG'
p1891
tp1892
I2
s(I42
S'GGT'
p1893
tp1894
I11
s(I22
S'GAC'
p1895
tp1896
I46
s(I69
S'CTC'
p1897
tp1898
I74
s(I23
S'CAC'
p1899
tp1900
I2
s(I73
S'AGT'
p1901
tp1902
I3
s(I46
S'CAG'
p1903
tp1904
I607
s(I75
S'TAG'
p1905
tp1906
I401
s(I51
S'CAG'
p1907
tp1908
I244
s(I48
S'CGC'
p1909
tp1910
I2
s(I48
S'AAA'
p1911
tp1912
I12
s(I60
S'TCG'
p1913
tp1914
I43
s(I59
S'TAG'
p1915
tp1916
I10
s(I69
S'TTC'
p1917
tp1918
I5037
s(I35
S'GCT'
p1919
tp1920
I139
s(I65
S'CTG'
p1921
tp1922
I2
s(I7
S'AAT'
p1923
tp1924
I1566
s(I23
S'GCG'
p1925
tp1926
I9
s(I76
S'CCA'
p1927
tp1928
I1
s(I8
S'ACG'
p1929
tp1930
I3
s(I23
S'ACG'
p1931
tp1932
I80
s(I30
S'AAG'
p1933
tp1934
I1
s(I73
S'AGA'
p1935
tp1936
I1
s(I37
S'TAA'
p1937
tp1938
I4
s(I8
S'GTC'
p1939
tp1940
I35
s(I72
S'GGT'
p1941
tp1942
I139
s(I62
S'GGA'
p1943
tp1944
I274
s(I60
S'CTT'
p1945
tp1946
I29
s(I54
S'TTT'
p1947
tp1948
I2
s(I51
S'ATT'
p1949
tp1950
I67
s(I39
S'GGG'
p1951
tp1952
I3
s(I61
S'GAT'
p1953
tp1954
I2
s(I11
S'CTC'
p1955
tp1956
I74
s(I21
S'TCT'
p1957
tp1958
I30
s(I61
S'CAC'
p1959
tp1960
I1
s(I70
S'AGC'
p1961
tp1962
I2
s(I36
S'CTA'
p1963
tp1964
I672
s(I55
S'AGT'
p1965
tp1966
I93
s(I55
S'GCG'
p1967
tp1968
I7
s(I41
S'CTG'
p1969
tp1970
I303
s(I6
S'AGA'
p1971
tp1972
I6
s(I25
S'CGT'
p1973
tp1974
I22
s(I67
S'AGC'
p1975
tp1976
I35
s(I70
S'GTT'
p1977
tp1978
I24
s(I56
S'GCG'
p1979
tp1980
I4
s(I24
S'ACA'
p1981
tp1982
I1
s(I61
S'ATC'
p1983
tp1984
I14
s(I55
S'GTA'
p1985
tp1986
I17
s(I30
S'CTG'
p1987
tp1988
I27
s(I36
S'ACC'
p1989
tp1990
I6309
s(I38
S'AAT'
p1991
tp1992
I202
s(I27
S'CAG'
p1993
tp1994
I4
s(I66
S'ACG'
p1995
tp1996
I21
s(I14
S'CGT'
p1997
tp1998
I1
s(I31
S'GAC'
p1999
tp2000
I1
s(I6
S'GTA'
p2001
tp2002
I1219
s(I53
S'TAC'
p2003
tp2004
I73
s(I56
S'GTG'
p2005
tp2006
I66
s(I27
S'GCT'
p2007
tp2008
I23
s(I60
S'CGT'
p2009
tp2010
I12
s(I47
S'ACC'
p2011
tp2012
I4
s(I41
S'CCA'
p2013
tp2014
I2
s(I15
S'GAC'
p2015
tp2016
I1
s(I75
S'CTC'
p2017
tp2018
I3
s(I69
S'TCA'
p2019
tp2020
I17
s(I65
S'AAC'
p2021
tp2022
I347
s(I53
S'ATC'
p2023
tp2024
I13
s(I62
S'TTT'
p2025
tp2026
I226
s(I19
S'ATA'
p2027
tp2028
I7
s(I15
S'ACA'
p2029
tp2030
I107
s(I13
S'GTC'
p2031
tp2032
I441
s(I24
S'GGG'
p2033
tp2034
I7
s(I48
S'CTC'
p2035
tp2036
I4
s(I42
S'CAC'
p2037
tp2038
I7
s(I15
S'CGA'
p2039
tp2040
I1
s(I65
S'CAG'
p2041
tp2042
I137
s(I9
S'TCA'
p2043
tp2044
I250
s(I66
S'GAG'
p2045
tp2046
I76
s(I32
S'GTC'
p2047
tp2048
I14
s(I57
S'GTT'
p2049
tp2050
I116
s(I39
S'CGG'
p2051
tp2052
I1
s(I39
S'CCG'
p2053
tp2054
I2
s(I73
S'TTT'
p2055
tp2056
I1
s(I72
S'TAA'
p2057
tp2058
I5
s(I46
S'AGA'
p2059
tp2060
I727
s(I20
S'CCC'
p2061
tp2062
I156
s(I75
S'CCG'
p2063
tp2064
I50
s(I38
S'TAC'
p2065
tp2066
I12
s(I59
S'AAC'
p2067
tp2068
I169
s(I34
S'TAA'
p2069
tp2070
I2
s(I63
S'TAA'
p2071
tp2072
I5
s(I8
S'ATC'
p2073
tp2074
I105
s(I43
S'TGA'
p2075
tp2076
I2
s(I64
S'ACT'
p2077
tp2078
I1858
s(I15
S'TTC'
p2079
tp2080
I36
s(I71
S'TAA'
p2081
tp2082
I1
s(I15
S'GCT'
p2083
tp2084
I101
s(I63
S'CAA'
p2085
tp2086
I32
s(I68
S'CAA'
p2087
tp2088
I141
s(I15
S'TCC'
p2089
tp2090
I1
s(I52
S'AAG'
p2091
tp2092
I16
s(I19
S'TAT'
p2093
tp2094
I75
s(I57
S'ACA'
p2095
tp2096
I15
s(I31
S'TGA'
p2097
tp2098
I5
s(I49
S'TGC'
p2099
tp2100
I48
s(I27
S'TAT'
p2101
tp2102
I90
s(I18
S'GCA'
p2103
tp2104
I77
s(I28
S'ATA'
p2105
tp2106
I13
s(I21
S'GCT'
p2107
tp2108
I27
s(I7
S'AGT'
p2109
tp2110
I156
s(I28
S'TTG'
p2111
tp2112
I142
s(I59
S'TGC'
p2113
tp2114
I1212
s(I13
S'CGT'
p2115
tp2116
I306
s(I60
S'GCA'
p2117
tp2118
I371
s(I25
S'CTA'
p2119
tp2120
I159
s(I64
S'AGC'
p2121
tp2122
I3035
s(I76
S'CCT'
p2123
tp2124
I1
s(I34
S'ATC'
p2125
tp2126
I4
s(I21
S'GTT'
p2127
tp2128
I60
s(I49
S'GTG'
p2129
tp2130
I3
s(I15
S'GGA'
p2131
tp2132
I1
s(I12
S'TCG'
p2133
tp2134
I5
s(I75
S'TAC'
p2135
tp2136
I1
s(I53
S'ACG'
p2137
tp2138
I5
s(I36
S'GAG'
p2139
tp2140
I1
s(I67
S'CGC'
p2141
tp2142
I4
s(I45
S'TCA'
p2143
tp2144
I5912
s(I71
S'CCC'
p2145
tp2146
I7
s(I19
S'TCA'
p2147
tp2148
I6
s(I49
S'GCG'
p2149
tp2150
I4053
s(I5
S'TAT'
p2151
tp2152
I14
s(I39
S'CAA'
p2153
tp2154
I2
s(I44
S'CAA'
p2155
tp2156
I4
s(I49
S'ACC'
p2157
tp2158
I10
s(I74
S'GCG'
p2159
tp2160
I2
s(I40
S'ATC'
p2161
tp2162
I36
s(I23
S'CGG'
p2163
tp2164
I1
s(I65
S'CGA'
p2165
tp2166
I279
s(I62
S'CGC'
p2167
tp2168
I1
s(I54
S'GTG'
p2169
tp2170
I2
s(I19
S'GGT'
p2171
tp2172
I506
s(I61
S'TGT'
p2173
tp2174
I34
s(I31
S'GAT'
p2175
tp2176
I20
s(I36
S'ATA'
p2177
tp2178
I19
s(I4
S'TTG'
p2179
tp2180
I6
s(I44
S'AGT'
p2181
tp2182
I7
s(I40
S'CCC'
p2183
tp2184
I1
s(I9
S'GCC'
p2185
tp2186
I108
s(I10
S'TGT'
p2187
tp2188
I4
s(I13
S'TTA'
p2189
tp2190
I12
s(I48
S'ATG'
p2191
tp2192
I6
s(I18
S'GGA'
p2193
tp2194
I160
s(I35
S'CGA'
p2195
tp2196
I3
s(I27
S'GTG'
p2197
tp2198
I5
s(I33
S'CGA'
p2199
tp2200
I3
s(I38
S'GCC'
p2201
tp2202
I12
s(I75
S'GTT'
p2203
tp2204
I1
s(I9
S'ATA'
p2205
tp2206
I922
s(I73
S'GTC'
p2207
tp2208
I1816
s(I52
S'GGC'
p2209
tp2210
I8
s(I12
S'ACA'
p2211
tp2212
I8
s(I24
S'AGC'
p2213
tp2214
I24
s(I22
S'CGG'
p2215
tp2216
I22
s(I17
S'TAT'
p2217
tp2218
I12
s(I8
S'CCC'
p2219
tp2220
I2
s(I30
S'TCC'
p2221
tp2222
I2
s(I43
S'GCG'
p2223
tp2224
I1
s(I53
S'TCG'
p2225
tp2226
I35
s(I32
S'CTT'
p2227
tp2228
I55
s(I19
S'GAC'
p2229
tp2230
I154
s(I68
S'GCG'
p2231
tp2232
I201
s(I24
S'TGC'
p2233
tp2234
I12
s(I30
S'ATA'
p2235
tp2236
I17
s(I28
S'CAG'
p2237
tp2238
I74
s(I19
S'AAG'
p2239
tp2240
I103
s(I40
S'TCC'
p2241
tp2242
I23
s(I62
S'TGA'
p2243
tp2244
I1
s(I63
S'TAT'
p2245
tp2246
I75
s(I30
S'CCT'
p2247
tp2248
I1
s(I23
S'ATT'
p2249
tp2250
I34
s(I64
S'GGT'
p2251
tp2252
I319
s(I58
S'TGG'
p2253
tp2254
I92
s(I66
S'AAC'
p2255
tp2256
I36
s(I71
S'TAT'
p2257
tp2258
I3
s(I68
S'TGT'
p2259
tp2260
I51
s(I6
S'CCA'
p2261
tp2262
I1
s(I7
S'TGT'
p2263
tp2264
I52
s(I72
S'GCA'
p2265
tp2266
I33
s(I67
S'CCC'
p2267
tp2268
I11
s(I12
S'AAC'
p2269
tp2270
I3
s(I69
S'CGG'
p2271
tp2272
I3
s(I36
S'GAC'
p2273
tp2274
I2
s(I68
S'GCC'
p2275
tp2276
I21
s(I74
S'TCG'
p2277
tp2278
I6
s(I19
S'TAC'
p2279
tp2280
I34
s(I18
S'CCC'
p2281
tp2282
I19
s(I44
S'GTC'
p2283
tp2284
I27
s(I58
S'GGG'
p2285
tp2286
I2
s(I32
S'GGT'
p2287
tp2288
I111
s(I27
S'TAC'
p2289
tp2290
I33
s(I9
S'GGT'
p2291
tp2292
I925
s(I66
S'GGG'
p2293
tp2294
I185
s(I72
S'GTA'
p2295
tp2296
I8
s(I64
S'CGG'
p2297
tp2298
I31
s(I65
S'AGT'
p2299
tp2300
I25
s(I37
S'CGG'
p2301
tp2302
I7
s(I64
S'TCT'
p2303
tp2304
I6676
s(I13
S'CGA'
p2305
tp2306
I106
s(I53
S'GAC'
p2307
tp2308
I12
s(I6
S'TTA'
p2309
tp2310
I79
s(I18
S'TCT'
p2311
tp2312
I25
s(I58
S'CAT'
p2313
tp2314
I4
s(I4
S'CAG'
p2315
tp2316
I2
s(I21
S'ATG'
p2317
tp2318
I123
s(I70
S'CGT'
p2319
tp2320
I3
s(I32
S'CGG'
p2321
tp2322
I37
s(I21
S'CTC'
p2323
tp2324
I2
s(I21
S'CTG'
p2325
tp2326
I24
s(I5
S'GGA'
p2327
tp2328
I3
s(I47
S'TCT'
p2329
tp2330
I744
s(I54
S'GAT'
p2331
tp2332
I164
s(I15
S'ATG'
p2333
tp2334
I95
s(I37
S'GCC'
p2335
tp2336
I2
s(I63
S'GGT'
p2337
tp2338
I15
s(I26
S'TTC'
p2339
tp2340
I1
s(I60
S'AGC'
p2341
tp2342
I6
s(I66
S'CTG'
p2343
tp2344
I3583
s(I49
S'TTG'
p2345
tp2346
I17
s(I12
S'CTT'
p2347
tp2348
I1
s(I23
S'CCA'
p2349
tp2350
I2
s(I17
S'CTT'
p2351
tp2352
I46
s(I6
S'TGG'
p2353
tp2354
I67
s(I5
S'TGA'
p2355
tp2356
I150
s(I71
S'CCA'
p2357
tp2358
I3
s(I62
S'GCG'
p2359
tp2360
I409
s(I19
S'GGA'
p2361
tp2362
I28
s(I53
S'TTC'
p2363
tp2364
I16
s(I5
S'GCT'
p2365
tp2366
I1
s(I19
S'AGG'
p2367
tp2368
I2
s(I61
S'TGC'
p2369
tp2370
I5
s(I14
S'AAT'
p2371
tp2372
I2
s(I32
S'TAT'
p2373
tp2374
I1
s(I35
S'GTC'
p2375
tp2376
I117
s(I67
S'GGC'
p2377
tp2378
I1121
s(I21
S'GGC'
p2379
tp2380
I10
s(I53
S'GTA'
p2381
tp2382
I7
s(I40
S'TAT'
p2383
tp2384
I21
s(I18
S'AAA'
p2385
tp2386
I57
s(I20
S'GAT'
p2387
tp2388
I16
s(I11
S'ACT'
p2389
tp2390
I370
s(I69
S'GGA'
p2391
tp2392
I750
s(I72
S'TGT'
p2393
tp2394
I2
s(I43
S'TTC'
p2395
tp2396
I16
s(I57
S'TGG'
p2397
tp2398
I28
s(I28
S'TCA'
p2399
tp2400
I96
s(I20
S'TTT'
p2401
tp2402
I111
s(I14
S'TTG'
p2403
tp2404
I1
s(I71
S'CTT'
p2405
tp2406
I37
s(I21
S'TGG'
p2407
tp2408
I62
s(I36
S'TCG'
p2409
tp2410
I7
s(I32
S'GGA'
p2411
tp2412
I25
s(I51
S'GCC'
p2413
tp2414
I19
s(I63
S'CGC'
p2415
tp2416
I41
s(I27
S'TCA'
p2417
tp2418
I1
s(I17
S'TCG'
p2419
tp2420
I123
s(I25
S'TTG'
p2421
tp2422
I40
s(I45
S'GAT'
p2423
tp2424
I1
s(I22
S'CAT'
p2425
tp2426
I80
s(I60
S'GGG'
p2427
tp2428
I69
s(I32
S'CTA'
p2429
tp2430
I80
s(I24
S'CCA'
p2431
tp2432
I42
s(I57
S'CTG'
p2433
tp2434
I82
s(I10
S'GGG'
p2435
tp2436
I49
s(I48
S'TCG'
p2437
tp2438
I3
s(I40
S'TTC'
p2439
tp2440
I15
s(I66
S'AGC'
p2441
tp2442
I39
s(I54
S'TCC'
p2443
tp2444
I305
s(I18
S'GGG'
p2445
tp2446
I17
s(I4
S'TAA'
p2447
tp2448
I2
s(I56
S'GGC'
p2449
tp2450
I25
s(I17
S'AGT'
p2451
tp2452
I311
s(I52
S'CGG'
p2453
tp2454
I2
s(I36
S'TGT'
p2455
tp2456
I411
s(I58
S'TTT'
p2457
tp2458
I42
s(I64
S'GGC'
p2459
tp2460
I25726
s(I7
S'TCC'
p2461
tp2462
I38
s(I9
S'CGG'
p2463
tp2464
I52
s(I38
S'TCC'
p2465
tp2466
I26
s(I72
S'ATG'
p2467
tp2468
I1
s(I19
S'GTG'
p2469
tp2470
I1
s(I38
S'AAC'
p2471
tp2472
I87
s(I19
S'ACA'
p2473
tp2474
I97
s(I44
S'TAG'
p2475
tp2476
I2
s(I18
S'TGA'
p2477
tp2478
I1
s(I69
S'TAA'
p2479
tp2480
I2
s(I24
S'TGT'
p2481
tp2482
I13
s(I66
S'GTC'
p2483
tp2484
I19
s(I42
S'CGT'
p2485
tp2486
I167
s(I20
S'CGG'
p2487
tp2488
I79
s(I22
S'CCC'
p2489
tp2490
I57
s(I59
S'ACC'
p2491
tp2492
I2
s(I32
S'GGC'
p2493
tp2494
I140
s(I54
S'CAA'
p2495
tp2496
I10
s(I48
S'GCC'
p2497
tp2498
I4
s(I19
S'ACG'
p2499
tp2500
I38
s(I29
S'GCT'
p2501
tp2502
I7
s(I40
S'TGC'
p2503
tp2504
I6
s(I25
S'TAT'
p2505
tp2506
I174
s(I28
S'ACG'
p2507
tp2508
I125
s(I18
S'CTG'
p2509
tp2510
I158
s(I54
S'AGG'
p2511
tp2512
I74
s(I26
S'TGC'
p2513
tp2514
I31
s(I11
S'CAC'
p2515
tp2516
I11
s(I69
S'CGC'
p2517
tp2518
I3
s(I14
S'CCT'
p2519
tp2520
I1
s(I16
S'CAC'
p2521
tp2522
I94
s(I12
S'CCT'
p2523
tp2524
I63
s(I53
S'CAC'
p2525
tp2526
I191
s(I47
S'AGT'
p2527
tp2528
I427
s(I10
S'AAT'
p2529
tp2530
I3
s(I27
S'CAC'
p2531
tp2532
I58
s(I20
S'GCC'
p2533
tp2534
I148
s(I40
S'CTT'
p2535
tp2536
I54
s(I36
S'TGC'
p2537
tp2538
I214
s(I16
S'TAC'
p2539
tp2540
I23
s(I70
S'AGT'
p2541
tp2542
I4
s(I54
S'GAC'
p2543
tp2544
I72
s(I65
S'CCC'
p2545
tp2546
I59
s(I14
S'TCC'
p2547
tp2548
I11
s(I37
S'TCA'
p2549
tp2550
I162
s(I63
S'AGG'
p2551
tp2552
I23
s(I33
S'TGC'
p2553
tp2554
I198
s(I74
S'TCT'
p2555
tp2556
I1
s(I36
S'GGG'
p2557
tp2558
I2
s(I60
S'ACT'
p2559
tp2560
I47
s(I18
S'CGG'
p2561
tp2562
I12
s(I44
S'TGT'
p2563
tp2564
I925
s(I70
S'TCG'
p2565
tp2566
I16
s(I9
S'GAT'
p2567
tp2568
I579
s(I69
S'CCG'
p2569
tp2570
I38
s(I70
S'CAC'
p2571
tp2572
I2
s(I36
S'GTC'
p2573
tp2574
I193
s(I73
S'ATC'
p2575
tp2576
I8830
s(I8
S'AAT'
p2577
tp2578
I2
s(I53
S'CAA'
p2579
tp2580
I47
s(I7
S'GTT'
p2581
tp2582
I42
s(I41
S'AGA'
p2583
tp2584
I2
s(I75
S'ATC'
p2585
tp2586
I1
s(I42
S'TTG'
p2587
tp2588
I27
s(I57
S'TAG'
p2589
tp2590
I1
s(I52
S'ATG'
p2591
tp2592
I3
s(I27
S'TGT'
p2593
tp2594
I26
s(I8
S'GTT'
p2595
tp2596
I307
s(I6
S'GTC'
p2597
tp2598
I1098
s(I3
S'CTG'
p2599
tp2600
I50
s(I29
S'CAC'
p2601
tp2602
I5
s(I4
S'CTA'
p2603
tp2604
I27
s(I43
S'TTT'
p2605
tp2606
I6
s(I25
S'GTA'
p2607
tp2608
I20
s(I9
S'CTG'
p2609
tp2610
I15
s(I60
S'TAC'
p2611
tp2612
I2
s(I5
S'CCT'
p2613
tp2614
I1
s(I72
S'TTC'
p2615
tp2616
I885
s(I39
S'ACC'
p2617
tp2618
I9
s(I20
S'GGT'
p2619
tp2620
I78
s(I39
S'GCG'
p2621
tp2622
I7
s(I55
S'CCT'
p2623
tp2624
I4
s(I49
S'CTA'
p2625
tp2626
I3
s(I69
S'GTA'
p2627
tp2628
I3
s(I39
S'AGG'
p2629
tp2630
I2
s(I34
S'ACG'
p2631
tp2632
I6
s(I71
S'GTA'
p2633
tp2634
I1
s(I11
S'TAT'
p2635
tp2636
I9
s(I68
S'TGA'
p2637
tp2638
I1
s(I73
S'GGA'
p2639
tp2640
I3
s(I50
S'GCC'
p2641
tp2642
I4
s(I40
S'GCT'
p2643
tp2644
I3
s(I9
S'CCA'
p2645
tp2646
I3530
s(I15
S'TTT'
p2647
tp2648
I331
s(I43
S'CTC'
p2649
tp2650
I130
s(I42
S'GAT'
p2651
tp2652
I22
s(I54
S'GGG'
p2653
tp2654
I125
s(I63
S'CTC'
p2655
tp2656
I8
s(I55
S'CAA'
p2657
tp2658
I38
s(I28
S'GCA'
p2659
tp2660
I49
s(I76
S'CGT'
p2661
tp2662
I1
s(I28
S'GGT'
p2663
tp2664
I1
s(I20
S'AAA'
p2665
tp2666
I142
s(I6
S'CAT'
p2667
tp2668
I374
s(I17
S'GGG'
p2669
tp2670
I25
s(I35
S'TCG'
p2671
tp2672
I16
s(I66
S'ATG'
p2673
tp2674
I308
s(I43
S'ATG'
p2675
tp2676
I2
s(I23
S'TTC'
p2677
tp2678
I39
s(I29
S'GAG'
p2679
tp2680
I67
s(I69
S'ATG'
p2681
tp2682
I154
s(I35
S'TGC'
p2683
tp2684
I93
s(I11
S'AGC'
p2685
tp2686
I263
s(I59
S'ACT'
p2687
tp2688
I1
s(I17
S'CGA'
p2689
tp2690
I2
s(I45
S'TAC'
p2691
tp2692
I1
s(I13
S'GAG'
p2693
tp2694
I198
s(I19
S'TGC'
p2695
tp2696
I1
s(I36
S'TCC'
p2697
tp2698
I5
s(I65
S'ATC'
p2699
tp2700
I47
s(I52
S'TTG'
p2701
tp2702
I15
s(I53
S'CGC'
p2703
tp2704
I4
s(I75
S'TTC'
p2705
tp2706
I1
s(I11
S'CAT'
p2707
tp2708
I9
s(I62
S'TCG'
p2709
tp2710
I871
s(I10
S'GAC'
p2711
tp2712
I12
s(I6
S'CGG'
p2713
tp2714
I33
s(I57
S'GAT'
p2715
tp2716
I146
s(I71
S'ATT'
p2717
tp2718
I7
s(I71
S'TTG'
p2719
tp2720
I109
s(I22
S'GGG'
p2721
tp2722
I43
s(I15
S'CTG'
p2723
tp2724
I172
s(I6
S'GCC'
p2725
tp2726
I119
s(I9
S'TAG'
p2727
tp2728
I1
s(I55
S'TCA'
p2729
tp2730
I5
s(I30
S'GAG'
p2731
tp2732
I1
s(I72
S'TCG'
p2733
tp2734
I21
s(I17
S'TAG'
p2735
tp2736
I1
s(I45
S'GCC'
p2737
tp2738
I3071
s(I20
S'CAA'
p2739
tp2740
I28
s(I73
S'ACA'
p2741
tp2742
I3
s(I51
S'CCA'
p2743
tp2744
I37
s(I36
S'AGT'
p2745
tp2746
I2
s(I28
S'ATC'
p2747
tp2748
I2
s(I2
S'GCA'
p2749
tp2750
I7
s(I46
S'CAA'
p2751
tp2752
I226
s(I57
S'ATG'
p2753
tp2754
I163
s(I76
S'TCC'
p2755
tp2756
I1
s(I35
S'ATA'
p2757
tp2758
I54
s(I24
S'GAT'
p2759
tp2760
I19
s(I60
S'ATC'
p2761
tp2762
I44
s(I7
S'GTC'
p2763
tp2764
I98
s(I6
S'ATT'
p2765
tp2766
I6534
s(I29
S'CGT'
p2767
tp2768
I64
s(I13
S'CAC'
p2769
tp2770
I30
s(I5
S'GCG'
p2771
tp2772
I1
s(I18
S'CAC'
p2773
tp2774
I184
s(I75
S'GCC'
p2775
tp2776
I2
s(I4
S'CAC'
p2777
tp2778
I6
s(I73
S'CTT'
p2779
tp2780
I197
s(I41
S'CAG'
p2781
tp2782
I16
s(I75
S'CGT'
p2783
tp2784
I4
s(I22
S'ACG'
p2785
tp2786
I148
s(I46
S'ATG'
p2787
tp2788
I41
s(I46
S'TAT'
p2789
tp2790
I10803
s(I22
S'GCG'
p2791
tp2792
I36
s(I56
S'ATG'
p2793
tp2794
I1
s(I45
S'ACA'
p2795
tp2796
I2693
s(I38
S'TGC'
p2797
tp2798
I5
s(I54
S'TAT'
p2799
tp2800
I32
s(I7
S'GCC'
p2801
tp2802
I285
s(I9
S'GGA'
p2803
tp2804
I321
s(I17
S'ACC'
p2805
tp2806
I218
s(I32
S'GTT'
p2807
tp2808
I32
s(I48
S'CGT'
p2809
tp2810
I3
s(I11
S'TAG'
p2811
tp2812
I2
s(I32
S'TGC'
p2813
tp2814
I22
s(I73
S'TCC'
p2815
tp2816
I1
s(I20
S'CAG'
p2817
tp2818
I132
s(I22
S'GTG'
p2819
tp2820
I64
s(I73
S'AAT'
p2821
tp2822
I3
s(I52
S'CTG'
p2823
tp2824
I1
s(I62
S'TAG'
p2825
tp2826
I12
s(I16
S'CGG'
p2827
tp2828
I11
s(I72
S'ACG'
p2829
tp2830
I97
s(I70
S'TAG'
p2831
tp2832
I218
s(I64
S'CAC'
p2833
tp2834
I69
s(I17
S'TGT'
p2835
tp2836
I156
s(I37
S'GAT'
p2837
tp2838
I149
s(I42
S'TGT'
p2839
tp2840
I559
s(I61
S'TTG'
p2841
tp2842
I1374
s(I65
S'ACG'
p2843
tp2844
I177
s(I72
S'GGA'
p2845
tp2846
I186
s(I52
S'TCC'
p2847
tp2848
I9
s(I65
S'GCG'
p2849
tp2850
I76
s(I69
S'GAG'
p2851
tp2852
I15
s(I76
S'CGC'
p2853
tp2854
I3
s(I24
S'ACC'
p2855
tp2856
I86
s(I24
S'TCT'
p2857
tp2858
I30
s(I39
S'CTA'
p2859
tp2860
I7
s(I47
S'GAG'
p2861
tp2862
I1
s(I17
S'CAG'
p2863
tp2864
I19
s(I76
S'ACC'
p2865
tp2866
I1
s(I65
S'TTA'
p2867
tp2868
I21
s(I36
S'GTA'
p2869
tp2870
I27
s(I16
S'AGT'
p2871
tp2872
I8
s(I57
S'CCT'
p2873
tp2874
I52
s(I57
S'AGT'
p2875
tp2876
I74
s(I24
S'CTC'
p2877
tp2878
I3
s(I37
S'ATG'
p2879
tp2880
I75
s(I5
S'GAC'
p2881
tp2882
I6
s(I60
S'GAG'
p2883
tp2884
I34
s(I16
S'ATT'
p2885
tp2886
I32
s(I4
S'GAT'
p2887
tp2888
I1
s(I63
S'ATG'
p2889
tp2890
I26
s(I17
S'TAA'
p2891
tp2892
I57
s(I50
S'GGC'
p2893
tp2894
I1
s(I75
S'CAA'
p2895
tp2896
I8
s(I27
S'GCG'
p2897
tp2898
I29
s(I60
S'CGA'
p2899
tp2900
I93
s(I73
S'GAA'
p2901
tp2902
I5
s(I59
S'ATC'
p2903
tp2904
I32
s(I62
S'GGG'
p2905
tp2906
I648
s(I55
S'TTC'
p2907
tp2908
I23
s(I39
S'GGA'
p2909
tp2910
I3
s(I21
S'GAC'
p2911
tp2912
I38
s(I57
S'GAA'
p2913
tp2914
I44
s(I30
S'GCA'
p2915
tp2916
I6
s(I29
S'TGA'
p2917
tp2918
I41
s(I51
S'TTT'
p2919
tp2920
I1
s(I32
S'GAG'
p2921
tp2922
I12
s(I35
S'CCC'
p2923
tp2924
I170
s(I56
S'ACA'
p2925
tp2926
I9
s(I56
S'GCA'
p2927
tp2928
I2
s(I54
S'CTT'
p2929
tp2930
I25
s(I3
S'TTC'
p2931
tp2932
I6
s(I41
S'GCA'
p2933
tp2934
I129
s(I51
S'CCT'
p2935
tp2936
I34
s(I29
S'GGG'
p2937
tp2938
I18
s(I17
S'ATA'
p2939
tp2940
I77
s(I33
S'AGT'
p2941
tp2942
I1
s(I32
S'TCA'
p2943
tp2944
I194
s(I73
S'TTG'
p2945
tp2946
I314
s(I75
S'GTG'
p2947
tp2948
I1207
s(I15
S'GTG'
p2949
tp2950
I3
s(I56
S'GTA'
p2951
tp2952
I67
s(I22
S'CTC'
p2953
tp2954
I532
s(I7
S'GAT'
p2955
tp2956
I20
s(I55
S'AAA'
p2957
tp2958
I23
s(I60
S'ATT'
p2959
tp2960
I78
s(I51
S'GGG'
p2961
tp2962
I1
s(I48
S'GAG'
p2963
tp2964
I2
s(I6
S'ATA'
p2965
tp2966
I6199
s(I5
S'ATC'
p2967
tp2968
I76
s(I17
S'CCA'
p2969
tp2970
I6
s(I29
S'GTA'
p2971
tp2972
I42
s(I67
S'ATC'
p2973
tp2974
I57
s(I40
S'ACC'
p2975
tp2976
I9
s(I13
S'GAC'
p2977
tp2978
I6
s(I41
S'AAG'
p2979
tp2980
I2
s(I15
S'GCG'
p2981
tp2982
I53
s(I46
S'TAA'
p2983
tp2984
I2
s(I15
S'ACG'
p2985
tp2986
I2
s(I7
S'ATA'
p2987
tp2988
I3
s(I54
S'TAA'
p2989
tp2990
I5
s(I21
S'CTT'
p2991
tp2992
I46
s(I63
S'TGT'
p2993
tp2994
I49
s(I27
S'ATG'
p2995
tp2996
I39
s(I34
S'CTG'
p2997
tp2998
I2
s(I5
S'CTT'
p2999
tp3000
I130
s(I11
S'CCC'
p3001
tp3002
I4
s(I18
S'TTC'
p3003
tp3004
I323
s(I65
S'CAA'
p3005
tp3006
I469
s(I59
S'AGC'
p3007
tp3008
I722
s(I32
S'CAC'
p3009
tp3010
I69
s(I21
S'GCC'
p3011
tp3012
I98
s(I52
S'CCC'
p3013
tp3014
I12
s(I28
S'TTT'
p3015
tp3016
I10
s(I16
S'TGA'
p3017
tp3018
I1
s(I62
S'ATC'
p3019
tp3020
I93
s(I69
S'GGT'
p3021
tp3022
I244
s(I39
S'CCA'
p3023
tp3024
I1
s(I63
S'ACC'
p3025
tp3026
I23
s(I47
S'CAT'
p3027
tp3028
I1
s(I22
S'TTC'
p3029
tp3030
I115
s(I33
S'ATT'
p3031
tp3032
I33
s(I9
S'AGT'
p3033
tp3034
I30
s(I21
S'GTA'
p3035
tp3036
I44
s(I68
S'AGA'
p3037
tp3038
I11
s(I38
S'GCT'
p3039
tp3040
I92
s(I15
S'GGT'
p3041
tp3042
I12
s(I74
S'GTT'
p3043
tp3044
I1
s(I27
S'TTT'
p3045
tp3046
I1
s(I39
S'GAC'
p3047
tp3048
I7
s(I37
S'GTA'
p3049
tp3050
I176
s(I57
S'GGC'
p3051
tp3052
I1
s(I52
S'AGA'
p3053
tp3054
I3
s(I28
S'TGA'
p3055
tp3056
I5
s(I63
S'CAG'
p3057
tp3058
I53
s(I68
S'CAG'
p3059
tp3060
I681
s(I39
S'CTT'
p3061
tp3062
I5
s(I51
S'TAG'
p3063
tp3064
I8
s(I47
S'AAG'
p3065
tp3066
I2
s(I44
S'CTT'
p3067
tp3068
I2878
s(I23
S'GAC'
p3069
tp3070
I9
s(I48
S'TTT'
p3071
tp3072
I1
s(I45
S'ATC'
p3073
tp3074
I2368
s(I5
S'TCA'
p3075
tp3076
I1
s(I23
S'GTT'
p3077
tp3078
I85
s(I32
S'TGT'
p3079
tp3080
I140
s(I74
S'GCT'
p3081
tp3082
I1
s(I18
S'GCG'
p3083
tp3084
I48
s(I30
S'ACG'
p3085
tp3086
I1
s(I34
S'CAT'
p3087
tp3088
I1
s(I46
S'GGA'
p3089
tp3090
I142
s(I24
S'TGA'
p3091
tp3092
I5
s(I46
S'AGG'
p3093
tp3094
I40
s(I34
S'TGC'
p3095
tp3096
I4
s(I59
S'TAT'
p3097
tp3098
I13
s(I54
S'GGA'
p3099
tp3100
I70
s(I35
S'GCC'
p3101
tp3102
I9
s(I60
S'TGC'
p3103
tp3104
I5
s(I67
S'TAT'
p3105
tp3106
I9
s(I36
S'ATT'
p3107
tp3108
I54
s(I7
S'AAC'
p3109
tp3110
I12
s(I24
S'CAG'
p3111
tp3112
I33
s(I6
S'GAA'
p3113
tp3114
I72
s(I6
S'GCT'
p3115
tp3116
I271
s(I24
S'GTC'
p3117
tp3118
I62
s(I3
S'AGA'
p3119
tp3120
I3
s(I46
S'TGG'
p3121
tp3122
I102
s(I35
S'CGT'
p3123
tp3124
I508
s(I19
S'AGC'
p3125
tp3126
I102
s(I13
S'ACG'
p3127
tp3128
I5
s(I56
S'TGG'
p3129
tp3130
I1
s(I64
S'AAG'
p3131
tp3132
I12
s(I62
S'AGT'
p3133
tp3134
I1289
s(I76
S'TGA'
p3135
tp3136
I1
s(I61
S'GAC'
p3137
tp3138
I3
s(I54
S'ACA'
p3139
tp3140
I20
s(I74
S'CGC'
p3141
tp3142
I1
s(I27
S'ATC'
p3143
tp3144
I4
s(I66
S'GTT'
p3145
tp3146
I64
s(I19
S'TCG'
p3147
tp3148
I72
s(I28
S'AGA'
p3149
tp3150
I44
s(I56
S'ACT'
p3151
tp3152
I2
s(I13
S'CCT'
p3153
tp3154
I1
s(I22
S'TCT'
p3155
tp3156
I6
s(I56
S'GCT'
p3157
tp3158
I8
s(I75
S'ATT'
p3159
tp3160
I2
s(I54
S'CTA'
p3161
tp3162
I16
s(I67
S'GTC'
p3163
tp3164
I99
s(I67
S'CAC'
p3165
tp3166
I2
s(I59
S'CTC'
p3167
tp3168
I224
s(I35
S'GAA'
p3169
tp3170
I3
s(I63
S'CGA'
p3171
tp3172
I8
s(I61
S'CGA'
p3173
tp3174
I2
s(I71
S'TGA'
p3175
tp3176
I4
s(I66
S'GCT'
p3177
tp3178
I3
s(I38
S'CGC'
p3179
tp3180
I64
s(I38
S'GAC'
p3181
tp3182
I19
s(I16
S'GAC'
p3183
tp3184
I80
s(I66
S'ACT'
p3185
tp3186
I10
s(I28
S'CAT'
p3187
tp3188
I32
s(I22
S'AGG'
p3189
tp3190
I172
s(I33
S'TCT'
p3191
tp3192
I36
s(I41
S'AAT'
p3193
tp3194
I27
s(I28
S'ATT'
p3195
tp3196
I8
s(I27
S'GTA'
p3197
tp3198
I2
s(I16
S'CCT'
p3199
tp3200
I177
s(I24
S'ATC'
p3201
tp3202
I9
s(I34
S'AAG'
p3203
tp3204
I4
s(I68
S'TGC'
p3205
tp3206
I164
s(I55
S'ACT'
p3207
tp3208
I13
s(I46
S'GTC'
p3209
tp3210
I418
s(I63
S'CGT'
p3211
tp3212
I97
s(I38
S'AGT'
p3213
tp3214
I5
s(I69
S'TCT'
p3215
tp3216
I146
s(I47
S'CGG'
p3217
tp3218
I3
s(I48
S'CAG'
p3219
tp3220
I5
s(I33
S'CCC'
p3221
tp3222
I1
s(I72
S'CAA'
p3223
tp3224
I157
s(I59
S'GGC'
p3225
tp3226
I1
s(I49
S'CCT'
p3227
tp3228
I3
s(I69
S'ACT'
p3229
tp3230
I49
s(I22
S'TAC'
p3231
tp3232
I175
s(I17
S'GAC'
p3233
tp3234
I1
s(I58
S'GGT'
p3235
tp3236
I2
s(I9
S'CAT'
p3237
tp3238
I140
s(I70
S'GAC'
p3239
tp3240
I3
s(I45
S'ACG'
p3241
tp3242
I672
s(I47
S'TAA'
p3243
tp3244
I3
s(I9
S'GGC'
p3245
tp3246
I879
s(I37
S'ACA'
p3247
tp3248
I36
s(I72
S'GTT'
p3249
tp3250
I28
s(I13
S'TGC'
p3251
tp3252
I127
s(I65
S'AGG'
p3253
tp3254
I184
s(I23
S'CTA'
p3255
tp3256
I71
s(I13
S'TAG'
p3257
tp3258
I38
s(I47
S'CAA'
p3259
tp3260
I54
s(I44
S'TGC'
p3261
tp3262
I871
s(I67
S'GAG'
p3263
tp3264
I6
s(I52
S'CAA'
p3265
tp3266
I1
s(I8
S'TTC'
p3267
tp3268
I1
s(I18
S'TCG'
p3269
tp3270
I190
s(I18
S'ACA'
p3271
tp3272
I74
s(I60
S'TCT'
p3273
tp3274
I95
s(I20
S'ACT'
p3275
tp3276
I231
s(I2
S'ACA'
p3277
tp3278
I8
s(I51
S'GAG'
p3279
tp3280
I26
s(I55
S'AGC'
p3281
tp3282
I43
s(I74
S'GTA'
p3283
tp3284
I1
s(I15
S'AGG'
p3285
tp3286
I2
s(I52
S'AGT'
p3287
tp3288
I22
s(I36
S'CGT'
p3289
tp3290
I5
s(I74
S'AGG'
p3291
tp3292
I72
s(I21
S'TTA'
p3293
tp3294
I3
s(I63
S'GGG'
p3295
tp3296
I8
s(I73
S'CAT'
p3297
tp3298
I1
s(I71
S'GGG'
p3299
tp3300
I4
s(I33
S'GTC'
p3301
tp3302
I7
s(I17
S'CTA'
p3303
tp3304
I36
s(I51
S'AAG'
p3305
tp3306
I2
s(I22
S'ATT'
p3307
tp3308
I64
s(I37
S'CTA'
p3309
tp3310
I56
s(I33
S'GAC'
p3311
tp3312
I11
s(I42
S'CTC'
p3313
tp3314
I6
s(I34
S'CAC'
p3315
tp3316
I13
s(I64
S'CGA'
p3317
tp3318
I77
s(I18
S'GTT'
p3319
tp3320
I6
s(I57
S'CAG'
p3321
tp3322
I65
s(I25
S'CGC'
p3323
tp3324
I70
s(I75
S'AAA'
p3325
tp3326
I20
s(I64
S'GTT'
p3327
tp3328
I16
s(I13
S'CGG'
p3329
tp3330
I1
s(I14
S'AAA'
p3331
tp3332
I6
s(I13
S'CCG'
p3333
tp3334
I2
s(I49
S'GGT'
p3335
tp3336
I2
s(I6
S'CTA'
p3337
tp3338
I538
s(I39
S'GTG'
p3339
tp3340
I1
s(I12
S'ATC'
p3341
tp3342
I414
s(I7
S'TTG'
p3343
tp3344
I1
s(I40
S'TAG'
p3345
tp3346
I1
s(I57
S'CGG'
p3347
tp3348
I62
s(I31
S'CTC'
p3349
tp3350
I16
s(I34
S'GCC'
p3351
tp3352
I6
s(I32
S'CGA'
p3353
tp3354
I80
s(I37
S'TTG'
p3355
tp3356
I38
s(I62
S'AGC'
p3357
tp3358
I328
s(I54
S'ACT'
p3359
tp3360
I28
s(I20
S'TGA'
p3361
tp3362
I1
s(I75
S'GAA'
p3363
tp3364
I1
s(I38
S'GGT'
p3365
tp3366
I39
s(I66
S'ATT'
p3367
tp3368
I371
s(I37
S'TGT'
p3369
tp3370
I425
s(I61
S'CTC'
p3371
tp3372
I172
s(I28
S'AGT'
p3373
tp3374
I33
s(I9
S'CCC'
p3375
tp3376
I3389
s(I67
S'TGC'
p3377
tp3378
I109
s(I22
S'TCA'
p3379
tp3380
I543
s(I12
S'ATA'
p3381
tp3382
I17
s(I14
S'ACT'
p3383
tp3384
I50
s(I6
S'TGA'
p3385
tp3386
I7
s(I40
S'AGA'
p3387
tp3388
I78
s(I36
S'ACG'
p3389
tp3390
I5640
s(I68
S'GTC'
p3391
tp3392
I99
s(I45
S'GAG'
p3393
tp3394
I10
s(I9
S'TTT'
p3395
tp3396
I5
s(I4
S'GGA'
p3397
tp3398
I2
s(I60
S'CAG'
p3399
tp3400
I47
s(I10
S'CAC'
p3401
tp3402
I235
s(I57
S'CTT'
p3403
tp3404
I11
s(I55
S'CTA'
p3405
tp3406
I41
s(I28
S'GTA'
p3407
tp3408
I65
s(I18
S'AAT'
p3409
tp3410
I19
s(I33
S'CAG'
p3411
tp3412
I4
s(I33
S'TCC'
p3413
tp3414
I8
s(I53
S'GTG'
p3415
tp3416
I51
s(I44
S'GGC'
p3417
tp3418
I3
s(I8
S'TCG'
p3419
tp3420
I3
s(I43
S'TAT'
p3421
tp3422
I8
s(I7
S'TAA'
p3423
tp3424
I2
s(I27
S'GTT'
p3425
tp3426
I3
s(I69
S'TCG'
p3427
tp3428
I156
s(I66
S'AGT'
p3429
tp3430
I30
s(I72
S'TAT'
p3431
tp3432
I51
s(I10
S'GCT'
p3433
tp3434
I1
s(I59
S'AGA'
p3435
tp3436
I32
s(I50
S'AGT'
p3437
tp3438
I3
s(I39
S'TAG'
p3439
tp3440
I1
s(I40
S'GGG'
p3441
tp3442
I14
s(I28
S'ACC'
p3443
tp3444
I25
s(I8
S'TGC'
p3445
tp3446
I1
s(I38
S'AGC'
p3447
tp3448
I11
s(I4
S'TAT'
p3449
tp3450
I1
s(I72
S'CAT'
p3451
tp3452
I12
s(I38
S'TTC'
p3453
tp3454
I67
s(I46
S'TTG'
p3455
tp3456
I1
s(I31
S'ATC'
p3457
tp3458
I122
s(I27
S'TCG'
p3459
tp3460
I9
s(I27
S'AAC'
p3461
tp3462
I1
s(I25
S'TTA'
p3463
tp3464
I102
s(I60
S'GGA'
p3465
tp3466
I65
s(I29
S'GCC'
p3467
tp3468
I58
s(I67
S'CTG'
p3469
tp3470
I2
s(I16
S'AGA'
p3471
tp3472
I8
s(I16
S'GGG'
p3473
tp3474
I23
s(I57
S'TTG'
p3475
tp3476
I97
s(I31
S'TCC'
p3477
tp3478
I152
s(I51
S'AGC'
p3479
tp3480
I121
s(I48
S'CCA'
p3481
tp3482
I1
s(I11
S'TAC'
p3483
tp3484
I2
s(I40
S'CTG'
p3485
tp3486
I2
s(I75
S'GCA'
p3487
tp3488
I1
s(I45
S'CGT'
p3489
tp3490
I136
s(I61
S'TTC'
p3491
tp3492
I31
s(I70
S'TGC'
p3493
tp3494
I59
s(I19
S'GTA'
p3495
tp3496
I40
s(I44
S'TAA'
p3497
tp3498
I1
s(I45
S'GTA'
p3499
tp3500
I13794
s(I10
S'CGT'
p3501
tp3502
I21
s(I25
S'GAG'
p3503
tp3504
I44
s(I69
S'TGT'
p3505
tp3506
I746
s(I28
S'GAG'
p3507
tp3508
I269
s(I21
S'CGA'
p3509
tp3510
I4
s(I64
S'TGC'
p3511
tp3512
I548
s(I60
S'ACA'
p3513
tp3514
I53
s(I18
S'CGT'
p3515
tp3516
I44
s(I69
S'AAG'
p3517
tp3518
I3
s(I67
S'CGT'
p3519
tp3520
I16
s(I49
S'TCG'
p3521
tp3522
I961
s(I37
S'CTT'
p3523
tp3524
I2
s(I70
S'GGC'
p3525
tp3526
I4
s(I22
S'TTG'
p3527
tp3528
I26
s(I9
S'GAG'
p3529
tp3530
I9
s(I64
S'CGT'
p3531
tp3532
I24
s(I18
S'GTA'
p3533
tp3534
I153
s(I3
S'CTA'
p3535
tp3536
I36
s(I23
S'TGA'
p3537
tp3538
I6
s(I13
S'CTC'
p3539
tp3540
I1
s(I7
S'CAA'
p3541
tp3542
I66
s(I64
S'TCG'
p3543
tp3544
I5616
s(I52
S'TAC'
p3545
tp3546
I5
s(I37
S'GCG'
p3547
tp3548
I1
s(I60
S'GTA'
p3549
tp3550
I3
s(I50
S'ATG'
p3551
tp3552
I36
s(I11
S'TGG'
p3553
tp3554
I2
s(I65
S'TAT'
p3555
tp3556
I340
s(I57
S'CTC'
p3557
tp3558
I18
s(I32
S'CGT'
p3559
tp3560
I58
s(I35
S'TAG'
p3561
tp3562
I9
s(I68
S'TCC'
p3563
tp3564
I1005
s(I17
S'ATC'
p3565
tp3566
I175
s(I66
S'TTG'
p3567
tp3568
I4893
s(I44
S'ACC'
p3569
tp3570
I228
s(I35
S'AGT'
p3571
tp3572
I8
s(I11
S'CGC'
p3573
tp3574
I6
s(I62
S'TCC'
p3575
tp3576
I188
s(I26
S'TTG'
p3577
tp3578
I28
s(I67
S'CGA'
p3579
tp3580
I6
s(I62
S'AAT'
p3581
tp3582
I528
s(I25
S'AGT'
p3583
tp3584
I253
s(I11
S'GGA'
p3585
tp3586
I1022
s(I36
S'GGA'
p3587
tp3588
I4
s(I46
S'TCC'
p3589
tp3590
I424
s(I11
S'GTG'
p3591
tp3592
I23
s(I76
S'GAC'
p3593
tp3594
I5
s(I51
S'TGT'
p3595
tp3596
I196
s(I27
S'TTC'
p3597
tp3598
I19
s(I37
S'TCG'
p3599
tp3600
I443
s(I57
S'TCA'
p3601
tp3602
I26
s(I25
S'TCG'
p3603
tp3604
I8
s(I54
S'CGG'
p3605
tp3606
I105
s(I75
S'CAC'
p3607
tp3608
I1
s(I65
S'TGA'
p3609
tp3610
I1
s(I11
S'CGG'
p3611
tp3612
I3
s(I51
S'ACC'
p3613
tp3614
I152
s(I42
S'AAG'
p3615
tp3616
I6
s(I74
S'AAG'
p3617
tp3618
I3
s(I31
S'TTG'
p3619
tp3620
I11
s(I66
S'GAA'
p3621
tp3622
I133
s(I40
S'TCG'
p3623
tp3624
I62
s(I9
S'GTA'
p3625
tp3626
I122
s(I8
S'CGC'
p3627
tp3628
I3
s(I63
S'TTA'
p3629
tp3630
I21
s(I19
S'CAC'
p3631
tp3632
I35
s(I71
S'CAG'
p3633
tp3634
I3
s(I4
S'GAC'
p3635
tp3636
I1
s(I75
S'GGA'
p3637
tp3638
I29
s(I14
S'GCA'
p3639
tp3640
I12
s(I8
S'TGT'
p3641
tp3642
I2
s(I43
S'ATT'
p3643
tp3644
I176
s(I9
S'AAC'
p3645
tp3646
I58
s(I65
S'GGT'
p3647
tp3648
I676
s(I27
S'CTT'
p3649
tp3650
I3
s(I13
S'AAC'
p3651
tp3652
I2
s(I49
S'CTG'
p3653
tp3654
I2
s(I2
S'GGG'
p3655
tp3656
I1
s(I17
S'CGT'
p3657
tp3658
I2
s(I45
S'CAT'
p3659
tp3660
I1487
s(I15
S'TGT'
p3661
tp3662
I13
s(I48
S'GGC'
p3663
tp3664
I10
s(I25
S'GCA'
p3665
tp3666
I141
s(I58
S'CCC'
p3667
tp3668
I1
s(I70
S'AGG'
p3669
tp3670
I1
s(I64
S'TGA'
p3671
tp3672
I5
s(I73
S'GCT'
p3673
tp3674
I2
s(I73
S'GGG'
p3675
tp3676
I2
s(I52
S'TTT'
p3677
tp3678
I18
s(I38
S'ACG'
p3679
tp3680
I15
s(I77
S'TGG'
p3681
tp3682
I50
s(I28
S'TAG'
p3683
tp3684
I3
s(I14
S'GGC'
p3685
tp3686
I128
s(I9
S'CCG'
p3687
tp3688
I1373
s(I70
S'ACG'
p3689
tp3690
I2272
s(I3
S'GCC'
p3691
tp3692
I337
s(I64
S'TTA'
p3693
tp3694
I1
s(I6
S'CGT'
p3695
tp3696
I23
s(I55
S'CAG'
p3697
tp3698
I177
s(I6
S'TCT'
p3699
tp3700
I110
s(I52
S'CGT'
p3701
tp3702
I1
s(I73
S'TGC'
p3703
tp3704
I2
s(I45
S'CGA'
p3705
tp3706
I42
s(I22
S'GGT'
p3707
tp3708
I72
s(I19
S'GTT'
p3709
tp3710
I79
s(I42
S'ACA'
p3711
tp3712
I4
s(I66
S'ATA'
p3713
tp3714
I67
s(I62
S'GAT'
p3715
tp3716
I372
s(I4
S'AGT'
p3717
tp3718
I2
s(I44
S'ATG'
p3719
tp3720
I7648
s(I64
S'CCG'
p3721
tp3722
I16
s(I39
S'TTA'
p3723
tp3724
I3
s(I26
S'AGG'
p3725
tp3726
I1
s(I17
S'TCT'
p3727
tp3728
I47
s(I72
S'ATC'
p3729
tp3730
I3
s(I42
S'AAC'
p3731
tp3732
I64
s(I73
S'ACT'
p3733
tp3734
I3
s(I20
S'CGT'
p3735
tp3736
I61
s(I13
S'GAA'
p3737
tp3738
I115
s(I20
S'TGC'
p3739
tp3740
I16
s(I28
S'AAC'
p3741
tp3742
I29
s(I30
S'TGT'
p3743
tp3744
I713
s(I31
S'GCG'
p3745
tp3746
I250
s(I54
S'AAG'
p3747
tp3748
I25
s(I42
S'GTA'
p3749
tp3750
I108
s(I30
S'CCA'
p3751
tp3752
I3
s(I54
S'AGT'
p3753
tp3754
I143
s(I31
S'CGG'
p3755
tp3756
I7
s(I54
S'AAC'
p3757
tp3758
I12
s(I29
S'CGC'
p3759
tp3760
I40
s(I21
S'GAG'
p3761
tp3762
I55
s(I61
S'TGG'
p3763
tp3764
I4
s(I11
S'GAG'
p3765
tp3766
I188
s(I26
S'ACG'
p3767
tp3768
I16
s(I71
S'GAC'
p3769
tp3770
I4
s(I20
S'GGG'
p3771
tp3772
I10
s(I34
S'TCT'
p3773
tp3774
I2
s(I40
S'TTA'
p3775
tp3776
I372
s(I42
S'GCC'
p3777
tp3778
I1599
s(I31
S'CAG'
p3779
tp3780
I48
s(I68
S'TCT'
p3781
tp3782
I434
s(I26
S'CGG'
p3783
tp3784
I9
s(I54
S'CAC'
p3785
tp3786
I16
s(I51
S'TCT'
p3787
tp3788
I246
s(I55
S'GAC'
p3789
tp3790
I52
s(I2
S'CGA'
p3791
tp3792
I73
s(I15
S'CTA'
p3793
tp3794
I96
s(I59
S'TCA'
p3795
tp3796
I1300
s(I8
S'CTG'
p3797
tp3798
I80
s(I10
S'CCT'
p3799
tp3800
I2
s(I20
S'CAT'
p3801
tp3802
I183
s(I38
S'TAG'
p3803
tp3804
I96
s(I36
S'GGT'
p3805
tp3806
I5
s(I70
S'GTA'
p3807
tp3808
I1
s(I66
S'TGC'
p3809
tp3810
I30
s(I13
S'GGT'
p3811
tp3812
I5
s(I2
S'GCG'
p3813
tp3814
I1
s(I22
S'GAG'
p3815
tp3816
I31
s(I37
S'GAG'
p3817
tp3818
I729
s(I41
S'ACT'
p3819
tp3820
I259
s(I42
S'TGG'
p3821
tp3822
I46
s(I47
S'TCC'
p3823
tp3824
I841
s(I2
S'AGC'
p3825
tp3826
I2
s(I51
S'ACT'
p3827
tp3828
I156
s(I16
S'CTT'
p3829
tp3830
I13
s(I5
S'CGT'
p3831
tp3832
I6
s(I70
S'ATC'
p3833
tp3834
I4
s(I63
S'GTG'
p3835
tp3836
I10
s(I33
S'CTA'
p3837
tp3838
I4
s(I16
S'CTA'
p3839
tp3840
I66
s(I22
S'ACA'
p3841
tp3842
I9
s(I64
S'CAA'
p3843
tp3844
I3288
s(I53
S'GCA'
p3845
tp3846
I20
s(I63
S'CCT'
p3847
tp3848
I5
s(I58
S'CTC'
p3849
tp3850
I10
s(I45
S'AAA'
p3851
tp3852
I29
s(I34
S'GTT'
p3853
tp3854
I2
s(I42
S'GGG'
p3855
tp3856
I113
s(I61
S'ACT'
p3857
tp3858
I9
s(I5
S'TAA'
p3859
tp3860
I3
s(I41
S'ACG'
p3861
tp3862
I105
s(I59
S'ACG'
p3863
tp3864
I2
s(I57
S'AGG'
p3865
tp3866
I12
s(I22
S'CTA'
p3867
tp3868
I63
s(I69
S'TGG'
p3869
tp3870
I905
s(I48
S'AAT'
p3871
tp3872
I10
s(I27
S'CTC'
p3873
tp3874
I6
s(I55
S'CCC'
p3875
tp3876
I3
s(I41
S'CGG'
p3877
tp3878
I2
s(I47
S'CTC'
p3879
tp3880
I1
s(I63
S'ATT'
p3881
tp3882
I183
s(I19
S'CGT'
p3883
tp3884
I166
s(I52
S'CTA'
p3885
tp3886
I13
s(I16
S'CGA'
p3887
tp3888
I6
s(I53
S'GGA'
p3889
tp3890
I162
s(I34
S'ACT'
p3891
tp3892
I1
s(I61
S'AGC'
p3893
tp3894
I2
s(I33
S'GGA'
p3895
tp3896
I1
s(I65
S'ACA'
p3897
tp3898
I297
s(I12
S'GTT'
p3899
tp3900
I1
s(I62
S'TAA'
p3901
tp3902
I2
s(I43
S'TGG'
p3903
tp3904
I1
s(I21
S'TAC'
p3905
tp3906
I206
s(I48
S'GGG'
p3907
tp3908
I5
s(I26
S'ATC'
p3909
tp3910
I49
s(I29
S'TAC'
p3911
tp3912
I144
s(I24
S'TCA'
p3913
tp3914
I55
s(I58
S'GCA'
p3915
tp3916
I23
s(I17
S'CAA'
p3917
tp3918
I9
s(I42
S'AGT'
p3919
tp3920
I6
s(I25
S'CGA'
p3921
tp3922
I37
s(I67
S'AGT'
p3923
tp3924
I87
s(I21
S'CAC'
p3925
tp3926
I81
s(I26
S'CAC'
p3927
tp3928
I1
s(I65
S'GTC'
p3929
tp3930
I14
s(I72
S'AAG'
p3931
tp3932
I23
s(I19
S'GCG'
p3933
tp3934
I72
s(I14
S'ACG'
p3935
tp3936
I47
s(I11
S'AAG'
p3937
tp3938
I57
s(I37
S'ATA'
p3939
tp3940
I126
s(I3
S'GGA'
p3941
tp3942
I2
s(I45
S'TGC'
p3943
tp3944
I6201
s(I44
S'TCA'
p3945
tp3946
I2
s(I70
S'GCC'
p3947
tp3948
I227
s(I67
S'TCC'
p3949
tp3950
I1
s(I32
S'ACA'
p3951
tp3952
I37
s(I55
S'ATT'
p3953
tp3954
I40
s(I34
S'CCA'
p3955
tp3956
I1
s(I27
S'GCA'
p3957
tp3958
I2
s(I56
S'CCC'
p3959
tp3960
I1
s(I3
S'TAT'
p3961
tp3962
I1
s(I41
S'TCT'
p3963
tp3964
I25
s(I28
S'ACA'
p3965
tp3966
I15
s(I17
S'TCA'
p3967
tp3968
I78
s(I5
S'ATT'
p3969
tp3970
I15
s(I16
S'GTA'
p3971
tp3972
I27
s(I24
S'AAT'
p3973
tp3974
I4
s(I38
S'CAC'
p3975
tp3976
I74
s(I71
S'GAT'
p3977
tp3978
I4
s(I20
S'AGT'
p3979
tp3980
I293
s(I42
S'AGG'
p3981
tp3982
I60
s(I47
S'GCC'
p3983
tp3984
I3
s(I13
S'ATG'
p3985
tp3986
I1
s(I16
S'GCC'
p3987
tp3988
I6
s(I65
S'CAT'
p3989
tp3990
I153
s(I66
S'TAC'
p3991
tp3992
I122
s(I16
S'ACC'
p3993
tp3994
I5
s(I52
S'CCT'
p3995
tp3996
I96
s(I32
S'TCT'
p3997
tp3998
I63
s(I65
S'GAC'
p3999
tp4000
I7187
s(I10
S'CTC'
p4001
tp4002
I1
s(I2
S'CAC'
p4003
tp4004
I1
s(I65
S'TTG'
p4005
tp4006
I1
s(I25
S'CAG'
p4007
tp4008
I76
s(I73
S'TTA'
p4009
tp4010
I190
s(I24
S'CGC'
p4011
tp4012
I31
s(I49
S'GAC'
p4013
tp4014
I1
s(I33
S'ACT'
p4015
tp4016
I19
s(I57
S'ATT'
p4017
tp4018
I41
s(I29
S'ATG'
p4019
tp4020
I33
s(I8
S'ATT'
p4021
tp4022
I345
s(I12
S'GAT'
p4023
tp4024
I1
s(I64
S'ACG'
p4025
tp4026
I3508
s(I17
S'CCG'
p4027
tp4028
I2
s(I72
S'TAG'
p4029
tp4030
I1
s(I35
S'TAC'
p4031
tp4032
I1
s(I30
S'AGC'
p4033
tp4034
I2
s(I75
S'CGC'
p4035
tp4036
I1
s(I22
S'ACT'
p4037
tp4038
I185
s(I46
S'TAG'
p4039
tp4040
I1
s(I25
S'ATC'
p4041
tp4042
I76
s(I10
S'CGA'
p4043
tp4044
I16
s(I44
S'GCG'
p4045
tp4046
I28
s(I44
S'CTG'
p4047
tp4048
I845
s(I51
S'ATC'
p4049
tp4050
I127
s(I50
S'ATA'
p4051
tp4052
I294
s(I24
S'CGG'
p4053
tp4054
I6
s(I29
S'CTC'
p4055
tp4056
I182
s(I45
S'ATT'
p4057
tp4058
I5316
s(I69
S'CTA'
p4059
tp4060
I197
s(I23
S'CAA'
p4061
tp4062
I1
s(I23
S'GTA'
p4063
tp4064
I8
s(I18
S'AGG'
p4065
tp4066
I10
s(I18
S'GCT'
p4067
tp4068
I200
s(I72
S'CCG'
p4069
tp4070
I26
s(I3
S'GCT'
p4071
tp4072
I1079
s(I48
S'AAC'
p4073
tp4074
I1
s(I43
S'TAC'
p4075
tp4076
I36
s(I73
S'AAG'
p4077
tp4078
I4
s(I30
S'AGA'
p4079
tp4080
I1
s(I68
S'AAT'
p4081
tp4082
I1072
s(I48
S'ACA'
p4083
tp4084
I30
s(I20
S'CTT'
p4085
tp4086
I4
s(I25
S'CTT'
p4087
tp4088
I40
s(I23
S'GCA'
p4089
tp4090
I1
s(I63
S'TCT'
p4091
tp4092
I103
s(I11
S'TTC'
p4093
tp4094
I77
s(I2
S'GAG'
p4095
tp4096
I42
s(I21
S'GTG'
p4097
tp4098
I49
s(I47
S'CCG'
p4099
tp4100
I34
s(I44
S'TGG'
p4101
tp4102
I2
s(I3
S'CAC'
p4103
tp4104
I2
s(I19
S'AAT'
p4105
tp4106
I274
s(I12
S'GTA'
p4107
tp4108
I3
s(I37
S'GTG'
p4109
tp4110
I191
s(I16
S'CTC'
p4111
tp4112
I6
s(I28
S'TGG'
p4113
tp4114
I27
s(I36
S'CTC'
p4115
tp4116
I50
s(I34
S'GGC'
p4117
tp4118
I110
s(I55
S'GCA'
p4119
tp4120
I16
s(I20
S'ATC'
p4121
tp4122
I144
s(I6
S'AGC'
p4123
tp4124
I1776
s(I8
S'GGA'
p4125
tp4126
I11
s(I46
S'GGG'
p4127
tp4128
I264
s(I15
S'CCA'
p4129
tp4130
I1
s(I12
S'GGC'
p4131
tp4132
I9
s(I53
S'CCC'
p4133
tp4134
I60
s(I55
S'GTC'
p4135
tp4136
I46
s(I69
S'TTT'
p4137
tp4138
I26683
s(I24
S'TCG'
p4139
tp4140
I31
s(I35
S'CTG'
p4141
tp4142
I32
s(I42
S'ATG'
p4143
tp4144
I1
s(I32
S'AGA'
p4145
tp4146
I2
s(I31
S'TGG'
p4147
tp4148
I6
s(I31
S'GAA'
p4149
tp4150
I5
s(I35
S'ATC'
p4151
tp4152
I13
s(I18
S'ATC'
p4153
tp4154
I104
s(I32
S'ACT'
p4155
tp4156
I20
s(I18
S'TAC'
p4157
tp4158
I160
s(I71
S'GTC'
p4159
tp4160
I1
s(I25
S'CTG'
p4161
tp4162
I79
s(I13
S'GCC'
p4163
tp4164
I11
s(I44
S'GAT'
p4165
tp4166
I2
s(I52
S'GCT'
p4167
tp4168
I2
s(I15
S'GAA'
p4169
tp4170
I3
s(I68
S'GAG'
p4171
tp4172
I1
s(I65
S'AAA'
p4173
tp4174
I26
s(I16
S'CCA'
p4175
tp4176
I1
s(I55
S'ACC'
p4177
tp4178
I13
s(I49
S'AGC'
p4179
tp4180
I184
s(I7
S'CCA'
p4181
tp4182
I990
s(I9
S'ATT'
p4183
tp4184
I1236
s(I34
S'AAT'
p4185
tp4186
I10
s(I67
S'CAT'
p4187
tp4188
I12
s(I15
S'TAC'
p4189
tp4190
I24
s(I13
S'GTA'
p4191
tp4192
I147
s(I10
S'GGC'
p4193
tp4194
I52
s(I42
S'TGC'
p4195
tp4196
I6
s(I71
S'AGC'
p4197
tp4198
I3
s(I47
S'TCG'
p4199
tp4200
I541
s(I9
S'CAG'
p4201
tp4202
I3410
s(I71
S'AGT'
p4203
tp4204
I2
s(I9
S'TCC'
p4205
tp4206
I30
s(I35
S'GGG'
p4207
tp4208
I31
s(I74
S'CAC'
p4209
tp4210
I5
s(I23
S'TTA'
p4211
tp4212
I5
s(I29
S'GAA'
p4213
tp4214
I2
s(I61
S'CGG'
p4215
tp4216
I1
s(I43
S'GGG'
p4217
tp4218
I49
s(I57
S'GTC'
p4219
tp4220
I67
s(I19
S'GAT'
p4221
tp4222
I11
s(I67
S'ACA'
p4223
tp4224
I2617
s(I34
S'AGC'
p4225
tp4226
I2
s(I6
S'TAG'
p4227
tp4228
I2
s(I62
S'ACC'
p4229
tp4230
I27
s(I25
S'CCC'
p4231
tp4232
I3
s(I15
S'GTT'
p4233
tp4234
I6
s(I13
S'TCG'
p4235
tp4236
I11
s(I70
S'CTG'
p4237
tp4238
I462
s(I75
S'CCA'
p4239
tp4240
I1
s(I38
S'TAA'
p4241
tp4242
I2
s(I32
S'GCG'
p4243
tp4244
I15
s(I63
S'TAC'
p4245
tp4246
I21
s(I8
S'ATA'
p4247
tp4248
I77
s(I23
S'ATG'
p4249
tp4250
I55
s(I57
S'GCC'
p4251
tp4252
I27
s(I20
S'TAG'
p4253
tp4254
I15
s(I58
S'TGT'
p4255
tp4256
I211
s(I33
S'ATG'
p4257
tp4258
I29
s(I7
S'TGG'
p4259
tp4260
I2
s(I62
S'GTC'
p4261
tp4262
I1755
s(I28
S'GTC'
p4263
tp4264
I77
s(I8
S'AGC'
p4265
tp4266
I1
s(I24
S'TTA'
p4267
tp4268
I5
s(I46
S'AAC'
p4269
tp4270
I5648
s(I64
S'GCG'
p4271
tp4272
I5059
s(I37
S'CAT'
p4273
tp4274
I63
s(I56
S'AAG'
p4275
tp4276
I8
s(I22
S'ATG'
p4277
tp4278
I247
s(I46
S'ACA'
p4279
tp4280
I2723
s(I27
S'AGC'
p4281
tp4282
I1
s(I3
S'AAG'
p4283
tp4284
I2
s(I64
S'GTG'
p4285
tp4286
I1771
s(I47
S'CAG'
p4287
tp4288
I79
s(I60
S'GCC'
p4289
tp4290
I20
s(I52
S'CAG'
p4291
tp4292
I27
s(I49
S'GGC'
p4293
tp4294
I6393
s(I37
S'TGG'
p4295
tp4296
I10
s(I18
S'TCA'
p4297
tp4298
I246
s(I11
S'TTT'
p4299
tp4300
I13
s(I29
S'TCC'
p4301
tp4302
I85
s(I9
S'TGA'
p4303
tp4304
I4
s(I41
S'TCG'
p4305
tp4306
I4
s(I37
S'TCT'
p4307
tp4308
I55
s(I15
S'CAG'
p4309
tp4310
I9
s(I15
S'GGC'
p4311
tp4312
I2
s(I74
S'GTG'
p4313
tp4314
I1
s(I32
S'AAA'
p4315
tp4316
I5
s(I6
S'GCG'
p4317
tp4318
I74
s(I53
S'ACA'
p4319
tp4320
I11
s(I38
S'TCG'
p4321
tp4322
I288
s(I5
S'TCC'
p4323
tp4324
I3
s(I38
S'GGA'
p4325
tp4326
I113
s(I48
S'ACC'
p4327
tp4328
I5
s(I18
S'ACG'
p4329
tp4330
I7
s(I37
S'GCT'
p4331
tp4332
I107
s(I63
S'GGA'
p4333
tp4334
I8
s(I40
S'TGT'
p4335
tp4336
I1
s(I55
S'TGT'
p4337
tp4338
I76
s(I4
S'CTT'
p4339
tp4340
I35
s(I2
S'GTA'
p4341
tp4342
I1
s(I22
S'AAT'
p4343
tp4344
I17
s(I71
S'GGA'
p4345
tp4346
I8
s(I58
S'GAG'
p4347
tp4348
I70
s(I2
S'AAC'
p4349
tp4350
I1
s(I4
S'TGT'
p4351
tp4352
I12
s(I18
S'ATT'
p4353
tp4354
I2
s(I65
S'CGG'
p4355
tp4356
I21
s(I62
S'CGA'
p4357
tp4358
I20
s(I9
S'TTG'
p4359
tp4360
I6
s(I32
S'AGT'
p4361
tp4362
I35
s(I46
S'AGT'
p4363
tp4364
I356
s(I68
S'AGC'
p4365
tp4366
I254
s(I10
S'TAT'
p4367
tp4368
I105
s(I70
S'AAT'
p4369
tp4370
I4
s(I14
S'AAG'
p4371
tp4372
I1
s(I44
S'TAC'
p4373
tp4374
I1
s(I6
S'CTG'
p4375
tp4376
I285
s(I18
S'TAT'
p4377
tp4378
I35
s(I37
S'ACG'
p4379
tp4380
I5
s(I35
S'CGC'
p4381
tp4382
I6
s(I33
S'CGG'
p4383
tp4384
I43
s(I33
S'CAA'
p4385
tp4386
I3
s(I52
S'GTG'
p4387
tp4388
I13
s(I20
S'CCA'
p4389
tp4390
I371
s(I59
S'AAA'
p4391
tp4392
I4
s(I75
S'GAG'
p4393
tp4394
I2
s(I9
S'ATC'
p4395
tp4396
I625
s(I71
S'CTC'
p4397
tp4398
I149
s(I20
S'AGC'
p4399
tp4400
I129
s(I76
S'CTA'
p4401
tp4402
I7
s(I46
S'CGC'
p4403
tp4404
I230
s(I32
S'CCG'
p4405
tp4406
I12
s(I75
S'GCT'
p4407
tp4408
I4
s(I27
S'TCT'
p4409
tp4410
I3
s(I20
S'TTG'
p4411
tp4412
I51
s(I25
S'TTT'
p4413
tp4414
I141
s(I45
S'GAA'
p4415
tp4416
I5
s(I52
S'TGC'
p4417
tp4418
I84
s(I30
S'TTC'
p4419
tp4420
I1
s(I19
S'GAA'
p4421
tp4422
I73
s(I68
S'GCA'
p4423
tp4424
I49
s(I24
S'CCT'
p4425
tp4426
I30
s(I16
S'GAT'
p4427
tp4428
I31
s(I44
S'CAG'
p4429
tp4430
I1
s(I22
S'AGT'
p4431
tp4432
I19
s(I44
S'AGC'
p4433
tp4434
I8
s(I62
S'CAC'
p4435
tp4436
I92
s(I62
S'TGC'
p4437
tp4438
I487
s(I49
S'TAT'
p4439
tp4440
I26
s(I18
S'TTG'
p4441
tp4442
I184
s(I48
S'GAA'
p4443
tp4444
I41
s(I57
S'GCT'
p4445
tp4446
I34
s(I41
S'TTC'
p4447
tp4448
I1447
s(I69
S'ACA'
p4449
tp4450
I102
s(I66
S'AAA'
p4451
tp4452
I1
s(I24
S'GGA'
p4453
tp4454
I10
s(I64
S'GAT'
p4455
tp4456
I2461
s(I27
S'ACC'
p4457
tp4458
I12
s(I12
S'TTT'
p4459
tp4460
I7
s(I72
S'GCC'
p4461
tp4462
I93
s(I31
S'AAA'
p4463
tp4464
I6
s(I10
S'TGC'
p4465
tp4466
I8
s(I26
S'GCC'
p4467
tp4468
I3
s(I30
S'TAT'
p4469
tp4470
I25
s(I45
S'TTG'
p4471
tp4472
I357
s(I46
S'TTA'
p4473
tp4474
I3
s(I18
S'CCA'
p4475
tp4476
I44
s(I17
S'GCG'
p4477
tp4478
I27
s(I53
S'AGC'
p4479
tp4480
I26
s(I46
S'ACT'
p4481
tp4482
I200
s(I22
S'GTA'
p4483
tp4484
I39
s(I69
S'GTC'
p4485
tp4486
I248
s(I23
S'CTG'
p4487
tp4488
I34
s(I72
S'GTC'
p4489
tp4490
I6
s(I61
S'CCC'
p4491
tp4492
I44
s(I58
S'TGA'
p4493
tp4494
I1
s(I22
S'CTT'
p4495
tp4496
I108
s(I59
S'TCG'
p4497
tp4498
I17
s(I69
S'AGT'
p4499
tp4500
I1
s(I74
S'GAC'
p4501
tp4502
I1
s(I57
S'TTA'
p4503
tp4504
I36
s(I69
S'CAT'
p4505
tp4506
I2014
s(I12
S'CCC'
p4507
tp4508
I256
s(I47
S'GGG'
p4509
tp4510
I127
s(I9
S'GAA'
p4511
tp4512
I1
s(I47
S'AGA'
p4513
tp4514
I9
s(I9
S'TGT'
p4515
tp4516
I1101
s(I55
S'GGG'
p4517
tp4518
I65
s(I31
S'ACT'
p4519
tp4520
I61
s(I63
S'TCC'
p4521
tp4522
I32
s(I16
S'TCT'
p4523
tp4524
I27
s(I10
S'CGC'
p4525
tp4526
I1
s(I26
S'CTC'
p4527
tp4528
I35
s(I19
S'CCG'
p4529
tp4530
I1
s(I5
S'GGG'
p4531
tp4532
I1
s(I49
S'AGT'
p4533
tp4534
I225
s(I21
S'AAC'
p4535
tp4536
I7
s(I17
S'TTC'
p4537
tp4538
I23
s(I45
S'GTG'
p4539
tp4540
I9805
s(I65
S'CCT'
p4541
tp4542
I258
s(I9
S'ACG'
p4543
tp4544
I58
s(I32
S'GAA'
p4545
tp4546
I108
s(I25
S'AGG'
p4547
tp4548
I59
s(I9
S'CTC'
p4549
tp4550
I28
s(I23
S'GGG'
p4551
tp4552
I4
s(I74
S'TCA'
p4553
tp4554
I1
s(I65
S'TGG'
p4555
tp4556
I27
s(I24
S'TAG'
p4557
tp4558
I10
s(I60
S'ACG'
p4559
tp4560
I5
s(I46
S'GAC'
p4561
tp4562
I17859
s(I24
S'ATT'
p4563
tp4564
I3
s(I75
S'AGG'
p4565
tp4566
I7
s(I22
S'TTA'
p4567
tp4568
I48
s(I67
S'AAG'
p4569
tp4570
I5
s(I20
S'ACC'
p4571
tp4572
I15
s(I2
S'ACT'
p4573
tp4574
I2
s(I29
S'AGC'
p4575
tp4576
I133
s(I19
S'GGC'
p4577
tp4578
I94
s(I7
S'CAG'
p4579
tp4580
I18
s(I17
S'CAT'
p4581
tp4582
I67
s(I60
S'CTG'
p4583
tp4584
I50
s(I35
S'CAC'
p4585
tp4586
I18
s(I21
S'GGA'
p4587
tp4588
I8
s(I74
S'AAT'
p4589
tp4590
I2
s(I18
S'AAG'
p4591
tp4592
I159
s(I33
S'TTA'
p4593
tp4594
I29
s(I34
S'GCT'
p4595
tp4596
I11
s(I70
S'CGC'
p4597
tp4598
I2
s(I69
S'GGG'
p4599
tp4600
I296
s(I29
S'ACG'
p4601
tp4602
I133
s(I43
S'TTA'
p4603
tp4604
I132
s(I25
S'CCT'
p4605
tp4606
I1
s(I8
S'CGT'
p4607
tp4608
I1
s(I51
S'AGA'
p4609
tp4610
I1
s(I39
S'TCC'
p4611
tp4612
I2
s(I48
S'ATT'
p4613
tp4614
I5
s(I22
S'TGG'
p4615
tp4616
I17
s(I66
S'CCG'
p4617
tp4618
I113
s(I2
S'GGT'
p4619
tp4620
I1
s(I39
S'ACA'
p4621
tp4622
I4
s(I45
S'CAG'
p4623
tp4624
I32951
s(I39
S'GCC'
p4625
tp4626
I2
s(I73
S'ATA'
p4627
tp4628
I8549
s(I64
S'CTG'
p4629
tp4630
I393
s(I32
S'CTC'
p4631
tp4632
I43
s(I45
S'AGG'
p4633
tp4634
I18
s(I39
S'GTT'
p4635
tp4636
I1
s(I36
S'CGC'
p4637
tp4638
I1
s(I54
S'GCC'
p4639
tp4640
I9
s(I57
S'TGA'
p4641
tp4642
I1
s(I34
S'TCA'
p4643
tp4644
I2
s(I52
S'ACA'
p4645
tp4646
I24
s(I76
S'ATA'
p4647
tp4648
I1
s(I67
S'GGT'
p4649
tp4650
I3181
s(I41
S'GGC'
p4651
tp4652
I170
s(I57
S'TCG'
p4653
tp4654
I115
s(I57
S'TGT'
p4655
tp4656
I58
s(I60
S'CAT'
p4657
tp4658
I122
s(I71
S'GCT'
p4659
tp4660
I4
s(I6
S'CAC'
p4661
tp4662
I1600
s(I41
S'TCA'
p4663
tp4664
I20
s(I52
S'CGA'
p4665
tp4666
I6
s(I66
S'AAT'
p4667
tp4668
I491
s(I63
S'TTG'
p4669
tp4670
I14
s(I69
S'AGA'
p4671
tp4672
I1
s(I39
S'TAT'
p4673
tp4674
I3
s(I51
S'CTG'
p4675
tp4676
I229
s(I40
S'GGT'
p4677
tp4678
I520
s(I28
S'ACT'
p4679
tp4680
I23
s(I18
S'TGC'
p4681
tp4682
I132
s(I29
S'GAT'
p4683
tp4684
I3
s(I70
S'GTC'
p4685
tp4686
I176
s(I11
S'AGT'
p4687
tp4688
I892
s(I18
S'CCT'
p4689
tp4690
I21
s(I20
S'CGA'
p4691
tp4692
I40
s(I22
S'CCA'
p4693
tp4694
I82
s(I72
S'AGT'
p4695
tp4696
I229
s(I21
S'TAG'
p4697
tp4698
I2
s(I66
S'TGG'
p4699
tp4700
I9
s(I62
S'CTT'
p4701
tp4702
I100
s(I67
S'CTT'
p4703
tp4704
I205
s(I68
S'CCA'
p4705
tp4706
I3
s(I66
S'GCC'
p4707
tp4708
I11
s(I43
S'GTC'
p4709
tp4710
I59
s(I28
S'TAA'
p4711
tp4712
I18
s(I36
S'TGG'
p4713
tp4714
I1
s(I70
S'ACA'
p4715
tp4716
I11402
s(I16
S'CAA'
p4717
tp4718
I50
s(I16
S'TAG'
p4719
tp4720
I2
s(I69
S'AGG'
p4721
tp4722
I1
s(I35
S'TTC'
p4723
tp4724
I69
s(I44
S'AGA'
p4725
tp4726
I1
s(I26
S'ATG'
p4727
tp4728
I92
s(I36
S'TGA'
p4729
tp4730
I13
s(I59
S'GCT'
p4731
tp4732
I2987
s(I45
S'CGG'
p4733
tp4734
I554
s(I67
S'ACG'
p4735
tp4736
I13465
s(I38
S'TCT'
p4737
tp4738
I297
s(I54
S'CAT'
p4739
tp4740
I35
s(I11
S'GAA'
p4741
tp4742
I494
s(I41
S'TAC'
p4743
tp4744
I2
s(I4
S'CCG'
p4745
tp4746
I2
s(I39
S'ATC'
p4747
tp4748
I1
s(I65
S'CCA'
p4749
tp4750
I82
s(I39
S'TTG'
p4751
tp4752
I15
s(I41
S'GAA'
p4753
tp4754
I2
s(I40
S'CCG'
p4755
tp4756
I17
s(I4
S'CAT'
p4757
tp4758
I15
s(I16
S'AGG'
p4759
tp4760
I154
s(I20
S'ACG'
p4761
tp4762
I101
s(I49
S'TCT'
p4763
tp4764
I2771
s(I70
S'GGT'
p4765
tp4766
I1
s(I70
S'TCA'
p4767
tp4768
I21
s(I76
S'TGT'
p4769
tp4770
I3
s(I48
S'AGT'
p4771
tp4772
I9
s(I50
S'TTG'
p4773
tp4774
I59
s(I61
S'GTC'
p4775
tp4776
I50
s(I15
S'CCG'
p4777
tp4778
I5
s(I35
S'CAT'
p4779
tp4780
I127
s(I62
S'ACA'
p4781
tp4782
I3050
s(I25
S'AAA'
p4783
tp4784
I1
s(I18
S'GAG'
p4785
tp4786
I33
s(I17
S'GCA'
p4787
tp4788
I45
s(I20
S'GGA'
p4789
tp4790
I88
s(I63
S'CCG'
p4791
tp4792
I78
s(I45
S'AAT'
p4793
tp4794
I2347
s(I4
S'CTC'
p4795
tp4796
I34
s(I28
S'GGA'
p4797
tp4798
I43
s(I34
S'GTC'
p4799
tp4800
I1
s(I70
S'CCA'
p4801
tp4802
I47
s(I55
S'TGA'
p4803
tp4804
I43
s(I61
S'ACG'
p4805
tp4806
I6
s(I72
S'TTA'
p4807
tp4808
I2
s(I35
S'AGA'
p4809
tp4810
I21
s(I6
S'TTC'
p4811
tp4812
I47
s(I50
S'GTC'
p4813
tp4814
I1344
s(I73
S'ATG'
p4815
tp4816
I13
s(I68
S'ATT'
p4817
tp4818
I11
s(I19
S'CGG'
p4819
tp4820
I71
s(I52
S'CTT'
p4821
tp4822
I2
s(I55
S'AAG'
p4823
tp4824
I32
s(I36
S'ACA'
p4825
tp4826
I7415
s(I58
S'ATA'
p4827
tp4828
I3
s(I31
S'AGG'
p4829
tp4830
I6
s(I55
S'CTG'
p4831
tp4832
I75
s(I17
S'TGC'
p4833
tp4834
I39
s(I47
S'TTA'
p4835
tp4836
I2
s(I14
S'GCT'
p4837
tp4838
I112
s(I20
S'GAC'
p4839
tp4840
I7
s(I74
S'CAT'
p4841
tp4842
I2
s(I30
S'TTA'
p4843
tp4844
I81
s(I21
S'GAA'
p4845
tp4846
I2
s(I28
S'GCC'
p4847
tp4848
I38
s(I33
S'CTG'
p4849
tp4850
I3
s(I53
S'GAG'
p4851
tp4852
I13
s(I17
S'AGC'
p4853
tp4854
I1
s(I46
S'ACG'
p4855
tp4856
I799
s(I53
S'GCG'
p4857
tp4858
I28
s(I54
S'ATA'
p4859
tp4860
I12
s(I69
S'GAC'
p4861
tp4862
I21
s(I29
S'GTT'
p4863
tp4864
I7
s(I38
S'GAG'
p4865
tp4866
I52
s(I75
S'AGA'
p4867
tp4868
I8
s(I67
S'TGT'
p4869
tp4870
I46
s(I41
S'ACA'
p4871
tp4872
I117
s(I74
S'TGA'
p4873
tp4874
I1
s(I16
S'AAG'
p4875
tp4876
I64
s(I12
S'TAG'
p4877
tp4878
I13
s(I27
S'TGA'
p4879
tp4880
I25
s(I42
S'TTT'
p4881
tp4882
I7
s(I72
S'CTT'
p4883
tp4884
I32
s(I33
S'TGA'
p4885
tp4886
I3
s(I66
S'GGT'
p4887
tp4888
I174
s(I11
S'AGA'
p4889
tp4890
I19
s(I6
S'GGC'
p4891
tp4892
I1133
s(I72
S'CTA'
p4893
tp4894
I17
s(I52
S'TAT'
p4895
tp4896
I22
s(I17
S'CGG'
p4897
tp4898
I3
s(I45
S'TAA'
p4899
tp4900
I3
s(I34
S'ATA'
p4901
tp4902
I1
s(I72
S'ACA'
p4903
tp4904
I403
s(I28
S'GAC'
p4905
tp4906
I452
s(I55
S'GGA'
p4907
tp4908
I15
s(I30
S'ACC'
p4909
tp4910
I2
s(I67
S'ACC'
p4911
tp4912
I76
s(I43
S'CCA'
p4913
tp4914
I1
s(I53
S'CGA'
p4915
tp4916
I1
s(I69
S'AAT'
p4917
tp4918
I98
s(I28
S'CGG'
p4919
tp4920
I12
s(I16
S'CAT'
p4921
tp4922
I105
s(I67
S'ACT'
p4923
tp4924
I6670
s(I23
S'CGA'
p4925
tp4926
I1
s(I29
S'TGT'
p4927
tp4928
I18
s(I48
S'TGT'
p4929
tp4930
I2
s(I65
S'TCG'
p4931
tp4932
I21
s(I2
S'TCC'
p4933
tp4934
I11
s(I61
S'TAC'
p4935
tp4936
I9
s(I16
S'GCT'
p4937
tp4938
I294
s(I8
S'GAT'
p4939
tp4940
I3
s(I19
S'GCA'
p4941
tp4942
I46
s(I19
S'TTG'
p4943
tp4944
I7
s(I69
S'TCC'
p4945
tp4946
I64
s(I45
S'GCA'
p4947
tp4948
I856
s(I48
S'GCG'
p4949
tp4950
I1
s(I44
S'GAC'
p4951
tp4952
I1
s(I52
S'GAG'
p4953
tp4954
I84
s(I33
S'ACG'
p4955
tp4956
I33
s(I57
S'ATA'
p4957
tp4958
I50
s(I74
S'TAA'
p4959
tp4960
I14
s(I29
S'ACT'
p4961
tp4962
I32
s(I16
S'TGG'
p4963
tp4964
I17
s(I37
S'GGC'
p4965
tp4966
I43
s(I60
S'ATA'
p4967
tp4968
I18
s(I51
S'GGT'
p4969
tp4970
I231
s(I48
S'GTG'
p4971
tp4972
I4
s(I50
S'GAC'
p4973
tp4974
I3
s(I45
S'GGC'
p4975
tp4976
I2
s(I7
S'CTA'
p4977
tp4978
I3
s(I29
S'TCA'
p4979
tp4980
I35
s(I37
S'GCA'
p4981
tp4982
I291
s(I26
S'ACT'
p4983
tp4984
I59
s(I60
S'CCA'
p4985
tp4986
I250
s(I19
S'AAA'
p4987
tp4988
I214
s(I71
S'ATC'
p4989
tp4990
I4
s(I37
S'CAC'
p4991
tp4992
I53
s(I50
S'ATT'
p4993
tp4994
I80
s(I58
S'GTG'
p4995
tp4996
I9
s(I2
S'TGT'
p4997
tp4998
I1
s(I63
S'TGG'
p4999
tp5000
I73
s(I72
S'TTT'
p5001
tp5002
I93
s(I61
S'CTG'
p5003
tp5004
I224
s(I20
S'GTC'
p5005
tp5006
I12
s(I27
S'ATA'
p5007
tp5008
I108
s(I23
S'TGC'
p5009
tp5010
I1
s(I25
S'CAA'
p5011
tp5012
I187
s(I76
S'GGG'
p5013
tp5014
I14
s(I36
S'AGC'
p5015
tp5016
I1
s(I7
S'TCA'
p5017
tp5018
I2
s(I9
S'TGG'
p5019
tp5020
I2
s(I76
S'GTC'
p5021
tp5022
I1
s(I50
S'CTC'
p5023
tp5024
I77
s(I21
S'CGG'
p5025
tp5026
I2
s(I5
S'ACG'
p5027
tp5028
I7
s(I42
S'CCC'
p5029
tp5030
I1
s(I36
S'GCG'
p5031
tp5032
I5
s(I30
S'CGT'
p5033
tp5034
I53
s(I72
S'GGC'
p5035
tp5036
I418
s(I52
S'TCA'
p5037
tp5038
I1
s(I29
S'GTC'
p5039
tp5040
I56
s(I23
S'CCC'
p5041
tp5042
I2
s(I13
S'ATC'
p5043
tp5044
I115
s(I45
S'TCC'
p5045
tp5046
I2512
s(I37
S'GTT'
p5047
tp5048
I324
s(I57
S'GGT'
p5049
tp5050
I22
s(I74
S'GGA'
p5051
tp5052
I2
s(I37
S'TAG'
p5053
tp5054
I3
s(I39
S'CTC'
p5055
tp5056
I1
s(I34
S'GAC'
p5057
tp5058
I112
s(I44
S'CTA'
p5059
tp5060
I171
s(I65
S'TTC'
p5061
tp5062
I49
s(I36
S'CCA'
p5063
tp5064
I9
s(I40
S'ACT'
p5065
tp5066
I8
s(I23
S'CAG'
p5067
tp5068
I1
s(I32
S'TCC'
p5069
tp5070
I74
s(I18
S'AGA'
p5071
tp5072
I12
s(I46
S'CAC'
p5073
tp5074
I5604
s(I51
S'CAC'
p5075
tp5076
I44
s(I46
S'GGT'
p5077
tp5078
I235
s(I12
S'ACG'
p5079
tp5080
I112
s(I35
S'TGT'
p5081
tp5082
I33
s(I54
S'GGT'
p5083
tp5084
I11
s(I60
S'TGT'
p5085
tp5086
I80
s(I45
S'TAT'
p5087
tp5088
I65
s(I31
S'GGT'
p5089
tp5090
I132
s(I29
S'TAA'
p5091
tp5092
I1
s(I51
S'CGA'
p5093
tp5094
I1
s(I41
S'GTC'
p5095
tp5096
I54
s(I63
S'GCC'
p5097
tp5098
I89
s(I60
S'CGC'
p5099
tp5100
I1
s(I8
S'ACC'
p5101
tp5102
I3
s(I64
S'ATT'
p5103
tp5104
I745
s(I73
S'GAC'
p5105
tp5106
I1
s(I46
S'TGT'
p5107
tp5108
I343
s(I47
S'CCA'
p5109
tp5110
I1
s(I32
S'AAC'
p5111
tp5112
I7
s(I39
S'GGC'
p5113
tp5114
I2
s(I31
S'TGC'
p5115
tp5116
I42
s(I57
S'GAC'
p5117
tp5118
I17
s(I25
S'ACT'
p5119
tp5120
I8
s(I29
S'TGC'
p5121
tp5122
I84
s(I61
S'CAG'
p5123
tp5124
I3
s(I51
S'GTA'
p5125
tp5126
I144
s(I27
S'TTA'
p5127
tp5128
I46
s(I66
S'CAG'
p5129
tp5130
I2
s(I7
S'GGT'
p5131
tp5132
I12
s(I40
S'TCT'
p5133
tp5134
I8
s(I30
S'GTA'
p5135
tp5136
I27
s(I56
S'ACG'
p5137
tp5138
I1
s(I35
S'TAT'
p5139
tp5140
I13
s(I56
S'GCC'
p5141
tp5142
I2
s(I39
S'TGC'
p5143
tp5144
I1
s(I25
S'TGG'
p5145
tp5146
I136
s(I21
S'AGC'
p5147
tp5148
I72
s(I30
S'GTG'
p5149
tp5150
I145
s(I58
S'ACA'
p5151
tp5152
I3
s(I46
S'TCT'
p5153
tp5154
I583
s(I10
S'GCC'
p5155
tp5156
I4
s(I42
S'TCG'
p5157
tp5158
I1
s(I66
S'GCG'
p5159
tp5160
I1
s(I69
S'AAC'
p5161
tp5162
I1
s(I67
S'TCT'
p5163
tp5164
I100
s(I62
S'ACT'
p5165
tp5166
I1278
s(I15
S'GTA'
p5167
tp5168
I39
s(I41
S'TTA'
p5169
tp5170
I250
s(I37
S'GGT'
p5171
tp5172
I7
s(I55
S'AAC'
p5173
tp5174
I77
s(I25
S'GTG'
p5175
tp5176
I6
s(I51
S'GGA'
p5177
tp5178
I26
s(I75
S'CTG'
p5179
tp5180
I1
s(I6
S'ATC'
p5181
tp5182
I4830
s(I65
S'AAG'
p5183
tp5184
I60
s(I45
S'GGT'
p5185
tp5186
I1598
s(I27
S'AGT'
p5187
tp5188
I9
s(I15
S'GCA'
p5189
tp5190
I105
s(I19
S'TTC'
p5191
tp5192
I11
s(I48
S'TAT'
p5193
tp5194
I3
s(I33
S'CCT'
p5195
tp5196
I3
s(I26
S'CGA'
p5197
tp5198
I10
s(I74
S'ACC'
p5199
tp5200
I4
s(I37
S'CAG'
p5201
tp5202
I125
s(I69
S'GCC'
p5203
tp5204
I2591
s(I42
S'CAG'
p5205
tp5206
I28
s(I9
S'CAA'
p5207
tp5208
I540
s(I72
S'CGG'
p5209
tp5210
I9
s(I65
S'CAC'
p5211
tp5212
I77
s(I29
S'GTG'
p5213
tp5214
I50
s(I66
S'GAC'
p5215
tp5216
I2136
s(I21
S'GCA'
p5217
tp5218
I61
s(I32
S'TCG'
p5219
tp5220
I139
s(I71
S'TGC'
p5221
tp5222
I5
s(I38
S'CTT'
p5223
tp5224
I32
s(I39
S'CCC'
p5225
tp5226
I1
s(I63
S'ACA'
p5227
tp5228
I16
s(I23
S'CCT'
p5229
tp5230
I13
s(I45
S'CTT'
p5231
tp5232
I238
s(I18
S'ACT'
p5233
tp5234
I42
s(I32
S'GCA'
p5235
tp5236
I44
s(I29
S'ATT'
p5237
tp5238
I307
s(I31
S'ACA'
p5239
tp5240
I60
s(I46
S'CCC'
p5241
tp5242
I5
s(I8
S'ATG'
p5243
tp5244
I15
s(I66
S'CTC'
p5245
tp5246
I648
s(I7
S'ATG'
p5247
tp5248
I1
s(I61
S'GCT'
p5249
tp5250
I10
s(I23
S'ATA'
p5251
tp5252
I36
s(I41
S'GCC'
p5253
tp5254
I8
s(I39
S'GAA'
p5255
tp5256
I14
s(I37
S'AGT'
p5257
tp5258
I27
s(I57
S'GGA'
p5259
tp5260
I6
s(I52
S'AGG'
p5261
tp5262
I3
s(I3
S'AGT'
p5263
tp5264
I1
s(I54
S'TGG'
p5265
tp5266
I184
s(I34
S'CCG'
p5267
tp5268
I4
s(I64
S'AGT'
p5269
tp5270
I10070
s(I64
S'GCA'
p5271
tp5272
I5712
s(I36
S'CCT'
p5273
tp5274
I29
s(I17
S'GAA'
p5275
tp5276
I8
s(I11
S'CCT'
p5277
tp5278
I565
s(I4
S'TGC'
p5279
tp5280
I7
s(I17
S'ATG'
p5281
tp5282
I122
s(I72
S'CCT'
p5283
tp5284
I2
s(I60
S'AAA'
p5285
tp5286
I356
s(I33
S'AGC'
p5287
tp5288
I10
s(I57
S'CAT'
p5289
tp5290
I34
s(I3
S'CAA'
p5291
tp5292
I3
s(I8
S'CAA'
p5293
tp5294
I2
s(I60
S'TGA'
p5295
tp5296
I9
s(I41
S'ATA'
p5297
tp5298
I9
s(I64
S'GTA'
p5299
tp5300
I28
s(I6
S'GAC'
p5301
tp5302
I13
s(I23
S'ACT'
p5303
tp5304
I20
s(I2
S'ACG'
p5305
tp5306
I1
s(I39
S'AGC'
p5307
tp5308
I1
s(I49
S'GTC'
p5309
tp5310
I1
s(I64
S'AAA'
p5311
tp5312
I47
s(I12
S'TCC'
p5313
tp5314
I10
s(I65
S'TCA'
p5315
tp5316
I1
s(I3
S'AAA'
p5317
tp5318
I2
s(I54
S'ACC'
p5319
tp5320
I103
s(I3
S'CGG'
p5321
tp5322
I1
s(I12
S'GCT'
p5323
tp5324
I8
s(I21
S'TCG'
p5325
tp5326
I73
s(I38
S'GGG'
p5327
tp5328
I336
s(I49
S'CGC'
p5329
tp5330
I1
s(I24
S'GCG'
p5331
tp5332
I8
s(I37
S'TAC'
p5333
tp5334
I1
s(I28
S'AGG'
p5335
tp5336
I1
s(I49
S'GCC'
p5337
tp5338
I4305
s(I58
S'GAA'
p5339
tp5340
I12
s(I69
S'CCC'
p5341
tp5342
I29
s(I3
S'TGA'
p5343
tp5344
I4
s(I27
S'ACA'
p5345
tp5346
I5
s(I48
S'CTT'
p5347
tp5348
I3
s(I51
S'CCC'
p5349
tp5350
I319
s(I54
S'GTC'
p5351
tp5352
I45
s(I23
S'TCA'
p5353
tp5354
I30
s(I11
S'ATC'
p5355
tp5356
I10
s(I35
S'CTT'
p5357
tp5358
I89
s(I28
S'TCT'
p5359
tp5360
I64
s(I22
S'GGC'
p5361
tp5362
I10
s(I76
S'CGG'
p5363
tp5364
I2
s(I22
S'AGA'
p5365
tp5366
I34
s(I38
S'ACA'
p5367
tp5368
I127
s(I27
S'GTC'
p5369
tp5370
I5
s(I37
S'AGG'
p5371
tp5372
I52
s(I38
S'TTT'
p5373
tp5374
I12
s(I57
S'ACG'
p5375
tp5376
I26
s(I16
S'TGT'
p5377
tp5378
I70
s(I7
S'GAG'
p5379
tp5380
I204
s(I72
S'GCT'
p5381
tp5382
I202
s(I71
S'GTT'
p5383
tp5384
I7
s(I49
S'CAC'
p5385
tp5386
I817
s(I47
S'CGA'
p5387
tp5388
I1
s(I33
S'CCA'
p5389
tp5390
I4
s(I72
S'CAG'
p5391
tp5392
I232
s(I44
S'CGT'
p5393
tp5394
I2
s(I22
S'CGC'
p5395
tp5396
I26
s(I8
S'CCG'
p5397
tp5398
I3
s(I22
S'TAA'
p5399
tp5400
I2
s(I42
S'GAC'
p5401
tp5402
I1
s(I41
S'GAG'
p5403
tp5404
I2
s(I20
S'TGG'
p5405
tp5406
I102
s(I47
S'TAC'
p5407
tp5408
I6
s(I74
S'TGC'
p5409
tp5410
I2
s(I30
S'GAC'
p5411
tp5412
I1
s(I3
S'TGC'
p5413
tp5414
I265
s(I43
S'GCC'
p5415
tp5416
I1
s(I65
S'AGA'
p5417
tp5418
I29
s(I55
S'TAC'
p5419
tp5420
I139
s(I3
S'TAA'
p5421
tp5422
I1
s(I19
S'GAG'
p5423
tp5424
I82
s(I59
S'TCT'
p5425
tp5426
I32
s(I31
S'TCT'
p5427
tp5428
I193
s(I57
S'TTT'
p5429
tp5430
I84
s(I55
S'TCG'
p5431
tp5432
I160
s(I13
S'TCT'
p5433
tp5434
I2
s(I8
S'TTA'
p5435
tp5436
I4
s(I9
S'AGC'
p5437
tp5438
I246
s(I46
S'CTT'
p5439
tp5440
I35
s(I18
S'ACC'
p5441
tp5442
I103
s(I32
S'GCT'
p5443
tp5444
I34
s(I16
S'TCC'
p5445
tp5446
I23
s(I31
S'CCG'
p5447
tp5448
I3
s(I21
S'ACA'
p5449
tp5450
I7
s(I10
S'ACC'
p5451
tp5452
I2
s(I13
S'AGG'
p5453
tp5454
I145
s(I57
S'GTA'
p5455
tp5456
I13
s(I45
S'GTT'
p5457
tp5458
I6763
s(I21
S'TTC'
p5459
tp5460
I2
s(I55
S'TGC'
p5461
tp5462
I46
s(I19
S'ATT'
p5463
tp5464
I9
s(I25
S'GAT'
p5465
tp5466
I4
s(I64
S'GCT'
p5467
tp5468
I2769
s(I44
S'GTG'
p5469
tp5470
I4
s(I58
S'GGC'
p5471
tp5472
I127
s(I34
S'GAT'
p5473
tp5474
I144
s(I27
S'TAG'
p5475
tp5476
I7
s(I37
S'CTG'
p5477
tp5478
I88
s(I42
S'CTA'
p5479
tp5480
I6
s(I66
S'GGC'
p5481
tp5482
I2
s(I64
S'CGC'
p5483
tp5484
I115
s(I8
S'GAC'
p5485
tp5486
I1
s(I42
S'TGA'
p5487
tp5488
I6
s(I8
S'CAT'
p5489
tp5490
I1
s(I42
S'TAG'
p5491
tp5492
I71
s(I30
S'TTT'
p5493
tp5494
I175
s(I20
S'CCG'
p5495
tp5496
I58
s(I47
S'GGA'
p5497
tp5498
I38
s(I21
S'GGT'
p5499
tp5500
I20
s(I39
S'AAC'
p5501
tp5502
I2
s(I20
S'GTT'
p5503
tp5504
I44
s(I40
S'TAA'
p5505
tp5506
I1
s(I7
S'ATT'
p5507
tp5508
I58
s(I33
S'TTT'
p5509
tp5510
I10
s(I53
S'GAA'
p5511
tp5512
I7
s(I34
S'GCA'
p5513
tp5514
I4
s(I32
S'CGC'
p5515
tp5516
I43
s(I12
S'TCT'
p5517
tp5518
I43
s(I12
S'GCC'
p5519
tp5520
I1
s(I66
S'CCT'
p5521
tp5522
I224
s(I9
S'ACA'
p5523
tp5524
I124
s(I55
S'AGA'
p5525
tp5526
I3
s(I61
S'CTA'
p5527
tp5528
I509
s(I47
S'TTT'
p5529
tp5530
I1
s(I23
S'GGA'
p5531
tp5532
I1
s(I49
S'TTC'
p5533
tp5534
I2
s(I63
S'ACT'
p5535
tp5536
I64
s(I33
S'GTT'
p5537
tp5538
I8
s(I22
S'TCC'
p5539
tp5540
I84
s(I66
S'TAT'
p5541
tp5542
I21
s(I6
S'TGC'
p5543
tp5544
I654
s(I54
S'GTT'
p5545
tp5546
I63
s(I56
S'TAG'
p5547
tp5548
I3
s(I72
S'CTG'
p5549
tp5550
I6
s(I23
S'TAG'
p5551
tp5552
I1
s(I76
S'TCG'
p5553
tp5554
I3
s(I53
S'TTG'
p5555
tp5556
I77
s(I55
S'CTC'
p5557
tp5558
I3
s(I10
S'TCG'
p5559
tp5560
I20
s(I11
S'CGT'
p5561
tp5562
I7
s(I60
S'CTA'
p5563
tp5564
I15
s(I24
S'AAA'
p5565
tp5566
I1
s(I67
S'GGG'
p5567
tp5568
I729
s(I55
S'GGT'
p5569
tp5570
I3
s(I67
S'ATA'
p5571
tp5572
I146
s(I3
S'CCG'
p5573
tp5574
I4
s(I71
S'GCC'
p5575
tp5576
I5
s(I57
S'TGC'
p5577
tp5578
I32
s(I61
S'GGA'
p5579
tp5580
I8
s(I10
S'TCT'
p5581
tp5582
I194
s(I61
S'TCT'
p5583
tp5584
I1
s(I40
S'GGA'
p5585
tp5586
I178
s(I22
S'TGA'
p5587
tp5588
I2
s(I11
S'CGA'
p5589
tp5590
I10
s(I8
S'TGA'
p5591
tp5592
I40
s(I51
S'TCG'
p5593
tp5594
I19
s(I9
S'AAT'
p5595
tp5596
I1527
s(I44
S'CGC'
p5597
tp5598
I13
s(I8
S'CTT'
p5599
tp5600
I54
s(I15
S'ATT'
p5601
tp5602
I258
s(I25
S'TTC'
p5603
tp5604
I2
s(I62
S'CTC'
p5605
tp5606
I1556
s(I60
S'GGC'
p5607
tp5608
I34
s(I29
S'GCA'
p5609
tp5610
I89
s(I67
S'CTA'
p5611
tp5612
I100
s(I55
S'CGG'
p5613
tp5614
I44
s(I38
S'ATT'
p5615
tp5616
I9
s(I43
S'GTT'
p5617
tp5618
I31
s(I23
S'AGT'
p5619
tp5620
I7
s(I16
S'GGA'
p5621
tp5622
I92
s(I52
S'ACG'
p5623
tp5624
I21
s(I76
S'TCT'
p5625
tp5626
I2
s(I31
S'TCA'
p5627
tp5628
I30
s(I8
S'TTT'
p5629
tp5630
I1
s(I42
S'AAA'
p5631
tp5632
I8
s(I54
S'TCG'
p5633
tp5634
I49
s(I18
S'GGC'
p5635
tp5636
I103
s(I12
S'TTA'
p5637
tp5638
I1
s(I33
S'CTC'
p5639
tp5640
I7
s(I56
S'TGA'
p5641
tp5642
I4
s(I18
S'TTT'
p5643
tp5644
I108
s(I48
S'CCC'
p5645
tp5646
I1
s(I38
S'GCG'
p5647
tp5648
I113
s(I40
S'CTA'
p5649
tp5650
I635
s(I64
S'GGG'
p5651
tp5652
I334
s(I59
S'GCG'
p5653
tp5654
I648
s(I9
S'CGC'
p5655
tp5656
I31
s(I8
S'AGA'
p5657
tp5658
I1
s(I36
S'TAC'
p5659
tp5660
I1
s(I10
S'AGA'
p5661
tp5662
I14
s(I3
S'GAC'
p5663
tp5664
I1
s(I42
S'ACT'
p5665
tp5666
I7
s(I53
S'TCT'
p5667
tp5668
I50
s(I42
S'TCC'
p5669
tp5670
I1
s(I30
S'GGG'
p5671
tp5672
I1
s(I17
S'AAT'
p5673
tp5674
I121
s(I10
S'AAG'
p5675
tp5676
I17
s(I26
S'GCT'
p5677
tp5678
I1
s(I25
S'GAA'
p5679
tp5680
I17
s(I62
S'GCA'
p5681
tp5682
I661
s(I20
S'TTA'
p5683
tp5684
I60
s(I51
S'TTA'
p5685
tp5686
I79
s(I22
S'CCG'
p5687
tp5688
I104
s(I57
S'AAC'
p5689
tp5690
I25
s(I32
S'GGG'
p5691
tp5692
I1
s(I24
S'CCC'
p5693
tp5694
I152
s(I27
S'AAT'
p5695
tp5696
I1
s(I76
S'TGC'
p5697
tp5698
I1
s(I40
S'ATT'
p5699
tp5700
I29
s(I22
S'AAC'
p5701
tp5702
I109
s(I19
S'ACC'
p5703
tp5704
I56
s(I67
S'CTC'
p5705
tp5706
I12
s(I31
S'GCT'
p5707
tp5708
I1
s(I13
S'CTA'
p5709
tp5710
I49
s(I18
S'CTC'
p5711
tp5712
I56
s(I41
S'CCC'
p5713
tp5714
I2
s(I72
S'CTC'
p5715
tp5716
I10
s(I54
S'ACG'
p5717
tp5718
I24
s(I53
S'CAG'
p5719
tp5720
I1
s(I72
S'TGG'
p5721
tp5722
I7
s(I62
S'GAA'
p5723
tp5724
I329
s(I60
S'GTC'
p5725
tp5726
I149
s(I71
S'AAA'
p5727
tp5728
I1
s(I17
S'GCT'
p5729
tp5730
I41
s(I8
S'TAG'
p5731
tp5732
I1
s(I20
S'GCG'
p5733
tp5734
I483
s(I31
S'GTT'
p5735
tp5736
I250
s(I68
S'TCA'
p5737
tp5738
I2279
s(I62
S'CCT'
p5739
tp5740
I1311
s(I66
S'TTA'
p5741
tp5742
I2823
s(I4
S'CCA'
p5743
tp5744
I8
s(I54
S'GAG'
p5745
tp5746
I55
s(I10
S'AGG'
p5747
tp5748
I51
s(I65
S'CCG'
p5749
tp5750
I149
s(I76
S'CCC'
p5751
tp5752
I1
s(I14
S'TCG'
p5753
tp5754
I11
s(I38
S'GGC'
p5755
tp5756
I19
s(I14
S'CAC'
p5757
tp5758
I1
s(I11
S'GGC'
p5759
tp5760
I44
s(I71
S'ATA'
p5761
tp5762
I3
s(I63
S'AGC'
p5763
tp5764
I14
s(I36
S'GGC'
p5765
tp5766
I2
s(I58
S'AAT'
p5767
tp5768
I11
s(I13
S'GGA'
p5769
tp5770
I1
s(I21
S'TGC'
p5771
tp5772
I23
s(I61
S'TCC'
p5773
tp5774
I2
s(I29
S'AAC'
p5775
tp5776
I23
s(I36
S'GTG'
p5777
tp5778
I30
s(I60
S'GAA'
p5779
tp5780
I8
s(I25
S'TCA'
p5781
tp5782
I6
s(I42
S'GTC'
p5783
tp5784
I36
s(I19
S'AGT'
p5785
tp5786
I167
s(I7
S'GTA'
p5787
tp5788
I1
s(I37
S'AAC'
p5789
tp5790
I36
s(I51
S'ACA'
p5791
tp5792
I24
s(I70
S'AAG'
p5793
tp5794
I3
s(I25
S'AAG'
p5795
tp5796
I11
s(I68
S'CCT'
p5797
tp5798
I2
s(I9
S'GTG'
p5799
tp5800
I412
s(I63
S'CCA'
p5801
tp5802
I101
s(I27
S'CCG'
p5803
tp5804
I1
s(I27
S'CGG'
p5805
tp5806
I29
s(I45
S'AGA'
p5807
tp5808
I7
s(I19
S'CAA'
p5809
tp5810
I34
s(I24
S'CAA'
p5811
tp5812
I5
s(I75
S'GGC'
p5813
tp5814
I7
s(I14
S'GCG'
p5815
tp5816
I11
s(I35
S'AGG'
p5817
tp5818
I184
s(I62
S'TCT'
p5819
tp5820
I1698
s(I48
S'AGA'
p5821
tp5822
I5
s(I9
S'AAA'
p5823
tp5824
I1
s(I42
S'TTA'
p5825
tp5826
I1
s(I38
S'GTG'
p5827
tp5828
I6
s(I60
S'AGG'
p5829
tp5830
I33
s(I25
S'GGC'
p5831
tp5832
I17
s(I51
S'GCT'
p5833
tp5834
I8
s(I19
S'CGA'
p5835
tp5836
I338
s(I45
S'ATG'
p5837
tp5838
I3020
s(I11
S'TAA'
p5839
tp5840
I2
s(I35
S'ACC'
p5841
tp5842
I63
s(I30
S'ACT'
p5843
tp5844
I2
s(I71
S'TCG'
p5845
tp5846
I2
s(I47
S'TTG'
p5847
tp5848
I1
s(I51
S'TGG'
p5849
tp5850
I1
s(I50
S'GCG'
p5851
tp5852
I3
s(I14
S'GGA'
p5853
tp5854
I75
s(I68
S'GTA'
p5855
tp5856
I37
s(I43
S'CTG'
p5857
tp5858
I74
s(I2
S'TGC'
p5859
tp5860
I2
s(I53
S'TAG'
p5861
tp5862
I1
s(I38
S'TTA'
p5863
tp5864
I199
s(I60
S'TCC'
p5865
tp5866
I251
s(I44
S'TTT'
p5867
tp5868
I12
s(I12
S'TGC'
p5869
tp5870
I4
s(I68
S'TTC'
p5871
tp5872
I1
s(I32
S'CAT'
p5873
tp5874
I12
s(I42
S'ACC'
p5875
tp5876
I1
s(I66
S'ATC'
p5877
tp5878
I2
s(I26
S'ACA'
p5879
tp5880
I7
s(I17
S'AAA'
p5881
tp5882
I1
s(I64
S'CCA'
p5883
tp5884
I6
s(I29
S'GAC'
p5885
tp5886
I1
s(I11
S'AAT'
p5887
tp5888
I141
s(I69
S'ATC'
p5889
tp5890
I1
s(I42
S'CGC'
p5891
tp5892
I37
s(I51
S'TGA'
p5893
tp5894
I1
s(I13
S'ACT'
p5895
tp5896
I1
s(I26
S'GTC'
p5897
tp5898
I65
s(I52
S'GAT'
p5899
tp5900
I155
s(I7
S'CCC'
p5901
tp5902
I3993
s(I40
S'ATA'
p5903
tp5904
I24
s(I55
S'ATG'
p5905
tp5906
I121
s(I19
S'ACT'
p5907
tp5908
I117
s(I60
S'AGT'
p5909
tp5910
I65
s(I31
S'GCA'
p5911
tp5912
I256
s(I65
S'ATG'
p5913
tp5914
I171
s(I13
S'CTT'
p5915
tp5916
I63
s(I25
S'TAC'
p5917
tp5918
I336
s(I53
S'CGG'
p5919
tp5920
I42
s(I18
S'CTT'
p5921
tp5922
I54
s(I68
S'ACG'
p5923
tp5924
I202
s(I17
S'GAT'
p5925
tp5926
I1
s(I76
S'AGA'
p5927
tp5928
I2248
s(I29
S'CGA'
p5929
tp5930
I81
s(I14
S'CCC'
p5931
tp5932
I4
s(I62
S'TAC'
p5933
tp5934
I69
s(I6
S'CGC'
p5935
tp5936
I33
s(I31
S'ACC'
p5937
tp5938
I11
s(I39
S'ATT'
p5939
tp5940
I1
s(I40
S'TTG'
p5941
tp5942
I147
s(I42
S'GCA'
p5943
tp5944
I580
s(I33
S'TAT'
p5945
tp5946
I8
s(I61
S'GGC'
p5947
tp5948
I3
s(I55
S'GAA'
p5949
tp5950
I96
s(I59
S'GTA'
p5951
tp5952
I6
s(I15
S'CTC'
p5953
tp5954
I140
s(I44
S'TTC'
p5955
tp5956
I87
s(I45
S'GCG'
p5957
tp5958
I216
s(I8
S'GGT'
p5959
tp5960
I3
s(I54
S'CCT'
p5961
tp5962
I346
s(I48
S'GCA'
p5963
tp5964
I7
s(I67
S'TTG'
p5965
tp5966
I63
s(I14
S'AGA'
p5967
tp5968
I2
s(I29
S'AGT'
p5969
tp5970
I18
s(I56
S'CTT'
p5971
tp5972
I28
s(I27
S'GGC'
p5973
tp5974
I1
s(I33
S'ACA'
p5975
tp5976
I20
s(I29
S'AAT'
p5977
tp5978
I36
s(I55
S'CGT'
p5979
tp5980
I116
s(I57
S'CCC'
p5981
tp5982
I6
s(I8
S'AAG'
p5983
tp5984
I1
s(I63
S'GTA'
p5985
tp5986
I30
s(I61
S'GTT'
p5987
tp5988
I110
s(I72
S'GAC'
p5989
tp5990
I1
s(I71
S'TTC'
p5991
tp5992
I9
s(I47
S'TCA'
p5993
tp5994
I1095
s(I48
S'GTA'
p5995
tp5996
I1
s(I13
S'CAG'
p5997
tp5998
I15
s(I66
S'GCA'
p5999
tp6000
I57
s(I18
S'CAG'
p6001
tp6002
I59
s(I36
S'CAC'
p6003
tp6004
I11
s(I52
S'ATT'
p6005
tp6006
I78
s(I41
S'CAC'
p6007
tp6008
I39
s(I5
S'TTC'
p6009
tp6010
I140
s(I18
S'GAT'
p6011
tp6012
I13
s(I53
S'CTG'
p6013
tp6014
I30
s(I16
S'GGT'
p6015
tp6016
I47
s(I58
S'CTA'
p6017
tp6018
I3
s(I22
S'GCC'
p6019
tp6020
I511
s(I45
S'AAG'
p6021
tp6022
I13
s(I49
S'GCT'
p6023
tp6024
I1883
s(I58
S'TCC'
p6025
tp6026
I23
s(I5
S'TAG'
p6027
tp6028
I4
s(I6
S'GAT'
p6029
tp6030
I31
s(I47
S'GTG'
p6031
tp6032
I1
s(I46
S'CAT'
p6033
tp6034
I1536
s(I8
S'GCG'
p6035
tp6036
I1
s(I12
S'ACT'
p6037
tp6038
I13
s(I68
S'ATG'
p6039
tp6040
I19
s(I73
S'TCG'
p6041
tp6042
I2
s(I33
S'GCC'
p6043
tp6044
I3
s(I52
S'CTC'
p6045
tp6046
I1
s(I76
S'GGA'
p6047
tp6048
I115
s(I43
S'GGA'
p6049
tp6050
I1
s(I16
S'CGC'
p6051
tp6052
I64
s(I31
S'GGG'
p6053
tp6054
I192
s(I52
S'GTT'
p6055
tp6056
I25
s(I51
S'GTG'
p6057
tp6058
I41
s(I11
S'GCA'
p6059
tp6060
I1661
s(I4
S'TGG'
p6061
tp6062
I7
s(I6
S'ACA'
p6063
tp6064
I91
s(I64
S'ATC'
p6065
tp6066
I4
s(I40
S'GCG'
p6067
tp6068
I5
s(I65
S'ACC'
p6069
tp6070
I2
s(I38
S'CCT'
p6071
tp6072
I213
s(I65
S'GCC'
p6073
tp6074
I30
s(I40
S'CCT'
p6075
tp6076
I3
s(I33
S'GAT'
p6077
tp6078
I2
s(I21
S'TAA'
p6079
tp6080
I2
s(I25
S'ACG'
p6081
tp6082
I97
s(I36
S'TTA'
p6083
tp6084
I920
s(I26
S'TAT'
p6085
tp6086
I1
s(I55
S'AGG'
p6087
tp6088
I2
s(I17
S'GGT'
p6089
tp6090
I209
s(I7
S'GGG'
p6091
tp6092
I39
s(I63
S'AAC'
p6093
tp6094
I82
s(I18
S'CAT'
p6095
tp6096
I22
s(I17
S'CAC'
p6097
tp6098
I1
s(I25
S'CGG'
p6099
tp6100
I7
s(I71
S'AAG'
p6101
tp6102
I2
s(I67
S'GCG'
p6103
tp6104
I294
s(I40
S'CAG'
p6105
tp6106
I100
s(I65
S'GTA'
p6107
tp6108
I15
s(I19
S'CTA'
p6109
tp6110
I266
s(I48
S'TGC'
p6111
tp6112
I1
s(I24
S'CTG'
p6113
tp6114
I74
s(I20
S'CTA'
p6115
tp6116
I67
s(I13
S'ACA'
p6117
tp6118
I5
s(I37
S'ATC'
p6119
tp6120
I31
s(I3
S'GGC'
p6121
tp6122
I4
s(I6
S'GGT'
p6123
tp6124
I3689
s(I63
S'ATC'
p6125
tp6126
I66
s(I33
S'AGA'
p6127
tp6128
I38
s(I70
S'GCA'
p6129
tp6130
I1752
s(I19
S'CTC'
p6131
tp6132
I1
s(I67
S'TCA'
p6133
tp6134
I6
s(I14
S'AGT'
p6135
tp6136
I29
s(I69
S'CAC'
p6137
tp6138
I39167
s(I44
S'AAG'
p6139
tp6140
I14
s(I32
S'ACG'
p6141
tp6142
I41
s(I16
S'ATC'
p6143
tp6144
I1
s(I27
S'GCC'
p6145
tp6146
I6
s(I13
S'GCT'
p6147
tp6148
I226
s(I32
S'TTT'
p6149
tp6150
I22
s(I54
S'GGC'
p6151
tp6152
I133
s(I71
S'CAC'
p6153
tp6154
I11
s(I24
S'CGT'
p6155
tp6156
I8
s(I43
S'CAA'
p6157
tp6158
I8
s(I17
S'CTG'
p6159
tp6160
I8
s(I13
S'GTT'
p6161
tp6162
I1
s(I52
S'AAC'
p6163
tp6164
I66
s(I58
S'TAA'
p6165
tp6166
I4
s(I62
S'CCC'
p6167
tp6168
I581
s(I66
S'TAA'
p6169
tp6170
I2
s(I25
S'TGA'
p6171
tp6172
I2
s(I30
S'TAC'
p6173
tp6174
I43
s(I16
S'ACA'
p6175
tp6176
I80
s(I5
S'CTG'
p6177
tp6178
I62
s(I29
S'GGC'
p6179
tp6180
I42
s(I44
S'AAA'
p6181
tp6182
I24
s(I40
S'GAC'
p6183
tp6184
I200
s(I73
S'TTC'
p6185
tp6186
I1
s(I17
S'GTC'
p6187
tp6188
I87
s(I53
S'TAT'
p6189
tp6190
I4
s(I34
S'ATT'
p6191
tp6192
I4
s(I33
S'AAT'
p6193
tp6194
I1
s(I68
S'GAA'
p6195
tp6196
I5
s(I26
S'TAA'
p6197
tp6198
I11
s(I61
S'GCC'
p6199
tp6200
I6
s(I18
S'TAG'
p6201
tp6202
I22
s(I6
S'GAG'
p6203
tp6204
I17
s(I31
S'GTC'
p6205
tp6206
I213
s(I4
S'TAC'
p6207
tp6208
I27
s(I15
S'TAA'
p6209
tp6210
I8
s(I34
S'CCT'
p6211
tp6212
I1
s(I38
S'TGT'
p6213
tp6214
I90
s(I23
S'GAT'
p6215
tp6216
I1
s(I50
S'ATC'
p6217
tp6218
I180
s(I47
S'GCT'
p6219
tp6220
I70
s(I29
S'CTA'
p6221
tp6222
I128
s(I72
S'ATA'
p6223
tp6224
I4
s(I35
S'GAT'
p6225
tp6226
I11
s(I34
S'CTC'
p6227
tp6228
I1
s(I23
S'GTC'
p6229
tp6230
I46
s(I11
S'CCG'
p6231
tp6232
I100
s(I72
S'CGA'
p6233
tp6234
I89
s(I72
S'CCA'
p6235
tp6236
I14
s(I21
S'GCG'
p6237
tp6238
I14
s(I48
S'CGG'
p6239
tp6240
I8
s(I67
S'CCT'
p6241
tp6242
I27
s(I18
S'AGC'
p6243
tp6244
I102
s(I7
S'CCG'
p6245
tp6246
I952
s(I22
S'GTT'
p6247
tp6248
I10
s(I62
S'ATG'
p6249
tp6250
I957
s(I51
S'CGC'
p6251
tp6252
I2
s(I74
S'GAT'
p6253
tp6254
I1
s(I62
S'TAT'
p6255
tp6256
I383
s(I63
S'ACG'
p6257
tp6258
I2
s(I67
S'TAC'
p6259
tp6260
I23
s(I70
S'TAT'
p6261
tp6262
I2
s(I23
S'GCC'
p6263
tp6264
I4
s(I62
S'TTC'
p6265
tp6266
I56
s(I11
S'TTA'
p6267
tp6268
I28
s(I23
S'ACC'
p6269
tp6270
I89
s(I26
S'TGA'
p6271
tp6272
I19
s(I3
S'ATG'
p6273
tp6274
I53
s(I65
S'GCT'
p6275
tp6276
I650
s(I57
S'GGG'
p6277
tp6278
I107
s(I34
S'GGA'
p6279
tp6280
I75
s(I55
S'GCC'
p6281
tp6282
I4
s(I70
S'CCC'
p6283
tp6284
I3
s(I54
S'TGA'
p6285
tp6286
I6
s(I40
S'TGA'
p6287
tp6288
I9
s(I20
S'TAA'
p6289
tp6290
I5
s(I65
S'GTT'
p6291
tp6292
I493
s(I37
S'TTA'
p6293
tp6294
I22
s(I14
S'ATT'
p6295
tp6296
I3
s(I30
S'CTC'
p6297
tp6298
I38
s(I35
S'CTA'
p6299
tp6300
I148
s(I31
S'GAG'
p6301
tp6302
I1
s(I18
S'TAA'
p6303
tp6304
I3
s(I37
S'ACT'
p6305
tp6306
I132
s(I13
S'GCA'
p6307
tp6308
I189
s(I46
S'TGC'
p6309
tp6310
I480
s(I15
S'GAG'
p6311
tp6312
I12
s(I55
S'TAG'
p6313
tp6314
I3
s(I56
S'TGC'
p6315
tp6316
I25
s(I16
S'CCC'
p6317
tp6318
I139
s(I76
S'TTT'
p6319
tp6320
I1
s(I55
S'ACA'
p6321
tp6322
I217
s(I6
S'GCA'
p6323
tp6324
I123
s(I3
S'CGA'
p6325
tp6326
I4
s(I21
S'TCA'
p6327
tp6328
I200
s(I10
S'ACT'
p6329
tp6330
I4
s(I24
S'GCA'
p6331
tp6332
I18
s(I61
S'AAA'
p6333
tp6334
I6
s(I3
S'GTC'
p6335
tp6336
I26
s(I39
S'TGT'
p6337
tp6338
I2
s(I59
S'CTG'
p6339
tp6340
I1798
s(I32
S'GTG'
p6341
tp6342
I23
s(I34
S'TAC'
p6343
tp6344
I1
s(I28
S'TCC'
p6345
tp6346
I63
s(I55
S'TAT'
p6347
tp6348
I41
s(I46
S'GCA'
p6349
tp6350
I23
s(I39
S'CGC'
p6351
tp6352
I1
s(I34
S'CGG'
p6353
tp6354
I1
s(I68
S'GGA'
p6355
tp6356
I2
s(I7
S'GCG'
p6357
tp6358
I33
s(I42
S'TCA'
p6359
tp6360
I2
s(I75
S'CCC'
p6361
tp6362
I2
s(I55
S'TCT'
p6363
tp6364
I45
s(I70
S'CTT'
p6365
tp6366
I1053
s(I11
S'TCC'
p6367
tp6368
I192
s(I36
S'CCG'
p6369
tp6370
I42
s(I57
S'GCA'
p6371
tp6372
I142
s(I54
S'ATT'
p6373
tp6374
I22
s(I33
S'ATA'
p6375
tp6376
I5
s(I24
S'GGT'
p6377
tp6378
I2
s(I6
S'AAT'
p6379
tp6380
I1067
s(I62
S'GTA'
p6381
tp6382
I462
s(I28
S'AGC'
p6383
tp6384
I15
s(I15
S'ACT'
p6385
tp6386
I28
s(I24
S'TTG'
p6387
tp6388
I8
s(I33
S'CCG'
p6389
tp6390
I6
s(I46
S'AAA'
p6391
tp6392
I2
s(I42
S'CAT'
p6393
tp6394
I2198
s(I49
S'TGG'
p6395
tp6396
I3
s(I15
S'CGT'
p6397
tp6398
I2
s(I22
S'ATA'
p6399
tp6400
I52
s(I46
S'ACC'
p6401
tp6402
I2242
s(I7
S'GAC'
p6403
tp6404
I27
s(I9
S'GGG'
p6405
tp6406
I152
s(I57
S'AGA'
p6407
tp6408
I6
s(I5
S'TTG'
p6409
tp6410
I1
s(I34
S'CGA'
p6411
tp6412
I2
s(I73
S'AGG'
p6413
tp6414
I2
s(I15
S'TGC'
p6415
tp6416
I7
s(I52
S'ACT'
p6417
tp6418
I1
s(I62
S'GCC'
p6419
tp6420
I416
s(I75
S'ATA'
p6421
tp6422
I2
s(I49
S'GGA'
p6423
tp6424
I2292
s(I35
S'TAA'
p6425
tp6426
I1
s(I20
S'GTG'
p6427
tp6428
I263
s(I62
S'CAA'
p6429
tp6430
I120
s(I76
S'GAA'
p6431
tp6432
I7
s(I53
S'GAT'
p6433
tp6434
I62
s(I7
S'GTG'
p6435
tp6436
I41
s(I48
S'GAC'
p6437
tp6438
I12
s(I8
S'AGT'
p6439
tp6440
I16
s(I31
S'CCA'
p6441
tp6442
I2
s(I51
S'TTC'
p6443
tp6444
I30
s(I63
S'GCG'
p6445
tp6446
I5
s(I19
S'CCT'
p6447
tp6448
I20
s(I53
S'ACC'
p6449
tp6450
I49
s(I13
S'AGA'
p6451
tp6452
I21
s(I41
S'AAC'
p6453
tp6454
I21
s(I63
S'CAT'
p6455
tp6456
I82
s(I9
S'ACT'
p6457
tp6458
I107
s(I3
S'AGG'
p6459
tp6460
I1
s(I63
S'GGC'
p6461
tp6462
I3
s(I43
S'TGT'
p6463
tp6464
I3
s(I64
S'CAG'
p6465
tp6466
I405
s(I23
S'GGT'
p6467
tp6468
I11
s(I12
S'CTC'
p6469
tp6470
I2
s(I24
S'TAT'
p6471
tp6472
I28
s(I63
S'CGG'
p6473
tp6474
I37
s(I49
S'ACG'
p6475
tp6476
I127
s(I48
S'AGC'
p6477
tp6478
I2
s(I22
S'GTC'
p6479
tp6480
I34
s(I43
S'ATC'
p6481
tp6482
I31
s(I8
S'TAT'
p6483
tp6484
I1
s(I34
S'CAG'
p6485
tp6486
I11
s(I62
S'CGG'
p6487
tp6488
I143
s(I7
S'AGC'
p6489
tp6490
I41
s(I57
S'CAC'
p6491
tp6492
I264
s(I11
S'CTA'
p6493
tp6494
I5
s(I75
S'CTA'
p6495
tp6496
I1
s(I69
S'ACG'
p6497
tp6498
I5
s(I74
S'GAA'
p6499
tp6500
I6
s(I51
S'CGG'
p6501
tp6502
I2
s(I42
S'CTT'
p6503
tp6504
I1
s(I13
S'CCC'
p6505
tp6506
I1
s(I60
S'AAT'
p6507
tp6508
I7
s(I46
S'GCG'
p6509
tp6510
I211
s(I9
S'GCG'
p6511
tp6512
I96
s(I74
S'CGT'
p6513
tp6514
I51
s(I24
S'GTT'
p6515
tp6516
I23
s(I57
S'CGC'
p6517
tp6518
I10
s(I34
S'GCG'
p6519
tp6520
I4
s(I35
S'TGA'
p6521
tp6522
I1
s(I24
S'AGT'
p6523
tp6524
I31
s(I52
S'GTA'
p6525
tp6526
I5
s(I60
S'TTT'
p6527
tp6528
I19
s(I32
S'ATA'
p6529
tp6530
I10
s(I61
S'GGT'
p6531
tp6532
I3
s(I11
S'ATG'
p6533
tp6534
I49
s(I18
S'TCC'
p6535
tp6536
I88
s(I22
S'TGT'
p6537
tp6538
I46
s(I21
S'TGT'
p6539
tp6540
I92
s(I52
S'GGG'
p6541
tp6542
I3
s(I76
S'CTC'
p6543
tp6544
I1
s(I15
S'AAT'
p6545
tp6546
I1
s(I24
S'GCT'
p6547
tp6548
I19
s(I46
S'CGA'
p6549
tp6550
I787
s(I32
S'CCA'
p6551
tp6552
I73
s(I39
S'CAT'
p6553
tp6554
I118
s(I37
S'TCC'
p6555
tp6556
I90
s(I45
S'GAC'
p6557
tp6558
I14
s(I60
S'GGT'
p6559
tp6560
I127
s(I29
S'ACC'
p6561
tp6562
I12
s(I46
S'GCT'
p6563
tp6564
I3
s(I3
S'GTG'
p6565
tp6566
I247
s(I24
S'TGG'
p6567
tp6568
I3
s(I10
S'CAG'
p6569
tp6570
I5
s(I28
S'CAC'
p6571
tp6572
I7
s(I10
S'TCA'
p6573
tp6574
I80
s(I33
S'CAC'
p6575
tp6576
I26
s(I33
S'TCG'
p6577
tp6578
I12
s(I58
S'CGT'
p6579
tp6580
I19
s(I32
S'TAC'
p6581
tp6582
I15
s(I18
S'TTA'
p6583
tp6584
I457
s(I55
S'TTG'
p6585
tp6586
I23
s(I47
S'CGT'
p6587
tp6588
I1
s(I48
S'ATA'
p6589
tp6590
I2
s(I67
S'AAC'
p6591
tp6592
I53
s(I30
S'CCC'
p6593
tp6594
I1
s(I24
S'GGC'
p6595
tp6596
I3
s(I5
S'AAG'
p6597
tp6598
I1
s(I33
S'CGT'
p6599
tp6600
I27
s(I31
S'AAC'
p6601
tp6602
I44
s(I72
S'GAG'
p6603
tp6604
I1
s(I39
S'GTA'
p6605
tp6606
I3
s(I38
S'AGG'
p6607
tp6608
I128
s(I37
S'TTT'
p6609
tp6610
I119
s(I26
S'GCA'
p6611
tp6612
I3
s(I45
S'TTA'
p6613
tp6614
I5020
s(I46
S'TTC'
p6615
tp6616
I3975
s(I18
S'CCG'
p6617
tp6618
I43
s(I8
S'CCT'
p6619
tp6620
I4
s(I64
S'TGT'
p6621
tp6622
I728
s(I22
S'CCT'
p6623
tp6624
I462
s(I3
S'TGT'
p6625
tp6626
I957
s(I67
S'GTG'
p6627
tp6628
I9
s(I39
S'GCA'
p6629
tp6630
I12
s(I69
S'CAG'
p6631
tp6632
I9
s(I29
S'GCG'
p6633
tp6634
I78
s(I61
S'CCA'
p6635
tp6636
I18
s(I37
S'CGC'
p6637
tp6638
I54
s(I34
S'TTG'
p6639
tp6640
I2
s(I57
S'TTC'
p6641
tp6642
I103
s(I29
S'AGG'
p6643
tp6644
I128
s(I67
S'GAT'
p6645
tp6646
I1
s(I39
S'ACG'
p6647
tp6648
I8
s(I47
S'ACT'
p6649
tp6650
I80
s(I47
S'AGG'
p6651
tp6652
I3
s(I63
S'TAG'
p6653
tp6654
I1
s(I63
S'TCA'
p6655
tp6656
I67
s(I68
S'TAT'
p6657
tp6658
I5
s(I53
S'AGA'
p6659
tp6660
I3
s(I26
S'CTA'
p6661
tp6662
I109
s(I19
S'CCA'
p6663
tp6664
I37
s(I46
S'GTG'
p6665
tp6666
I224
s(I25
S'AGA'
p6667
tp6668
I10
s(I74
S'CAA'
p6669
tp6670
I1
s(I74
S'TCC'
p6671
tp6672
I1
s(I24
S'TAA'
p6673
tp6674
I4
s(I4
S'GCG'
p6675
tp6676
I1
s(I41
S'GTT'
p6677
tp6678
I15
s(I41
S'GTG'
p6679
tp6680
I30
s(I71
S'TAG'
p6681
tp6682
I1
s(I20
S'ACA'
p6683
tp6684
I44
s(I20
S'TCA'
p6685
tp6686
I424
s(I6
S'TCC'
p6687
tp6688
I407
s(I23
S'CGC'
p6689
tp6690
I3
s(I52
S'TAA'
p6691
tp6692
I1
s(I8
S'GGG'
p6693
tp6694
I2
s(I15
S'CCT'
p6695
tp6696
I2
s(I35
S'GTG'
p6697
tp6698
I4
s(I35
S'CAA'
p6699
tp6700
I8
s(I21
S'GGG'
p6701
tp6702
I23
s(I10
S'TTG'
p6703
tp6704
I4
s(I57
S'CGT'
p6705
tp6706
I209
s(I33
S'TTC'
p6707
tp6708
I28
s(I11
S'TGC'
p6709
tp6710
I23
s(I70
S'CGA'
p6711
tp6712
I1
s(I9
S'GTT'
p6713
tp6714
I136
s(I34
S'ACA'
p6715
tp6716
I1
s(I27
S'CAA'
p6717
tp6718
I2
s(I45
S'AGT'
p6719
tp6720
I1456
s(I44
S'ACG'
p6721
tp6722
I103
s(I39
S'TCA'
p6723
tp6724
I15
s(I71
S'ATG'
p6725
tp6726
I468
s(I3
S'ATA'
p6727
tp6728
I69
s(I48
S'TAG'
p6729
tp6730
I2
s(I50
S'GTT'
p6731
tp6732
I1482
s(I46
S'CGT'
p6733
tp6734
I603
s(I63
S'GAC'
p6735
tp6736
I20
s(I25
S'CCG'
p6737
tp6738
I1
s(I51
S'GCG'
p6739
tp6740
I14
s(I70
S'TTG'
p6741
tp6742
I14
s(I46
S'TCG'
p6743
tp6744
I1322
s(I45
S'CAA'
p6745
tp6746
I8412
s(I11
S'GTC'
p6747
tp6748
I1
s(I19
S'AAC'
p6749
tp6750
I27
s(I56
S'TCA'
p6751
tp6752
I34
s(I37
S'CCG'
p6753
tp6754
I29
s(I50
S'GCT'
p6755
tp6756
I1
s(I54
S'CGC'
p6757
tp6758
I141
s(I54
S'GCA'
p6759
tp6760
I125
s(I55
S'TTT'
p6761
tp6762
I29
s(I34
S'TCC'
p6763
tp6764
I41
s(I49
S'AAC'
p6765
tp6766
I665
s(I40
S'GTG'
p6767
tp6768
I6
s(I64
S'TTT'
p6769
tp6770
I54
s(I39
S'GTC'
p6771
tp6772
I4
s(I74
S'AAC'
p6773
tp6774
I1
s(I6
S'TCA'
p6775
tp6776
I471
s(I20
S'GAA'
p6777
tp6778
I234
s(I11
S'ACC'
p6779
tp6780
I124
s(I52
S'CGC'
p6781
tp6782
I1
s(I72
S'CAC'
p6783
tp6784
I2049
s(I48
S'TAC'
p6785
tp6786
I17
s(I48
S'TGA'
p6787
tp6788
I6
s(I27
S'CGA'
p6789
tp6790
I47
s(I46
S'CTC'
p6791
tp6792
I47
s(I51
S'CTA'
p6793
tp6794
I115
s(I37
S'AAA'
p6795
tp6796
I70
s(I12
S'CCA'
p6797
tp6798
I213
s(I17
S'TCC'
p6799
tp6800
I129
s(I0
S'WT'
p6801
tp6802
I33
s(I69
S'ATT'
p6803
tp6804
I13
s(I76
S'CAC'
p6805
tp6806
I1
s(I20
S'CGC'
p6807
tp6808
I508
s(I2
S'GGC'
p6809
tp6810
I1
s(I70
S'CCG'
p6811
tp6812
I4
s(I55
S'TGG'
p6813
tp6814
I8
s(I70
S'CTC'
p6815
tp6816
I691
s(I72
S'AAA'
p6817
tp6818
I62
s(I62
S'GAG'
p6819
tp6820
I48
s(I35
S'TCA'
p6821
tp6822
I12
s(I73
S'CCG'
p6823
tp6824
I2
s(I20
S'TAC'
p6825
tp6826
I8
s(I6
S'TTG'
p6827
tp6828
I14
s(I15
S'ATA'
p6829
tp6830
I243
s(I54
S'AGC'
p6831
tp6832
I2796
s(I28
S'TAC'
p6833
tp6834
I23
s(I14
S'GGG'
p6835
tp6836
I56
s(I11
S'CAG'
p6837
tp6838
I55
s(I46
S'GAG'
p6839
tp6840
I1130
s(I31
S'GTA'
p6841
tp6842
I41
s(I38
S'ATA'
p6843
tp6844
I62
s(I35
S'TTA'
p6845
tp6846
I87
s(I3
S'TGG'
p6847
tp6848
I2
s(I7
S'ACA'
p6849
tp6850
I126
s(I4
S'GGG'
p6851
tp6852
I5
s(I28
S'CTA'
p6853
tp6854
I24
s(I55
S'GAT'
p6855
tp6856
I80
s(I43
S'ACA'
p6857
tp6858
I5
s(I15
S'CTT'
p6859
tp6860
I20
s(I17
S'AAG'
p6861
tp6862
I4
s(I3
S'GAT'
p6863
tp6864
I1
s(I18
S'TGT'
p6865
tp6866
I131
s(I38
S'TTG'
p6867
tp6868
I22
s(I30
S'TCA'
p6869
tp6870
I7
s(I40
S'ACG'
p6871
tp6872
I51
s(I18
S'CGC'
p6873
tp6874
I198
s(I67
S'TTC'
p6875
tp6876
I1399
s(I72
S'ACC'
p6877
tp6878
I105
s(I58
S'GTA'
p6879
tp6880
I2
s(I70
S'TCC'
p6881
tp6882
I1
s(I17
S'GTG'
p6883
tp6884
I62
s(I31
S'ACG'
p6885
tp6886
I30
s(I70
S'CAG'
p6887
tp6888
I6
s(I67
S'CAA'
p6889
tp6890
I192
s(I75
S'CAG'
p6891
tp6892
I2
s(I67
S'CCG'
p6893
tp6894
I113
s(I2
S'TAG'
p6895
tp6896
I4
s(I61
S'GTA'
p6897
tp6898
I82
s(I27
S'GGT'
p6899
tp6900
I12
s(I35
S'GAC'
p6901
tp6902
I8
s(I48
S'GTT'
p6903
tp6904
I2
s(I29
S'CGG'
p6905
tp6906
I230
s(I57
S'TAC'
p6907
tp6908
I25
s(I6
S'GTG'
p6909
tp6910
I2346
s(I20
S'GGC'
p6911
tp6912
I32
s(I64
S'CAT'
p6913
tp6914
I293
s(I65
S'TAC'
p6915
tp6916
I196
s(I20
S'GCT'
p6917
tp6918
I46
s(I42
S'GCG'
p6919
tp6920
I7
s(I28
S'GGC'
p6921
tp6922
I43
s(I34
S'GTA'
p6923
tp6924
I3
s(I38
S'CCC'
p6925
tp6926
I169
s(I2
S'TCA'
p6927
tp6928
I1
s(I61
S'ACA'
p6929
tp6930
I4
s(I39
S'TCT'
p6931
tp6932
I3
s(I72
S'TTG'
p6933
tp6934
I2
s(I27
S'CGT'
p6935
tp6936
I79
s(I50
S'GTA'
p6937
tp6938
I49
s(I62
S'AAC'
p6939
tp6940
I57
s(I63
S'GAT'
p6941
tp6942
I27
s(I31
S'CAT'
p6943
tp6944
I17
s(I60
S'GAC'
p6945
tp6946
I329
s(I75
S'AAC'
p6947
tp6948
I4
s(I38
S'GAT'
p6949
tp6950
I186
s(I29
S'CAG'
p6951
tp6952
I107
s(I16
S'CGT'
p6953
tp6954
I58
s(I76
S'TTC'
p6955
tp6956
I1
s(I34
S'ACC'
p6957
tp6958
I1
s(I73
S'CGT'
p6959
tp6960
I2
s(I15
S'TCT'
p6961
tp6962
I7
s(I11
S'GCT'
p6963
tp6964
I842
s(I58
S'AGT'
p6965
tp6966
I15
s(I37
S'GAC'
p6967
tp6968
I9
s(I5
S'ACT'
p6969
tp6970
I16
s(I54
S'GCT'
p6971
tp6972
I244
s(I36
S'TTT'
p6973
tp6974
I5
s(I63
S'CTG'
p6975
tp6976
I98
s(I28
S'CTC'
p6977
tp6978
I460
s(I31
S'TTT'
p6979
tp6980
I50
s(I17
S'GGC'
p6981
tp6982
I60
s(I35
S'TCC'
p6983
tp6984
I58
s(I48
S'CTA'
p6985
tp6986
I3
s(I76
S'ACT'
p6987
tp6988
I2
s(I42
S'GGC'
p6989
tp6990
I56
s(I41
S'ACC'
p6991
tp6992
I6
s(I43
S'TAG'
p6993
tp6994
I2
s(I16
S'AAA'
p6995
tp6996
I7
s(I65
S'TTT'
p6997
tp6998
I22
s(I71
S'TGT'
p6999
tp7000
I3
s(I8
S'GCA'
p7001
tp7002
I3
s(I37
S'ATT'
p7003
tp7004
I89
s(I27
S'CTG'
p7005
tp7006
I49
s(I35
S'TGG'
p7007
tp7008
I24
s(I41
S'CGC'
p7009
tp7010
I2
s(I45
S'TAG'
p7011
tp7012
I2
s(I31
S'GGA'
p7013
tp7014
I336
s(I6
S'TAA'
p7015
tp7016
I4
s(I28
S'TTA'
p7017
tp7018
I61
s(I15
S'CGG'
p7019
tp7020
I1
s(I19
S'TGG'
p7021
tp7022
I22
s(I22
S'CTG'
p7023
tp7024
I15
s(I73
S'GGT'
p7025
tp7026
I2
s(I52
S'TTC'
p7027
tp7028
I8
s(I51
S'ATA'
p7029
tp7030
I19
s(I40
S'GCA'
p7031
tp7032
I10
s(I75
S'TTG'
p7033
tp7034
I1
s(I9
S'CCT'
p7035
tp7036
I4224
s(I59
S'CTT'
p7037
tp7038
I2180
s(I28
S'CGA'
p7039
tp7040
I17
s(I43
S'CTT'
p7041
tp7042
I6
s(I10
S'GAG'
p7043
tp7044
I38
s(I25
S'ACA'
p7045
tp7046
I195
s(I61
S'CAT'
p7047
tp7048
I2
s(I48
S'TTA'
p7049
tp7050
I5
s(I7
S'GGA'
p7051
tp7052
I16137
s(I74
S'ACT'
p7053
tp7054
I3
s(I67
S'GTA'
p7055
tp7056
I115
s(I65
S'CTC'
p7057
tp7058
I534
s(I40
S'GTA'
p7059
tp7060
I5
s(I58
S'TAT'
p7061
tp7062
I6
s(I21
S'CAG'
p7063
tp7064
I6
s(I67
S'GTT'
p7065
tp7066
I18
s(I61
S'TAA'
p7067
tp7068
I1
s(I9
S'TAC'
p7069
tp7070
I5
s(I61
S'ATG'
p7071
tp7072
I799
s(I72
S'TCC'
p7073
tp7074
I70
s(I14
S'ACC'
p7075
tp7076
I1
s(I17
S'TAC'
p7077
tp7078
I47
s(I11
S'ACG'
p7079
tp7080
I90
s(I23
S'TCC'
p7081
tp7082
I1
s(I45
S'TGG'
p7083
tp7084
I586
s(I54
S'TTC'
p7085
tp7086
I22
s(I73
S'GCA'
p7087
tp7088
I2
s(I14
S'CGC'
p7089
tp7090
I6
s(I32
S'TAG'
p7091
tp7092
I9
s(I57
S'ATC'
p7093
tp7094
I26
s(I74
S'TAG'
p7095
tp7096
I1
s(I65
S'ATT'
p7097
tp7098
I59
s(I77
S'TGT'
p7099
tp7100
I61
s(I37
S'GGA'
p7101
tp7102
I38
s(I33
S'AAC'
p7103
tp7104
I2
s(I41
S'TGC'
p7105
tp7106
I46
s(I45
S'GGA'
p7107
tp7108
I26
s(I5
S'GCC'
p7109
tp7110
I2
s(I7
S'CTC'
p7111
tp7112
I31
s(I73
S'GTG'
p7113
tp7114
I1059
s(I23
S'CAT'
p7115
tp7116
I27
s(I60
S'CCC'
p7117
tp7118
I1
s(I46
S'ATC'
p7119
tp7120
I47
s(I40
S'AGT'
p7121
tp7122
I17
s(I56
S'ATC'
p7123
tp7124
I172
s(I42
S'AGC'
p7125
tp7126
I2
s(I38
S'TGG'
p7127
tp7128
I87
s(I29
S'AGA'
p7129
tp7130
I7
s(I47
S'GCG'
p7131
tp7132
I125
s(I69
S'GCT'
p7133
tp7134
I1
s(I5
S'GTA'
p7135
tp7136
I33
s(I35
S'CCG'
p7137
tp7138
I59
s(I17
S'ACG'
p7139
tp7140
I14
s(I19
S'TGA'
p7141
tp7142
I1
s(I65
S'GAG'
p7143
tp7144
I94
s(I73
S'TGA'
p7145
tp7146
I3
s(I20
S'CAC'
p7147
tp7148
I39
s(I25
S'CAC'
p7149
tp7150
I10
s(I48
S'TCC'
p7151
tp7152
I13
s(I48
S'ACT'
p7153
tp7154
I6
s(I24
S'CAC'
p7155
tp7156
I1
s(I70
S'TAC'
p7157
tp7158
I1
s(I64
S'TAC'
p7159
tp7160
I2
s(I68
S'ACT'
p7161
tp7162
I58
s(I5
S'ACA'
p7163
tp7164
I14
s(I42
S'CCA'
p7165
tp7166
I2
s(I36
S'GCA'
p7167
tp7168
I1
s(I64
S'ACC'
p7169
tp7170
I1315
s(I52
S'TCG'
p7171
tp7172
I9
s(I51
S'TGC'
p7173
tp7174
I9
s(I70
S'AAA'
p7175
tp7176
I14
s(I53
S'TTA'
p7177
tp7178
I53
s(I53
S'AAG'
p7179
tp7180
I4
s(I36
S'CAT'
p7181
tp7182
I1
s(I48
S'TTC'
p7183
tp7184
I3
s(I24
S'ACG'
p7185
tp7186
I34
s(I25
S'ATG'
p7187
tp7188
I16
s(I54
S'TGT'
p7189
tp7190
I1
s(I51
S'TAT'
p7191
tp7192
I71
s(I44
S'CTC'
p7193
tp7194
I264
s(I64
S'AGG'
p7195
tp7196
I225
s(I26
S'TTA'
p7197
tp7198
I30
s(I36
S'CCC'
p7199
tp7200
I85
s(I22
S'GAA'
p7201
tp7202
I128
s(I33
S'GGG'
p7203
tp7204
I4
s(I73
S'CGG'
p7205
tp7206
I3
s(I8
S'CTC'
p7207
tp7208
I65
s(I68
S'TTT'
p7209
tp7210
I7
s(I44
S'GCA'
p7211
tp7212
I21
s(I51
S'CAA'
p7213
tp7214
I78
s(I48
S'CGA'
p7215
tp7216
I2
s(I5
S'GAG'
p7217
tp7218
I18
s(I41
S'CCG'
p7219
tp7220
I1
s(I73
S'TCT'
p7221
tp7222
I4
s(I64
S'TTG'
p7223
tp7224
I68
s(I14
S'ATG'
p7225
tp7226
I3
s(I69
S'TTA'
p7227
tp7228
I12
s(I41
S'ATT'
p7229
tp7230
I18
s(I51
S'GTT'
p7231
tp7232
I415
s(I61
S'AGT'
p7233
tp7234
I5
s(I32
S'ATT'
p7235
tp7236
I27
s(I2
S'GAC'
p7237
tp7238
I2
s(I3
S'ACT'
p7239
tp7240
I14
s(I47
S'CCC'
p7241
tp7242
I1
s(I16
S'GTT'
p7243
tp7244
I19
s(I62
S'GGC'
p7245
tp7246
I457
s(I40
S'AAC'
p7247
tp7248
I76
s(I43
S'TGC'
p7249
tp7250
I10
s(I63
S'GTC'
p7251
tp7252
I49
s(I16
S'CTG'
p7253
tp7254
I6
s(I26
S'TAG'
p7255
tp7256
I20
s(I26
S'ATT'
p7257
tp7258
I39
s(I66
S'GTG'
p7259
tp7260
I46
s(I37
S'CTC'
p7261
tp7262
I8
s(I6
S'AGG'
p7263
tp7264
I2
s(I7
S'TAG'
p7265
tp7266
I3
s(I17
S'GAG'
p7267
tp7268
I3
s(I21
S'AGA'
p7269
tp7270
I1
s(I39
S'TGA'
p7271
tp7272
I4
s(I13
S'ACC'
p7273
tp7274
I2
s(I41
S'AGC'
p7275
tp7276
I64
s(I58
S'ACC'
p7277
tp7278
I60
s(I10
S'GCA'
p7279
tp7280
I8
s(I55
S'GTG'
p7281
tp7282
I73
s(I69
S'AAA'
p7283
tp7284
I4
s(I17
S'TTA'
p7285
tp7286
I27
s(I35
S'TTT'
p7287
tp7288
I5
s(I15
S'GTC'
p7289
tp7290
I102
s(I13
S'GCG'
p7291
tp7292
I105
s(I23
S'AGC'
p7293
tp7294
I9
s(I73
S'GAT'
p7295
tp7296
I32
s(I28
S'ATG'
p7297
tp7298
I241
s(I51
S'GGC'
p7299
tp7300
I128
s(I68
S'ACA'
p7301
tp7302
I13
s(I5
S'ATG'
p7303
tp7304
I54
s(I31
S'ATG'
p7305
tp7306
I7
s(I49
S'AGG'
p7307
tp7308
I1
s(I16
S'TAT'
p7309
tp7310
I2
s(I15
S'GCC'
p7311
tp7312
I13
s(I62
S'GAC'
p7313
tp7314
I43
s(I62
S'GTT'
p7315
tp7316
I3754
s(I26
S'CCG'
p7317
tp7318
I39
s(I15
S'ACC'
p7319
tp7320
I15
s(I16
S'TAA'
p7321
tp7322
I6
s(I24
S'TTT'
p7323
tp7324
I17
s(I37
S'CAA'
p7325
tp7326
I163
s(I69
S'GCA'
p7327
tp7328
I719
s(I42
S'CAA'
p7329
tp7330
I31
s(I74
S'AGT'
p7331
tp7332
I2
s(I9
S'CAC'
p7333
tp7334
I1290
s(I73
S'CTG'
p7335
tp7336
I31
s(I65
S'CTA'
p7337
tp7338
I25
s(I9
S'TCG'
p7339
tp7340
I2
s(I32
S'CAG'
p7341
tp7342
I8
s(I32
S'GTA'
p7343
tp7344
I3
s(I52
S'CCG'
p7345
tp7346
I59
s(I54
S'TTG'
p7347
tp7348
I3
s(I40
S'GAT'
p7349
tp7350
I56
s(I59
S'TGT'
p7351
tp7352
I554
s(I58
S'AGG'
p7353
tp7354
I27
s(I53
S'TGC'
p7355
tp7356
I30
s(I36
S'TCA'
p7357
tp7358
I1
s(I32
S'GCC'
p7359
tp7360
I6
s(I42
S'CCT'
p7361
tp7362
I1
s(I46
S'CCA'
p7363
tp7364
I2
s(I35
S'AAG'
p7365
tp7366
I56
s(I19
S'ATG'
p7367
tp7368
I63
s(I17
S'CCT'
p7369
tp7370
I7
s(I69
S'TGC'
p7371
tp7372
I103
s(I39
S'GAG'
p7373
tp7374
I3
s(I33
S'GGT'
p7375
tp7376
I4
s(I3
S'CCT'
p7377
tp7378
I1
s(I63
S'CAC'
p7379
tp7380
I13
s(I68
S'GAT'
p7381
tp7382
I15
s(I51
S'TAC'
p7383
tp7384
I7
s(I46
S'AAG'
p7385
tp7386
I23
s(I23
S'GAG'
p7387
tp7388
I2
s(I64
S'GCC'
p7389
tp7390
I4698
s.